--- WebAssembly code ---
name: __vfprintf_internal
index: 21
kind: wasm function
compiler: Liftoff
Body (size = 1024 = 1008 + 16 padding)
Instructions (size = 996)
0x280b681867c0     0  55                   push rbp
0x280b681867c1     1  4889e5               REX.W movq rbp,rsp
0x280b681867c4     4  6a08                 push 0x8
0x280b681867c6     6  56                   push rsi
0x280b681867c7     7  4881ec48000000       REX.W subq rsp,0x48
0x280b681867ce     e  48c745b400000000     REX.W movq [rbp-0x4c],0x0
0x280b681867d6    16  48c745bc00000000     REX.W movq [rbp-0x44],0x0
0x280b681867de    1e  488b7e27             REX.W movq rdi,[rsi+0x27]
0x280b681867e2    22  483b27               REX.W cmpq rsp,[rdi]
0x280b681867e5    25  0f8626030000         jna 0x280b68186b11  <+0x351>
0x280b681867eb    2b  488b7e47             REX.W movq rdi,[rsi+0x47]
0x280b681867ef    2f  8b37                 movl rsi,[rdi]
0x280b681867f1    31  bfd0000000           movl rdi,0xd0
0x280b681867f6    36  2bf7                 subl rsi,rdi
0x280b681867f8    38  488b7df0             REX.W movq rdi,[rbp-0x10]
0x280b681867fc    3c  488b7f47             REX.W movq rdi,[rdi+0x47]
0x280b68186800    40  8937                 movl [rdi],rsi
0x280b68186802    42  488b7df0             REX.W movq rdi,[rbp-0x10]
0x280b68186806    46  488b7f17             REX.W movq rdi,[rdi+0x17]
0x280b6818680a    4a  898c37cc000000       movl [rdi+rsi*1+0xcc],rcx
0x280b68186811    51  8dbea0000000         leal rdi,[rsi+0xa0]
0x280b68186817    57  8975c0               movl [rbp-0x40],rsi
0x280b6818681a    5a  44894dc4             movl [rbp-0x3c],r9
0x280b6818681e    5e  895dc8               movl [rbp-0x38],rbx
0x280b68186821    61  894dcc               movl [rbp-0x34],rcx
0x280b68186824    64  8955d0               movl [rbp-0x30],rdx
0x280b68186827    67  8945d4               movl [rbp-0x2c],rax
0x280b6818682a    6a  8bc7                 movl rax,rdi
0x280b6818682c    6c  b928000000           movl rcx,0x28
0x280b68186831    71  33d2                 xorl rdx,rdx
0x280b68186833    73  488b75f0             REX.W movq rsi,[rbp-0x10]
0x280b68186837    77  e8e7f7ffff           call 0x280b68186023  (jump table)
0x280b6818683c    7c  8b45c0               movl rax,[rbp-0x40]
0x280b6818683f    7f  8b4dc0               movl rcx,[rbp-0x40]
0x280b68186842    82  488b75f0             REX.W movq rsi,[rbp-0x10]
0x280b68186846    86  488b5617             REX.W movq rdx,[rsi+0x17]
0x280b6818684a    8a  8b9c0acc000000       movl rbx,[rdx+rcx*1+0xcc]
0x280b68186851    91  899c02c8000000       movl [rdx+rax*1+0xc8],rbx
0x280b68186858    98  8b45d0               movl rax,[rbp-0x30]
0x280b6818685b    9b  8b4dc0               movl rcx,[rbp-0x40]
0x280b6818685e    9e  81c1c8000000         addl rcx,0xc8
0x280b68186864    a4  8b5dc0               movl rbx,[rbp-0x40]
0x280b68186867    a7  83c350               addl rbx,0x50
0x280b6818686a    aa  8b7dc0               movl rdi,[rbp-0x40]
0x280b6818686d    ad  81c7a0000000         addl rdi,0xa0
0x280b68186873    b3  448b4dc8             movl r9,[rbp-0x38]
0x280b68186877    b7  8b75c4               movl rsi,[rbp-0x3c]
0x280b6818687a    ba  56                   push rsi
0x280b6818687b    bb  4151                 push r9
0x280b6818687d    bd  8bd0                 movl rdx,rax
0x280b6818687f    bf  448bcf               movl r9,rdi
0x280b68186882    c2  33c0                 xorl rax,rax
0x280b68186884    c4  488b75f0             REX.W movq rsi,[rbp-0x10]
0x280b68186888    c8  e8d1f7ffff           call 0x280b6818605e  (jump table)
0x280b6818688d    cd  83f800               cmpl rax,0x0
0x280b68186890    d0  0f8d0a000000         jge 0x280b681868a0  <+0xe0>
0x280b68186896    d6  b8ffffffff           movl rax,0xffffffff
0x280b6818689b    db  e959020000           jmp 0x280b68186af9  <+0x339>
0x280b681868a0    e0  8b45d4               movl rax,[rbp-0x2c]
0x280b681868a3    e3  488b75f0             REX.W movq rsi,[rbp-0x10]
0x280b681868a7    e7  488b4e17             REX.W movq rcx,[rsi+0x17]
0x280b681868ab    eb  8b54014c             movl rdx,[rcx+rax*1+0x4c]
0x280b681868af    ef  83fa00               cmpl rdx,0x0
0x280b681868b2    f2  0f8c14000000         jl 0x280b681868cc  <+0x10c>
0x280b681868b8    f8  8b45d4               movl rax,[rbp-0x2c]
0x280b681868bb    fb  488b75f0             REX.W movq rsi,[rbp-0x10]
0x280b681868bf    ff  e864f7ffff           call 0x280b68186028  (jump table)
0x280b681868c4   104  8945bc               movl [rbp-0x44],rax
0x280b681868c7   107  e900000000           jmp 0x280b681868cc  <+0x10c>
0x280b681868cc   10c  8b45d4               movl rax,[rbp-0x2c]
0x280b681868cf   10f  488b75f0             REX.W movq rsi,[rbp-0x10]
0x280b681868d3   113  488b4e17             REX.W movq rcx,[rsi+0x17]
0x280b681868d7   117  8b1401               movl rdx,[rcx+rax*1]
0x280b681868da   11a  8b45d4               movl rax,[rbp-0x2c]
0x280b681868dd   11d  8b5c0148             movl rbx,[rcx+rax*1+0x48]
0x280b681868e1   121  83fb00               cmpl rbx,0x0
0x280b681868e4   124  0f8f10000000         jg 0x280b681868fa  <+0x13a>
0x280b681868ea   12a  8b45d4               movl rax,[rbp-0x2c]
0x280b681868ed   12d  8bda                 movl rbx,rdx
0x280b681868ef   12f  83e3df               andl rbx,0xdf
0x280b681868f2   132  891c01               movl [rcx+rax*1],rbx
0x280b681868f5   135  e900000000           jmp 0x280b681868fa  <+0x13a>
0x280b681868fa   13a  8b45d4               movl rax,[rbp-0x2c]
0x280b681868fd   13d  8b5c0130             movl rbx,[rcx+rax*1+0x30]
0x280b68186901   141  85db                 testl rbx,rbx
0x280b68186903   143  0f8535000000         jnz 0x280b6818693e  <+0x17e>
0x280b68186909   149  8b45d4               movl rax,[rbp-0x2c]
0x280b6818690c   14c  bb50000000           movl rbx,0x50
0x280b68186911   151  895c0130             movl [rcx+rax*1+0x30],rbx
0x280b68186915   155  8b45d4               movl rax,[rbp-0x2c]
0x280b68186918   158  33db                 xorl rbx,rbx
0x280b6818691a   15a  895c011c             movl [rcx+rax*1+0x1c],rbx
0x280b6818691e   15e  8b45d4               movl rax,[rbp-0x2c]
0x280b68186921   161  33db                 xorl rbx,rbx
0x280b68186923   163  48895c0110           REX.W movq [rcx+rax*1+0x10],rbx
0x280b68186928   168  8b45d4               movl rax,[rbp-0x2c]
0x280b6818692b   16b  8b5c012c             movl rbx,[rcx+rax*1+0x2c]
0x280b6818692f   16f  8b45d4               movl rax,[rbp-0x2c]
0x280b68186932   172  8b7dc0               movl rdi,[rbp-0x40]
0x280b68186935   175  897c012c             movl [rcx+rax*1+0x2c],rdi
0x280b68186939   179  e917000000           jmp 0x280b68186955  <+0x195>
0x280b6818693e   17e  8b45d4               movl rax,[rbp-0x2c]
0x280b68186941   181  8b5c0110             movl rbx,[rcx+rax*1+0x10]
0x280b68186945   185  85db                 testl rbx,rbx
0x280b68186947   187  0f8405000000         jz 0x280b68186952  <+0x192>
0x280b6818694d   18d  e932000000           jmp 0x280b68186984  <+0x1c4>
0x280b68186952   192  8b5db8               movl rbx,[rbp-0x48]
0x280b68186955   195  8b45d4               movl rax,[rbp-0x2c]
0x280b68186958   198  8955b4               movl [rbp-0x4c],rdx
0x280b6818695b   19b  895db8               movl [rbp-0x48],rbx
0x280b6818695e   19e  488b75f0             REX.W movq rsi,[rbp-0x10]
0x280b68186962   1a2  e8cbf6ffff           call 0x280b68186032  (jump table)
0x280b68186967   1a7  b9ffffffff           movl rcx,0xffffffff
0x280b6818696c   1ac  85c0                 testl rax,rax
0x280b6818696e   1ae  0f840a000000         jz 0x280b6818697e  <+0x1be>
0x280b68186974   1b4  b8ffffffff           movl rax,0xffffffff
0x280b68186979   1b9  e94c000000           jmp 0x280b681869ca  <+0x20a>
0x280b6818697e   1be  894dcc               movl [rbp-0x34],rcx
0x280b68186981   1c1  8b55b4               movl rdx,[rbp-0x4c]
0x280b68186984   1c4  8b45d4               movl rax,[rbp-0x2c]
0x280b68186987   1c7  8b4dd0               movl rcx,[rbp-0x30]
0x280b6818698a   1ca  8b5dc0               movl rbx,[rbp-0x40]
0x280b6818698d   1cd  81c3c8000000         addl rbx,0xc8
0x280b68186993   1d3  8b75c0               movl rsi,[rbp-0x40]
0x280b68186996   1d6  83c650               addl rsi,0x50
0x280b68186999   1d9  8b7dc0               movl rdi,[rbp-0x40]
0x280b6818699c   1dc  81c7a0000000         addl rdi,0xa0
0x280b681869a2   1e2  448b4dc8             movl r9,[rbp-0x38]
0x280b681869a6   1e6  8945b0               movl [rbp-0x50],rax
0x280b681869a9   1e9  8b45c4               movl rax,[rbp-0x3c]
0x280b681869ac   1ec  8955b4               movl [rbp-0x4c],rdx
0x280b681869af   1ef  50                   push rax
0x280b681869b0   1f0  4151                 push r9
0x280b681869b2   1f2  8bd1                 movl rdx,rcx
0x280b681869b4   1f4  8bcb                 movl rcx,rbx
0x280b681869b6   1f6  8bde                 movl rbx,rsi
0x280b681869b8   1f8  448bcf               movl r9,rdi
0x280b681869bb   1fb  8b45b0               movl rax,[rbp-0x50]
0x280b681869be   1fe  488b75f0             REX.W movq rsi,[rbp-0x10]
0x280b681869c2   202  e897f6ffff           call 0x280b6818605e  (jump table)
0x280b681869c7   207  8b4dcc               movl rcx,[rbp-0x34]
0x280b681869ca   20a  8b4db4               movl rcx,[rbp-0x4c]
0x280b681869cd   20d  83e120               andl rcx,0x20
0x280b681869d0   210  8b55b8               movl rdx,[rbp-0x48]
0x280b681869d3   213  85d2                 testl rdx,rdx
0x280b681869d5   215  0f84c0000000         jz 0x280b68186a9b  <+0x2db>
0x280b681869db   21b  8b55d4               movl rdx,[rbp-0x2c]
0x280b681869de   21e  8b5dd4               movl rbx,[rbp-0x2c]
0x280b681869e1   221  488b7df0             REX.W movq rdi,[rbp-0x10]
0x280b681869e5   225  488b7717             REX.W movq rsi,[rdi+0x17]
0x280b681869e9   229  448b4c1e24           movl r9,[rsi+rbx*1+0x24]
0x280b681869ee   22e  488b7df0             REX.W movq rdi,[rbp-0x10]
0x280b681869f2   232  8b7f13               movl rdi,[rdi+0x13]
0x280b681869f5   235  443bcf               cmpl r9,rdi
0x280b681869f8   238  0f8378010000         jnc 0x280b68186b76  <+0x3b6>
0x280b681869fe   23e  488b5df0             REX.W movq rbx,[rbp-0x10]
0x280b68186a02   242  488b5b3f             REX.W movq rbx,[rbx+0x3f]
0x280b68186a06   246  41c1e102             shll r9, 2
0x280b68186a0a   24a  428b340b             movl rsi,[rbx+r9*1]
0x280b68186a0e   24e  33ff                 xorl rdi,rdi
0x280b68186a10   250  483bf7               REX.W cmpq rsi,rdi
0x280b68186a13   253  0f8562010000         jnz 0x280b68186b7b  <+0x3bb>
0x280b68186a19   259  488b5df0             REX.W movq rbx,[rbp-0x10]
0x280b68186a1d   25d  8b5b0f               movl rbx,[rbx+0xf]
0x280b68186a20   260  4903de               REX.W addq rbx,r14
0x280b68186a23   263  428b7c0b07           movl rdi,[rbx+r9*1+0x7]
0x280b68186a28   268  4903fe               REX.W addq rdi,r14
0x280b68186a2b   26b  4503c9               addl r9,r9
0x280b68186a2e   26e  488b5df0             REX.W movq rbx,[rbp-0x10]
0x280b68186a32   272  488b5b37             REX.W movq rbx,[rbx+0x37]
0x280b68186a36   276  4a8b340b             REX.W movq rsi,[rbx+r9*1]
0x280b68186a3a   27a  8945cc               movl [rbp-0x34],rax
0x280b68186a3d   27d  894dd0               movl [rbp-0x30],rcx
0x280b68186a40   280  8bc2                 movl rax,rdx
0x280b68186a42   282  488bde               REX.W movq rbx,rsi
0x280b68186a45   285  488bf7               REX.W movq rsi,rdi
0x280b68186a48   288  33c9                 xorl rcx,rcx
0x280b68186a4a   28a  33d2                 xorl rdx,rdx
0x280b68186a4c   28c  ffd3                 call rbx
0x280b68186a4e   28e  8b45d4               movl rax,[rbp-0x2c]
0x280b68186a51   291  33c9                 xorl rcx,rcx
0x280b68186a53   293  488b75f0             REX.W movq rsi,[rbp-0x10]
0x280b68186a57   297  488b5617             REX.W movq rdx,[rsi+0x17]
0x280b68186a5b   29b  894c0230             movl [rdx+rax*1+0x30],rcx
0x280b68186a5f   29f  8b45d4               movl rax,[rbp-0x2c]
0x280b68186a62   2a2  8b4db8               movl rcx,[rbp-0x48]
0x280b68186a65   2a5  894c022c             movl [rdx+rax*1+0x2c],rcx
0x280b68186a69   2a9  8b45d4               movl rax,[rbp-0x2c]
0x280b68186a6c   2ac  33c9                 xorl rcx,rcx
0x280b68186a6e   2ae  894c021c             movl [rdx+rax*1+0x1c],rcx
0x280b68186a72   2b2  8b45d4               movl rax,[rbp-0x2c]
0x280b68186a75   2b5  8b4c0214             movl rcx,[rdx+rax*1+0x14]
0x280b68186a79   2b9  8b45d4               movl rax,[rbp-0x2c]
0x280b68186a7c   2bc  33db                 xorl rbx,rbx
0x280b68186a7e   2be  48895c0210           REX.W movq [rdx+rax*1+0x10],rbx
0x280b68186a83   2c3  8b45cc               movl rax,[rbp-0x34]
0x280b68186a86   2c6  bbffffffff           movl rbx,0xffffffff
0x280b68186a8b   2cb  85c9                 testl rcx,rcx
0x280b68186a8d   2cd  0f44c3               cmovzl rax,rbx
0x280b68186a90   2d0  894dc8               movl [rbp-0x38],rcx
0x280b68186a93   2d3  8b4dd0               movl rcx,[rbp-0x30]
0x280b68186a96   2d6  e900000000           jmp 0x280b68186a9b  <+0x2db>
0x280b68186a9b   2db  8b55d4               movl rdx,[rbp-0x2c]
0x280b68186a9e   2de  8b5dd4               movl rbx,[rbp-0x2c]
0x280b68186aa1   2e1  488b7df0             REX.W movq rdi,[rbp-0x10]
0x280b68186aa5   2e5  488b7717             REX.W movq rsi,[rdi+0x17]
0x280b68186aa9   2e9  448b0c1e             movl r9,[rsi+rbx*1]
0x280b68186aad   2ed  418bd9               movl rbx,r9
0x280b68186ab0   2f0  0bd9                 orl rbx,rcx
0x280b68186ab2   2f2  891c16               movl [rsi+rdx*1],rbx
0x280b68186ab5   2f5  418bd1               movl rdx,r9
0x280b68186ab8   2f8  83e220               andl rdx,0x20
0x280b68186abb   2fb  bbffffffff           movl rbx,0xffffffff
0x280b68186ac0   300  85d2                 testl rdx,rdx
0x280b68186ac2   302  0f44d8               cmovzl rbx,rax
0x280b68186ac5   305  8b4dbc               movl rcx,[rbp-0x44]
0x280b68186ac8   308  85c9                 testl rcx,rcx
0x280b68186aca   30a  0f850e000000         jnz 0x280b68186ade  <+0x31e>
0x280b68186ad0   310  8945cc               movl [rbp-0x34],rax
0x280b68186ad3   313  44894dc8             movl [rbp-0x38],r9
0x280b68186ad7   317  8bc3                 movl rax,rbx
0x280b68186ad9   319  e91b000000           jmp 0x280b68186af9  <+0x339>
0x280b68186ade   31e  8b4dd4               movl rcx,[rbp-0x2c]
0x280b68186ae1   321  44894dc8             movl [rbp-0x38],r9
0x280b68186ae5   325  8945cc               movl [rbp-0x34],rax
0x280b68186ae8   328  895dd0               movl [rbp-0x30],rbx
0x280b68186aeb   32b  8bc1                 movl rax,rcx
0x280b68186aed   32d  488b75f0             REX.W movq rsi,[rbp-0x10]
0x280b68186af1   331  e837f5ffff           call 0x280b6818602d  (jump table)
0x280b68186af6   336  8b45d0               movl rax,[rbp-0x30]
0x280b68186af9   339  8b4dc0               movl rcx,[rbp-0x40]
0x280b68186afc   33c  81c1d0000000         addl rcx,0xd0
0x280b68186b02   342  488b75f0             REX.W movq rsi,[rbp-0x10]
0x280b68186b06   346  488b5647             REX.W movq rdx,[rsi+0x47]
0x280b68186b0a   34a  890a                 movl [rdx],rcx
0x280b68186b0c   34c  488be5               REX.W movq rsp,rbp
0x280b68186b0f   34f  5d                   pop rbp
0x280b68186b10   350  c3                   retl
0x280b68186b11   351  50                   push rax
0x280b68186b12   352  51                   push rcx
0x280b68186b13   353  52                   push rdx
0x280b68186b14   354  53                   push rbx
0x280b68186b15   355  4151                 push r9
0x280b68186b17   357  e854f8ffff           call 0x280b68186370  (jump table)
0x280b68186b1c   35c  4159                 pop r9
0x280b68186b1e   35e  5b                   pop rbx
0x280b68186b1f   35f  5a                   pop rdx
0x280b68186b20   360  59                   pop rcx
0x280b68186b21   361  58                   pop rax
0x280b68186b22   362  488b75f0             REX.W movq rsi,[rbp-0x10]
0x280b68186b26   366  e9c0fcffff           jmp 0x280b681867eb  <+0x2b>
0x280b68186b2b   36b  e8e0f5ffff           call 0x280b68186110  (jump table)
0x280b68186b30   370  e8dbf5ffff           call 0x280b68186110  (jump table)
0x280b68186b35   375  e8d6f5ffff           call 0x280b68186110  (jump table)
0x280b68186b3a   37a  e8d1f5ffff           call 0x280b68186110  (jump table)
0x280b68186b3f   37f  e8ccf5ffff           call 0x280b68186110  (jump table)
0x280b68186b44   384  e8c7f5ffff           call 0x280b68186110  (jump table)
0x280b68186b49   389  e8c2f5ffff           call 0x280b68186110  (jump table)
0x280b68186b4e   38e  e8bdf5ffff           call 0x280b68186110  (jump table)
0x280b68186b53   393  e8b8f5ffff           call 0x280b68186110  (jump table)
0x280b68186b58   398  e8b3f5ffff           call 0x280b68186110  (jump table)
0x280b68186b5d   39d  e8aef5ffff           call 0x280b68186110  (jump table)
0x280b68186b62   3a2  e8a9f5ffff           call 0x280b68186110  (jump table)
0x280b68186b67   3a7  e8a4f5ffff           call 0x280b68186110  (jump table)
0x280b68186b6c   3ac  e89ff5ffff           call 0x280b68186110  (jump table)
0x280b68186b71   3b1  e89af5ffff           call 0x280b68186110  (jump table)
0x280b68186b76   3b6  e825f6ffff           call 0x280b681861a0  (jump table)
0x280b68186b7b   3bb  e8f0f5ffff           call 0x280b68186170  (jump table)
0x280b68186b80   3c0  e88bf5ffff           call 0x280b68186110  (jump table)
0x280b68186b85   3c5  e886f5ffff           call 0x280b68186110  (jump table)
0x280b68186b8a   3ca  e881f5ffff           call 0x280b68186110  (jump table)
0x280b68186b8f   3cf  e87cf5ffff           call 0x280b68186110  (jump table)
0x280b68186b94   3d4  e877f5ffff           call 0x280b68186110  (jump table)
0x280b68186b99   3d9  e872f5ffff           call 0x280b68186110  (jump table)
0x280b68186b9e   3de  e86df5ffff           call 0x280b68186110  (jump table)
0x280b68186ba3   3e3  90                   nop

Protected instructions:
 pc offset  land pad
        4a       36b
        8a       370
        91       375
        eb       37a
       117       37f
       11d       384
       132       389
       13d       38e
       151       393
       15a       398
       163       39d
       16b       3a2
       175       3a7
       181       3ac
       229       3b1
       29b       3c0
       2a5       3c5
       2ae       3ca
       2b5       3cf
       2be       3d4
       2e9       3d9
       2f2       3de

Source positions:
 pc offset  position
        77        37  statement
        c8        80  statement
        ff       106  statement
       1a2       206  statement
       202       238  statement
       28c       265  statement
       331       348  statement
       357         0  statement
       36b        23  statement
       370        44  statement
       375        48  statement
       37a        96  statement
       37f       113  statement
       384       120  statement
       389       135  statement
       38e       147  statement
       393       158  statement
       398       165  statement
       39d       172  statement
       3a2       177  statement
       3a7       186  statement
       3ac       194  statement
       3b1       262  statement
       3b6       265  statement
       3bb       265  statement
       3c0       273  statement
       3c5       280  statement
       3ca       287  statement
       3cf       292  statement
       3d4       301  statement
       3d9       318  statement
       3de       326  statement

Safepoints (entries = 1, byte size = 12)
0x280b6818683c     7c  slots (sp->fp): 000000000000000000000000

RelocInfo (size = 0)

--- End code ---
--- WebAssembly code ---
name: legalstub$dynCall_jiji
index: 42
kind: wasm function
compiler: Liftoff
Body (size = 192 = 160 + 32 padding)
Instructions (size = 148)
0x280b68186bc0     0  55                   push rbp
0x280b68186bc1     1  4889e5               REX.W movq rbp,rsp
0x280b68186bc4     4  6a08                 push 0x8
0x280b68186bc6     6  56                   push rsi
0x280b68186bc7     7  4881ec40000000       REX.W subq rsp,0x40
0x280b68186bce     e  488b7e27             REX.W movq rdi,[rsi+0x27]
0x280b68186bd2    12  483b27               REX.W cmpq rsp,[rdi]
0x280b68186bd5    15  0f8661000000         jna 0x280b68186c3c  <+0x7c>
0x280b68186bdb    1b  8bf9                 movl rdi,rcx
0x280b68186bdd    1d  8bf3                 movl rsi,rbx
0x280b68186bdf    1f  48c1e620             REX.W shlq rsi, 32
0x280b68186be3    23  480bfe               REX.W orq rdi,rsi
0x280b68186be6    26  44894dc4             movl [rbp-0x3c],r9
0x280b68186bea    2a  895dc8               movl [rbp-0x38],rbx
0x280b68186bed    2d  894dcc               movl [rbp-0x34],rcx
0x280b68186bf0    30  8955d0               movl [rbp-0x30],rdx
0x280b68186bf3    33  8945d4               movl [rbp-0x2c],rax
0x280b68186bf6    36  488bcf               REX.W movq rcx,rdi
0x280b68186bf9    39  418bd9               movl rbx,r9
0x280b68186bfc    3c  488b75f0             REX.W movq rsi,[rbp-0x10]
0x280b68186c00    40  e8c0f4ffff           call 0x280b681860c5  (jump table)
0x280b68186c05    45  488bc8               REX.W movq rcx,rax
0x280b68186c08    48  48c1e920             REX.W shrq rcx, 32
0x280b68186c0c    4c  8bc9                 movl rcx,rcx
0x280b68186c0e    4e  488b75f0             REX.W movq rsi,[rbp-0x10]
0x280b68186c12    52  488b562f             REX.W movq rdx,[rsi+0x2f]
0x280b68186c16    56  488b5a18             REX.W movq rbx,[rdx+0x18]
0x280b68186c1a    5a  8b560b               movl rdx,[rsi+0xb]
0x280b68186c1d    5d  4903d6               REX.W addq rdx,r14
0x280b68186c20    60  8b5213               movl rdx,[rdx+0x13]
0x280b68186c23    63  4903d6               REX.W addq rdx,r14
0x280b68186c26    66  488945bc             REX.W movq [rbp-0x44],rax
0x280b68186c2a    6a  8bc1                 movl rax,rcx
0x280b68186c2c    6c  488bf2               REX.W movq rsi,rdx
0x280b68186c2f    6f  ffd3                 call rbx
0x280b68186c31    71  488b45bc             REX.W movq rax,[rbp-0x44]
0x280b68186c35    75  8bc0                 movl rax,rax
0x280b68186c37    77  488be5               REX.W movq rsp,rbp
0x280b68186c3a    7a  5d                   pop rbp
0x280b68186c3b    7b  c3                   retl
0x280b68186c3c    7c  50                   push rax
0x280b68186c3d    7d  51                   push rcx
0x280b68186c3e    7e  52                   push rdx
0x280b68186c3f    7f  53                   push rbx
0x280b68186c40    80  4151                 push r9
0x280b68186c42    82  e829f7ffff           call 0x280b68186370  (jump table)
0x280b68186c47    87  4159                 pop r9
0x280b68186c49    89  5b                   pop rbx
0x280b68186c4a    8a  5a                   pop rdx
0x280b68186c4b    8b  59                   pop rcx
0x280b68186c4c    8c  58                   pop rax
0x280b68186c4d    8d  488b75f0             REX.W movq rsi,[rbp-0x10]
0x280b68186c51    91  eb88                 jmp 0x280b68186bdb  <+0x1b>
0x280b68186c53    93  90                   nop

Source positions:
 pc offset  position
        40        19  statement
        6f        27  statement
        82         0  statement

Safepoints (entries = 1, byte size = 12)
0x280b68186c05     45  slots (sp->fp): 000000000000000000000000

RelocInfo (size = 0)

--- End code ---
--- WebAssembly code ---
name: dynCall_jiji
index: 41
kind: wasm function
compiler: Liftoff
Body (size = 192 = 184 + 8 padding)
Instructions (size = 172)
0x280b68186c80     0  55                   push rbp
0x280b68186c81     1  4889e5               REX.W movq rbp,rsp
0x280b68186c84     4  6a08                 push 0x8
0x280b68186c86     6  56                   push rsi
0x280b68186c87     7  4881ec40000000       REX.W subq rsp,0x40
0x280b68186c8e     e  488b7e27             REX.W movq rdi,[rsi+0x27]
0x280b68186c92    12  483b27               REX.W cmpq rsp,[rdi]
0x280b68186c95    15  0f8671000000         jna 0x280b68186d0c  <+0x8c>
0x280b68186c9b    1b  8bf8                 movl rdi,rax
0x280b68186c9d    1d  8945d4               movl [rbp-0x2c],rax
0x280b68186ca0    20  488b75f0             REX.W movq rsi,[rbp-0x10]
0x280b68186ca4    24  8b7613               movl rsi,[rsi+0x13]
0x280b68186ca7    27  3bfe                 cmpl rdi,rsi
0x280b68186ca9    29  0f8373000000         jnc 0x280b68186d22  <+0xa2>
0x280b68186caf    2f  4c8b4df0             REX.W movq r9,[rbp-0x10]
0x280b68186cb3    33  4d8b493f             REX.W movq r9,[r9+0x3f]
0x280b68186cb7    37  c1e702               shll rdi, 2
0x280b68186cba    3a  418b0439             movl rax,[r9+rdi*1]
0x280b68186cbe    3e  be07000000           movl rsi,0x7
0x280b68186cc3    43  483bc6               REX.W cmpq rax,rsi
0x280b68186cc6    46  0f855b000000         jnz 0x280b68186d27  <+0xa7>
0x280b68186ccc    4c  4c8b4df0             REX.W movq r9,[rbp-0x10]
0x280b68186cd0    50  458b490f             movl r9,[r9+0xf]
0x280b68186cd4    54  4d03ce               REX.W addq r9,r14
0x280b68186cd7    57  418b743907           movl rsi,[r9+rdi*1+0x7]
0x280b68186cdc    5c  4903f6               REX.W addq rsi,r14
0x280b68186cdf    5f  03ff                 addl rdi,rdi
0x280b68186ce1    61  4c8b4df0             REX.W movq r9,[rbp-0x10]
0x280b68186ce5    65  4d8b4937             REX.W movq r9,[r9+0x37]
0x280b68186ce9    69  498b0439             REX.W movq rax,[r9+rdi*1]
0x280b68186ced    6d  895dc4               movl [rbp-0x3c],rbx
0x280b68186cf0    70  48894dc8             REX.W movq [rbp-0x38],rcx
0x280b68186cf4    74  8955d0               movl [rbp-0x30],rdx
0x280b68186cf7    77  8955b0               movl [rbp-0x50],rdx
0x280b68186cfa    7a  488bd1               REX.W movq rdx,rcx
0x280b68186cfd    7d  8bcb                 movl rcx,rbx
0x280b68186cff    7f  488bd8               REX.W movq rbx,rax
0x280b68186d02    82  8b45b0               movl rax,[rbp-0x50]
0x280b68186d05    85  ffd3                 call rbx
0x280b68186d07    87  488be5               REX.W movq rsp,rbp
0x280b68186d0a    8a  5d                   pop rbp
0x280b68186d0b    8b  c3                   retl
0x280b68186d0c    8c  50                   push rax
0x280b68186d0d    8d  51                   push rcx
0x280b68186d0e    8e  52                   push rdx
0x280b68186d0f    8f  53                   push rbx
0x280b68186d10    90  e85bf6ffff           call 0x280b68186370  (jump table)
0x280b68186d15    95  5b                   pop rbx
0x280b68186d16    96  5a                   pop rdx
0x280b68186d17    97  59                   pop rcx
0x280b68186d18    98  58                   pop rax
0x280b68186d19    99  488b75f0             REX.W movq rsi,[rbp-0x10]
0x280b68186d1d    9d  e979ffffff           jmp 0x280b68186c9b  <+0x1b>
0x280b68186d22    a2  e879f4ffff           call 0x280b681861a0  (jump table)
0x280b68186d27    a7  e844f4ffff           call 0x280b68186170  (jump table)

Source positions:
 pc offset  position
        85         9  statement
        90         0  statement
        a2         9  statement
        a7         9  statement

Safepoints (entries = 1, byte size = 11)
0x280b68186d07     87  slots (sp->fp): 0000000000000000

RelocInfo (size = 0)

--- End code ---
--- WebAssembly code ---
name: stackAlloc
index: 40
kind: wasm function
compiler: Liftoff
Body (size = 128 = 76 + 52 padding)
Instructions (size = 64)
0x280b68186d40     0  55                   push rbp
0x280b68186d41     1  4889e5               REX.W movq rbp,rsp
0x280b68186d44     4  6a08                 push 0x8
0x280b68186d46     6  56                   push rsi
0x280b68186d47     7  4881ec18000000       REX.W subq rsp,0x18
0x280b68186d4e     e  488b4e27             REX.W movq rcx,[rsi+0x27]
0x280b68186d52    12  483b21               REX.W cmpq rsp,[rcx]
0x280b68186d55    15  0f8618000000         jna 0x280b68186d73  <+0x33>
0x280b68186d5b    1b  488b4e47             REX.W movq rcx,[rsi+0x47]
0x280b68186d5f    1f  8b11                 movl rdx,[rcx]
0x280b68186d61    21  2bd0                 subl rdx,rax
0x280b68186d63    23  83e2f0               andl rdx,0xf0
0x280b68186d66    26  488b4e47             REX.W movq rcx,[rsi+0x47]
0x280b68186d6a    2a  8911                 movl [rcx],rdx
0x280b68186d6c    2c  8bc2                 movl rax,rdx
0x280b68186d6e    2e  488be5               REX.W movq rsp,rbp
0x280b68186d71    31  5d                   pop rbp
0x280b68186d72    32  c3                   retl
0x280b68186d73    33  50                   push rax
0x280b68186d74    34  e8f7f5ffff           call 0x280b68186370  (jump table)
0x280b68186d79    39  58                   pop rax
0x280b68186d7a    3a  488b75f0             REX.W movq rsi,[rbp-0x10]
0x280b68186d7e    3e  ebdb                 jmp 0x280b68186d5b  <+0x1b>

Source positions:
 pc offset  position
        34         0  statement

Safepoints (entries = 1, byte size = 10)
0x280b68186d79     39  slots (sp->fp): 00000000

RelocInfo (size = 0)

--- End code ---
--- WebAssembly code ---
name: stackRestore
index: 39
kind: wasm function
compiler: Liftoff
Body (size = 64 = 64 + 0 padding)
Instructions (size = 52)
0x280b68186dc0     0  55                   push rbp
0x280b68186dc1     1  4889e5               REX.W movq rbp,rsp
0x280b68186dc4     4  6a08                 push 0x8
0x280b68186dc6     6  56                   push rsi
0x280b68186dc7     7  4881ec18000000       REX.W subq rsp,0x18
0x280b68186dce     e  488b4e27             REX.W movq rcx,[rsi+0x27]
0x280b68186dd2    12  483b21               REX.W cmpq rsp,[rcx]
0x280b68186dd5    15  0f860b000000         jna 0x280b68186de6  <+0x26>
0x280b68186ddb    1b  488b4e47             REX.W movq rcx,[rsi+0x47]
0x280b68186ddf    1f  8901                 movl [rcx],rax
0x280b68186de1    21  488be5               REX.W movq rsp,rbp
0x280b68186de4    24  5d                   pop rbp
0x280b68186de5    25  c3                   retl
0x280b68186de6    26  50                   push rax
0x280b68186de7    27  e884f5ffff           call 0x280b68186370  (jump table)
0x280b68186dec    2c  58                   pop rax
0x280b68186ded    2d  488b75f0             REX.W movq rsi,[rbp-0x10]
0x280b68186df1    31  ebe8                 jmp 0x280b68186ddb  <+0x1b>
0x280b68186df3    33  90                   nop

Source positions:
 pc offset  position
        27         0  statement

Safepoints (entries = 1, byte size = 10)
0x280b68186dec     2c  slots (sp->fp): 00000000

RelocInfo (size = 0)

--- End code ---
--- WebAssembly code ---
name: stackSave
index: 38
kind: wasm function
compiler: Liftoff
Body (size = 64 = 64 + 0 padding)
Instructions (size = 52)
0x280b68186e00     0  55                   push rbp
0x280b68186e01     1  4889e5               REX.W movq rbp,rsp
0x280b68186e04     4  6a08                 push 0x8
0x280b68186e06     6  56                   push rsi
0x280b68186e07     7  4881ec18000000       REX.W subq rsp,0x18
0x280b68186e0e     e  488b4627             REX.W movq rax,[rsi+0x27]
0x280b68186e12    12  483b20               REX.W cmpq rsp,[rax]
0x280b68186e15    15  0f860d000000         jna 0x280b68186e28  <+0x28>
0x280b68186e1b    1b  488b4647             REX.W movq rax,[rsi+0x47]
0x280b68186e1f    1f  8b08                 movl rcx,[rax]
0x280b68186e21    21  8bc1                 movl rax,rcx
0x280b68186e23    23  488be5               REX.W movq rsp,rbp
0x280b68186e26    26  5d                   pop rbp
0x280b68186e27    27  c3                   retl
0x280b68186e28    28  e843f5ffff           call 0x280b68186370  (jump table)
0x280b68186e2d    2d  488b75f0             REX.W movq rsi,[rbp-0x10]
0x280b68186e31    31  ebe8                 jmp 0x280b68186e1b  <+0x1b>
0x280b68186e33    33  90                   nop

Source positions:
 pc offset  position
        28         0  statement

Safepoints (entries = 1, byte size = 10)
0x280b68186e2d     2d  slots (sp->fp): 00000000

RelocInfo (size = 0)

--- End code ---
--- WebAssembly code ---
name: wctomb
index: 37
kind: wasm function
compiler: Liftoff
Body (size = 128 = 92 + 36 padding)
Instructions (size = 80)
0x280b68186e40     0  55                   push rbp
0x280b68186e41     1  4889e5               REX.W movq rbp,rsp
0x280b68186e44     4  6a08                 push 0x8
0x280b68186e46     6  56                   push rsi
0x280b68186e47     7  4881ec28000000       REX.W subq rsp,0x28
0x280b68186e4e     e  488b4e27             REX.W movq rcx,[rsi+0x27]
0x280b68186e52    12  483b21               REX.W cmpq rsp,[rcx]
0x280b68186e55    15  0f8625000000         jna 0x280b68186e80  <+0x40>
0x280b68186e5b    1b  85c0                 testl rax,rax
0x280b68186e5d    1d  0f8507000000         jnz 0x280b68186e6a  <+0x2a>
0x280b68186e63    23  33c0                 xorl rax,rax
0x280b68186e65    25  488be5               REX.W movq rsp,rbp
0x280b68186e68    28  5d                   pop rbp
0x280b68186e69    29  c3                   retl
0x280b68186e6a    2a  8955d0               movl [rbp-0x30],rdx
0x280b68186e6d    2d  8945d4               movl [rbp-0x2c],rax
0x280b68186e70    30  33c9                 xorl rcx,rcx
0x280b68186e72    32  488b75f0             REX.W movq rsi,[rbp-0x10]
0x280b68186e76    36  e82df2ffff           call 0x280b681860a8  (jump table)
0x280b68186e7b    3b  488be5               REX.W movq rsp,rbp
0x280b68186e7e    3e  5d                   pop rbp
0x280b68186e7f    3f  c3                   retl
0x280b68186e80    40  50                   push rax
0x280b68186e81    41  52                   push rdx
0x280b68186e82    42  e8e9f4ffff           call 0x280b68186370  (jump table)
0x280b68186e87    47  5a                   pop rdx
0x280b68186e88    48  58                   pop rax
0x280b68186e89    49  488b75f0             REX.W movq rsi,[rbp-0x10]
0x280b68186e8d    4d  ebcc                 jmp 0x280b68186e5b  <+0x1b>
0x280b68186e8f    4f  90                   nop

Source positions:
 pc offset  position
        36        16  statement
        42         0  statement

Safepoints (entries = 1, byte size = 11)
0x280b68186e7b     3b  slots (sp->fp): 0000000000000000

RelocInfo (size = 0)

--- End code ---
--- WebAssembly code ---
name: wcrtomb
index: 36
kind: wasm function
compiler: Liftoff
Body (size = 640 = 628 + 12 padding)
Instructions (size = 616)
0x280b68186ec0     0  55                   push rbp
0x280b68186ec1     1  4889e5               REX.W movq rbp,rsp
0x280b68186ec4     4  6a08                 push 0x8
0x280b68186ec6     6  56                   push rsi
0x280b68186ec7     7  4881ec30000000       REX.W subq rsp,0x30
0x280b68186ece     e  488b5e27             REX.W movq rbx,[rsi+0x27]
0x280b68186ed2    12  483b23               REX.W cmpq rsp,[rbx]
0x280b68186ed5    15  0f86f1010000         jna 0x280b681870cc  <+0x20c>
0x280b68186edb    1b  85c0                 testl rax,rax
0x280b68186edd    1d  0f84cc010000         jz 0x280b681870af  <+0x1ef>
0x280b68186ee3    23  bb01000000           movl rbx,0x1
0x280b68186ee8    28  83fa7f               cmpl rdx,0x7f
0x280b68186eeb    2b  0f8705000000         ja 0x280b68186ef6  <+0x36>
0x280b68186ef1    31  e9c5010000           jmp 0x280b681870bb  <+0x1fb>
0x280b68186ef6    36  895dc8               movl [rbp-0x38],rbx
0x280b68186ef9    39  894dcc               movl [rbp-0x34],rcx
0x280b68186efc    3c  8955d0               movl [rbp-0x30],rdx
0x280b68186eff    3f  8945d4               movl [rbp-0x2c],rax
0x280b68186f02    42  488b75f0             REX.W movq rsi,[rbp-0x10]
0x280b68186f06    46  e893f1ffff           call 0x280b6818609e  (jump table)
0x280b68186f0b    4b  488b75f0             REX.W movq rsi,[rbp-0x10]
0x280b68186f0f    4f  488b4e17             REX.W movq rcx,[rsi+0x17]
0x280b68186f13    53  8b540158             movl rdx,[rcx+rax*1+0x58]
0x280b68186f17    57  8b0411               movl rax,[rcx+rdx*1]
0x280b68186f1a    5a  85c0                 testl rax,rax
0x280b68186f1c    5c  0f8540000000         jnz 0x280b68186f62  <+0xa2>
0x280b68186f22    62  8b45d0               movl rax,[rbp-0x30]
0x280b68186f25    65  83e080               andl rax,0x80
0x280b68186f28    68  3d80df0000           cmp rax,0xdf80
0x280b68186f2d    6d  0f8511000000         jnz 0x280b68186f44  <+0x84>
0x280b68186f33    73  8b45d4               movl rax,[rbp-0x2c]
0x280b68186f36    76  8b4dcc               movl rcx,[rbp-0x34]
0x280b68186f39    79  8b55d0               movl rdx,[rbp-0x30]
0x280b68186f3c    7c  8b5dc8               movl rbx,[rbp-0x38]
0x280b68186f3f    7f  e977010000           jmp 0x280b681870bb  <+0x1fb>
0x280b68186f44    84  488b75f0             REX.W movq rsi,[rbp-0x10]
0x280b68186f48    88  e8fdf0ffff           call 0x280b6818604a  (jump table)
0x280b68186f4d    8d  b919000000           movl rcx,0x19
0x280b68186f52    92  488b75f0             REX.W movq rsi,[rbp-0x10]
0x280b68186f56    96  488b5617             REX.W movq rdx,[rsi+0x17]
0x280b68186f5a    9a  890c02               movl [rdx+rax*1],rcx
0x280b68186f5d    9d  e93a010000           jmp 0x280b6818709c  <+0x1dc>
0x280b68186f62    a2  8b45d0               movl rax,[rbp-0x30]
0x280b68186f65    a5  3dff070000           cmp rax,0x7ff
0x280b68186f6a    aa  0f872f000000         ja 0x280b68186f9f  <+0xdf>
0x280b68186f70    b0  8b45d4               movl rax,[rbp-0x2c]
0x280b68186f73    b3  8b55d0               movl rdx,[rbp-0x30]
0x280b68186f76    b6  83e23f               andl rdx,0x3f
0x280b68186f79    b9  81ca80000000         orl rdx,0x80
0x280b68186f7f    bf  88540101             movb [rcx+rax*1+0x1],dl
0x280b68186f83    c3  8b45d4               movl rax,[rbp-0x2c]
0x280b68186f86    c6  8b55d0               movl rdx,[rbp-0x30]
0x280b68186f89    c9  c1ea06               shrl rdx, 6
0x280b68186f8c    cc  81cac0000000         orl rdx,0xc0
0x280b68186f92    d2  881401               movb [rcx+rax*1],dl
0x280b68186f95    d5  b802000000           movl rax,0x2
0x280b68186f9a    da  488be5               REX.W movq rsp,rbp
0x280b68186f9d    dd  5d                   pop rbp
0x280b68186f9e    de  c3                   retl
0x280b68186f9f    df  8b45d0               movl rax,[rbp-0x30]
0x280b68186fa2    e2  2500e0ffff           and rax,0xffffe000
0x280b68186fa7    e7  ba00e00000           movl rdx,0xe000
0x280b68186fac    ec  3bc2                 cmpl rax,rdx
0x280b68186fae    ee  0f95c0               setnzl al
0x280b68186fb1    f1  0fb6c0               movzxbl rax,rax
0x280b68186fb4    f4  8b55d0               movl rdx,[rbp-0x30]
0x280b68186fb7    f7  bb00d80000           movl rbx,0xd800
0x280b68186fbc    fc  3bd3                 cmpl rdx,rbx
0x280b68186fbe    fe  0f93c2               setncl dl
0x280b68186fc1   101  0fb6d2               movzxbl rdx,rdx
0x280b68186fc4   104  23c2                 andl rax,rdx
0x280b68186fc6   106  85c0                 testl rax,rax
0x280b68186fc8   108  0f8545000000         jnz 0x280b68187013  <+0x153>
0x280b68186fce   10e  8b45d4               movl rax,[rbp-0x2c]
0x280b68186fd1   111  8b55d0               movl rdx,[rbp-0x30]
0x280b68186fd4   114  83e23f               andl rdx,0x3f
0x280b68186fd7   117  81ca80000000         orl rdx,0x80
0x280b68186fdd   11d  88540102             movb [rcx+rax*1+0x2],dl
0x280b68186fe1   121  8b45d4               movl rax,[rbp-0x2c]
0x280b68186fe4   124  8b55d0               movl rdx,[rbp-0x30]
0x280b68186fe7   127  c1ea0c               shrl rdx, 12
0x280b68186fea   12a  81cae0000000         orl rdx,0xe0
0x280b68186ff0   130  881401               movb [rcx+rax*1],dl
0x280b68186ff3   133  8b45d4               movl rax,[rbp-0x2c]
0x280b68186ff6   136  8b55d0               movl rdx,[rbp-0x30]
0x280b68186ff9   139  c1ea06               shrl rdx, 6
0x280b68186ffc   13c  83e23f               andl rdx,0x3f
0x280b68186fff   13f  81ca80000000         orl rdx,0x80
0x280b68187005   145  88540101             movb [rcx+rax*1+0x1],dl
0x280b68187009   149  b803000000           movl rax,0x3
0x280b6818700e   14e  488be5               REX.W movq rsp,rbp
0x280b68187011   151  5d                   pop rbp
0x280b68187012   152  c3                   retl
0x280b68187013   153  8b45d0               movl rax,[rbp-0x30]
0x280b68187016   156  ba00000100           movl rdx,0x10000
0x280b6818701b   15b  2bc2                 subl rax,rdx
0x280b6818701d   15d  3dffff0f00           cmp rax,0xfffff
0x280b68187022   162  0f875b000000         ja 0x280b68187083  <+0x1c3>
0x280b68187028   168  8b45d4               movl rax,[rbp-0x2c]
0x280b6818702b   16b  8b55d0               movl rdx,[rbp-0x30]
0x280b6818702e   16e  83e23f               andl rdx,0x3f
0x280b68187031   171  81ca80000000         orl rdx,0x80
0x280b68187037   177  88540103             movb [rcx+rax*1+0x3],dl
0x280b6818703b   17b  8b45d4               movl rax,[rbp-0x2c]
0x280b6818703e   17e  8b55d0               movl rdx,[rbp-0x30]
0x280b68187041   181  c1ea12               shrl rdx, 18
0x280b68187044   184  81caf0000000         orl rdx,0xf0
0x280b6818704a   18a  881401               movb [rcx+rax*1],dl
0x280b6818704d   18d  8b45d4               movl rax,[rbp-0x2c]
0x280b68187050   190  8b55d0               movl rdx,[rbp-0x30]
0x280b68187053   193  c1ea06               shrl rdx, 6
0x280b68187056   196  83e23f               andl rdx,0x3f
0x280b68187059   199  81ca80000000         orl rdx,0x80
0x280b6818705f   19f  88540102             movb [rcx+rax*1+0x2],dl
0x280b68187063   1a3  8b45d4               movl rax,[rbp-0x2c]
0x280b68187066   1a6  8b55d0               movl rdx,[rbp-0x30]
0x280b68187069   1a9  c1ea0c               shrl rdx, 12
0x280b6818706c   1ac  83e23f               andl rdx,0x3f
0x280b6818706f   1af  81ca80000000         orl rdx,0x80
0x280b68187075   1b5  88540101             movb [rcx+rax*1+0x1],dl
0x280b68187079   1b9  b804000000           movl rax,0x4
0x280b6818707e   1be  488be5               REX.W movq rsp,rbp
0x280b68187081   1c1  5d                   pop rbp
0x280b68187082   1c2  c3                   retl
0x280b68187083   1c3  488b75f0             REX.W movq rsi,[rbp-0x10]
0x280b68187087   1c7  e8beefffff           call 0x280b6818604a  (jump table)
0x280b6818708c   1cc  b919000000           movl rcx,0x19
0x280b68187091   1d1  488b75f0             REX.W movq rsi,[rbp-0x10]
0x280b68187095   1d5  488b5617             REX.W movq rdx,[rsi+0x17]
0x280b68187099   1d9  890c02               movl [rdx+rax*1],rcx
0x280b6818709c   1dc  8b45d4               movl rax,[rbp-0x2c]
0x280b6818709f   1df  8b4dcc               movl rcx,[rbp-0x34]
0x280b681870a2   1e2  8b55d0               movl rdx,[rbp-0x30]
0x280b681870a5   1e5  bbffffffff           movl rbx,0xffffffff
0x280b681870aa   1ea  e905000000           jmp 0x280b681870b4  <+0x1f4>
0x280b681870af   1ef  bb01000000           movl rbx,0x1
0x280b681870b4   1f4  8bc3                 movl rax,rbx
0x280b681870b6   1f6  488be5               REX.W movq rsp,rbp
0x280b681870b9   1f9  5d                   pop rbp
0x280b681870ba   1fa  c3                   retl
0x280b681870bb   1fb  488b7e17             REX.W movq rdi,[rsi+0x17]
0x280b681870bf   1ff  881407               movb [rdi+rax*1],dl
0x280b681870c2   202  b801000000           movl rax,0x1
0x280b681870c7   207  488be5               REX.W movq rsp,rbp
0x280b681870ca   20a  5d                   pop rbp
0x280b681870cb   20b  c3                   retl
0x280b681870cc   20c  50                   push rax
0x280b681870cd   20d  51                   push rcx
0x280b681870ce   20e  52                   push rdx
0x280b681870cf   20f  e89cf2ffff           call 0x280b68186370  (jump table)
0x280b681870d4   214  5a                   pop rdx
0x280b681870d5   215  59                   pop rcx
0x280b681870d6   216  58                   pop rax
0x280b681870d7   217  488b75f0             REX.W movq rsi,[rbp-0x10]
0x280b681870db   21b  e9fbfdffff           jmp 0x280b68186edb  <+0x1b>
0x280b681870e0   220  e82bf0ffff           call 0x280b68186110  (jump table)
0x280b681870e5   225  e826f0ffff           call 0x280b68186110  (jump table)
0x280b681870ea   22a  e821f0ffff           call 0x280b68186110  (jump table)
0x280b681870ef   22f  e81cf0ffff           call 0x280b68186110  (jump table)
0x280b681870f4   234  e817f0ffff           call 0x280b68186110  (jump table)
0x280b681870f9   239  e812f0ffff           call 0x280b68186110  (jump table)
0x280b681870fe   23e  e80df0ffff           call 0x280b68186110  (jump table)
0x280b68187103   243  e808f0ffff           call 0x280b68186110  (jump table)
0x280b68187108   248  e803f0ffff           call 0x280b68186110  (jump table)
0x280b6818710d   24d  e8feefffff           call 0x280b68186110  (jump table)
0x280b68187112   252  e8f9efffff           call 0x280b68186110  (jump table)
0x280b68187117   257  e8f4efffff           call 0x280b68186110  (jump table)
0x280b6818711c   25c  e8efefffff           call 0x280b68186110  (jump table)
0x280b68187121   261  e8eaefffff           call 0x280b68186110  (jump table)
0x280b68187126   266  6690                 nop

Protected instructions:
 pc offset  land pad
        53       220
        57       225
        9a       22a
        bf       22f
        d2       234
       11d       239
       130       23e
       145       243
       177       248
       18a       24d
       19f       252
       1b5       257
       1d9       25c
       1ff       261

Source positions:
 pc offset  position
        46        23  statement
        88        47  statement
       1c7       248  statement
       20f         0  statement
       220        25  statement
       225        28  statement
       22a        51  statement
       22f        76  statement
       234        90  statement
       239       130  statement
       23e       144  statement
       243       161  statement
       248       193  statement
       24d       207  statement
       252       224  statement
       257       241  statement
       25c       252  statement
       261       269  statement

Safepoints (entries = 1, byte size = 11)
0x280b68186f0b     4b  slots (sp->fp): 0000000000000000

RelocInfo (size = 0)

--- End code ---
--- WebAssembly code ---
name: init_pthread_self
index: 35
kind: wasm function
compiler: Liftoff
Body (size = 128 = 96 + 32 padding)
Instructions (size = 84)
0x280b68187140     0  55                   push rbp
0x280b68187141     1  4889e5               REX.W movq rbp,rsp
0x280b68187144     4  6a08                 push 0x8
0x280b68187146     6  56                   push rsi
0x280b68187147     7  4881ec20000000       REX.W subq rsp,0x20
0x280b6818714e     e  488b4627             REX.W movq rax,[rsi+0x27]
0x280b68187152    12  483b20               REX.W cmpq rsp,[rax]
0x280b68187155    15  0f862b000000         jna 0x280b68187186  <+0x46>
0x280b6818715b    1b  b8bc0a0000           movl rax,0xabc
0x280b68187160    20  488b4e17             REX.W movq rcx,[rsi+0x17]
0x280b68187164    24  89812c0b0000         movl [rcx+0xb2c],rax
0x280b6818716a    2a  488b75f0             REX.W movq rsi,[rbp-0x10]
0x280b6818716e    2e  e826efffff           call 0x280b68186099  (jump table)
0x280b68187173    33  488b75f0             REX.W movq rsi,[rbp-0x10]
0x280b68187177    37  488b4e17             REX.W movq rcx,[rsi+0x17]
0x280b6818717b    3b  8981e40a0000         movl [rcx+0xae4],rax
0x280b68187181    41  488be5               REX.W movq rsp,rbp
0x280b68187184    44  5d                   pop rbp
0x280b68187185    45  c3                   retl
0x280b68187186    46  e8e5f1ffff           call 0x280b68186370  (jump table)
0x280b6818718b    4b  488b75f0             REX.W movq rsi,[rbp-0x10]
0x280b6818718f    4f  ebca                 jmp 0x280b6818715b  <+0x1b>
0x280b68187191    51  0f1f00               nop

Source positions:
 pc offset  position
        2e        13  statement
        46         0  statement

Safepoints (entries = 1, byte size = 10)
0x280b68187173     33  slots (sp->fp): 00000000

RelocInfo (size = 0)

--- End code ---
--- WebAssembly code ---
name: fmt_o
index: 27
kind: wasm function
compiler: Liftoff
Body (size = 256 = 212 + 44 padding)
Instructions (size = 200)
0x280b681871c0     0  55                   push rbp
0x280b681871c1     1  4889e5               REX.W movq rbp,rsp
0x280b681871c4     4  6a08                 push 0x8
0x280b681871c6     6  56                   push rsi
0x280b681871c7     7  4881ec28000000       REX.W subq rsp,0x28
0x280b681871ce     e  488b4e27             REX.W movq rcx,[rsi+0x27]
0x280b681871d2    12  483b21               REX.W cmpq rsp,[rcx]
0x280b681871d5    15  0f868a000000         jna 0x280b68187265  <+0xa5>
0x280b681871db    1b  4885c0               REX.W testq rax,rax
0x280b681871de    1e  0f94c1               setzl cl
0x280b681871e1    21  0fb6c9               movzxbl rcx,rcx
0x280b681871e4    24  85c9                 testl rcx,rcx
0x280b681871e6    26  0f8570000000         jnz 0x280b6818725c  <+0x9c>
0x280b681871ec    2c  488945d0             REX.W movq [rbp-0x30],rax
0x280b681871f0    30  8955cc               movl [rbp-0x34],rdx
0x280b681871f3    33  c745c800000000       movl [rbp-0x38],0x0
0x280b681871fa    3a  488b4627             REX.W movq rax,[rsi+0x27]
0x280b681871fe    3e  483b20               REX.W cmpq rsp,[rax]
0x280b68187201    41  0f8670000000         jna 0x280b68187277  <+0xb7>
0x280b68187207    47  8b45cc               movl rax,[rbp-0x34]
0x280b6818720a    4a  b901000000           movl rcx,0x1
0x280b6818720f    4f  2bc1                 subl rax,rcx
0x280b68187211    51  488b4dd0             REX.W movq rcx,[rbp-0x30]
0x280b68187215    55  8bc9                 movl rcx,rcx
0x280b68187217    57  83e107               andl rcx,0x7
0x280b6818721a    5a  83c930               orl rcx,0x30
0x280b6818721d    5d  488b5617             REX.W movq rdx,[rsi+0x17]
0x280b68187221    61  880c02               movb [rdx+rax*1],cl
0x280b68187224    64  488b4dd0             REX.W movq rcx,[rbp-0x30]
0x280b68187228    68  bb07000000           movl rbx,0x7
0x280b6818722d    6d  483bcb               REX.W cmpq rcx,rbx
0x280b68187230    70  0f97c1               setal cl
0x280b68187233    73  0fb6c9               movzxbl rcx,rcx
0x280b68187236    76  488b5dd0             REX.W movq rbx,[rbp-0x30]
0x280b6818723a    7a  48c1eb03             REX.W shrq rbx, 3
0x280b6818723e    7e  85c9                 testl rcx,rcx
0x280b68187240    80  0f840c000000         jz 0x280b68187252  <+0x92>
0x280b68187246    86  48895dd0             REX.W movq [rbp-0x30],rbx
0x280b6818724a    8a  8945cc               movl [rbp-0x34],rax
0x280b6818724d    8d  894dc8               movl [rbp-0x38],rcx
0x280b68187250    90  eba8                 jmp 0x280b681871fa  <+0x3a>
0x280b68187252    92  8bd0                 movl rdx,rax
0x280b68187254    94  488bc3               REX.W movq rax,rbx
0x280b68187257    97  e902000000           jmp 0x280b6818725e  <+0x9e>
0x280b6818725c    9c  33c9                 xorl rcx,rcx
0x280b6818725e    9e  8bc2                 movl rax,rdx
0x280b68187260    a0  488be5               REX.W movq rsp,rbp
0x280b68187263    a3  5d                   pop rbp
0x280b68187264    a4  c3                   retl
0x280b68187265    a5  50                   push rax
0x280b68187266    a6  52                   push rdx
0x280b68187267    a7  e804f1ffff           call 0x280b68186370  (jump table)
0x280b6818726c    ac  5a                   pop rdx
0x280b6818726d    ad  58                   pop rax
0x280b6818726e    ae  488b75f0             REX.W movq rsi,[rbp-0x10]
0x280b68187272    b2  e964ffffff           jmp 0x280b681871db  <+0x1b>
0x280b68187277    b7  e8f4f0ffff           call 0x280b68186370  (jump table)
0x280b6818727c    bc  488b75f0             REX.W movq rsi,[rbp-0x10]
0x280b68187280    c0  eb85                 jmp 0x280b68187207  <+0x47>
0x280b68187282    c2  e889eeffff           call 0x280b68186110  (jump table)
0x280b68187287    c7  90                   nop

Protected instructions:
 pc offset  land pad
        61        c2

Source positions:
 pc offset  position
        a7         0  statement
        b7         9  statement
        c2        27  statement

Safepoints (entries = 1, byte size = 11)
0x280b6818726c     ac  slots (sp->fp): 0000000000000000

RelocInfo (size = 0)

--- End code ---
--- WebAssembly code ---
name: wasm-to-js:iiii:i-__wasi_fd_write
index: 1
kind: wasm-to-js
Body (size = 640 = 580 + 60 padding)
Instructions (size = 548)
0x280b6818c8c0     0  55                   push rbp
0x280b6818c8c1     1  4889e5               REX.W movq rbp,rsp
0x280b6818c8c4     4  6a0a                 push 0xa
0x280b6818c8c6     6  56                   push rsi
0x280b6818c8c7     7  4883ec50             REX.W subq rsp,0x50
0x280b6818c8cb     b  448b460b             movl r8,[rsi+0xb]
0x280b6818c8cf     f  4d03c6               REX.W addq r8,r14
0x280b6818c8d2    12  8b7e0f               movl rdi,[rsi+0xf]
0x280b6818c8d5    15  4903fe               REX.W addq rdi,r14
0x280b6818c8d8    18  4c8b4e03             REX.W movq r9,[rsi+0x3]
0x280b6818c8dc    1c  4c8b5e03             REX.W movq r11,[rsi+0x3]
0x280b6818c8e0    20  4d8b9b48450000       REX.W movq r11,[r11+0x4548]
0x280b6818c8e7    27  41c70300000000       movl [r11],0x0
0x280b6818c8ee    2e  448b5f0f             movl r11,[rdi+0xf]
0x280b6818c8f2    32  4d03de               REX.W addq r11,r14
0x280b6818c8f5    35  448b670b             movl r12,[rdi+0xb]
0x280b6818c8f9    39  4d03e6               REX.W addq r12,r14
0x280b6818c8fc    3c  4d8b8970010000       REX.W movq r9,[r9+0x170]
0x280b6818c903    43  488975e8             REX.W movq [rbp-0x18],rsi
0x280b6818c907    47  4c8945e0             REX.W movq [rbp-0x20],r8
0x280b6818c90b    4b  41f644241b60         testb [r12+0x1b],0x60
0x280b6818c911    51  0f850c000000         jnz 0x280b6818c923  <+0x63>
0x280b6818c917    57  458b6013             movl r12,[r8+0x13]
0x280b6818c91b    5b  4d03e6               REX.W addq r12,r14
0x280b6818c91e    5e  e903000000           jmp 0x280b6818c926  <+0x66>
0x280b6818c923    63  4d8be1               REX.W movq r12,r9
0x280b6818c926    66  4c8bf8               REX.W movq r15,rax
0x280b6818c929    69  4403f8               addl r15,rax
0x280b6818c92c    6c  0f806f000000         jo 0x280b6818c9a1  <+0xe1>
0x280b6818c932    72  4d63ff               REX.W movsxlq r15,r15
0x280b6818c935    75  488bc2               REX.W movq rax,rdx
0x280b6818c938    78  03c2                 addl rax,rdx
0x280b6818c93a    7a  0f80ae000000         jo 0x280b6818c9ee  <+0x12e>
0x280b6818c940    80  4863c0               REX.W movsxlq rax,rax
0x280b6818c943    83  488bd1               REX.W movq rdx,rcx
0x280b6818c946    86  03d1                 addl rdx,rcx
0x280b6818c948    88  0f80ed000000         jo 0x280b6818ca3b  <+0x17b>
0x280b6818c94e    8e  4863ca               REX.W movsxlq rcx,rdx
0x280b6818c951    91  488bd3               REX.W movq rdx,rbx
0x280b6818c954    94  03d3                 addl rdx,rbx
0x280b6818c956    96  0f802f010000         jo 0x280b6818ca8b  <+0x1cb>
0x280b6818c95c    9c  4863da               REX.W movsxlq rbx,rdx
0x280b6818c95f    9f  53                   push rbx
0x280b6818c960    a0  51                   push rcx
0x280b6818c961    a1  50                   push rax
0x280b6818c962    a2  4157                 push r15
0x280b6818c964    a4  4154                 push r12
0x280b6818c966    a6  b805000000           movl rax,0x5
0x280b6818c96b    ab  498bd1               REX.W movq rdx,r9
0x280b6818c96e    ae  498bf3               REX.W movq rsi,r11
0x280b6818c971    b1  8b4f17               movl rcx,[rdi+0x17]
0x280b6818c974    b4  4903ce               REX.W addq rcx,r14
0x280b6818c977    b7  488b490f             REX.W movq rcx,[rcx+0xf]
0x280b6818c97b    bb  ffd1                 call rcx
0x280b6818c97d    bd  a801                 test al,0x1
0x280b6818c97f    bf  0f854e010000         jnz 0x280b6818cad3  <+0x213>
0x280b6818c985    c5  d1f8                 sarl rax, 1
0x280b6818c987    c7  488b5de8             REX.W movq rbx,[rbp-0x18]
0x280b6818c98b    cb  488b5b03             REX.W movq rbx,[rbx+0x3]
0x280b6818c98f    cf  488b9b48450000       REX.W movq rbx,[rbx+0x4548]
0x280b6818c996    d6  c70301000000         movl [rbx],0x1
0x280b6818c99c    dc  488be5               REX.W movq rsp,rbp
0x280b6818c99f    df  5d                   pop rbp
0x280b6818c9a0    e0  c3                   retl
0x280b6818c9a1    e1  48897dd8             REX.W movq [rbp-0x28],rdi
0x280b6818c9a5    e5  4c8965d0             REX.W movq [rbp-0x30],r12
0x280b6818c9a9    e9  4c894db0             REX.W movq [rbp-0x50],r9
0x280b6818c9ad    ed  4c895da8             REX.W movq [rbp-0x58],r11
0x280b6818c9b1    f1  48895da0             REX.W movq [rbp-0x60],rbx
0x280b6818c9b5    f5  48894db8             REX.W movq [rbp-0x48],rcx
0x280b6818c9b9    f9  488955c0             REX.W movq [rbp-0x40],rdx
0x280b6818c9bd    fd  e86e98ffff           call 0x280b68186230  (jump table)    ;; wasm stub: WasmInt32ToHeapNumber
0x280b6818c9c2   102  4c8bf8               REX.W movq r15,rax
0x280b6818c9c5   105  488b75e8             REX.W movq rsi,[rbp-0x18]
0x280b6818c9c9   109  4c8b45e0             REX.W movq r8,[rbp-0x20]
0x280b6818c9cd   10d  488b7dd8             REX.W movq rdi,[rbp-0x28]
0x280b6818c9d1   111  4c8b65d0             REX.W movq r12,[rbp-0x30]
0x280b6818c9d5   115  4c8b4db0             REX.W movq r9,[rbp-0x50]
0x280b6818c9d9   119  4c8b5da8             REX.W movq r11,[rbp-0x58]
0x280b6818c9dd   11d  488b5da0             REX.W movq rbx,[rbp-0x60]
0x280b6818c9e1   121  488b4db8             REX.W movq rcx,[rbp-0x48]
0x280b6818c9e5   125  488b55c0             REX.W movq rdx,[rbp-0x40]
0x280b6818c9e9   129  e947ffffff           jmp 0x280b6818c935  <+0x75>
0x280b6818c9ee   12e  48897dd8             REX.W movq [rbp-0x28],rdi
0x280b6818c9f2   132  4c8965d0             REX.W movq [rbp-0x30],r12
0x280b6818c9f6   136  4c897dc8             REX.W movq [rbp-0x38],r15
0x280b6818c9fa   13a  4c894db0             REX.W movq [rbp-0x50],r9
0x280b6818c9fe   13e  4c895da8             REX.W movq [rbp-0x58],r11
0x280b6818ca02   142  48895da0             REX.W movq [rbp-0x60],rbx
0x280b6818ca06   146  48894db8             REX.W movq [rbp-0x48],rcx
0x280b6818ca0a   14a  488bc2               REX.W movq rax,rdx
0x280b6818ca0d   14d  e81e98ffff           call 0x280b68186230  (jump table)    ;; wasm stub: WasmInt32ToHeapNumber
0x280b6818ca12   152  488b4db8             REX.W movq rcx,[rbp-0x48]
0x280b6818ca16   156  488b75e8             REX.W movq rsi,[rbp-0x18]
0x280b6818ca1a   15a  4c8b45e0             REX.W movq r8,[rbp-0x20]
0x280b6818ca1e   15e  488b7dd8             REX.W movq rdi,[rbp-0x28]
0x280b6818ca22   162  4c8b65d0             REX.W movq r12,[rbp-0x30]
0x280b6818ca26   166  4c8b7dc8             REX.W movq r15,[rbp-0x38]
0x280b6818ca2a   16a  4c8b4db0             REX.W movq r9,[rbp-0x50]
0x280b6818ca2e   16e  4c8b5da8             REX.W movq r11,[rbp-0x58]
0x280b6818ca32   172  488b5da0             REX.W movq rbx,[rbp-0x60]
0x280b6818ca36   176  e908ffffff           jmp 0x280b6818c943  <+0x83>
0x280b6818ca3b   17b  48897dd8             REX.W movq [rbp-0x28],rdi
0x280b6818ca3f   17f  4c8965d0             REX.W movq [rbp-0x30],r12
0x280b6818ca43   183  4c897dc8             REX.W movq [rbp-0x38],r15
0x280b6818ca47   187  488945c0             REX.W movq [rbp-0x40],rax
0x280b6818ca4b   18b  4c894db0             REX.W movq [rbp-0x50],r9
0x280b6818ca4f   18f  4c895da8             REX.W movq [rbp-0x58],r11
0x280b6818ca53   193  48895da0             REX.W movq [rbp-0x60],rbx
0x280b6818ca57   197  488bc1               REX.W movq rax,rcx
0x280b6818ca5a   19a  e8d197ffff           call 0x280b68186230  (jump table)    ;; wasm stub: WasmInt32ToHeapNumber
0x280b6818ca5f   19f  488bc8               REX.W movq rcx,rax
0x280b6818ca62   1a2  488b75e8             REX.W movq rsi,[rbp-0x18]
0x280b6818ca66   1a6  4c8b45e0             REX.W movq r8,[rbp-0x20]
0x280b6818ca6a   1aa  488b7dd8             REX.W movq rdi,[rbp-0x28]
0x280b6818ca6e   1ae  4c8b65d0             REX.W movq r12,[rbp-0x30]
0x280b6818ca72   1b2  4c8b7dc8             REX.W movq r15,[rbp-0x38]
0x280b6818ca76   1b6  488b45c0             REX.W movq rax,[rbp-0x40]
0x280b6818ca7a   1ba  4c8b4db0             REX.W movq r9,[rbp-0x50]
0x280b6818ca7e   1be  4c8b5da8             REX.W movq r11,[rbp-0x58]
0x280b6818ca82   1c2  488b5da0             REX.W movq rbx,[rbp-0x60]
0x280b6818ca86   1c6  e9c6feffff           jmp 0x280b6818c951  <+0x91>
0x280b6818ca8b   1cb  48897dd8             REX.W movq [rbp-0x28],rdi
0x280b6818ca8f   1cf  4c8965d0             REX.W movq [rbp-0x30],r12
0x280b6818ca93   1d3  4c897dc8             REX.W movq [rbp-0x38],r15
0x280b6818ca97   1d7  488945c0             REX.W movq [rbp-0x40],rax
0x280b6818ca9b   1db  48894db8             REX.W movq [rbp-0x48],rcx
0x280b6818ca9f   1df  4c894db0             REX.W movq [rbp-0x50],r9
0x280b6818caa3   1e3  4c895da8             REX.W movq [rbp-0x58],r11
0x280b6818caa7   1e7  488bc3               REX.W movq rax,rbx
0x280b6818caaa   1ea  e88197ffff           call 0x280b68186230  (jump table)    ;; wasm stub: WasmInt32ToHeapNumber
0x280b6818caaf   1ef  488bd8               REX.W movq rbx,rax
0x280b6818cab2   1f2  488b7dd8             REX.W movq rdi,[rbp-0x28]
0x280b6818cab6   1f6  4c8b65d0             REX.W movq r12,[rbp-0x30]
0x280b6818caba   1fa  4c8b7dc8             REX.W movq r15,[rbp-0x38]
0x280b6818cabe   1fe  488b45c0             REX.W movq rax,[rbp-0x40]
0x280b6818cac2   202  488b4db8             REX.W movq rcx,[rbp-0x48]
0x280b6818cac6   206  4c8b4db0             REX.W movq r9,[rbp-0x50]
0x280b6818caca   20a  4c8b5da8             REX.W movq r11,[rbp-0x58]
0x280b6818cace   20e  e98cfeffff           jmp 0x280b6818c95f  <+0x9f>
0x280b6818cad3   213  488b75e0             REX.W movq rsi,[rbp-0x20]
0x280b6818cad7   217  e86497ffff           call 0x280b68186240  (jump table)    ;; wasm stub: WasmTaggedNonSmiToInt32
0x280b6818cadc   21c  e9a6feffff           jmp 0x280b6818c987  <+0xc7>
0x280b6818cae1   221  90                   nop
0x280b6818cae2   222  6690                 nop

Safepoints (entries = 6, byte size = 32)
0x280b6818c97d     bd  slots (sp->fp): 0000000011000000
0x280b6818c9c2    102  slots (sp->fp): 0100001111000000
0x280b6818ca12    152  slots (sp->fp): 0100011111000000
0x280b6818ca5f    19f  slots (sp->fp): 0100111111000000
0x280b6818caaf    1ef  slots (sp->fp): 0101111111000000
0x280b6818cadc    21c  slots (sp->fp): 0000000001000000

RelocInfo (size = 13)
0x280b6818c9be  wasm stub call
0x280b6818ca0e  wasm stub call
0x280b6818ca5b  wasm stub call
0x280b6818caab  wasm stub call
0x280b6818cad8  wasm stub call

--- End code ---
--- WebAssembly code ---
name: shl_simd(unsigned char*, unsigned char*, unsigned int, int)
index: 5
kind: wasm function
compiler: Liftoff
Body (size = 3968 = 3932 + 36 padding)
Instructions (size = 3916)
0x280b68188480     0  55                   push rbp
0x280b68188481     1  4889e5               REX.W movq rbp,rsp
0x280b68188484     4  6a08                 push 0x8
0x280b68188486     6  56                   push rsi
0x280b68188487     7  4881ecb8000000       REX.W subq rsp,0xb8
0x280b6818848e     e  50                   push rax
0x280b6818848f     f  51                   push rcx
0x280b68188490    10  57                   push rdi
0x280b68188491    11  488dbd50ffffff       REX.W leaq rdi,[rbp-0xb0]
0x280b68188498    18  33c0                 xorl rax,rax
0x280b6818849a    1a  b91e000000           movl rcx,0x1e
0x280b6818849f    1f  f3ab                 rep stosl
0x280b681884a1    21  5f                   pop rdi
0x280b681884a2    22  59                   pop rcx
0x280b681884a3    23  58                   pop rax
0x280b681884a4    24  488b7e27             REX.W movq rdi,[rsi+0x27]
0x280b681884a8    28  483b27               REX.W cmpq rsp,[rdi]
0x280b681884ab    2b  0f86670e0000         jna 0x280b68189318  <+0xe98>
0x280b681884b1    31  8bf9                 movl rdi,rcx
0x280b681884b3    33  83e707               andl rdi,0x7
0x280b681884b6    36  33c9                 xorl rcx,rcx
0x280b681884b8    38  83fb10               cmpl rbx,0x10
0x280b681884bb    3b  0f8d05000000         jge 0x280b681884c6  <+0x46>
0x280b681884c1    41  e9ac0c0000           jmp 0x280b68189172  <+0xcf2>
0x280b681884c6    46  41b910000000         movl r9,0x10
0x280b681884cc    4c  41f7d9               negl r9
0x280b681884cf    4f  4403cb               addl r9,rbx
0x280b681884d2    52  418bf1               movl rsi,r9
0x280b681884d5    55  c1ee04               shrl rsi, 4
0x280b681884d8    58  83c601               addl rsi,0x1
0x280b681884db    5b  8945d4               movl [rbp-0x2c],rax
0x280b681884de    5e  8bc6                 movl rax,rsi
0x280b681884e0    60  83e003               andl rax,0x3
0x280b681884e3    63  c5796eff             vmovd xmm15,rdi
0x280b681884e7    67  c4c27978c7           vpbroadcastb xmm0,xmm15
0x280b681884ec    6c  4183f930             cmpl r9,0x30
0x280b681884f0    70  0f8271090000         jc 0x280b68188e67  <+0x9e7>
0x280b681884f6    76  894dcc               movl [rbp-0x34],rcx
0x280b681884f9    79  8bce                 movl rcx,rsi
0x280b681884fb    7b  81e1fcffff1f         andl rcx,0x1ffffffc
0x280b68188501    81  8955d0               movl [rbp-0x30],rdx
0x280b68188504    84  895dc8               movl [rbp-0x38],rbx
0x280b68188507    87  c5fa7f45a8           vmovdqu [rbp-0x58],xmm0
0x280b6818850c    8c  44894da4             movl [rbp-0x5c],r9
0x280b68188510    90  8975a0               movl [rbp-0x60],rsi
0x280b68188513    93  897d9c               movl [rbp-0x64],rdi
0x280b68188516    96  89855cffffff         movl [rbp-0xa4],rax
0x280b6818851c    9c  898d50ffffff         movl [rbp-0xb0],rcx
0x280b68188522    a2  488b75f0             REX.W movq rsi,[rbp-0x10]
0x280b68188526    a6  488b4627             REX.W movq rax,[rsi+0x27]
0x280b6818852a    aa  483b20               REX.W cmpq rsp,[rax]
0x280b6818852d    ad  0f86fb0d0000         jna 0x280b6818932e  <+0xeae>
0x280b68188533    b3  8b45d0               movl rax,[rbp-0x30]
0x280b68188536    b6  8b4dcc               movl rcx,[rbp-0x34]
0x280b68188539    b9  03c1                 addl rax,rcx
0x280b6818853b    bb  8b4dd4               movl rcx,[rbp-0x2c]
0x280b6818853e    be  8b55cc               movl rdx,[rbp-0x34]
0x280b68188541    c1  03ca                 addl rcx,rdx
0x280b68188543    c3  488b5617             REX.W movq rdx,[rsi+0x17]
0x280b68188547    c7  c5fa6f040a           vmovdqu xmm0,[rdx+rcx*1]
0x280b6818854c    cc  c4e37914c100         vpextrb cl,xmm0,0x0
0x280b68188552    d2  0fbec9               movsxbl rcx,rcx
0x280b68188555    d5  c5fa6f4da8           vmovdqu xmm1,[rbp-0x58]
0x280b6818855a    da  c4e37914cb00         vpextrb bl,xmm1,0x0
0x280b68188560    e0  448bd1               movl r10,rcx
0x280b68188563    e3  8bcb                 movl rcx,rbx
0x280b68188565    e5  41d3fa               sarl r10, cl
0x280b68188568    e8  418bca               movl rcx,r10
0x280b6818856b    eb  c5796ef9             vmovd xmm15,rcx
0x280b6818856f    ef  c4c27978cf           vpbroadcastb xmm1,xmm15
0x280b68188574    f4  c4e37914c101         vpextrb cl,xmm0,0x1
0x280b6818857a    fa  0fbec9               movsxbl rcx,rcx
0x280b6818857d    fd  c5fa6f55a8           vmovdqu xmm2,[rbp-0x58]
0x280b68188582   102  c4e37914d701         vpextrb dil,xmm2,0x1
0x280b68188588   108  448bd1               movl r10,rcx
0x280b6818858b   10b  8bcf                 movl rcx,rdi
0x280b6818858d   10d  41d3fa               sarl r10, cl
0x280b68188590   110  418bca               movl rcx,r10
0x280b68188593   113  c4e37120c901         vpinsrb xmm1,xmm1,cl,0x1
0x280b68188599   119  c4e37914c102         vpextrb cl,xmm0,0x2
0x280b6818859f   11f  0fbec9               movsxbl rcx,rcx
0x280b681885a2   122  c5fa6f55a8           vmovdqu xmm2,[rbp-0x58]
0x280b681885a7   127  c4c37914d102         vpextrb r9l,xmm2,0x2
0x280b681885ad   12d  448bd1               movl r10,rcx
0x280b681885b0   130  418bc9               movl rcx,r9
0x280b681885b3   133  41d3fa               sarl r10, cl
0x280b681885b6   136  418bca               movl rcx,r10
0x280b681885b9   139  c4e37120c902         vpinsrb xmm1,xmm1,cl,0x2
0x280b681885bf   13f  c4e37914c103         vpextrb cl,xmm0,0x3
0x280b681885c5   145  0fbec9               movsxbl rcx,rcx
0x280b681885c8   148  c5fa6f55a8           vmovdqu xmm2,[rbp-0x58]
0x280b681885cd   14d  c4e37914d603         vpextrb sil,xmm2,0x3
0x280b681885d3   153  448bd1               movl r10,rcx
0x280b681885d6   156  8bce                 movl rcx,rsi
0x280b681885d8   158  41d3fa               sarl r10, cl
0x280b681885db   15b  418bca               movl rcx,r10
0x280b681885de   15e  c4e37120c903         vpinsrb xmm1,xmm1,cl,0x3
0x280b681885e4   164  c4e37914c104         vpextrb cl,xmm0,0x4
0x280b681885ea   16a  0fbec9               movsxbl rcx,rcx
0x280b681885ed   16d  c5fa6f55a8           vmovdqu xmm2,[rbp-0x58]
0x280b681885f2   172  c4e37914d204         vpextrb dl,xmm2,0x4
0x280b681885f8   178  448bd1               movl r10,rcx
0x280b681885fb   17b  8bca                 movl rcx,rdx
0x280b681885fd   17d  41d3fa               sarl r10, cl
0x280b68188600   180  418bca               movl rcx,r10
0x280b68188603   183  c4e37120c904         vpinsrb xmm1,xmm1,cl,0x4
0x280b68188609   189  c4e37914c105         vpextrb cl,xmm0,0x5
0x280b6818860f   18f  0fbec9               movsxbl rcx,rcx
0x280b68188612   192  c5fa6f55a8           vmovdqu xmm2,[rbp-0x58]
0x280b68188617   197  89558c               movl [rbp-0x74],rdx
0x280b6818861a   19a  c4e37914d205         vpextrb dl,xmm2,0x5
0x280b68188620   1a0  448bd1               movl r10,rcx
0x280b68188623   1a3  8bca                 movl rcx,rdx
0x280b68188625   1a5  41d3fa               sarl r10, cl
0x280b68188628   1a8  418bca               movl rcx,r10
0x280b6818862b   1ab  c4e37120c905         vpinsrb xmm1,xmm1,cl,0x5
0x280b68188631   1b1  c4e37914c106         vpextrb cl,xmm0,0x6
0x280b68188637   1b7  0fbec9               movsxbl rcx,rcx
0x280b6818863a   1ba  c5fa6f55a8           vmovdqu xmm2,[rbp-0x58]
0x280b6818863f   1bf  895da4               movl [rbp-0x5c],rbx
0x280b68188642   1c2  c4e37914d306         vpextrb bl,xmm2,0x6
0x280b68188648   1c8  448bd1               movl r10,rcx
0x280b6818864b   1cb  8bcb                 movl rcx,rbx
0x280b6818864d   1cd  41d3fa               sarl r10, cl
0x280b68188650   1d0  418bca               movl rcx,r10
0x280b68188653   1d3  c4e37120c906         vpinsrb xmm1,xmm1,cl,0x6
0x280b68188659   1d9  c4e37914c107         vpextrb cl,xmm0,0x7
0x280b6818865f   1df  0fbec9               movsxbl rcx,rcx
0x280b68188662   1e2  c5fa6f55a8           vmovdqu xmm2,[rbp-0x58]
0x280b68188667   1e7  897590               movl [rbp-0x70],rsi
0x280b6818866a   1ea  c4e37914d607         vpextrb sil,xmm2,0x7
0x280b68188670   1f0  448bd1               movl r10,rcx
0x280b68188673   1f3  8bce                 movl rcx,rsi
0x280b68188675   1f5  41d3fa               sarl r10, cl
0x280b68188678   1f8  418bca               movl rcx,r10
0x280b6818867b   1fb  c4e37120c907         vpinsrb xmm1,xmm1,cl,0x7
0x280b68188681   201  c4e37914c108         vpextrb cl,xmm0,0x8
0x280b68188687   207  0fbec9               movsxbl rcx,rcx
0x280b6818868a   20a  c5fa6f55a8           vmovdqu xmm2,[rbp-0x58]
0x280b6818868f   20f  897da0               movl [rbp-0x60],rdi
0x280b68188692   212  c4e37914d708         vpextrb dil,xmm2,0x8
0x280b68188698   218  448bd1               movl r10,rcx
0x280b6818869b   21b  8bcf                 movl rcx,rdi
0x280b6818869d   21d  41d3fa               sarl r10, cl
0x280b681886a0   220  418bca               movl rcx,r10
0x280b681886a3   223  c4e37120c908         vpinsrb xmm1,xmm1,cl,0x8
0x280b681886a9   229  c4e37914c109         vpextrb cl,xmm0,0x9
0x280b681886af   22f  0fbec9               movsxbl rcx,rcx
0x280b681886b2   232  c5fa6f55a8           vmovdqu xmm2,[rbp-0x58]
0x280b681886b7   237  44894d98             movl [rbp-0x68],r9
0x280b681886bb   23b  c4c37914d109         vpextrb r9l,xmm2,0x9
0x280b681886c1   241  448bd1               movl r10,rcx
0x280b681886c4   244  418bc9               movl rcx,r9
0x280b681886c7   247  41d3fa               sarl r10, cl
0x280b681886ca   24a  418bca               movl rcx,r10
0x280b681886cd   24d  c4e37120c909         vpinsrb xmm1,xmm1,cl,0x9
0x280b681886d3   253  c4e37914c10a         vpextrb cl,xmm0,0xa
0x280b681886d9   259  0fbec9               movsxbl rcx,rcx
0x280b681886dc   25c  c5fa6f55a8           vmovdqu xmm2,[rbp-0x58]
0x280b681886e1   261  89854cffffff         movl [rbp-0xb4],rax
0x280b681886e7   267  c4e37914d00a         vpextrb al,xmm2,0xa
0x280b681886ed   26d  448bd1               movl r10,rcx
0x280b681886f0   270  8bc8                 movl rcx,rax
0x280b681886f2   272  41d3fa               sarl r10, cl
0x280b681886f5   275  418bca               movl rcx,r10
0x280b681886f8   278  c4e37120c90a         vpinsrb xmm1,xmm1,cl,0xa
0x280b681886fe   27e  c4e37914c10b         vpextrb cl,xmm0,0xb
0x280b68188704   284  0fbec9               movsxbl rcx,rcx
0x280b68188707   287  c5fa6f55a8           vmovdqu xmm2,[rbp-0x58]
0x280b6818870c   28c  898d38ffffff         movl [rbp-0xc8],rcx
0x280b68188712   292  c4e37914d10b         vpextrb cl,xmm2,0xb
0x280b68188718   298  895588               movl [rbp-0x78],rdx
0x280b6818871b   29b  8b9538ffffff         movl rdx,[rbp-0xc8]
0x280b68188721   2a1  d3fa                 sarl rdx, cl
0x280b68188723   2a3  c4e37120ca0b         vpinsrb xmm1,xmm1,dl,0xb
0x280b68188729   2a9  c4e37914c20c         vpextrb dl,xmm0,0xc
0x280b6818872f   2af  0fbed2               movsxbl rdx,rdx
0x280b68188732   2b2  c5fa6f55a8           vmovdqu xmm2,[rbp-0x58]
0x280b68188737   2b7  895d84               movl [rbp-0x7c],rbx
0x280b6818873a   2ba  c4e37914d30c         vpextrb bl,xmm2,0xc
0x280b68188740   2c0  4c8bd1               REX.W movq r10,rcx
0x280b68188743   2c3  8bcb                 movl rcx,rbx
0x280b68188745   2c5  d3fa                 sarl rdx, cl
0x280b68188747   2c7  498bca               REX.W movq rcx,r10
0x280b6818874a   2ca  c4e37120ca0c         vpinsrb xmm1,xmm1,dl,0xc
0x280b68188750   2d0  c4e37914c20d         vpextrb dl,xmm0,0xd
0x280b68188756   2d6  0fbed2               movsxbl rdx,rdx
0x280b68188759   2d9  c5fa6f55a8           vmovdqu xmm2,[rbp-0x58]
0x280b6818875e   2de  897580               movl [rbp-0x80],rsi
0x280b68188761   2e1  c4e37914d60d         vpextrb sil,xmm2,0xd
0x280b68188767   2e7  4c8bd1               REX.W movq r10,rcx
0x280b6818876a   2ea  8bce                 movl rcx,rsi
0x280b6818876c   2ec  d3fa                 sarl rdx, cl
0x280b6818876e   2ee  498bca               REX.W movq rcx,r10
0x280b68188771   2f1  c4e37120ca0d         vpinsrb xmm1,xmm1,dl,0xd
0x280b68188777   2f7  c4e37914c20e         vpextrb dl,xmm0,0xe
0x280b6818877d   2fd  0fbed2               movsxbl rdx,rdx
0x280b68188780   300  c5fa6f55a8           vmovdqu xmm2,[rbp-0x58]
0x280b68188785   305  89bd7cffffff         movl [rbp-0x84],rdi
0x280b6818878b   30b  c4e37914d70e         vpextrb dil,xmm2,0xe
0x280b68188791   311  4c8bd1               REX.W movq r10,rcx
0x280b68188794   314  8bcf                 movl rcx,rdi
0x280b68188796   316  d3fa                 sarl rdx, cl
0x280b68188798   318  498bca               REX.W movq rcx,r10
0x280b6818879b   31b  c4e37120ca0e         vpinsrb xmm1,xmm1,dl,0xe
0x280b681887a1   321  c4e37914c20f         vpextrb dl,xmm0,0xf
0x280b681887a7   327  0fbed2               movsxbl rdx,rdx
0x280b681887aa   32a  c5fa6f55a8           vmovdqu xmm2,[rbp-0x58]
0x280b681887af   32f  44898d78ffffff       movl [rbp-0x88],r9
0x280b681887b6   336  c4c37914d10f         vpextrb r9l,xmm2,0xf
0x280b681887bc   33c  4c8bd1               REX.W movq r10,rcx
0x280b681887bf   33f  418bc9               movl rcx,r9
0x280b681887c2   342  d3fa                 sarl rdx, cl
0x280b681887c4   344  498bca               REX.W movq rcx,r10
0x280b681887c7   347  c4e37120ca0f         vpinsrb xmm1,xmm1,dl,0xf
0x280b681887cd   34d  8b954cffffff         movl rdx,[rbp-0xb4]
0x280b681887d3   353  898574ffffff         movl [rbp-0x8c],rax
0x280b681887d9   359  488b45f0             REX.W movq rax,[rbp-0x10]
0x280b681887dd   35d  488b4017             REX.W movq rax,[rax+0x17]
0x280b681887e1   361  c5fa7f0c10           vmovdqu [rax+rdx*1],xmm1
0x280b681887e6   366  8b55d0               movl rdx,[rbp-0x30]
0x280b681887e9   369  8b45cc               movl rax,[rbp-0x34]
0x280b681887ec   36c  83c810               orl rax,0x10
0x280b681887ef   36f  03d0                 addl rdx,rax
0x280b681887f1   371  898d70ffffff         movl [rbp-0x90],rcx
0x280b681887f7   377  8b4dd4               movl rcx,[rbp-0x2c]
0x280b681887fa   37a  03c8                 addl rcx,rax
0x280b681887fc   37c  89954cffffff         movl [rbp-0xb4],rdx
0x280b68188802   382  488b55f0             REX.W movq rdx,[rbp-0x10]
0x280b68188806   386  488b5217             REX.W movq rdx,[rdx+0x17]
0x280b6818880a   38a  c5fa6f0c0a           vmovdqu xmm1,[rdx+rcx*1]
0x280b6818880f   38f  c4e37914c900         vpextrb cl,xmm1,0x0
0x280b68188815   395  0fbec9               movsxbl rcx,rcx
0x280b68188818   398  8b55a4               movl rdx,[rbp-0x5c]
0x280b6818881b   39b  448bd1               movl r10,rcx
0x280b6818881e   39e  8bca                 movl rcx,rdx
0x280b68188820   3a0  41d3fa               sarl r10, cl
0x280b68188823   3a3  418bca               movl rcx,r10
0x280b68188826   3a6  c5796ef9             vmovd xmm15,rcx
0x280b6818882a   3aa  c4c27978c7           vpbroadcastb xmm0,xmm15
0x280b6818882f   3af  c4e37914c901         vpextrb cl,xmm1,0x1
0x280b68188835   3b5  0fbec9               movsxbl rcx,rcx
0x280b68188838   3b8  8b55a0               movl rdx,[rbp-0x60]
0x280b6818883b   3bb  448bd1               movl r10,rcx
0x280b6818883e   3be  8bca                 movl rcx,rdx
0x280b68188840   3c0  41d3fa               sarl r10, cl
0x280b68188843   3c3  418bca               movl rcx,r10
0x280b68188846   3c6  c4e37920c101         vpinsrb xmm0,xmm0,cl,0x1
0x280b6818884c   3cc  c4e37914c902         vpextrb cl,xmm1,0x2
0x280b68188852   3d2  0fbec9               movsxbl rcx,rcx
0x280b68188855   3d5  8b5598               movl rdx,[rbp-0x68]
0x280b68188858   3d8  448bd1               movl r10,rcx
0x280b6818885b   3db  8bca                 movl rcx,rdx
0x280b6818885d   3dd  41d3fa               sarl r10, cl
0x280b68188860   3e0  418bca               movl rcx,r10
0x280b68188863   3e3  c4e37920c102         vpinsrb xmm0,xmm0,cl,0x2
0x280b68188869   3e9  c4e37914c903         vpextrb cl,xmm1,0x3
0x280b6818886f   3ef  0fbec9               movsxbl rcx,rcx
0x280b68188872   3f2  8b5590               movl rdx,[rbp-0x70]
0x280b68188875   3f5  448bd1               movl r10,rcx
0x280b68188878   3f8  8bca                 movl rcx,rdx
0x280b6818887a   3fa  41d3fa               sarl r10, cl
0x280b6818887d   3fd  418bca               movl rcx,r10
0x280b68188880   400  c4e37920c103         vpinsrb xmm0,xmm0,cl,0x3
0x280b68188886   406  c4e37914c904         vpextrb cl,xmm1,0x4
0x280b6818888c   40c  0fbec9               movsxbl rcx,rcx
0x280b6818888f   40f  8b558c               movl rdx,[rbp-0x74]
0x280b68188892   412  448bd1               movl r10,rcx
0x280b68188895   415  8bca                 movl rcx,rdx
0x280b68188897   417  41d3fa               sarl r10, cl
0x280b6818889a   41a  418bca               movl rcx,r10
0x280b6818889d   41d  c4e37920c104         vpinsrb xmm0,xmm0,cl,0x4
0x280b681888a3   423  c4e37914c905         vpextrb cl,xmm1,0x5
0x280b681888a9   429  0fbec9               movsxbl rcx,rcx
0x280b681888ac   42c  8b5588               movl rdx,[rbp-0x78]
0x280b681888af   42f  448bd1               movl r10,rcx
0x280b681888b2   432  8bca                 movl rcx,rdx
0x280b681888b4   434  41d3fa               sarl r10, cl
0x280b681888b7   437  418bca               movl rcx,r10
0x280b681888ba   43a  c4e37920c105         vpinsrb xmm0,xmm0,cl,0x5
0x280b681888c0   440  c4e37914c906         vpextrb cl,xmm1,0x6
0x280b681888c6   446  0fbec9               movsxbl rcx,rcx
0x280b681888c9   449  8b5584               movl rdx,[rbp-0x7c]
0x280b681888cc   44c  448bd1               movl r10,rcx
0x280b681888cf   44f  8bca                 movl rcx,rdx
0x280b681888d1   451  41d3fa               sarl r10, cl
0x280b681888d4   454  418bca               movl rcx,r10
0x280b681888d7   457  c4e37920c106         vpinsrb xmm0,xmm0,cl,0x6
0x280b681888dd   45d  c4e37914c907         vpextrb cl,xmm1,0x7
0x280b681888e3   463  0fbec9               movsxbl rcx,rcx
0x280b681888e6   466  8b5580               movl rdx,[rbp-0x80]
0x280b681888e9   469  448bd1               movl r10,rcx
0x280b681888ec   46c  8bca                 movl rcx,rdx
0x280b681888ee   46e  41d3fa               sarl r10, cl
0x280b681888f1   471  418bca               movl rcx,r10
0x280b681888f4   474  c4e37920c107         vpinsrb xmm0,xmm0,cl,0x7
0x280b681888fa   47a  c4e37914c908         vpextrb cl,xmm1,0x8
0x280b68188900   480  0fbec9               movsxbl rcx,rcx
0x280b68188903   483  8b957cffffff         movl rdx,[rbp-0x84]
0x280b68188909   489  448bd1               movl r10,rcx
0x280b6818890c   48c  8bca                 movl rcx,rdx
0x280b6818890e   48e  41d3fa               sarl r10, cl
0x280b68188911   491  418bca               movl rcx,r10
0x280b68188914   494  c4e37920c108         vpinsrb xmm0,xmm0,cl,0x8
0x280b6818891a   49a  c4e37914c909         vpextrb cl,xmm1,0x9
0x280b68188920   4a0  0fbec9               movsxbl rcx,rcx
0x280b68188923   4a3  8b9578ffffff         movl rdx,[rbp-0x88]
0x280b68188929   4a9  448bd1               movl r10,rcx
0x280b6818892c   4ac  8bca                 movl rcx,rdx
0x280b6818892e   4ae  41d3fa               sarl r10, cl
0x280b68188931   4b1  418bca               movl rcx,r10
0x280b68188934   4b4  c4e37920c109         vpinsrb xmm0,xmm0,cl,0x9
0x280b6818893a   4ba  c4e37914c90a         vpextrb cl,xmm1,0xa
0x280b68188940   4c0  0fbec9               movsxbl rcx,rcx
0x280b68188943   4c3  8b9574ffffff         movl rdx,[rbp-0x8c]
0x280b68188949   4c9  448bd1               movl r10,rcx
0x280b6818894c   4cc  8bca                 movl rcx,rdx
0x280b6818894e   4ce  41d3fa               sarl r10, cl
0x280b68188951   4d1  418bca               movl rcx,r10
0x280b68188954   4d4  c4e37920c10a         vpinsrb xmm0,xmm0,cl,0xa
0x280b6818895a   4da  c4e37914c90b         vpextrb cl,xmm1,0xb
0x280b68188960   4e0  0fbec9               movsxbl rcx,rcx
0x280b68188963   4e3  8b9570ffffff         movl rdx,[rbp-0x90]
0x280b68188969   4e9  448bd1               movl r10,rcx
0x280b6818896c   4ec  8bca                 movl rcx,rdx
0x280b6818896e   4ee  41d3fa               sarl r10, cl
0x280b68188971   4f1  418bca               movl rcx,r10
0x280b68188974   4f4  c4e37920c10b         vpinsrb xmm0,xmm0,cl,0xb
0x280b6818897a   4fa  c4e37914c90c         vpextrb cl,xmm1,0xc
0x280b68188980   500  0fbec9               movsxbl rcx,rcx
0x280b68188983   503  448bd1               movl r10,rcx
0x280b68188986   506  8bcb                 movl rcx,rbx
0x280b68188988   508  41d3fa               sarl r10, cl
0x280b6818898b   50b  418bca               movl rcx,r10
0x280b6818898e   50e  c4e37920c10c         vpinsrb xmm0,xmm0,cl,0xc
0x280b68188994   514  c4e37914c90d         vpextrb cl,xmm1,0xd
0x280b6818899a   51a  0fbec9               movsxbl rcx,rcx
0x280b6818899d   51d  448bd1               movl r10,rcx
0x280b681889a0   520  8bce                 movl rcx,rsi
0x280b681889a2   522  41d3fa               sarl r10, cl
0x280b681889a5   525  418bca               movl rcx,r10
0x280b681889a8   528  c4e37920c10d         vpinsrb xmm0,xmm0,cl,0xd
0x280b681889ae   52e  c4e37914c90e         vpextrb cl,xmm1,0xe
0x280b681889b4   534  0fbec9               movsxbl rcx,rcx
0x280b681889b7   537  448bd1               movl r10,rcx
0x280b681889ba   53a  8bcf                 movl rcx,rdi
0x280b681889bc   53c  41d3fa               sarl r10, cl
0x280b681889bf   53f  418bca               movl rcx,r10
0x280b681889c2   542  c4e37920c10e         vpinsrb xmm0,xmm0,cl,0xe
0x280b681889c8   548  c4e37914c90f         vpextrb cl,xmm1,0xf
0x280b681889ce   54e  0fbec9               movsxbl rcx,rcx
0x280b681889d1   551  448bd1               movl r10,rcx
0x280b681889d4   554  418bc9               movl rcx,r9
0x280b681889d7   557  41d3fa               sarl r10, cl
0x280b681889da   55a  418bca               movl rcx,r10
0x280b681889dd   55d  c4e37920c10f         vpinsrb xmm0,xmm0,cl,0xf
0x280b681889e3   563  8b8d4cffffff         movl rcx,[rbp-0xb4]
0x280b681889e9   569  488b55f0             REX.W movq rdx,[rbp-0x10]
0x280b681889ed   56d  488b5217             REX.W movq rdx,[rdx+0x17]
0x280b681889f1   571  c5fa7f040a           vmovdqu [rdx+rcx*1],xmm0
0x280b681889f6   576  8b4dd0               movl rcx,[rbp-0x30]
0x280b681889f9   579  8b55cc               movl rdx,[rbp-0x34]
0x280b681889fc   57c  83ca20               orl rdx,0x20
0x280b681889ff   57f  03ca                 addl rcx,rdx
0x280b68188a01   581  8b45d4               movl rax,[rbp-0x2c]
0x280b68188a04   584  03c2                 addl rax,rdx
0x280b68188a06   586  899d6cffffff         movl [rbp-0x94],rbx
0x280b68188a0c   58c  488b5df0             REX.W movq rbx,[rbp-0x10]
0x280b68188a10   590  488b5b17             REX.W movq rbx,[rbx+0x17]
0x280b68188a14   594  c5fa6f0403           vmovdqu xmm0,[rbx+rax*1]
0x280b68188a19   599  c4e37914c000         vpextrb al,xmm0,0x0
0x280b68188a1f   59f  0fbec0               movsxbl rax,rax
0x280b68188a22   5a2  8b5da4               movl rbx,[rbp-0x5c]
0x280b68188a25   5a5  4c8bd1               REX.W movq r10,rcx
0x280b68188a28   5a8  8bcb                 movl rcx,rbx
0x280b68188a2a   5aa  d3f8                 sarl rax, cl
0x280b68188a2c   5ac  498bca               REX.W movq rcx,r10
0x280b68188a2f   5af  c5796ef8             vmovd xmm15,rax
0x280b68188a33   5b3  c4c27978cf           vpbroadcastb xmm1,xmm15
0x280b68188a38   5b8  c4e37914c001         vpextrb al,xmm0,0x1
0x280b68188a3e   5be  0fbec0               movsxbl rax,rax
0x280b68188a41   5c1  8b5da0               movl rbx,[rbp-0x60]
0x280b68188a44   5c4  4c8bd1               REX.W movq r10,rcx
0x280b68188a47   5c7  8bcb                 movl rcx,rbx
0x280b68188a49   5c9  d3f8                 sarl rax, cl
0x280b68188a4b   5cb  498bca               REX.W movq rcx,r10
0x280b68188a4e   5ce  c4e37120c801         vpinsrb xmm1,xmm1,al,0x1
0x280b68188a54   5d4  c4e37914c002         vpextrb al,xmm0,0x2
0x280b68188a5a   5da  0fbec0               movsxbl rax,rax
0x280b68188a5d   5dd  8b5d98               movl rbx,[rbp-0x68]
0x280b68188a60   5e0  4c8bd1               REX.W movq r10,rcx
0x280b68188a63   5e3  8bcb                 movl rcx,rbx
0x280b68188a65   5e5  d3f8                 sarl rax, cl
0x280b68188a67   5e7  498bca               REX.W movq rcx,r10
0x280b68188a6a   5ea  c4e37120c802         vpinsrb xmm1,xmm1,al,0x2
0x280b68188a70   5f0  c4e37914c003         vpextrb al,xmm0,0x3
0x280b68188a76   5f6  0fbec0               movsxbl rax,rax
0x280b68188a79   5f9  8b5d90               movl rbx,[rbp-0x70]
0x280b68188a7c   5fc  4c8bd1               REX.W movq r10,rcx
0x280b68188a7f   5ff  8bcb                 movl rcx,rbx
0x280b68188a81   601  d3f8                 sarl rax, cl
0x280b68188a83   603  498bca               REX.W movq rcx,r10
0x280b68188a86   606  c4e37120c803         vpinsrb xmm1,xmm1,al,0x3
0x280b68188a8c   60c  c4e37914c004         vpextrb al,xmm0,0x4
0x280b68188a92   612  0fbec0               movsxbl rax,rax
0x280b68188a95   615  8b5d8c               movl rbx,[rbp-0x74]
0x280b68188a98   618  4c8bd1               REX.W movq r10,rcx
0x280b68188a9b   61b  8bcb                 movl rcx,rbx
0x280b68188a9d   61d  d3f8                 sarl rax, cl
0x280b68188a9f   61f  498bca               REX.W movq rcx,r10
0x280b68188aa2   622  c4e37120c804         vpinsrb xmm1,xmm1,al,0x4
0x280b68188aa8   628  c4e37914c005         vpextrb al,xmm0,0x5
0x280b68188aae   62e  0fbec0               movsxbl rax,rax
0x280b68188ab1   631  8b5d88               movl rbx,[rbp-0x78]
0x280b68188ab4   634  4c8bd1               REX.W movq r10,rcx
0x280b68188ab7   637  8bcb                 movl rcx,rbx
0x280b68188ab9   639  d3f8                 sarl rax, cl
0x280b68188abb   63b  498bca               REX.W movq rcx,r10
0x280b68188abe   63e  c4e37120c805         vpinsrb xmm1,xmm1,al,0x5
0x280b68188ac4   644  c4e37914c006         vpextrb al,xmm0,0x6
0x280b68188aca   64a  0fbec0               movsxbl rax,rax
0x280b68188acd   64d  8b5d84               movl rbx,[rbp-0x7c]
0x280b68188ad0   650  4c8bd1               REX.W movq r10,rcx
0x280b68188ad3   653  8bcb                 movl rcx,rbx
0x280b68188ad5   655  d3f8                 sarl rax, cl
0x280b68188ad7   657  498bca               REX.W movq rcx,r10
0x280b68188ada   65a  c4e37120c806         vpinsrb xmm1,xmm1,al,0x6
0x280b68188ae0   660  c4e37914c007         vpextrb al,xmm0,0x7
0x280b68188ae6   666  0fbec0               movsxbl rax,rax
0x280b68188ae9   669  8b5d80               movl rbx,[rbp-0x80]
0x280b68188aec   66c  4c8bd1               REX.W movq r10,rcx
0x280b68188aef   66f  8bcb                 movl rcx,rbx
0x280b68188af1   671  d3f8                 sarl rax, cl
0x280b68188af3   673  498bca               REX.W movq rcx,r10
0x280b68188af6   676  c4e37120c807         vpinsrb xmm1,xmm1,al,0x7
0x280b68188afc   67c  c4e37914c008         vpextrb al,xmm0,0x8
0x280b68188b02   682  0fbec0               movsxbl rax,rax
0x280b68188b05   685  8b9d7cffffff         movl rbx,[rbp-0x84]
0x280b68188b0b   68b  4c8bd1               REX.W movq r10,rcx
0x280b68188b0e   68e  8bcb                 movl rcx,rbx
0x280b68188b10   690  d3f8                 sarl rax, cl
0x280b68188b12   692  498bca               REX.W movq rcx,r10
0x280b68188b15   695  c4e37120c808         vpinsrb xmm1,xmm1,al,0x8
0x280b68188b1b   69b  c4e37914c009         vpextrb al,xmm0,0x9
0x280b68188b21   6a1  0fbec0               movsxbl rax,rax
0x280b68188b24   6a4  8b9d78ffffff         movl rbx,[rbp-0x88]
0x280b68188b2a   6aa  4c8bd1               REX.W movq r10,rcx
0x280b68188b2d   6ad  8bcb                 movl rcx,rbx
0x280b68188b2f   6af  d3f8                 sarl rax, cl
0x280b68188b31   6b1  498bca               REX.W movq rcx,r10
0x280b68188b34   6b4  c4e37120c809         vpinsrb xmm1,xmm1,al,0x9
0x280b68188b3a   6ba  c4e37914c00a         vpextrb al,xmm0,0xa
0x280b68188b40   6c0  0fbec0               movsxbl rax,rax
0x280b68188b43   6c3  8b9d74ffffff         movl rbx,[rbp-0x8c]
0x280b68188b49   6c9  4c8bd1               REX.W movq r10,rcx
0x280b68188b4c   6cc  8bcb                 movl rcx,rbx
0x280b68188b4e   6ce  d3f8                 sarl rax, cl
0x280b68188b50   6d0  498bca               REX.W movq rcx,r10
0x280b68188b53   6d3  c4e37120c80a         vpinsrb xmm1,xmm1,al,0xa
0x280b68188b59   6d9  c4e37914c00b         vpextrb al,xmm0,0xb
0x280b68188b5f   6df  0fbec0               movsxbl rax,rax
0x280b68188b62   6e2  8b9d70ffffff         movl rbx,[rbp-0x90]
0x280b68188b68   6e8  4c8bd1               REX.W movq r10,rcx
0x280b68188b6b   6eb  8bcb                 movl rcx,rbx
0x280b68188b6d   6ed  d3f8                 sarl rax, cl
0x280b68188b6f   6ef  498bca               REX.W movq rcx,r10
0x280b68188b72   6f2  c4e37120c80b         vpinsrb xmm1,xmm1,al,0xb
0x280b68188b78   6f8  c4e37914c00c         vpextrb al,xmm0,0xc
0x280b68188b7e   6fe  0fbec0               movsxbl rax,rax
0x280b68188b81   701  8b9d6cffffff         movl rbx,[rbp-0x94]
0x280b68188b87   707  4c8bd1               REX.W movq r10,rcx
0x280b68188b8a   70a  8bcb                 movl rcx,rbx
0x280b68188b8c   70c  d3f8                 sarl rax, cl
0x280b68188b8e   70e  498bca               REX.W movq rcx,r10
0x280b68188b91   711  c4e37120c80c         vpinsrb xmm1,xmm1,al,0xc
0x280b68188b97   717  c4e37914c00d         vpextrb al,xmm0,0xd
0x280b68188b9d   71d  0fbec0               movsxbl rax,rax
0x280b68188ba0   720  4c8bd1               REX.W movq r10,rcx
0x280b68188ba3   723  8bce                 movl rcx,rsi
0x280b68188ba5   725  d3f8                 sarl rax, cl
0x280b68188ba7   727  498bca               REX.W movq rcx,r10
0x280b68188baa   72a  c4e37120c80d         vpinsrb xmm1,xmm1,al,0xd
0x280b68188bb0   730  c4e37914c00e         vpextrb al,xmm0,0xe
0x280b68188bb6   736  0fbec0               movsxbl rax,rax
0x280b68188bb9   739  4c8bd1               REX.W movq r10,rcx
0x280b68188bbc   73c  8bcf                 movl rcx,rdi
0x280b68188bbe   73e  d3f8                 sarl rax, cl
0x280b68188bc0   740  498bca               REX.W movq rcx,r10
0x280b68188bc3   743  c4e37120c80e         vpinsrb xmm1,xmm1,al,0xe
0x280b68188bc9   749  c4e37914c00f         vpextrb al,xmm0,0xf
0x280b68188bcf   74f  0fbec0               movsxbl rax,rax
0x280b68188bd2   752  4c8bd1               REX.W movq r10,rcx
0x280b68188bd5   755  418bc9               movl rcx,r9
0x280b68188bd8   758  d3f8                 sarl rax, cl
0x280b68188bda   75a  498bca               REX.W movq rcx,r10
0x280b68188bdd   75d  c4e37120c80f         vpinsrb xmm1,xmm1,al,0xf
0x280b68188be3   763  488b5df0             REX.W movq rbx,[rbp-0x10]
0x280b68188be7   767  488b4317             REX.W movq rax,[rbx+0x17]
0x280b68188beb   76b  c5fa7f0c08           vmovdqu [rax+rcx*1],xmm1
0x280b68188bf0   770  8b4dd0               movl rcx,[rbp-0x30]
0x280b68188bf3   773  8b5dcc               movl rbx,[rbp-0x34]
0x280b68188bf6   776  83cb30               orl rbx,0x30
0x280b68188bf9   779  03cb                 addl rcx,rbx
0x280b68188bfb   77b  8b55d4               movl rdx,[rbp-0x2c]
0x280b68188bfe   77e  03d3                 addl rdx,rbx
0x280b68188c00   780  c5fa6f0c10           vmovdqu xmm1,[rax+rdx*1]
0x280b68188c05   785  c4e37914ca00         vpextrb dl,xmm1,0x0
0x280b68188c0b   78b  0fbed2               movsxbl rdx,rdx
0x280b68188c0e   78e  8b45a4               movl rax,[rbp-0x5c]
0x280b68188c11   791  4c8bd1               REX.W movq r10,rcx
0x280b68188c14   794  8bc8                 movl rcx,rax
0x280b68188c16   796  d3fa                 sarl rdx, cl
0x280b68188c18   798  498bca               REX.W movq rcx,r10
0x280b68188c1b   79b  c5796efa             vmovd xmm15,rdx
0x280b68188c1f   79f  c4c27978c7           vpbroadcastb xmm0,xmm15
0x280b68188c24   7a4  c4e37914c801         vpextrb al,xmm1,0x1
0x280b68188c2a   7aa  0fbec0               movsxbl rax,rax
0x280b68188c2d   7ad  8b55a0               movl rdx,[rbp-0x60]
0x280b68188c30   7b0  4c8bd1               REX.W movq r10,rcx
0x280b68188c33   7b3  8bca                 movl rcx,rdx
0x280b68188c35   7b5  d3f8                 sarl rax, cl
0x280b68188c37   7b7  498bca               REX.W movq rcx,r10
0x280b68188c3a   7ba  c4e37920c001         vpinsrb xmm0,xmm0,al,0x1
0x280b68188c40   7c0  c4e37914c802         vpextrb al,xmm1,0x2
0x280b68188c46   7c6  0fbec0               movsxbl rax,rax
0x280b68188c49   7c9  8b5598               movl rdx,[rbp-0x68]
0x280b68188c4c   7cc  4c8bd1               REX.W movq r10,rcx
0x280b68188c4f   7cf  8bca                 movl rcx,rdx
0x280b68188c51   7d1  d3f8                 sarl rax, cl
0x280b68188c53   7d3  498bca               REX.W movq rcx,r10
0x280b68188c56   7d6  c4e37920c002         vpinsrb xmm0,xmm0,al,0x2
0x280b68188c5c   7dc  c4e37914c803         vpextrb al,xmm1,0x3
0x280b68188c62   7e2  0fbec0               movsxbl rax,rax
0x280b68188c65   7e5  8b5590               movl rdx,[rbp-0x70]
0x280b68188c68   7e8  4c8bd1               REX.W movq r10,rcx
0x280b68188c6b   7eb  8bca                 movl rcx,rdx
0x280b68188c6d   7ed  d3f8                 sarl rax, cl
0x280b68188c6f   7ef  498bca               REX.W movq rcx,r10
0x280b68188c72   7f2  c4e37920c003         vpinsrb xmm0,xmm0,al,0x3
0x280b68188c78   7f8  c4e37914c804         vpextrb al,xmm1,0x4
0x280b68188c7e   7fe  0fbec0               movsxbl rax,rax
0x280b68188c81   801  8b558c               movl rdx,[rbp-0x74]
0x280b68188c84   804  4c8bd1               REX.W movq r10,rcx
0x280b68188c87   807  8bca                 movl rcx,rdx
0x280b68188c89   809  d3f8                 sarl rax, cl
0x280b68188c8b   80b  498bca               REX.W movq rcx,r10
0x280b68188c8e   80e  c4e37920c004         vpinsrb xmm0,xmm0,al,0x4
0x280b68188c94   814  c4e37914c805         vpextrb al,xmm1,0x5
0x280b68188c9a   81a  0fbec0               movsxbl rax,rax
0x280b68188c9d   81d  8b5588               movl rdx,[rbp-0x78]
0x280b68188ca0   820  4c8bd1               REX.W movq r10,rcx
0x280b68188ca3   823  8bca                 movl rcx,rdx
0x280b68188ca5   825  d3f8                 sarl rax, cl
0x280b68188ca7   827  498bca               REX.W movq rcx,r10
0x280b68188caa   82a  c4e37920c005         vpinsrb xmm0,xmm0,al,0x5
0x280b68188cb0   830  c4e37914c806         vpextrb al,xmm1,0x6
0x280b68188cb6   836  0fbec0               movsxbl rax,rax
0x280b68188cb9   839  8b5584               movl rdx,[rbp-0x7c]
0x280b68188cbc   83c  4c8bd1               REX.W movq r10,rcx
0x280b68188cbf   83f  8bca                 movl rcx,rdx
0x280b68188cc1   841  d3f8                 sarl rax, cl
0x280b68188cc3   843  498bca               REX.W movq rcx,r10
0x280b68188cc6   846  c4e37920c006         vpinsrb xmm0,xmm0,al,0x6
0x280b68188ccc   84c  c4e37914c807         vpextrb al,xmm1,0x7
0x280b68188cd2   852  0fbec0               movsxbl rax,rax
0x280b68188cd5   855  8b5580               movl rdx,[rbp-0x80]
0x280b68188cd8   858  4c8bd1               REX.W movq r10,rcx
0x280b68188cdb   85b  8bca                 movl rcx,rdx
0x280b68188cdd   85d  d3f8                 sarl rax, cl
0x280b68188cdf   85f  498bca               REX.W movq rcx,r10
0x280b68188ce2   862  c4e37920c007         vpinsrb xmm0,xmm0,al,0x7
0x280b68188ce8   868  c4e37914c808         vpextrb al,xmm1,0x8
0x280b68188cee   86e  0fbec0               movsxbl rax,rax
0x280b68188cf1   871  8b957cffffff         movl rdx,[rbp-0x84]
0x280b68188cf7   877  4c8bd1               REX.W movq r10,rcx
0x280b68188cfa   87a  8bca                 movl rcx,rdx
0x280b68188cfc   87c  d3f8                 sarl rax, cl
0x280b68188cfe   87e  498bca               REX.W movq rcx,r10
0x280b68188d01   881  c4e37920c008         vpinsrb xmm0,xmm0,al,0x8
0x280b68188d07   887  c4e37914c809         vpextrb al,xmm1,0x9
0x280b68188d0d   88d  0fbec0               movsxbl rax,rax
0x280b68188d10   890  8b9578ffffff         movl rdx,[rbp-0x88]
0x280b68188d16   896  4c8bd1               REX.W movq r10,rcx
0x280b68188d19   899  8bca                 movl rcx,rdx
0x280b68188d1b   89b  d3f8                 sarl rax, cl
0x280b68188d1d   89d  498bca               REX.W movq rcx,r10
0x280b68188d20   8a0  c4e37920c009         vpinsrb xmm0,xmm0,al,0x9
0x280b68188d26   8a6  c4e37914c80a         vpextrb al,xmm1,0xa
0x280b68188d2c   8ac  0fbec0               movsxbl rax,rax
0x280b68188d2f   8af  8b9574ffffff         movl rdx,[rbp-0x8c]
0x280b68188d35   8b5  4c8bd1               REX.W movq r10,rcx
0x280b68188d38   8b8  8bca                 movl rcx,rdx
0x280b68188d3a   8ba  d3f8                 sarl rax, cl
0x280b68188d3c   8bc  498bca               REX.W movq rcx,r10
0x280b68188d3f   8bf  c4e37920c00a         vpinsrb xmm0,xmm0,al,0xa
0x280b68188d45   8c5  c4e37914c80b         vpextrb al,xmm1,0xb
0x280b68188d4b   8cb  0fbec0               movsxbl rax,rax
0x280b68188d4e   8ce  8b9570ffffff         movl rdx,[rbp-0x90]
0x280b68188d54   8d4  4c8bd1               REX.W movq r10,rcx
0x280b68188d57   8d7  8bca                 movl rcx,rdx
0x280b68188d59   8d9  d3f8                 sarl rax, cl
0x280b68188d5b   8db  498bca               REX.W movq rcx,r10
0x280b68188d5e   8de  c4e37920c00b         vpinsrb xmm0,xmm0,al,0xb
0x280b68188d64   8e4  c4e37914c80c         vpextrb al,xmm1,0xc
0x280b68188d6a   8ea  0fbec0               movsxbl rax,rax
0x280b68188d6d   8ed  8b956cffffff         movl rdx,[rbp-0x94]
0x280b68188d73   8f3  4c8bd1               REX.W movq r10,rcx
0x280b68188d76   8f6  8bca                 movl rcx,rdx
0x280b68188d78   8f8  d3f8                 sarl rax, cl
0x280b68188d7a   8fa  498bca               REX.W movq rcx,r10
0x280b68188d7d   8fd  c4e37920c00c         vpinsrb xmm0,xmm0,al,0xc
0x280b68188d83   903  c4e37914c80d         vpextrb al,xmm1,0xd
0x280b68188d89   909  0fbec0               movsxbl rax,rax
0x280b68188d8c   90c  4c8bd1               REX.W movq r10,rcx
0x280b68188d8f   90f  8bce                 movl rcx,rsi
0x280b68188d91   911  d3f8                 sarl rax, cl
0x280b68188d93   913  498bca               REX.W movq rcx,r10
0x280b68188d96   916  c4e37920c00d         vpinsrb xmm0,xmm0,al,0xd
0x280b68188d9c   91c  c4e37914c80e         vpextrb al,xmm1,0xe
0x280b68188da2   922  0fbec0               movsxbl rax,rax
0x280b68188da5   925  4c8bd1               REX.W movq r10,rcx
0x280b68188da8   928  8bcf                 movl rcx,rdi
0x280b68188daa   92a  d3f8                 sarl rax, cl
0x280b68188dac   92c  498bca               REX.W movq rcx,r10
0x280b68188daf   92f  c4e37920c00e         vpinsrb xmm0,xmm0,al,0xe
0x280b68188db5   935  c4e37914c80f         vpextrb al,xmm1,0xf
0x280b68188dbb   93b  0fbec0               movsxbl rax,rax
0x280b68188dbe   93e  4c8bd1               REX.W movq r10,rcx
0x280b68188dc1   941  418bc9               movl rcx,r9
0x280b68188dc4   944  d3f8                 sarl rax, cl
0x280b68188dc6   946  498bca               REX.W movq rcx,r10
0x280b68188dc9   949  c4e37920c00f         vpinsrb xmm0,xmm0,al,0xf
0x280b68188dcf   94f  488b55f0             REX.W movq rdx,[rbp-0x10]
0x280b68188dd3   953  488b4217             REX.W movq rax,[rdx+0x17]
0x280b68188dd7   957  c5fa7f0408           vmovdqu [rax+rcx*1],xmm0
0x280b68188ddc   95c  8b4dcc               movl rcx,[rbp-0x34]
0x280b68188ddf   95f  bac0ffffff           movl rdx,0xffffffc0
0x280b68188de4   964  2bca                 subl rcx,rdx
0x280b68188de6   966  8b9554ffffff         movl rdx,[rbp-0xac]
0x280b68188dec   96c  83c204               addl rdx,0x4
0x280b68188def   96f  8b8550ffffff         movl rax,[rbp-0xb0]
0x280b68188df5   975  3bd0                 cmpl rdx,rax
0x280b68188df7   977  0f8429000000         jz 0x280b68188e26  <+0x9a6>
0x280b68188dfd   97d  894dcc               movl [rbp-0x34],rcx
0x280b68188e00   980  c5fa7f4db8           vmovdqu [rbp-0x48],xmm1
0x280b68188e05   985  895d94               movl [rbp-0x6c],rbx
0x280b68188e08   988  89b568ffffff         movl [rbp-0x98],rsi
0x280b68188e0e   98e  89bd64ffffff         movl [rbp-0x9c],rdi
0x280b68188e14   994  44898d60ffffff       movl [rbp-0xa0],r9
0x280b68188e1b   99b  899554ffffff         movl [rbp-0xac],rdx
0x280b68188e21   9a1  e9fcf6ffff           jmp 0x280b68188522  <+0xa2>
0x280b68188e26   9a6  c5fa7f4db8           vmovdqu [rbp-0x48],xmm1
0x280b68188e2b   9ab  895d94               movl [rbp-0x6c],rbx
0x280b68188e2e   9ae  89b568ffffff         movl [rbp-0x98],rsi
0x280b68188e34   9b4  89bd64ffffff         movl [rbp-0x9c],rdi
0x280b68188e3a   9ba  44898d60ffffff       movl [rbp-0xa0],r9
0x280b68188e41   9c1  899554ffffff         movl [rbp-0xac],rdx
0x280b68188e47   9c7  8b855cffffff         movl rax,[rbp-0xa4]
0x280b68188e4d   9cd  8b55d0               movl rdx,[rbp-0x30]
0x280b68188e50   9d0  8b5dc8               movl rbx,[rbp-0x38]
0x280b68188e53   9d3  8b75a0               movl rsi,[rbp-0x60]
0x280b68188e56   9d6  8b7d9c               movl rdi,[rbp-0x64]
0x280b68188e59   9d9  448b4da4             movl r9,[rbp-0x5c]
0x280b68188e5d   9dd  c5fa6f45a8           vmovdqu xmm0,[rbp-0x58]
0x280b68188e62   9e2  e900000000           jmp 0x280b68188e67  <+0x9e7>
0x280b68188e67   9e7  85c0                 testl rax,rax
0x280b68188e69   9e9  0f851a000000         jnz 0x280b68188e89  <+0xa09>
0x280b68188e6f   9ef  c5fa7f45a8           vmovdqu [rbp-0x58],xmm0
0x280b68188e74   9f4  44894da4             movl [rbp-0x5c],r9
0x280b68188e78   9f8  8975a0               movl [rbp-0x60],rsi
0x280b68188e7b   9fb  89855cffffff         movl [rbp-0xa4],rax
0x280b68188e81   a01  8b45d4               movl rax,[rbp-0x2c]
0x280b68188e84   a04  e9e9020000           jmp 0x280b68189172  <+0xcf2>
0x280b68188e89   a09  8955d0               movl [rbp-0x30],rdx
0x280b68188e8c   a0c  894dcc               movl [rbp-0x34],rcx
0x280b68188e8f   a0f  895dc8               movl [rbp-0x38],rbx
0x280b68188e92   a12  c5fa7f45a8           vmovdqu [rbp-0x58],xmm0
0x280b68188e97   a17  44894da4             movl [rbp-0x5c],r9
0x280b68188e9b   a1b  8975a0               movl [rbp-0x60],rsi
0x280b68188e9e   a1e  897d9c               movl [rbp-0x64],rdi
0x280b68188ea1   a21  89855cffffff         movl [rbp-0xa4],rax
0x280b68188ea7   a27  488b75f0             REX.W movq rsi,[rbp-0x10]
0x280b68188eab   a2b  488b4627             REX.W movq rax,[rsi+0x27]
0x280b68188eaf   a2f  483b20               REX.W cmpq rsp,[rax]
0x280b68188eb2   a32  0f86ac040000         jna 0x280b68189364  <+0xee4>
0x280b68188eb8   a38  8b45d0               movl rax,[rbp-0x30]
0x280b68188ebb   a3b  8b4dcc               movl rcx,[rbp-0x34]
0x280b68188ebe   a3e  03c1                 addl rax,rcx
0x280b68188ec0   a40  8b4dd4               movl rcx,[rbp-0x2c]
0x280b68188ec3   a43  8b55cc               movl rdx,[rbp-0x34]
0x280b68188ec6   a46  03ca                 addl rcx,rdx
0x280b68188ec8   a48  488b5617             REX.W movq rdx,[rsi+0x17]
0x280b68188ecc   a4c  c5fa6f040a           vmovdqu xmm0,[rdx+rcx*1]
0x280b68188ed1   a51  c4e37914c100         vpextrb cl,xmm0,0x0
0x280b68188ed7   a57  0fbec9               movsxbl rcx,rcx
0x280b68188eda   a5a  c5fa6f4da8           vmovdqu xmm1,[rbp-0x58]
0x280b68188edf   a5f  c4e37914cb00         vpextrb bl,xmm1,0x0
0x280b68188ee5   a65  448bd1               movl r10,rcx
0x280b68188ee8   a68  8bcb                 movl rcx,rbx
0x280b68188eea   a6a  41d3fa               sarl r10, cl
0x280b68188eed   a6d  418bca               movl rcx,r10
0x280b68188ef0   a70  c5796ef9             vmovd xmm15,rcx
0x280b68188ef4   a74  c4c27978cf           vpbroadcastb xmm1,xmm15
0x280b68188ef9   a79  c4e37914c101         vpextrb cl,xmm0,0x1
0x280b68188eff   a7f  0fbec9               movsxbl rcx,rcx
0x280b68188f02   a82  c5fa6f55a8           vmovdqu xmm2,[rbp-0x58]
0x280b68188f07   a87  c4e37914d301         vpextrb bl,xmm2,0x1
0x280b68188f0d   a8d  448bd1               movl r10,rcx
0x280b68188f10   a90  8bcb                 movl rcx,rbx
0x280b68188f12   a92  41d3fa               sarl r10, cl
0x280b68188f15   a95  418bca               movl rcx,r10
0x280b68188f18   a98  c4e37120c901         vpinsrb xmm1,xmm1,cl,0x1
0x280b68188f1e   a9e  c4e37914c102         vpextrb cl,xmm0,0x2
0x280b68188f24   aa4  0fbec9               movsxbl rcx,rcx
0x280b68188f27   aa7  c5fa6f55a8           vmovdqu xmm2,[rbp-0x58]
0x280b68188f2c   aac  c4e37914d302         vpextrb bl,xmm2,0x2
0x280b68188f32   ab2  448bd1               movl r10,rcx
0x280b68188f35   ab5  8bcb                 movl rcx,rbx
0x280b68188f37   ab7  41d3fa               sarl r10, cl
0x280b68188f3a   aba  418bca               movl rcx,r10
0x280b68188f3d   abd  c4e37120c902         vpinsrb xmm1,xmm1,cl,0x2
0x280b68188f43   ac3  c4e37914c103         vpextrb cl,xmm0,0x3
0x280b68188f49   ac9  0fbec9               movsxbl rcx,rcx
0x280b68188f4c   acc  c5fa6f55a8           vmovdqu xmm2,[rbp-0x58]
0x280b68188f51   ad1  c4e37914d303         vpextrb bl,xmm2,0x3
0x280b68188f57   ad7  448bd1               movl r10,rcx
0x280b68188f5a   ada  8bcb                 movl rcx,rbx
0x280b68188f5c   adc  41d3fa               sarl r10, cl
0x280b68188f5f   adf  418bca               movl rcx,r10
0x280b68188f62   ae2  c4e37120c903         vpinsrb xmm1,xmm1,cl,0x3
0x280b68188f68   ae8  c4e37914c104         vpextrb cl,xmm0,0x4
0x280b68188f6e   aee  0fbec9               movsxbl rcx,rcx
0x280b68188f71   af1  c5fa6f55a8           vmovdqu xmm2,[rbp-0x58]
0x280b68188f76   af6  c4e37914d304         vpextrb bl,xmm2,0x4
0x280b68188f7c   afc  448bd1               movl r10,rcx
0x280b68188f7f   aff  8bcb                 movl rcx,rbx
0x280b68188f81   b01  41d3fa               sarl r10, cl
0x280b68188f84   b04  418bca               movl rcx,r10
0x280b68188f87   b07  c4e37120c904         vpinsrb xmm1,xmm1,cl,0x4
0x280b68188f8d   b0d  c4e37914c105         vpextrb cl,xmm0,0x5
0x280b68188f93   b13  0fbec9               movsxbl rcx,rcx
0x280b68188f96   b16  c5fa6f55a8           vmovdqu xmm2,[rbp-0x58]
0x280b68188f9b   b1b  c4e37914d305         vpextrb bl,xmm2,0x5
0x280b68188fa1   b21  448bd1               movl r10,rcx
0x280b68188fa4   b24  8bcb                 movl rcx,rbx
0x280b68188fa6   b26  41d3fa               sarl r10, cl
0x280b68188fa9   b29  418bca               movl rcx,r10
0x280b68188fac   b2c  c4e37120c905         vpinsrb xmm1,xmm1,cl,0x5
0x280b68188fb2   b32  c4e37914c106         vpextrb cl,xmm0,0x6
0x280b68188fb8   b38  0fbec9               movsxbl rcx,rcx
0x280b68188fbb   b3b  c5fa6f55a8           vmovdqu xmm2,[rbp-0x58]
0x280b68188fc0   b40  c4e37914d306         vpextrb bl,xmm2,0x6
0x280b68188fc6   b46  448bd1               movl r10,rcx
0x280b68188fc9   b49  8bcb                 movl rcx,rbx
0x280b68188fcb   b4b  41d3fa               sarl r10, cl
0x280b68188fce   b4e  418bca               movl rcx,r10
0x280b68188fd1   b51  c4e37120c906         vpinsrb xmm1,xmm1,cl,0x6
0x280b68188fd7   b57  c4e37914c107         vpextrb cl,xmm0,0x7
0x280b68188fdd   b5d  0fbec9               movsxbl rcx,rcx
0x280b68188fe0   b60  c5fa6f55a8           vmovdqu xmm2,[rbp-0x58]
0x280b68188fe5   b65  c4e37914d307         vpextrb bl,xmm2,0x7
0x280b68188feb   b6b  448bd1               movl r10,rcx
0x280b68188fee   b6e  8bcb                 movl rcx,rbx
0x280b68188ff0   b70  41d3fa               sarl r10, cl
0x280b68188ff3   b73  418bca               movl rcx,r10
0x280b68188ff6   b76  c4e37120c907         vpinsrb xmm1,xmm1,cl,0x7
0x280b68188ffc   b7c  c4e37914c108         vpextrb cl,xmm0,0x8
0x280b68189002   b82  0fbec9               movsxbl rcx,rcx
0x280b68189005   b85  c5fa6f55a8           vmovdqu xmm2,[rbp-0x58]
0x280b6818900a   b8a  c4e37914d308         vpextrb bl,xmm2,0x8
0x280b68189010   b90  448bd1               movl r10,rcx
0x280b68189013   b93  8bcb                 movl rcx,rbx
0x280b68189015   b95  41d3fa               sarl r10, cl
0x280b68189018   b98  418bca               movl rcx,r10
0x280b6818901b   b9b  c4e37120c908         vpinsrb xmm1,xmm1,cl,0x8
0x280b68189021   ba1  c4e37914c109         vpextrb cl,xmm0,0x9
0x280b68189027   ba7  0fbec9               movsxbl rcx,rcx
0x280b6818902a   baa  c5fa6f55a8           vmovdqu xmm2,[rbp-0x58]
0x280b6818902f   baf  c4e37914d309         vpextrb bl,xmm2,0x9
0x280b68189035   bb5  448bd1               movl r10,rcx
0x280b68189038   bb8  8bcb                 movl rcx,rbx
0x280b6818903a   bba  41d3fa               sarl r10, cl
0x280b6818903d   bbd  418bca               movl rcx,r10
0x280b68189040   bc0  c4e37120c909         vpinsrb xmm1,xmm1,cl,0x9
0x280b68189046   bc6  c4e37914c10a         vpextrb cl,xmm0,0xa
0x280b6818904c   bcc  0fbec9               movsxbl rcx,rcx
0x280b6818904f   bcf  c5fa6f55a8           vmovdqu xmm2,[rbp-0x58]
0x280b68189054   bd4  c4e37914d30a         vpextrb bl,xmm2,0xa
0x280b6818905a   bda  448bd1               movl r10,rcx
0x280b6818905d   bdd  8bcb                 movl rcx,rbx
0x280b6818905f   bdf  41d3fa               sarl r10, cl
0x280b68189062   be2  418bca               movl rcx,r10
0x280b68189065   be5  c4e37120c90a         vpinsrb xmm1,xmm1,cl,0xa
0x280b6818906b   beb  c4e37914c10b         vpextrb cl,xmm0,0xb
0x280b68189071   bf1  0fbec9               movsxbl rcx,rcx
0x280b68189074   bf4  c5fa6f55a8           vmovdqu xmm2,[rbp-0x58]
0x280b68189079   bf9  c4e37914d30b         vpextrb bl,xmm2,0xb
0x280b6818907f   bff  448bd1               movl r10,rcx
0x280b68189082   c02  8bcb                 movl rcx,rbx
0x280b68189084   c04  41d3fa               sarl r10, cl
0x280b68189087   c07  418bca               movl rcx,r10
0x280b6818908a   c0a  c4e37120c90b         vpinsrb xmm1,xmm1,cl,0xb
0x280b68189090   c10  c4e37914c10c         vpextrb cl,xmm0,0xc
0x280b68189096   c16  0fbec9               movsxbl rcx,rcx
0x280b68189099   c19  c5fa6f55a8           vmovdqu xmm2,[rbp-0x58]
0x280b6818909e   c1e  c4e37914d30c         vpextrb bl,xmm2,0xc
0x280b681890a4   c24  448bd1               movl r10,rcx
0x280b681890a7   c27  8bcb                 movl rcx,rbx
0x280b681890a9   c29  41d3fa               sarl r10, cl
0x280b681890ac   c2c  418bca               movl rcx,r10
0x280b681890af   c2f  c4e37120c90c         vpinsrb xmm1,xmm1,cl,0xc
0x280b681890b5   c35  c4e37914c10d         vpextrb cl,xmm0,0xd
0x280b681890bb   c3b  0fbec9               movsxbl rcx,rcx
0x280b681890be   c3e  c5fa6f55a8           vmovdqu xmm2,[rbp-0x58]
0x280b681890c3   c43  c4e37914d30d         vpextrb bl,xmm2,0xd
0x280b681890c9   c49  448bd1               movl r10,rcx
0x280b681890cc   c4c  8bcb                 movl rcx,rbx
0x280b681890ce   c4e  41d3fa               sarl r10, cl
0x280b681890d1   c51  418bca               movl rcx,r10
0x280b681890d4   c54  c4e37120c90d         vpinsrb xmm1,xmm1,cl,0xd
0x280b681890da   c5a  c4e37914c10e         vpextrb cl,xmm0,0xe
0x280b681890e0   c60  0fbec9               movsxbl rcx,rcx
0x280b681890e3   c63  c5fa6f55a8           vmovdqu xmm2,[rbp-0x58]
0x280b681890e8   c68  c4e37914d30e         vpextrb bl,xmm2,0xe
0x280b681890ee   c6e  448bd1               movl r10,rcx
0x280b681890f1   c71  8bcb                 movl rcx,rbx
0x280b681890f3   c73  41d3fa               sarl r10, cl
0x280b681890f6   c76  418bca               movl rcx,r10
0x280b681890f9   c79  c4e37120c90e         vpinsrb xmm1,xmm1,cl,0xe
0x280b681890ff   c7f  c4e37914c10f         vpextrb cl,xmm0,0xf
0x280b68189105   c85  0fbec9               movsxbl rcx,rcx
0x280b68189108   c88  c5fa6f55a8           vmovdqu xmm2,[rbp-0x58]
0x280b6818910d   c8d  c4e37914d30f         vpextrb bl,xmm2,0xf
0x280b68189113   c93  448bd1               movl r10,rcx
0x280b68189116   c96  8bcb                 movl rcx,rbx
0x280b68189118   c98  41d3fa               sarl r10, cl
0x280b6818911b   c9b  418bca               movl rcx,r10
0x280b6818911e   c9e  c4e37120c90f         vpinsrb xmm1,xmm1,cl,0xf
0x280b68189124   ca4  c5fa7f0c02           vmovdqu [rdx+rax*1],xmm1
0x280b68189129   ca9  8b45cc               movl rax,[rbp-0x34]
0x280b6818912c   cac  83c010               addl rax,0x10
0x280b6818912f   caf  8b8d58ffffff         movl rcx,[rbp-0xa8]
0x280b68189135   cb5  83c101               addl rcx,0x1
0x280b68189138   cb8  8b9d5cffffff         movl rbx,[rbp-0xa4]
0x280b6818913e   cbe  3bcb                 cmpl rcx,rbx
0x280b68189140   cc0  0f8413000000         jz 0x280b68189159  <+0xcd9>
0x280b68189146   cc6  8945cc               movl [rbp-0x34],rax
0x280b68189149   cc9  c5fa7f45b8           vmovdqu [rbp-0x48],xmm0
0x280b6818914e   cce  898d58ffffff         movl [rbp-0xa8],rcx
0x280b68189154   cd4  e94efdffff           jmp 0x280b68188ea7  <+0xa27>
0x280b68189159   cd9  c5fa7f45b8           vmovdqu [rbp-0x48],xmm0
0x280b6818915e   cde  898d58ffffff         movl [rbp-0xa8],rcx
0x280b68189164   ce4  8bc8                 movl rcx,rax
0x280b68189166   ce6  8b45d4               movl rax,[rbp-0x2c]
0x280b68189169   ce9  8b55d0               movl rdx,[rbp-0x30]
0x280b6818916c   cec  8b5dc8               movl rbx,[rbp-0x38]
0x280b6818916f   cef  8b7d9c               movl rdi,[rbp-0x64]
0x280b68189172   cf2  3bcb                 cmpl rcx,rbx
0x280b68189174   cf4  0f8c05000000         jl 0x280b6818917f  <+0xcff>
0x280b6818917a   cfa  e994010000           jmp 0x280b68189313  <+0xe93>
0x280b6818917f   cff  8bf1                 movl rsi,rcx
0x280b68189181   d01  83f6ff               xorl rsi,0xff
0x280b68189184   d04  03f3                 addl rsi,rbx
0x280b68189186   d06  448bcb               movl r9,rbx
0x280b68189189   d09  442bc9               subl r9,rcx
0x280b6818918c   d0c  4183e103             andl r9,0x3
0x280b68189190   d10  4585c9               testl r9,r9
0x280b68189193   d13  0f848a000000         jz 0x280b68189223  <+0xda3>
0x280b68189199   d19  8945d4               movl [rbp-0x2c],rax
0x280b6818919c   d1c  8955d0               movl [rbp-0x30],rdx
0x280b6818919f   d1f  894dcc               movl [rbp-0x34],rcx
0x280b681891a2   d22  895dc8               movl [rbp-0x38],rbx
0x280b681891a5   d25  c745a400000000       movl [rbp-0x5c],0x0
0x280b681891ac   d2c  44894da0             movl [rbp-0x60],r9
0x280b681891b0   d30  897d9c               movl [rbp-0x64],rdi
0x280b681891b3   d33  897598               movl [rbp-0x68],rsi
0x280b681891b6   d36  488b75f0             REX.W movq rsi,[rbp-0x10]
0x280b681891ba   d3a  488b4627             REX.W movq rax,[rsi+0x27]
0x280b681891be   d3e  483b20               REX.W cmpq rsp,[rax]
0x280b681891c1   d41  0f86b5010000         jna 0x280b6818937c  <+0xefc>
0x280b681891c7   d47  8b45d0               movl rax,[rbp-0x30]
0x280b681891ca   d4a  8b4dcc               movl rcx,[rbp-0x34]
0x280b681891cd   d4d  03c1                 addl rax,rcx
0x280b681891cf   d4f  8b4dd4               movl rcx,[rbp-0x2c]
0x280b681891d2   d52  8b55cc               movl rdx,[rbp-0x34]
0x280b681891d5   d55  03ca                 addl rcx,rdx
0x280b681891d7   d57  488b5617             REX.W movq rdx,[rsi+0x17]
0x280b681891db   d5b  0fb61c0a             movzxbl rbx,[rdx+rcx*1]
0x280b681891df   d5f  8b4d9c               movl rcx,[rbp-0x64]
0x280b681891e2   d62  d3e3                 shll rbx, cl
0x280b681891e4   d64  881c02               movb [rdx+rax*1],bl
0x280b681891e7   d67  8b45cc               movl rax,[rbp-0x34]
0x280b681891ea   d6a  83c001               addl rax,0x1
0x280b681891ed   d6d  8b4da4               movl rcx,[rbp-0x5c]
0x280b681891f0   d70  83c101               addl rcx,0x1
0x280b681891f3   d73  8b5da0               movl rbx,[rbp-0x60]
0x280b681891f6   d76  3bcb                 cmpl rcx,rbx
0x280b681891f8   d78  0f8408000000         jz 0x280b68189206  <+0xd86>
0x280b681891fe   d7e  8945cc               movl [rbp-0x34],rax
0x280b68189201   d81  894da4               movl [rbp-0x5c],rcx
0x280b68189204   d84  ebb0                 jmp 0x280b681891b6  <+0xd36>
0x280b68189206   d86  894da4               movl [rbp-0x5c],rcx
0x280b68189209   d89  8bc8                 movl rcx,rax
0x280b6818920b   d8b  8b45d4               movl rax,[rbp-0x2c]
0x280b6818920e   d8e  8b55d0               movl rdx,[rbp-0x30]
0x280b68189211   d91  8b5dc8               movl rbx,[rbp-0x38]
0x280b68189214   d94  8b7598               movl rsi,[rbp-0x68]
0x280b68189217   d97  8b7d9c               movl rdi,[rbp-0x64]
0x280b6818921a   d9a  448b4da0             movl r9,[rbp-0x60]
0x280b6818921e   d9e  e900000000           jmp 0x280b68189223  <+0xda3>
0x280b68189223   da3  83fe03               cmpl rsi,0x3
0x280b68189226   da6  0f830c000000         jnc 0x280b68189238  <+0xdb8>
0x280b6818922c   dac  44894da0             movl [rbp-0x60],r9
0x280b68189230   db0  897598               movl [rbp-0x68],rsi
0x280b68189233   db3  e9db000000           jmp 0x280b68189313  <+0xe93>
0x280b68189238   db8  8945d4               movl [rbp-0x2c],rax
0x280b6818923b   dbb  8955d0               movl [rbp-0x30],rdx
0x280b6818923e   dbe  894dcc               movl [rbp-0x34],rcx
0x280b68189241   dc1  895dc8               movl [rbp-0x38],rbx
0x280b68189244   dc4  44894da0             movl [rbp-0x60],r9
0x280b68189248   dc8  897d9c               movl [rbp-0x64],rdi
0x280b6818924b   dcb  897598               movl [rbp-0x68],rsi
0x280b6818924e   dce  488b75f0             REX.W movq rsi,[rbp-0x10]
0x280b68189252   dd2  488b4627             REX.W movq rax,[rsi+0x27]
0x280b68189256   dd6  483b20               REX.W cmpq rsp,[rax]
0x280b68189259   dd9  0f8635010000         jna 0x280b68189394  <+0xf14>
0x280b6818925f   ddf  8b45d0               movl rax,[rbp-0x30]
0x280b68189262   de2  8b4dcc               movl rcx,[rbp-0x34]
0x280b68189265   de5  03c1                 addl rax,rcx
0x280b68189267   de7  8b4dd4               movl rcx,[rbp-0x2c]
0x280b6818926a   dea  8b55cc               movl rdx,[rbp-0x34]
0x280b6818926d   ded  03ca                 addl rcx,rdx
0x280b6818926f   def  488b5617             REX.W movq rdx,[rsi+0x17]
0x280b68189273   df3  0fb61c0a             movzxbl rbx,[rdx+rcx*1]
0x280b68189277   df7  8b4d9c               movl rcx,[rbp-0x64]
0x280b6818927a   dfa  d3e3                 shll rbx, cl
0x280b6818927c   dfc  881c02               movb [rdx+rax*1],bl
0x280b6818927f   dff  8b45d0               movl rax,[rbp-0x30]
0x280b68189282   e02  8b4dcc               movl rcx,[rbp-0x34]
0x280b68189285   e05  83c101               addl rcx,0x1
0x280b68189288   e08  03c1                 addl rax,rcx
0x280b6818928a   e0a  8b5dd4               movl rbx,[rbp-0x2c]
0x280b6818928d   e0d  03d9                 addl rbx,rcx
0x280b6818928f   e0f  0fb63c1a             movzxbl rdi,[rdx+rbx*1]
0x280b68189293   e13  8b5d9c               movl rbx,[rbp-0x64]
0x280b68189296   e16  4c8bd1               REX.W movq r10,rcx
0x280b68189299   e19  8bcb                 movl rcx,rbx
0x280b6818929b   e1b  d3e7                 shll rdi, cl
0x280b6818929d   e1d  498bca               REX.W movq rcx,r10
0x280b681892a0   e20  40883c02             movb [rdx+rax*1],dil
0x280b681892a4   e24  8b45d0               movl rax,[rbp-0x30]
0x280b681892a7   e27  8b5dcc               movl rbx,[rbp-0x34]
0x280b681892aa   e2a  83c302               addl rbx,0x2
0x280b681892ad   e2d  03c3                 addl rax,rbx
0x280b681892af   e2f  8b4dd4               movl rcx,[rbp-0x2c]
0x280b681892b2   e32  03cb                 addl rcx,rbx
0x280b681892b4   e34  0fb63c0a             movzxbl rdi,[rdx+rcx*1]
0x280b681892b8   e38  8b4d9c               movl rcx,[rbp-0x64]
0x280b681892bb   e3b  d3e7                 shll rdi, cl
0x280b681892bd   e3d  40883c02             movb [rdx+rax*1],dil
0x280b681892c1   e41  8b45d0               movl rax,[rbp-0x30]
0x280b681892c4   e44  8b4dcc               movl rcx,[rbp-0x34]
0x280b681892c7   e47  83c103               addl rcx,0x3
0x280b681892ca   e4a  03c1                 addl rax,rcx
0x280b681892cc   e4c  8b5dd4               movl rbx,[rbp-0x2c]
0x280b681892cf   e4f  03d9                 addl rbx,rcx
0x280b681892d1   e51  0fb63c1a             movzxbl rdi,[rdx+rbx*1]
0x280b681892d5   e55  8b5d9c               movl rbx,[rbp-0x64]
0x280b681892d8   e58  4c8bd1               REX.W movq r10,rcx
0x280b681892db   e5b  8bcb                 movl rcx,rbx
0x280b681892dd   e5d  d3e7                 shll rdi, cl
0x280b681892df   e5f  498bca               REX.W movq rcx,r10
0x280b681892e2   e62  40883c02             movb [rdx+rax*1],dil
0x280b681892e6   e66  8b45cc               movl rax,[rbp-0x34]
0x280b681892e9   e69  83c004               addl rax,0x4
0x280b681892ec   e6c  8b5dc8               movl rbx,[rbp-0x38]
0x280b681892ef   e6f  3bc3                 cmpl rax,rbx
0x280b681892f1   e71  0f840b000000         jz 0x280b68189302  <+0xe82>
0x280b681892f7   e77  8945cc               movl [rbp-0x34],rax
0x280b681892fa   e7a  894da4               movl [rbp-0x5c],rcx
0x280b681892fd   e7d  e94cffffff           jmp 0x280b6818924e  <+0xdce>
0x280b68189302   e82  894da4               movl [rbp-0x5c],rcx
0x280b68189305   e85  8bc8                 movl rcx,rax
0x280b68189307   e87  8b45d4               movl rax,[rbp-0x2c]
0x280b6818930a   e8a  8b55d0               movl rdx,[rbp-0x30]
0x280b6818930d   e8d  8b5dc8               movl rbx,[rbp-0x38]
0x280b68189310   e90  8b7d9c               movl rdi,[rbp-0x64]
0x280b68189313   e93  488be5               REX.W movq rsp,rbp
0x280b68189316   e96  5d                   pop rbp
0x280b68189317   e97  c3                   retl
0x280b68189318   e98  50                   push rax
0x280b68189319   e99  51                   push rcx
0x280b6818931a   e9a  52                   push rdx
0x280b6818931b   e9b  53                   push rbx
0x280b6818931c   e9c  e84fd0ffff           call 0x280b68186370  (jump table)
0x280b68189321   ea1  5b                   pop rbx
0x280b68189322   ea2  5a                   pop rdx
0x280b68189323   ea3  59                   pop rcx
0x280b68189324   ea4  58                   pop rax
0x280b68189325   ea5  488b75f0             REX.W movq rsi,[rbp-0x10]
0x280b68189329   ea9  e983f1ffff           jmp 0x280b681884b1  <+0x31>
0x280b6818932e   eae  e83dd0ffff           call 0x280b68186370  (jump table)
0x280b68189333   eb3  488b75f0             REX.W movq rsi,[rbp-0x10]
0x280b68189337   eb7  e9f7f1ffff           jmp 0x280b68188533  <+0xb3>
0x280b6818933c   ebc  e8cfcdffff           call 0x280b68186110  (jump table)
0x280b68189341   ec1  e8cacdffff           call 0x280b68186110  (jump table)
0x280b68189346   ec6  e8c5cdffff           call 0x280b68186110  (jump table)
0x280b6818934b   ecb  e8c0cdffff           call 0x280b68186110  (jump table)
0x280b68189350   ed0  e8bbcdffff           call 0x280b68186110  (jump table)
0x280b68189355   ed5  e8b6cdffff           call 0x280b68186110  (jump table)
0x280b6818935a   eda  e8b1cdffff           call 0x280b68186110  (jump table)
0x280b6818935f   edf  e8accdffff           call 0x280b68186110  (jump table)
0x280b68189364   ee4  e807d0ffff           call 0x280b68186370  (jump table)
0x280b68189369   ee9  488b75f0             REX.W movq rsi,[rbp-0x10]
0x280b6818936d   eed  e946fbffff           jmp 0x280b68188eb8  <+0xa38>
0x280b68189372   ef2  e899cdffff           call 0x280b68186110  (jump table)
0x280b68189377   ef7  e894cdffff           call 0x280b68186110  (jump table)
0x280b6818937c   efc  e8efcfffff           call 0x280b68186370  (jump table)
0x280b68189381   f01  488b75f0             REX.W movq rsi,[rbp-0x10]
0x280b68189385   f05  e93dfeffff           jmp 0x280b681891c7  <+0xd47>
0x280b6818938a   f0a  e881cdffff           call 0x280b68186110  (jump table)
0x280b6818938f   f0f  e87ccdffff           call 0x280b68186110  (jump table)
0x280b68189394   f14  e8d7cfffff           call 0x280b68186370  (jump table)
0x280b68189399   f19  488b75f0             REX.W movq rsi,[rbp-0x10]
0x280b6818939d   f1d  e9bdfeffff           jmp 0x280b6818925f  <+0xddf>
0x280b681893a2   f22  e869cdffff           call 0x280b68186110  (jump table)
0x280b681893a7   f27  e864cdffff           call 0x280b68186110  (jump table)
0x280b681893ac   f2c  e85fcdffff           call 0x280b68186110  (jump table)
0x280b681893b1   f31  e85acdffff           call 0x280b68186110  (jump table)
0x280b681893b6   f36  e855cdffff           call 0x280b68186110  (jump table)
0x280b681893bb   f3b  e850cdffff           call 0x280b68186110  (jump table)
0x280b681893c0   f40  e84bcdffff           call 0x280b68186110  (jump table)
0x280b681893c5   f45  e846cdffff           call 0x280b68186110  (jump table)
0x280b681893ca   f4a  6690                 nop

Protected instructions:
 pc offset  land pad
        c7       ebc
       361       ec1
       38a       ec6
       571       ecb
       594       ed0
       76b       ed5
       780       eda
       957       edf
       a4c       ef2
       ca4       ef7
       d5b       f0a
       d64       f0f
       df3       f22
       dfc       f27
       e0f       f2c
       e20       f31
       e34       f36
       e3d       f3b
       e51       f40
       e62       f45

Source positions:
 pc offset  position
       e9c         0  statement
       eae       113  statement
       ebc       125  statement
       ec1       384  statement
       ec6       403  statement
       ecb       582  statement
       ed0       601  statement
       ed5       780  statement
       eda       799  statement
       edf       978  statement
       ee4      1008  statement
       ef2      1020  statement
       ef7      1247  statement
       efc      1307  statement
       f0a      1319  statement
       f0f      1325  statement
       f14      1356  statement
       f22      1368  statement
       f27      1374  statement
       f2c      1392  statement
       f31      1398  statement
       f36      1416  statement
       f3b      1422  statement
       f40      1440  statement
       f45      1446  statement

Safepoints (entries = 1, byte size = 14)
0x280b68189321    ea1  slots (sp->fp): 00000000000000000000000000000000

RelocInfo (size = 0)

--- End code ---
--- WebAssembly code ---
name: fmt_u
index: 28
kind: wasm function
compiler: Liftoff
Body (size = 512 = 488 + 24 padding)
Instructions (size = 476)
0x280b68189400     0  55                   push rbp
0x280b68189401     1  4889e5               REX.W movq rbp,rsp
0x280b68189404     4  6a08                 push 0x8
0x280b68189406     6  56                   push rsi
0x280b68189407     7  4881ec40000000       REX.W subq rsp,0x40
0x280b6818940e     e  48c745b800000000     REX.W movq [rbp-0x48],0x0
0x280b68189416    16  48c745c000000000     REX.W movq [rbp-0x40],0x0
0x280b6818941e    1e  c745c800000000       movl [rbp-0x38],0x0
0x280b68189425    25  488b4e27             REX.W movq rcx,[rsi+0x27]
0x280b68189429    29  483b21               REX.W cmpq rsp,[rcx]
0x280b6818942c    2c  0f8667010000         jna 0x280b68189599  <+0x199>
0x280b68189432    32  48b90000000001000000 REX.W movq rcx,0x100000000
0x280b6818943c    3c  483bc1               REX.W cmpq rax,rcx
0x280b6818943f    3f  0f92c1               setcl cl
0x280b68189442    42  0fb6c9               movzxbl rcx,rcx
0x280b68189445    45  85c9                 testl rcx,rcx
0x280b68189447    47  0f8408000000         jz 0x280b68189455  <+0x55>
0x280b6818944d    4d  488bc8               REX.W movq rcx,rax
0x280b68189450    50  e99b000000           jmp 0x280b681894f0  <+0xf0>
0x280b68189455    55  488945d0             REX.W movq [rbp-0x30],rax
0x280b68189459    59  8955cc               movl [rbp-0x34],rdx
0x280b6818945c    5c  488b4627             REX.W movq rax,[rsi+0x27]
0x280b68189460    60  483b20               REX.W cmpq rsp,[rax]
0x280b68189463    63  0f8642010000         jna 0x280b681895ab  <+0x1ab>
0x280b68189469    69  8b45cc               movl rax,[rbp-0x34]
0x280b6818946c    6c  b901000000           movl rcx,0x1
0x280b68189471    71  2bc1                 subl rax,rcx
0x280b68189473    73  488b4dd0             REX.W movq rcx,[rbp-0x30]
0x280b68189477    77  488b55d0             REX.W movq rdx,[rbp-0x30]
0x280b6818947b    7b  bb0a000000           movl rbx,0xa
0x280b68189480    80  8945b4               movl [rbp-0x4c],rax
0x280b68189483    83  8945cc               movl [rbp-0x34],rax
0x280b68189486    86  4885db               REX.W testq rbx,rbx
0x280b68189489    89  0f842a010000         jz 0x280b681895b9  <+0x1b9>
0x280b6818948f    8f  488bc2               REX.W movq rax,rdx
0x280b68189492    92  33d2                 xorl rdx,rdx
0x280b68189494    94  48f7f3               REX.W divq rbx
0x280b68189497    97  488bd0               REX.W movq rdx,rax
0x280b6818949a    9a  b80a000000           movl rax,0xa
0x280b6818949f    9f  480fafc2             REX.W imulq rax,rdx
0x280b681894a3    a3  482bc8               REX.W subq rcx,rax
0x280b681894a6    a6  8bc9                 movl rcx,rcx
0x280b681894a8    a8  83c930               orl rcx,0x30
0x280b681894ab    ab  8b45b4               movl rax,[rbp-0x4c]
0x280b681894ae    ae  488b5e17             REX.W movq rbx,[rsi+0x17]
0x280b681894b2    b2  880c03               movb [rbx+rax*1],cl
0x280b681894b5    b5  488b45d0             REX.W movq rax,[rbp-0x30]
0x280b681894b9    b9  48b9ffffffff09000000 REX.W movq rcx,0x9ffffffff
0x280b681894c3    c3  483bc1               REX.W cmpq rax,rcx
0x280b681894c6    c6  0f97c0               setal al
0x280b681894c9    c9  0fb6c0               movzxbl rax,rax
0x280b681894cc    cc  85c0                 testl rax,rax
0x280b681894ce    ce  0f8410000000         jz 0x280b681894e4  <+0xe4>
0x280b681894d4    d4  488955d0             REX.W movq [rbp-0x30],rdx
0x280b681894d8    d8  8945c8               movl [rbp-0x38],rax
0x280b681894db    db  488955c0             REX.W movq [rbp-0x40],rdx
0x280b681894df    df  e978ffffff           jmp 0x280b6818945c  <+0x5c>
0x280b681894e4    e4  8945c8               movl [rbp-0x38],rax
0x280b681894e7    e7  488bc2               REX.W movq rax,rdx
0x280b681894ea    ea  488bca               REX.W movq rcx,rdx
0x280b681894ed    ed  8b55cc               movl rdx,[rbp-0x34]
0x280b681894f0    f0  8bd9                 movl rbx,rcx
0x280b681894f2    f2  85db                 testl rbx,rbx
0x280b681894f4    f4  0f8498000000         jz 0x280b68189592  <+0x192>
0x280b681894fa    fa  488945d0             REX.W movq [rbp-0x30],rax
0x280b681894fe    fe  8955cc               movl [rbp-0x34],rdx
0x280b68189501   101  895dc8               movl [rbp-0x38],rbx
0x280b68189504   104  48894dc0             REX.W movq [rbp-0x40],rcx
0x280b68189508   108  488b4627             REX.W movq rax,[rsi+0x27]
0x280b6818950c   10c  483b20               REX.W cmpq rsp,[rax]
0x280b6818950f   10f  0f86ae000000         jna 0x280b681895c3  <+0x1c3>
0x280b68189515   115  8b45cc               movl rax,[rbp-0x34]
0x280b68189518   118  b901000000           movl rcx,0x1
0x280b6818951d   11d  2bc1                 subl rax,rcx
0x280b6818951f   11f  8b4dc8               movl rcx,[rbp-0x38]
0x280b68189522   122  8b55c8               movl rdx,[rbp-0x38]
0x280b68189525   125  bb0a000000           movl rbx,0xa
0x280b6818952a   12a  8945b4               movl [rbp-0x4c],rax
0x280b6818952d   12d  8945cc               movl [rbp-0x34],rax
0x280b68189530   130  85db                 testl rbx,rbx
0x280b68189532   132  0f8499000000         jz 0x280b681895d1  <+0x1d1>
0x280b68189538   138  8bc2                 movl rax,rdx
0x280b6818953a   13a  33d2                 xorl rdx,rdx
0x280b6818953c   13c  f7f3                 divl rbx
0x280b6818953e   13e  8bd0                 movl rdx,rax
0x280b68189540   140  b80a000000           movl rax,0xa
0x280b68189545   145  0fafc2               imull rax,rdx
0x280b68189548   148  2bc8                 subl rcx,rax
0x280b6818954a   14a  83c930               orl rcx,0x30
0x280b6818954d   14d  8b45b4               movl rax,[rbp-0x4c]
0x280b68189550   150  488b5e17             REX.W movq rbx,[rsi+0x17]
0x280b68189554   154  880c03               movb [rbx+rax*1],cl
0x280b68189557   157  8b45c8               movl rax,[rbp-0x38]
0x280b6818955a   15a  b909000000           movl rcx,0x9
0x280b6818955f   15f  3bc1                 cmpl rax,rcx
0x280b68189561   161  0f97c0               setal al
0x280b68189564   164  0fb6c0               movzxbl rax,rax
0x280b68189567   167  85c0                 testl rax,rax
0x280b68189569   169  0f840b000000         jz 0x280b6818957a  <+0x17a>
0x280b6818956f   16f  8955c8               movl [rbp-0x38],rdx
0x280b68189572   172  8955bc               movl [rbp-0x44],rdx
0x280b68189575   175  8945b8               movl [rbp-0x48],rax
0x280b68189578   178  eb8e                 jmp 0x280b68189508  <+0x108>
0x280b6818957a   17a  8955bc               movl [rbp-0x44],rdx
0x280b6818957d   17d  8945b8               movl [rbp-0x48],rax
0x280b68189580   180  8bda                 movl rbx,rdx
0x280b68189582   182  488b45d0             REX.W movq rax,[rbp-0x30]
0x280b68189586   186  488b4dc0             REX.W movq rcx,[rbp-0x40]
0x280b6818958a   18a  8b55cc               movl rdx,[rbp-0x34]
0x280b6818958d   18d  e900000000           jmp 0x280b68189592  <+0x192>
0x280b68189592   192  8bc2                 movl rax,rdx
0x280b68189594   194  488be5               REX.W movq rsp,rbp
0x280b68189597   197  5d                   pop rbp
0x280b68189598   198  c3                   retl
0x280b68189599   199  50                   push rax
0x280b6818959a   19a  52                   push rdx
0x280b6818959b   19b  e8d0cdffff           call 0x280b68186370  (jump table)
0x280b681895a0   1a0  5a                   pop rdx
0x280b681895a1   1a1  58                   pop rax
0x280b681895a2   1a2  488b75f0             REX.W movq rsi,[rbp-0x10]
0x280b681895a6   1a6  e987feffff           jmp 0x280b68189432  <+0x32>
0x280b681895ab   1ab  e8c0cdffff           call 0x280b68186370  (jump table)
0x280b681895b0   1b0  488b75f0             REX.W movq rsi,[rbp-0x10]
0x280b681895b4   1b4  e9b0feffff           jmp 0x280b68189469  <+0x69>
0x280b681895b9   1b9  e872cbffff           call 0x280b68186130  (jump table)
0x280b681895be   1be  e84dcbffff           call 0x280b68186110  (jump table)
0x280b681895c3   1c3  e8a8cdffff           call 0x280b68186370  (jump table)
0x280b681895c8   1c8  488b75f0             REX.W movq rsi,[rbp-0x10]
0x280b681895cc   1cc  e944ffffff           jmp 0x280b68189515  <+0x115>
0x280b681895d1   1d1  e85acbffff           call 0x280b68186130  (jump table)
0x280b681895d6   1d6  e835cbffff           call 0x280b68186110  (jump table)
0x280b681895db   1db  90                   nop

Protected instructions:
 pc offset  land pad
        b2       1be
       154       1d6

Source positions:
 pc offset  position
       19b         0  statement
       1ab        29  statement
       1b9        44  statement
       1be        55  statement
       1c3        87  statement
       1d1       102  statement
       1d6       112  statement

Safepoints (entries = 1, byte size = 12)
0x280b681895a0    1a0  slots (sp->fp): 0000000000000000

RelocInfo (size = 0)

--- End code ---
--- WebAssembly code ---
name: __get_tp
index: 34
kind: wasm function
compiler: Liftoff
Body (size = 64 = 60 + 4 padding)
Instructions (size = 48)
0x280b68189600     0  55                   push rbp
0x280b68189601     1  4889e5               REX.W movq rbp,rsp
0x280b68189604     4  6a08                 push 0x8
0x280b68189606     6  56                   push rsi
0x280b68189607     7  4881ec18000000       REX.W subq rsp,0x18
0x280b6818960e     e  488b4627             REX.W movq rax,[rsi+0x27]
0x280b68189612    12  483b20               REX.W cmpq rsp,[rax]
0x280b68189615    15  0f860a000000         jna 0x280b68189625  <+0x25>
0x280b6818961b    1b  b8d40a0000           movl rax,0xad4
0x280b68189620    20  488be5               REX.W movq rsp,rbp
0x280b68189623    23  5d                   pop rbp
0x280b68189624    24  c3                   retl
0x280b68189625    25  e846cdffff           call 0x280b68186370  (jump table)
0x280b6818962a    2a  488b75f0             REX.W movq rsi,[rbp-0x10]
0x280b6818962e    2e  ebeb                 jmp 0x280b6818961b  <+0x1b>

Source positions:
 pc offset  position
        25         0  statement

Safepoints (entries = 1, byte size = 10)
0x280b6818962a     2a  slots (sp->fp): 00000000

RelocInfo (size = 0)

--- End code ---
--- WebAssembly code ---
name: getpid
index: 33
kind: wasm function
compiler: Liftoff
Body (size = 64 = 64 + 0 padding)
Instructions (size = 52)
0x280b68189640     0  55                   push rbp
0x280b68189641     1  4889e5               REX.W movq rbp,rsp
0x280b68189644     4  6a08                 push 0x8
0x280b68189646     6  56                   push rsi
0x280b68189647     7  4881ec20000000       REX.W subq rsp,0x20
0x280b6818964e     e  488b4627             REX.W movq rax,[rsi+0x27]
0x280b68189652    12  483b20               REX.W cmpq rsp,[rax]
0x280b68189655    15  0f860e000000         jna 0x280b68189669  <+0x29>
0x280b6818965b    1b  488b75f0             REX.W movq rsi,[rbp-0x10]
0x280b6818965f    1f  e830caffff           call 0x280b68186094  (jump table)
0x280b68189664    24  488be5               REX.W movq rsp,rbp
0x280b68189667    27  5d                   pop rbp
0x280b68189668    28  c3                   retl
0x280b68189669    29  e802cdffff           call 0x280b68186370  (jump table)
0x280b6818966e    2e  488b75f0             REX.W movq rsi,[rbp-0x10]
0x280b68189672    32  ebe7                 jmp 0x280b6818965b  <+0x1b>

Source positions:
 pc offset  position
        1f         1  statement
        29         0  statement

Safepoints (entries = 1, byte size = 10)
0x280b68189664     24  slots (sp->fp): 00000000

RelocInfo (size = 0)

--- End code ---
--- WebAssembly code ---
name: __syscall_getpid
index: 32
kind: wasm function
compiler: Liftoff
Body (size = 64 = 60 + 4 padding)
Instructions (size = 48)
0x280b68189680     0  55                   push rbp
0x280b68189681     1  4889e5               REX.W movq rbp,rsp
0x280b68189684     4  6a08                 push 0x8
0x280b68189686     6  56                   push rsi
0x280b68189687     7  4881ec18000000       REX.W subq rsp,0x18
0x280b6818968e     e  488b4627             REX.W movq rax,[rsi+0x27]
0x280b68189692    12  483b20               REX.W cmpq rsp,[rax]
0x280b68189695    15  0f860a000000         jna 0x280b681896a5  <+0x25>
0x280b6818969b    1b  b82a000000           movl rax,0x2a
0x280b681896a0    20  488be5               REX.W movq rsp,rbp
0x280b681896a3    23  5d                   pop rbp
0x280b681896a4    24  c3                   retl
0x280b681896a5    25  e8c6ccffff           call 0x280b68186370  (jump table)
0x280b681896aa    2a  488b75f0             REX.W movq rsi,[rbp-0x10]
0x280b681896ae    2e  ebeb                 jmp 0x280b6818969b  <+0x1b>

Source positions:
 pc offset  position
        25         0  statement

Safepoints (entries = 1, byte size = 10)
0x280b681896aa     2a  slots (sp->fp): 00000000

RelocInfo (size = 0)

--- End code ---
--- WebAssembly code ---
name: __wasi_syscall_ret
index: 31
kind: wasm function
compiler: Liftoff
Body (size = 128 = 108 + 20 padding)
Instructions (size = 96)
0x280b681896c0     0  55                   push rbp
0x280b681896c1     1  4889e5               REX.W movq rbp,rsp
0x280b681896c4     4  6a08                 push 0x8
0x280b681896c6     6  56                   push rsi
0x280b681896c7     7  4881ec20000000       REX.W subq rsp,0x20
0x280b681896ce     e  488b4e27             REX.W movq rcx,[rsi+0x27]
0x280b681896d2    12  483b21               REX.W cmpq rsp,[rcx]
0x280b681896d5    15  0f8633000000         jna 0x280b6818970e  <+0x4e>
0x280b681896db    1b  85c0                 testl rax,rax
0x280b681896dd    1d  0f8507000000         jnz 0x280b681896ea  <+0x2a>
0x280b681896e3    23  33c0                 xorl rax,rax
0x280b681896e5    25  488be5               REX.W movq rsp,rbp
0x280b681896e8    28  5d                   pop rbp
0x280b681896e9    29  c3                   retl
0x280b681896ea    2a  8945d4               movl [rbp-0x2c],rax
0x280b681896ed    2d  488b75f0             REX.W movq rsi,[rbp-0x10]
0x280b681896f1    31  e854c9ffff           call 0x280b6818604a  (jump table)
0x280b681896f6    36  8b4dd4               movl rcx,[rbp-0x2c]
0x280b681896f9    39  488b75f0             REX.W movq rsi,[rbp-0x10]
0x280b681896fd    3d  488b5617             REX.W movq rdx,[rsi+0x17]
0x280b68189701    41  890c02               movl [rdx+rax*1],rcx
0x280b68189704    44  b8ffffffff           movl rax,0xffffffff
0x280b68189709    49  488be5               REX.W movq rsp,rbp
0x280b6818970c    4c  5d                   pop rbp
0x280b6818970d    4d  c3                   retl
0x280b6818970e    4e  50                   push rax
0x280b6818970f    4f  e85cccffff           call 0x280b68186370  (jump table)
0x280b68189714    54  58                   pop rax
0x280b68189715    55  488b75f0             REX.W movq rsi,[rbp-0x10]
0x280b68189719    59  ebc0                 jmp 0x280b681896db  <+0x1b>
0x280b6818971b    5b  e8f0c9ffff           call 0x280b68186110  (jump table)

Protected instructions:
 pc offset  land pad
        41        5b

Source positions:
 pc offset  position
        31        10  statement
        4f         0  statement
        5b        14  statement

Safepoints (entries = 1, byte size = 11)
0x280b681896f6     36  slots (sp->fp): 0000000000000000

RelocInfo (size = 0)

--- End code ---
--- WebAssembly code ---
name: vfiprintf
index: 30
kind: wasm function
compiler: Liftoff
Body (size = 128 = 84 + 44 padding)
Instructions (size = 72)
0x280b68189740     0  55                   push rbp
0x280b68189741     1  4889e5               REX.W movq rbp,rsp
0x280b68189744     4  6a08                 push 0x8
0x280b68189746     6  56                   push rsi
0x280b68189747     7  4881ec28000000       REX.W subq rsp,0x28
0x280b6818974e     e  488b5e27             REX.W movq rbx,[rsi+0x27]
0x280b68189752    12  483b23               REX.W cmpq rsp,[rbx]
0x280b68189755    15  0f861c000000         jna 0x280b68189777  <+0x37>
0x280b6818975b    1b  894dcc               movl [rbp-0x34],rcx
0x280b6818975e    1e  8955d0               movl [rbp-0x30],rdx
0x280b68189761    21  8945d4               movl [rbp-0x2c],rax
0x280b68189764    24  33db                 xorl rbx,rbx
0x280b68189766    26  4533c9               xorl r9,r9
0x280b68189769    29  488b75f0             REX.W movq rsi,[rbp-0x10]
0x280b6818976d    2d  e8e7c8ffff           call 0x280b68186059  (jump table)
0x280b68189772    32  488be5               REX.W movq rsp,rbp
0x280b68189775    35  5d                   pop rbp
0x280b68189776    36  c3                   retl
0x280b68189777    37  50                   push rax
0x280b68189778    38  51                   push rcx
0x280b68189779    39  52                   push rdx
0x280b6818977a    3a  e8f1cbffff           call 0x280b68186370  (jump table)
0x280b6818977f    3f  5a                   pop rdx
0x280b68189780    40  59                   pop rcx
0x280b68189781    41  58                   pop rax
0x280b68189782    42  488b75f0             REX.W movq rsi,[rbp-0x10]
0x280b68189786    46  ebd3                 jmp 0x280b6818975b  <+0x1b>

Source positions:
 pc offset  position
        2d        11  statement
        3a         0  statement

Safepoints (entries = 1, byte size = 11)
0x280b68189772     32  slots (sp->fp): 0000000000000000

RelocInfo (size = 0)

--- End code ---
--- WebAssembly code ---
name: pad
index: 29
kind: wasm function
compiler: Liftoff
Body (size = 384 = 360 + 24 padding)
Instructions (size = 348)
0x280b681897c0     0  55                   push rbp
0x280b681897c1     1  4889e5               REX.W movq rbp,rsp
0x280b681897c4     4  6a08                 push 0x8
0x280b681897c6     6  56                   push rsi
0x280b681897c7     7  4881ec40000000       REX.W subq rsp,0x40
0x280b681897ce     e  488b7e27             REX.W movq rdi,[rsi+0x27]
0x280b681897d2    12  483b27               REX.W cmpq rsp,[rdi]
0x280b681897d5    15  0f8618010000         jna 0x280b681898f3  <+0x133>
0x280b681897db    1b  488b7e47             REX.W movq rdi,[rsi+0x47]
0x280b681897df    1f  8b37                 movl rsi,[rdi]
0x280b681897e1    21  bf00010000           movl rdi,0x100
0x280b681897e6    26  2bf7                 subl rsi,rdi
0x280b681897e8    28  488b7df0             REX.W movq rdi,[rbp-0x10]
0x280b681897ec    2c  488b7f47             REX.W movq rdi,[rdi+0x47]
0x280b681897f0    30  8937                 movl [rdi],rsi
0x280b681897f2    32  3bcb                 cmpl rcx,rbx
0x280b681897f4    34  0f8f05000000         jg 0x280b681897ff  <+0x3f>
0x280b681897fa    3a  e9dc000000           jmp 0x280b681898db  <+0x11b>
0x280b681897ff    3f  418bf9               movl rdi,r9
0x280b68189802    42  81e700200100         andl rdi,0x12000
0x280b68189808    48  85ff                 testl rdi,rdi
0x280b6818980a    4a  0f8405000000         jz 0x280b68189815  <+0x55>
0x280b68189810    50  e9c6000000           jmp 0x280b681898db  <+0x11b>
0x280b68189815    55  8bfa                 movl rdi,rdx
0x280b68189817    57  81e7ff000000         andl rdi,0xff
0x280b6818981d    5d  8945d4               movl [rbp-0x2c],rax
0x280b68189820    60  8bc1                 movl rax,rcx
0x280b68189822    62  2bc3                 subl rax,rbx
0x280b68189824    64  b900010000           movl rcx,0x100
0x280b68189829    69  3bc1                 cmpl rax,rcx
0x280b6818982b    6b  0f92c1               setcl cl
0x280b6818982e    6e  0fb6c9               movzxbl rcx,rcx
0x280b68189831    71  bb00010000           movl rbx,0x100
0x280b68189836    76  85c9                 testl rcx,rcx
0x280b68189838    78  0f45d8               cmovnzl rbx,rax
0x280b6818983b    7b  8975c0               movl [rbp-0x40],rsi
0x280b6818983e    7e  44894dc4             movl [rbp-0x3c],r9
0x280b68189842    82  894dc8               movl [rbp-0x38],rcx
0x280b68189845    85  8945cc               movl [rbp-0x34],rax
0x280b68189848    88  8955d0               movl [rbp-0x30],rdx
0x280b6818984b    8b  8bc6                 movl rax,rsi
0x280b6818984d    8d  8bcb                 movl rcx,rbx
0x280b6818984f    8f  8bd7                 movl rdx,rdi
0x280b68189851    91  488b75f0             REX.W movq rsi,[rbp-0x10]
0x280b68189855    95  e8c9c7ffff           call 0x280b68186023  (jump table)
0x280b6818985a    9a  8b45c8               movl rax,[rbp-0x38]
0x280b6818985d    9d  85c0                 testl rax,rax
0x280b6818985f    9f  0f8549000000         jnz 0x280b681898ae  <+0xee>
0x280b68189865    a5  488b75f0             REX.W movq rsi,[rbp-0x10]
0x280b68189869    a9  488b4627             REX.W movq rax,[rsi+0x27]
0x280b6818986d    ad  483b20               REX.W cmpq rsp,[rax]
0x280b68189870    b0  0f8697000000         jna 0x280b6818990d  <+0x14d>
0x280b68189876    b6  8b45d4               movl rax,[rbp-0x2c]
0x280b68189879    b9  8b4dc0               movl rcx,[rbp-0x40]
0x280b6818987c    bc  8bd1                 movl rdx,rcx
0x280b6818987e    be  b900010000           movl rcx,0x100
0x280b68189883    c3  488b75f0             REX.W movq rsi,[rbp-0x10]
0x280b68189887    c7  e8d7c7ffff           call 0x280b68186063  (jump table)
0x280b6818988c    cc  8b45cc               movl rax,[rbp-0x34]
0x280b6818988f    cf  b900010000           movl rcx,0x100
0x280b68189894    d4  2bc1                 subl rax,rcx
0x280b68189896    d6  3dff000000           cmp rax,0xff
0x280b6818989b    db  0f8605000000         jna 0x280b681898a6  <+0xe6>
0x280b681898a1    e1  8945cc               movl [rbp-0x34],rax
0x280b681898a4    e4  ebbf                 jmp 0x280b68189865  <+0xa5>
0x280b681898a6    e6  8945cc               movl [rbp-0x34],rax
0x280b681898a9    e9  e900000000           jmp 0x280b681898ae  <+0xee>
0x280b681898ae    ee  8b45d4               movl rax,[rbp-0x2c]
0x280b681898b1    f1  8b4dc0               movl rcx,[rbp-0x40]
0x280b681898b4    f4  8b55cc               movl rdx,[rbp-0x34]
0x280b681898b7    f7  8955b0               movl [rbp-0x50],rdx
0x280b681898ba    fa  8bd1                 movl rdx,rcx
0x280b681898bc    fc  8b4db0               movl rcx,[rbp-0x50]
0x280b681898bf    ff  488b75f0             REX.W movq rsi,[rbp-0x10]
0x280b681898c3   103  e89bc7ffff           call 0x280b68186063  (jump table)
0x280b681898c8   108  8b45d4               movl rax,[rbp-0x2c]
0x280b681898cb   10b  8b4dcc               movl rcx,[rbp-0x34]
0x280b681898ce   10e  8b55d0               movl rdx,[rbp-0x30]
0x280b681898d1   111  8b5dc8               movl rbx,[rbp-0x38]
0x280b681898d4   114  8b75c0               movl rsi,[rbp-0x40]
0x280b681898d7   117  448b4dc4             movl r9,[rbp-0x3c]
0x280b681898db   11b  8dbe00010000         leal rdi,[rsi+0x100]
0x280b681898e1   121  8945d4               movl [rbp-0x2c],rax
0x280b681898e4   124  488b45f0             REX.W movq rax,[rbp-0x10]
0x280b681898e8   128  488b4047             REX.W movq rax,[rax+0x47]
0x280b681898ec   12c  8938                 movl [rax],rdi
0x280b681898ee   12e  488be5               REX.W movq rsp,rbp
0x280b681898f1   131  5d                   pop rbp
0x280b681898f2   132  c3                   retl
0x280b681898f3   133  50                   push rax
0x280b681898f4   134  51                   push rcx
0x280b681898f5   135  52                   push rdx
0x280b681898f6   136  53                   push rbx
0x280b681898f7   137  4151                 push r9
0x280b681898f9   139  e872caffff           call 0x280b68186370  (jump table)
0x280b681898fe   13e  4159                 pop r9
0x280b68189900   140  5b                   pop rbx
0x280b68189901   141  5a                   pop rdx
0x280b68189902   142  59                   pop rcx
0x280b68189903   143  58                   pop rax
0x280b68189904   144  488b75f0             REX.W movq rsi,[rbp-0x10]
0x280b68189908   148  e9cefeffff           jmp 0x280b681897db  <+0x1b>
0x280b6818990d   14d  e85ecaffff           call 0x280b68186370  (jump table)
0x280b68189912   152  488b75f0             REX.W movq rsi,[rbp-0x10]
0x280b68189916   156  e95bffffff           jmp 0x280b68189876  <+0xb6>
0x280b6818991b   15b  90                   nop

Source positions:
 pc offset  position
        95        58  statement
        c7        75  statement
       103        99  statement
       139         0  statement
       14d        66  statement

Safepoints (entries = 1, byte size = 12)
0x280b6818985a     9a  slots (sp->fp): 000000000000000000000000

RelocInfo (size = 0)

--- End code ---
--- WebAssembly code ---
name: iprintf
index: 7
kind: wasm function
compiler: Liftoff
Body (size = 192 = 136 + 56 padding)
Instructions (size = 124)
0x280b68189dc0     0  55                   push rbp
0x280b68189dc1     1  4889e5               REX.W movq rbp,rsp
0x280b68189dc4     4  6a08                 push 0x8
0x280b68189dc6     6  56                   push rsi
0x280b68189dc7     7  4881ec28000000       REX.W subq rsp,0x28
0x280b68189dce     e  488b4e27             REX.W movq rcx,[rsi+0x27]
0x280b68189dd2    12  483b21               REX.W cmpq rsp,[rcx]
0x280b68189dd5    15  0f864b000000         jna 0x280b68189e26  <+0x66>
0x280b68189ddb    1b  488b4e47             REX.W movq rcx,[rsi+0x47]
0x280b68189ddf    1f  8b19                 movl rbx,[rcx]
0x280b68189de1    21  b910000000           movl rcx,0x10
0x280b68189de6    26  2bd9                 subl rbx,rcx
0x280b68189de8    28  488b4e47             REX.W movq rcx,[rsi+0x47]
0x280b68189dec    2c  8919                 movl [rcx],rbx
0x280b68189dee    2e  488b4e17             REX.W movq rcx,[rsi+0x17]
0x280b68189df2    32  8954190c             movl [rcx+rbx*1+0xc],rdx
0x280b68189df6    36  895dcc               movl [rbp-0x34],rbx
0x280b68189df9    39  8955d0               movl [rbp-0x30],rdx
0x280b68189dfc    3c  8945d4               movl [rbp-0x2c],rax
0x280b68189dff    3f  8bca                 movl rcx,rdx
0x280b68189e01    41  8bd0                 movl rdx,rax
0x280b68189e03    43  b800060000           movl rax,0x600
0x280b68189e08    48  488b75f0             REX.W movq rsi,[rbp-0x10]
0x280b68189e0c    4c  e879c2ffff           call 0x280b6818608a  (jump table)
0x280b68189e11    51  8b4dcc               movl rcx,[rbp-0x34]
0x280b68189e14    54  83c110               addl rcx,0x10
0x280b68189e17    57  488b75f0             REX.W movq rsi,[rbp-0x10]
0x280b68189e1b    5b  488b5647             REX.W movq rdx,[rsi+0x47]
0x280b68189e1f    5f  890a                 movl [rdx],rcx
0x280b68189e21    61  488be5               REX.W movq rsp,rbp
0x280b68189e24    64  5d                   pop rbp
0x280b68189e25    65  c3                   retl
0x280b68189e26    66  50                   push rax
0x280b68189e27    67  52                   push rdx
0x280b68189e28    68  e843c5ffff           call 0x280b68186370  (jump table)
0x280b68189e2d    6d  5a                   pop rdx
0x280b68189e2e    6e  58                   pop rax
0x280b68189e2f    6f  488b75f0             REX.W movq rsi,[rbp-0x10]
0x280b68189e33    73  eba6                 jmp 0x280b68189ddb  <+0x1b>
0x280b68189e35    75  e8d6c2ffff           call 0x280b68186110  (jump table)
0x280b68189e3a    7a  6690                 nop

Protected instructions:
 pc offset  land pad
        32        75

Source positions:
 pc offset  position
        4c        26  statement
        68         0  statement
        75        16  statement

Safepoints (entries = 1, byte size = 11)
0x280b68189e11     51  slots (sp->fp): 0000000000000000

RelocInfo (size = 0)

--- End code ---
--- WebAssembly code ---
name: getint
index: 24
kind: wasm function
compiler: Liftoff
Body (size = 384 = 328 + 56 padding)
Instructions (size = 316)
0x280b68189e80     0  55                   push rbp
0x280b68189e81     1  4889e5               REX.W movq rbp,rsp
0x280b68189e84     4  6a08                 push 0x8
0x280b68189e86     6  56                   push rsi
0x280b68189e87     7  4881ec30000000       REX.W subq rsp,0x30
0x280b68189e8e     e  488b4e27             REX.W movq rcx,[rsi+0x27]
0x280b68189e92    12  483b21               REX.W cmpq rsp,[rcx]
0x280b68189e95    15  0f86e4000000         jna 0x280b68189f7f  <+0xff>
0x280b68189e9b    1b  488b4e17             REX.W movq rcx,[rsi+0x17]
0x280b68189e9f    1f  8b1401               movl rdx,[rcx+rax*1]
0x280b68189ea2    22  0fbe1c11             movsxbl rbx,[rcx+rdx*1]
0x280b68189ea6    26  8945d4               movl [rbp-0x2c],rax
0x280b68189ea9    29  8bc3                 movl rax,rbx
0x280b68189eab    2b  488b75f0             REX.W movq rsi,[rbp-0x10]
0x280b68189eaf    2f  e883c1ffff           call 0x280b68186037  (jump table)
0x280b68189eb4    34  85c0                 testl rax,rax
0x280b68189eb6    36  0f8507000000         jnz 0x280b68189ec3  <+0x43>
0x280b68189ebc    3c  33c0                 xorl rax,rax
0x280b68189ebe    3e  488be5               REX.W movq rsp,rbp
0x280b68189ec1    41  5d                   pop rbp
0x280b68189ec2    42  c3                   retl
0x280b68189ec3    43  c745d000000000       movl [rbp-0x30],0x0
0x280b68189eca    4a  c745cc00000000       movl [rbp-0x34],0x0
0x280b68189ed1    51  c745c800000000       movl [rbp-0x38],0x0
0x280b68189ed8    58  488b75f0             REX.W movq rsi,[rbp-0x10]
0x280b68189edc    5c  488b4627             REX.W movq rax,[rsi+0x27]
0x280b68189ee0    60  483b20               REX.W cmpq rsp,[rax]
0x280b68189ee3    63  0f86b0000000         jna 0x280b68189f99  <+0x119>
0x280b68189ee9    69  8b45d4               movl rax,[rbp-0x2c]
0x280b68189eec    6c  488b4e17             REX.W movq rcx,[rsi+0x17]
0x280b68189ef0    70  8b1401               movl rdx,[rcx+rax*1]
0x280b68189ef3    73  8b45cc               movl rax,[rbp-0x34]
0x280b68189ef6    76  3dcccccc0c           cmp rax,0xccccccc
0x280b68189efb    7b  0f8742000000         ja 0x280b68189f43  <+0xc3>
0x280b68189f01    81  0fbe0411             movsxbl rax,[rcx+rdx*1]
0x280b68189f05    85  bb30000000           movl rbx,0x30
0x280b68189f0a    8a  2bc3                 subl rax,rbx
0x280b68189f0c    8c  8b5dcc               movl rbx,[rbp-0x34]
0x280b68189f0f    8f  bf0a000000           movl rdi,0xa
0x280b68189f14    94  0fafdf               imull rbx,rdi
0x280b68189f17    97  8d3c18               leal rdi,[rax+rbx*1]
0x280b68189f1a    9a  41b9ffffff7f         movl r9,0x7fffffff
0x280b68189f20    a0  442bcb               subl r9,rbx
0x280b68189f23    a3  413bc1               cmpl rax,r9
0x280b68189f26    a6  410f9fc1             setgl r9l
0x280b68189f2a    aa  450fb6c9             movzxbl r9,r9
0x280b68189f2e    ae  beffffffff           movl rsi,0xffffffff
0x280b68189f33    b3  4585c9               testl r9,r9
0x280b68189f36    b6  0f44f7               cmovzl rsi,rdi
0x280b68189f39    b9  895dcc               movl [rbp-0x34],rbx
0x280b68189f3c    bc  8bc6                 movl rax,rsi
0x280b68189f3e    be  e905000000           jmp 0x280b68189f48  <+0xc8>
0x280b68189f43    c3  b8ffffffff           movl rax,0xffffffff
0x280b68189f48    c8  8b5dd4               movl rbx,[rbp-0x2c]
0x280b68189f4b    cb  8d7201               leal rsi,[rdx+0x1]
0x280b68189f4e    ce  893419               movl [rcx+rbx*1],rsi
0x280b68189f51    d1  0fbe5c1101           movsxbl rbx,[rcx+rdx*1+0x1]
0x280b68189f56    d6  8955c8               movl [rbp-0x38],rdx
0x280b68189f59    d9  8945cc               movl [rbp-0x34],rax
0x280b68189f5c    dc  8945d0               movl [rbp-0x30],rax
0x280b68189f5f    df  8bc3                 movl rax,rbx
0x280b68189f61    e1  488b75f0             REX.W movq rsi,[rbp-0x10]
0x280b68189f65    e5  e8cdc0ffff           call 0x280b68186037  (jump table)
0x280b68189f6a    ea  85c0                 testl rax,rax
0x280b68189f6c    ec  0f8405000000         jz 0x280b68189f77  <+0xf7>
0x280b68189f72    f2  e961ffffff           jmp 0x280b68189ed8  <+0x58>
0x280b68189f77    f7  8b45d0               movl rax,[rbp-0x30]
0x280b68189f7a    fa  488be5               REX.W movq rsp,rbp
0x280b68189f7d    fd  5d                   pop rbp
0x280b68189f7e    fe  c3                   retl
0x280b68189f7f    ff  50                   push rax
0x280b68189f80   100  e8ebc3ffff           call 0x280b68186370  (jump table)
0x280b68189f85   105  58                   pop rax
0x280b68189f86   106  488b75f0             REX.W movq rsi,[rbp-0x10]
0x280b68189f8a   10a  e90cffffff           jmp 0x280b68189e9b  <+0x1b>
0x280b68189f8f   10f  e87cc1ffff           call 0x280b68186110  (jump table)
0x280b68189f94   114  e877c1ffff           call 0x280b68186110  (jump table)
0x280b68189f99   119  e8d2c3ffff           call 0x280b68186370  (jump table)
0x280b68189f9e   11e  488b75f0             REX.W movq rsi,[rbp-0x10]
0x280b68189fa2   122  e942ffffff           jmp 0x280b68189ee9  <+0x69>
0x280b68189fa7   127  e864c1ffff           call 0x280b68186110  (jump table)
0x280b68189fac   12c  e85fc1ffff           call 0x280b68186110  (jump table)
0x280b68189fb1   131  e85ac1ffff           call 0x280b68186110  (jump table)
0x280b68189fb6   136  e855c1ffff           call 0x280b68186110  (jump table)
0x280b68189fbb   13b  90                   nop

Protected instructions:
 pc offset  land pad
        1f       10f
        22       114
        70       127
        81       12c
        ce       131
        d1       136

Source positions:
 pc offset  position
        2f        15  statement
        e5       103  statement
       100         0  statement
       10f         9  statement
       114        12  statement
       119        24  statement
       127        28  statement
       12c        52  statement
       131        91  statement
       136       100  statement

Safepoints (entries = 1, byte size = 11)
0x280b68189eb4     34  slots (sp->fp): 0000000000000000

RelocInfo (size = 0)

--- End code ---
--- WebAssembly code ---
name: printf_core
index: 22
kind: wasm function
compiler: Liftoff
Body (size = 7104 = 7084 + 20 padding)
Instructions (size = 7068)
0x280b6818a5c0     0  55                   push rbp
0x280b6818a5c1     1  4889e5               REX.W movq rbp,rsp
0x280b6818a5c4     4  6a08                 push 0x8
0x280b6818a5c6     6  56                   push rsi
0x280b6818a5c7     7  4881eca0000000       REX.W subq rsp,0xa0
0x280b6818a5ce     e  8b7d10               movl rdi,[rbp+0x10]
0x280b6818a5d1    11  8b7518               movl rsi,[rbp+0x18]
0x280b6818a5d4    14  50                   push rax
0x280b6818a5d5    15  51                   push rcx
0x280b6818a5d6    16  57                   push rdi
0x280b6818a5d7    17  488dbd70ffffff       REX.W leaq rdi,[rbp-0x90]
0x280b6818a5de    1e  33c0                 xorl rax,rax
0x280b6818a5e0    20  b913000000           movl rcx,0x13
0x280b6818a5e5    25  f3ab                 rep stosl
0x280b6818a5e7    27  5f                   pop rdi
0x280b6818a5e8    28  59                   pop rcx
0x280b6818a5e9    29  58                   pop rax
0x280b6818a5ea    2a  8945d4               movl [rbp-0x2c],rax
0x280b6818a5ed    2d  488b45f0             REX.W movq rax,[rbp-0x10]
0x280b6818a5f1    31  488b4027             REX.W movq rax,[rax+0x27]
0x280b6818a5f5    35  483b20               REX.W cmpq rsp,[rax]
0x280b6818a5f8    38  0f86e5180000         jna 0x280b6818bee3  <+0x1923>
0x280b6818a5fe    3e  488b45f0             REX.W movq rax,[rbp-0x10]
0x280b6818a602    42  488b4047             REX.W movq rax,[rax+0x47]
0x280b6818a606    46  894dcc               movl [rbp-0x34],rcx
0x280b6818a609    49  8b08                 movl rcx,[rax]
0x280b6818a60b    4b  b850000000           movl rax,0x50
0x280b6818a610    50  2bc8                 subl rcx,rax
0x280b6818a612    52  488b45f0             REX.W movq rax,[rbp-0x10]
0x280b6818a616    56  488b4047             REX.W movq rax,[rax+0x47]
0x280b6818a61a    5a  8908                 movl [rax],rcx
0x280b6818a61c    5c  488b45f0             REX.W movq rax,[rbp-0x10]
0x280b6818a620    60  488b4017             REX.W movq rax,[rax+0x17]
0x280b6818a624    64  8954084c             movl [rax+rcx*1+0x4c],rdx
0x280b6818a628    68  8d4137               leal rax,[rcx+0x37]
0x280b6818a62b    6b  8955d0               movl [rbp-0x30],rdx
0x280b6818a62e    6e  8d5138               leal rdx,[rcx+0x38]
0x280b6818a631    71  c745d000000000       movl [rbp-0x30],0x0
0x280b6818a638    78  895dc8               movl [rbp-0x38],rbx
0x280b6818a63b    7b  44894dc4             movl [rbp-0x3c],r9
0x280b6818a63f    7f  897dc0               movl [rbp-0x40],rdi
0x280b6818a642    82  8975bc               movl [rbp-0x44],rsi
0x280b6818a645    85  894db8               movl [rbp-0x48],rcx
0x280b6818a648    88  89558c               movl [rbp-0x74],rdx
0x280b6818a64b    8b  898570ffffff         movl [rbp-0x90],rax
0x280b6818a651    91  488b75f0             REX.W movq rsi,[rbp-0x10]
0x280b6818a655    95  488b4627             REX.W movq rax,[rsi+0x27]
0x280b6818a659    99  483b20               REX.W cmpq rsp,[rax]
0x280b6818a65c    9c  0f869e180000         jna 0x280b6818bf00  <+0x1940>
0x280b6818a662    a2  8b45d0               movl rax,[rbp-0x30]
0x280b6818a665    a5  8b4da0               movl rcx,[rbp-0x60]
0x280b6818a668    a8  baffffff7f           movl rdx,0x7fffffff
0x280b6818a66d    ad  2bd1                 subl rdx,rcx
0x280b6818a66f    af  3bc2                 cmpl rax,rdx
0x280b6818a671    b1  0f8e05000000         jle 0x280b6818a67c  <+0xbc>
0x280b6818a677    b7  e915180000           jmp 0x280b6818be91  <+0x18d1>
0x280b6818a67c    bc  8b45d0               movl rax,[rbp-0x30]
0x280b6818a67f    bf  8b4da0               movl rcx,[rbp-0x60]
0x280b6818a682    c2  03c1                 addl rax,rcx
0x280b6818a684    c4  8b4db8               movl rcx,[rbp-0x48]
0x280b6818a687    c7  488b5617             REX.W movq rdx,[rsi+0x17]
0x280b6818a68b    cb  8b5c0a4c             movl rbx,[rdx+rcx*1+0x4c]
0x280b6818a68f    cf  0fb60c1a             movzxbl rcx,[rdx+rbx*1]
0x280b6818a693    d3  85c9                 testl rcx,rcx
0x280b6818a695    d5  0f8435150000         jz 0x280b6818bbd0  <+0x1610>
0x280b6818a69b    db  895dd0               movl [rbp-0x30],rbx
0x280b6818a69e    de  894db4               movl [rbp-0x4c],rcx
0x280b6818a6a1    e1  895da8               movl [rbp-0x58],rbx
0x280b6818a6a4    e4  8945a0               movl [rbp-0x60],rax
0x280b6818a6a7    e7  488b4627             REX.W movq rax,[rsi+0x27]
0x280b6818a6ab    eb  483b20               REX.W cmpq rsp,[rax]
0x280b6818a6ae    ee  0f8664180000         jna 0x280b6818bf18  <+0x1958>
0x280b6818a6b4    f4  8b45b4               movl rax,[rbp-0x4c]
0x280b6818a6b7    f7  25ff000000           and rax,0xff
0x280b6818a6bc    fc  85c0                 testl rax,rax
0x280b6818a6be    fe  0f8508000000         jnz 0x280b6818a6cc  <+0x10c>
0x280b6818a6c4   104  8b4dd0               movl rcx,[rbp-0x30]
0x280b6818a6c7   107  e977000000           jmp 0x280b6818a743  <+0x183>
0x280b6818a6cc   10c  83f825               cmpl rax,0x25
0x280b6818a6cf   10f  0f8405000000         jz 0x280b6818a6da  <+0x11a>
0x280b6818a6d5   115  e9d3140000           jmp 0x280b6818bbad  <+0x15ed>
0x280b6818a6da   11a  8b4dd0               movl rcx,[rbp-0x30]
0x280b6818a6dd   11d  894db4               movl [rbp-0x4c],rcx
0x280b6818a6e0   120  488b4627             REX.W movq rax,[rsi+0x27]
0x280b6818a6e4   124  483b20               REX.W cmpq rsp,[rax]
0x280b6818a6e7   127  0f863b180000         jna 0x280b6818bf28  <+0x1968>
0x280b6818a6ed   12d  8b45d0               movl rax,[rbp-0x30]
0x280b6818a6f0   130  0fb64c0201           movzxbl rcx,[rdx+rax*1+0x1]
0x280b6818a6f5   135  83f925               cmpl rcx,0x25
0x280b6818a6f8   138  0f8408000000         jz 0x280b6818a706  <+0x146>
0x280b6818a6fe   13e  8b4db4               movl rcx,[rbp-0x4c]
0x280b6818a701   141  e93d000000           jmp 0x280b6818a743  <+0x183>
0x280b6818a706   146  8b45b8               movl rax,[rbp-0x48]
0x280b6818a709   149  8b4dd0               movl rcx,[rbp-0x30]
0x280b6818a70c   14c  83c102               addl rcx,0x2
0x280b6818a70f   14f  894c024c             movl [rdx+rax*1+0x4c],rcx
0x280b6818a713   153  8b45b4               movl rax,[rbp-0x4c]
0x280b6818a716   156  83c001               addl rax,0x1
0x280b6818a719   159  8b5dd0               movl rbx,[rbp-0x30]
0x280b6818a71c   15c  0fb67c1a02           movzxbl rdi,[rdx+rbx*1+0x2]
0x280b6818a721   161  83ff25               cmpl rdi,0x25
0x280b6818a724   164  0f850e000000         jnz 0x280b6818a738  <+0x178>
0x280b6818a72a   16a  894dd0               movl [rbp-0x30],rcx
0x280b6818a72d   16d  8945b4               movl [rbp-0x4c],rax
0x280b6818a730   170  897dac               movl [rbp-0x54],rdi
0x280b6818a733   173  894d94               movl [rbp-0x6c],rcx
0x280b6818a736   176  eba8                 jmp 0x280b6818a6e0  <+0x120>
0x280b6818a738   178  894dd0               movl [rbp-0x30],rcx
0x280b6818a73b   17b  897dac               movl [rbp-0x54],rdi
0x280b6818a73e   17e  894d94               movl [rbp-0x6c],rcx
0x280b6818a741   181  8bc8                 movl rcx,rax
0x280b6818a743   183  8b45a8               movl rax,[rbp-0x58]
0x280b6818a746   186  f7d8                 negl rax
0x280b6818a748   188  03c1                 addl rax,rcx
0x280b6818a74a   18a  8b5da0               movl rbx,[rbp-0x60]
0x280b6818a74d   18d  bfffffff7f           movl rdi,0x7fffffff
0x280b6818a752   192  2bfb                 subl rdi,rbx
0x280b6818a754   194  3bc7                 cmpl rax,rdi
0x280b6818a756   196  0f8e0e000000         jle 0x280b6818a76a  <+0x1aa>
0x280b6818a75c   19c  8945d0               movl [rbp-0x30],rax
0x280b6818a75f   19f  894db4               movl [rbp-0x4c],rcx
0x280b6818a762   1a2  897d94               movl [rbp-0x6c],rdi
0x280b6818a765   1a5  e927170000           jmp 0x280b6818be91  <+0x18d1>
0x280b6818a76a   1aa  8b5dd4               movl rbx,[rbp-0x2c]
0x280b6818a76d   1ad  85db                 testl rbx,rbx
0x280b6818a76f   1af  0f842e000000         jz 0x280b6818a7a3  <+0x1e3>
0x280b6818a775   1b5  8b5dd4               movl rbx,[rbp-0x2c]
0x280b6818a778   1b8  448b4da8             movl r9,[rbp-0x58]
0x280b6818a77c   1bc  897d94               movl [rbp-0x6c],rdi
0x280b6818a77f   1bf  894db4               movl [rbp-0x4c],rcx
0x280b6818a782   1c2  8945d0               movl [rbp-0x30],rax
0x280b6818a785   1c5  8bc8                 movl rcx,rax
0x280b6818a787   1c7  8bc3                 movl rax,rbx
0x280b6818a789   1c9  418bd1               movl rdx,r9
0x280b6818a78c   1cc  488b75f0             REX.W movq rsi,[rbp-0x10]
0x280b6818a790   1d0  e8ceb8ffff           call 0x280b68186063  (jump table)
0x280b6818a795   1d5  8b45d0               movl rax,[rbp-0x30]
0x280b6818a798   1d8  8b4db4               movl rcx,[rbp-0x4c]
0x280b6818a79b   1db  8b7d94               movl rdi,[rbp-0x6c]
0x280b6818a79e   1de  e900000000           jmp 0x280b6818a7a3  <+0x1e3>
0x280b6818a7a3   1e3  8b55a8               movl rdx,[rbp-0x58]
0x280b6818a7a6   1e6  3bca                 cmpl rcx,rdx
0x280b6818a7a8   1e8  0f840e000000         jz 0x280b6818a7bc  <+0x1fc>
0x280b6818a7ae   1ee  8945d0               movl [rbp-0x30],rax
0x280b6818a7b1   1f1  894db4               movl [rbp-0x4c],rcx
0x280b6818a7b4   1f4  897d94               movl [rbp-0x6c],rdi
0x280b6818a7b7   1f7  e995feffff           jmp 0x280b6818a651  <+0x91>
0x280b6818a7bc   1fc  8b4db8               movl rcx,[rbp-0x48]
0x280b6818a7bf   1ff  488b75f0             REX.W movq rsi,[rbp-0x10]
0x280b6818a7c3   203  488b5617             REX.W movq rdx,[rsi+0x17]
0x280b6818a7c7   207  8b5c0a4c             movl rbx,[rdx+rcx*1+0x4c]
0x280b6818a7cb   20b  0fbe4c1a01           movsxbl rcx,[rdx+rbx*1+0x1]
0x280b6818a7d0   210  897d94               movl [rbp-0x6c],rdi
0x280b6818a7d3   213  8945d0               movl [rbp-0x30],rax
0x280b6818a7d6   216  8bc1                 movl rax,rcx
0x280b6818a7d8   218  488b75f0             REX.W movq rsi,[rbp-0x10]
0x280b6818a7dc   21c  e856b8ffff           call 0x280b68186037  (jump table)
0x280b6818a7e1   221  8b4db8               movl rcx,[rbp-0x48]
0x280b6818a7e4   224  488b75f0             REX.W movq rsi,[rbp-0x10]
0x280b6818a7e8   228  488b5617             REX.W movq rdx,[rsi+0x17]
0x280b6818a7ec   22c  8b5c0a4c             movl rbx,[rdx+rcx*1+0x4c]
0x280b6818a7f0   230  b901000000           movl rcx,0x1
0x280b6818a7f5   235  bfffffffff           movl rdi,0xffffffff
0x280b6818a7fa   23a  85c0                 testl rax,rax
0x280b6818a7fc   23c  0f8505000000         jnz 0x280b6818a807  <+0x247>
0x280b6818a802   242  e932000000           jmp 0x280b6818a839  <+0x279>
0x280b6818a807   247  440fb64c1a02         movzxbl r9,[rdx+rbx*1+0x2]
0x280b6818a80d   24d  4183f924             cmpl r9,0x24
0x280b6818a811   251  0f8405000000         jz 0x280b6818a81c  <+0x25c>
0x280b6818a817   257  e91d000000           jmp 0x280b6818a839  <+0x279>
0x280b6818a81c   25c  440fbe4c1a01         movsxbl r9,[rdx+rbx*1+0x1]
0x280b6818a822   262  be30000000           movl rsi,0x30
0x280b6818a827   267  442bce               subl r9,rsi
0x280b6818a82a   26a  c7458401000000       movl [rbp-0x7c],0x1
0x280b6818a831   271  418bf9               movl rdi,r9
0x280b6818a834   274  b903000000           movl rcx,0x3
0x280b6818a839   279  8b75b8               movl rsi,[rbp-0x48]
0x280b6818a83c   27c  448d0c0b             leal r9,[rbx+rcx*1]
0x280b6818a840   280  44894c324c           movl [rdx+rsi*1+0x4c],r9
0x280b6818a845   285  420fbe1c0a           movsxbl rbx,[rdx+r9*1]
0x280b6818a84a   28a  be20000000           movl rsi,0x20
0x280b6818a84f   28f  f7de                 negl rsi
0x280b6818a851   291  03f3                 addl rsi,rbx
0x280b6818a853   293  83fe1f               cmpl rsi,0x1f
0x280b6818a856   296  0f860a000000         jna 0x280b6818a866  <+0x2a6>
0x280b6818a85c   29c  418bc1               movl rax,r9
0x280b6818a85f   29f  33c9                 xorl rcx,rcx
0x280b6818a861   2a1  e9e9000000           jmp 0x280b6818a94f  <+0x38f>
0x280b6818a866   2a6  b801000000           movl rax,0x1
0x280b6818a86b   2ab  8bce                 movl rcx,rsi
0x280b6818a86d   2ad  d3e0                 shll rax, cl
0x280b6818a86f   2af  8bc8                 movl rcx,rax
0x280b6818a871   2b1  81e189280100         andl rcx,0x12889
0x280b6818a877   2b7  33f6                 xorl rsi,rsi
0x280b6818a879   2b9  85c9                 testl rcx,rcx
0x280b6818a87b   2bb  0f850c000000         jnz 0x280b6818a88d  <+0x2cd>
0x280b6818a881   2c1  8bce                 movl rcx,rsi
0x280b6818a883   2c3  8bf0                 movl rsi,rax
0x280b6818a885   2c5  418bc1               movl rax,r9
0x280b6818a888   2c8  e9c2000000           jmp 0x280b6818a94f  <+0x38f>
0x280b6818a88d   2cd  44894dd0             movl [rbp-0x30],r9
0x280b6818a891   2d1  44894db4             movl [rbp-0x4c],r9
0x280b6818a895   2d5  8945ac               movl [rbp-0x54],rax
0x280b6818a898   2d8  8975a4               movl [rbp-0x5c],rsi
0x280b6818a89b   2db  897d90               movl [rbp-0x70],rdi
0x280b6818a89e   2de  895d88               movl [rbp-0x78],rbx
0x280b6818a8a1   2e1  488b75f0             REX.W movq rsi,[rbp-0x10]
0x280b6818a8a5   2e5  488b4627             REX.W movq rax,[rsi+0x27]
0x280b6818a8a9   2e9  483b20               REX.W cmpq rsp,[rax]
0x280b6818a8ac   2ec  0f86b8160000         jna 0x280b6818bf6a  <+0x19aa>
0x280b6818a8b2   2f2  8b45b8               movl rax,[rbp-0x48]
0x280b6818a8b5   2f5  8b4dd0               movl rcx,[rbp-0x30]
0x280b6818a8b8   2f8  83c101               addl rcx,0x1
0x280b6818a8bb   2fb  894c024c             movl [rdx+rax*1+0x4c],rcx
0x280b6818a8bf   2ff  8b45ac               movl rax,[rbp-0x54]
0x280b6818a8c2   302  8b5da4               movl rbx,[rbp-0x5c]
0x280b6818a8c5   305  0bc3                 orl rax,rbx
0x280b6818a8c7   307  8b5dd0               movl rbx,[rbp-0x30]
0x280b6818a8ca   30a  0fbe7c1a01           movsxbl rdi,[rdx+rbx*1+0x1]
0x280b6818a8cf   30f  bb20000000           movl rbx,0x20
0x280b6818a8d4   314  f7db                 negl rbx
0x280b6818a8d6   316  03df                 addl rbx,rdi
0x280b6818a8d8   318  83fb20               cmpl rbx,0x20
0x280b6818a8db   31b  0f821e000000         jc 0x280b6818a8ff  <+0x33f>
0x280b6818a8e1   321  8bf3                 movl rsi,rbx
0x280b6818a8e3   323  8bdf                 movl rbx,rdi
0x280b6818a8e5   325  898d6cffffff         movl [rbp-0x94],rcx
0x280b6818a8eb   32b  8bc8                 movl rcx,rax
0x280b6818a8ed   32d  8b856cffffff         movl rax,[rbp-0x94]
0x280b6818a8f3   333  8b7d90               movl rdi,[rbp-0x70]
0x280b6818a8f6   336  448b4dd0             movl r9,[rbp-0x30]
0x280b6818a8fa   33a  e950000000           jmp 0x280b6818a94f  <+0x38f>
0x280b6818a8ff   33f  41b901000000         movl r9,0x1
0x280b6818a905   345  4c8bd1               REX.W movq r10,rcx
0x280b6818a908   348  8bcb                 movl rcx,rbx
0x280b6818a90a   34a  41d3e1               shll r9, cl
0x280b6818a90d   34d  498bca               REX.W movq rcx,r10
0x280b6818a910   350  418bd9               movl rbx,r9
0x280b6818a913   353  81e389280100         andl rbx,0x12889
0x280b6818a919   359  85db                 testl rbx,rbx
0x280b6818a91b   35b  0f8415000000         jz 0x280b6818a936  <+0x376>
0x280b6818a921   361  894dd0               movl [rbp-0x30],rcx
0x280b6818a924   364  894db4               movl [rbp-0x4c],rcx
0x280b6818a927   367  44894dac             movl [rbp-0x54],r9
0x280b6818a92b   36b  8945a4               movl [rbp-0x5c],rax
0x280b6818a92e   36e  897d88               movl [rbp-0x78],rdi
0x280b6818a931   371  e96bffffff           jmp 0x280b6818a8a1  <+0x2e1>
0x280b6818a936   376  8bdf                 movl rbx,rdi
0x280b6818a938   378  418bf1               movl rsi,r9
0x280b6818a93b   37b  448bc9               movl r9,rcx
0x280b6818a93e   37e  898d6cffffff         movl [rbp-0x94],rcx
0x280b6818a944   384  8bc8                 movl rcx,rax
0x280b6818a946   386  8b856cffffff         movl rax,[rbp-0x94]
0x280b6818a94c   38c  8b7d90               movl rdi,[rbp-0x70]
0x280b6818a94f   38f  83fb2a               cmpl rbx,0x2a
0x280b6818a952   392  0f8538010000         jnz 0x280b6818aa90  <+0x4d0>
0x280b6818a958   398  8b55b8               movl rdx,[rbp-0x48]
0x280b6818a95b   39b  894da4               movl [rbp-0x5c],rcx
0x280b6818a95e   39e  488b4df0             REX.W movq rcx,[rbp-0x10]
0x280b6818a962   3a2  488b4917             REX.W movq rcx,[rcx+0x17]
0x280b6818a966   3a6  89956cffffff         movl [rbp-0x94],rdx
0x280b6818a96c   3ac  0fbe540101           movsxbl rdx,[rcx+rax*1+0x1]
0x280b6818a971   3b1  895d88               movl [rbp-0x78],rbx
0x280b6818a974   3b4  897d90               movl [rbp-0x70],rdi
0x280b6818a977   3b7  8975ac               movl [rbp-0x54],rsi
0x280b6818a97a   3ba  8945b4               movl [rbp-0x4c],rax
0x280b6818a97d   3bd  44894dd0             movl [rbp-0x30],r9
0x280b6818a981   3c1  8bc2                 movl rax,rdx
0x280b6818a983   3c3  488b75f0             REX.W movq rsi,[rbp-0x10]
0x280b6818a987   3c7  e8abb6ffff           call 0x280b68186037  (jump table)
0x280b6818a98c   3cc  85c0                 testl rax,rax
0x280b6818a98e   3ce  0f8505000000         jnz 0x280b6818a999  <+0x3d9>
0x280b6818a994   3d4  e965000000           jmp 0x280b6818a9fe  <+0x43e>
0x280b6818a999   3d9  8b45b8               movl rax,[rbp-0x48]
0x280b6818a99c   3dc  488b75f0             REX.W movq rsi,[rbp-0x10]
0x280b6818a9a0   3e0  488b4e17             REX.W movq rcx,[rsi+0x17]
0x280b6818a9a4   3e4  8b54014c             movl rdx,[rcx+rax*1+0x4c]
0x280b6818a9a8   3e8  0fb6441102           movzxbl rax,[rcx+rdx*1+0x2]
0x280b6818a9ad   3ed  83f824               cmpl rax,0x24
0x280b6818a9b0   3f0  0f8408000000         jz 0x280b6818a9be  <+0x3fe>
0x280b6818a9b6   3f6  8955b4               movl [rbp-0x4c],rdx
0x280b6818a9b9   3f9  e940000000           jmp 0x280b6818a9fe  <+0x43e>
0x280b6818a9be   3fe  0fbe441101           movsxbl rax,[rcx+rdx*1+0x1]
0x280b6818a9c3   403  c1e002               shll rax, 2
0x280b6818a9c6   406  8b5dc4               movl rbx,[rbp-0x3c]
0x280b6818a9c9   409  03c3                 addl rax,rbx
0x280b6818a9cb   40b  bbc0000000           movl rbx,0xc0
0x280b6818a9d0   410  2bc3                 subl rax,rbx
0x280b6818a9d2   412  bb0a000000           movl rbx,0xa
0x280b6818a9d7   417  891c01               movl [rcx+rax*1],rbx
0x280b6818a9da   41a  0fbe441101           movsxbl rax,[rcx+rdx*1+0x1]
0x280b6818a9df   41f  c1e003               shll rax, 3
0x280b6818a9e2   422  8b5dc8               movl rbx,[rbp-0x38]
0x280b6818a9e5   425  03c3                 addl rax,rbx
0x280b6818a9e7   427  bb80010000           movl rbx,0x180
0x280b6818a9ec   42c  2bc3                 subl rax,rbx
0x280b6818a9ee   42e  8b1c01               movl rbx,[rcx+rax*1]
0x280b6818a9f1   431  8d4203               leal rax,[rdx+0x3]
0x280b6818a9f4   434  bf01000000           movl rdi,0x1
0x280b6818a9f9   439  e95e000000           jmp 0x280b6818aa5c  <+0x49c>
0x280b6818a9fe   43e  8b4584               movl rax,[rbp-0x7c]
0x280b6818aa01   441  85c0                 testl rax,rax
0x280b6818aa03   443  0f8405000000         jz 0x280b6818aa0e  <+0x44e>
0x280b6818aa09   449  e9f0120000           jmp 0x280b6818bcfe  <+0x173e>
0x280b6818aa0e   44e  8b45d4               movl rax,[rbp-0x2c]
0x280b6818aa11   451  85c0                 testl rax,rax
0x280b6818aa13   453  0f8424000000         jz 0x280b6818aa3d  <+0x47d>
0x280b6818aa19   459  8b45cc               movl rax,[rbp-0x34]
0x280b6818aa1c   45c  8b4dcc               movl rcx,[rbp-0x34]
0x280b6818aa1f   45f  488b75f0             REX.W movq rsi,[rbp-0x10]
0x280b6818aa23   463  488b5617             REX.W movq rdx,[rsi+0x17]
0x280b6818aa27   467  8b1c0a               movl rbx,[rdx+rcx*1]
0x280b6818aa2a   46a  8d4b04               leal rcx,[rbx+0x4]
0x280b6818aa2d   46d  890c02               movl [rdx+rax*1],rcx
0x280b6818aa30   470  8b041a               movl rax,[rdx+rbx*1]
0x280b6818aa33   473  895dd0               movl [rbp-0x30],rbx
0x280b6818aa36   476  33c9                 xorl rcx,rcx
0x280b6818aa38   478  e904000000           jmp 0x280b6818aa41  <+0x481>
0x280b6818aa3d   47d  33c0                 xorl rax,rax
0x280b6818aa3f   47f  33c9                 xorl rcx,rcx
0x280b6818aa41   481  8b55b8               movl rdx,[rbp-0x48]
0x280b6818aa44   484  488b75f0             REX.W movq rsi,[rbp-0x10]
0x280b6818aa48   488  488b5e17             REX.W movq rbx,[rsi+0x17]
0x280b6818aa4c   48c  8b7c134c             movl rdi,[rbx+rdx*1+0x4c]
0x280b6818aa50   490  83c701               addl rdi,0x1
0x280b6818aa53   493  8bd8                 movl rbx,rax
0x280b6818aa55   495  8bc7                 movl rax,rdi
0x280b6818aa57   497  8bf9                 movl rdi,rcx
0x280b6818aa59   499  8b55b4               movl rdx,[rbp-0x4c]
0x280b6818aa5c   49c  8b8d6cffffff         movl rcx,[rbp-0x94]
0x280b6818aa62   4a2  4c8b4e17             REX.W movq r9,[rsi+0x17]
0x280b6818aa66   4a6  418944094c           movl [r9+rcx*1+0x4c],rax
0x280b6818aa6b   4ab  83fb00               cmpl rbx,0x0
0x280b6818aa6e   4ae  0f8c05000000         jl 0x280b6818aa79  <+0x4b9>
0x280b6818aa74   4b4  e96f000000           jmp 0x280b6818aae8  <+0x528>
0x280b6818aa79   4b9  33c9                 xorl rcx,rcx
0x280b6818aa7b   4bb  2bcb                 subl rcx,rbx
0x280b6818aa7d   4bd  8b5da4               movl rbx,[rbp-0x5c]
0x280b6818aa80   4c0  81cb00200000         orl rbx,0x2000
0x280b6818aa86   4c6  895da4               movl [rbp-0x5c],rbx
0x280b6818aa89   4c9  8bd9                 movl rbx,rcx
0x280b6818aa8b   4cb  e958000000           jmp 0x280b6818aae8  <+0x528>
0x280b6818aa90   4d0  8b55b8               movl rdx,[rbp-0x48]
0x280b6818aa93   4d3  83c24c               addl rdx,0x4c
0x280b6818aa96   4d6  895d88               movl [rbp-0x78],rbx
0x280b6818aa99   4d9  897d90               movl [rbp-0x70],rdi
0x280b6818aa9c   4dc  894da4               movl [rbp-0x5c],rcx
0x280b6818aa9f   4df  8975ac               movl [rbp-0x54],rsi
0x280b6818aaa2   4e2  8945b4               movl [rbp-0x4c],rax
0x280b6818aaa5   4e5  44894dd0             movl [rbp-0x30],r9
0x280b6818aaa9   4e9  8bc2                 movl rax,rdx
0x280b6818aaab   4eb  488b75f0             REX.W movq rsi,[rbp-0x10]
0x280b6818aaaf   4ef  e8b4b5ffff           call 0x280b68186068  (jump table)
0x280b6818aab4   4f4  83f800               cmpl rax,0x0
0x280b6818aab7   4f7  0f8d08000000         jge 0x280b6818aac5  <+0x505>
0x280b6818aabd   4fd  89459c               movl [rbp-0x64],rax
0x280b6818aac0   500  e9cc130000           jmp 0x280b6818be91  <+0x18d1>
0x280b6818aac5   505  8b4db8               movl rcx,[rbp-0x48]
0x280b6818aac8   508  488b75f0             REX.W movq rsi,[rbp-0x10]
0x280b6818aacc   50c  488b5617             REX.W movq rdx,[rsi+0x17]
0x280b6818aad0   510  8b5c0a4c             movl rbx,[rdx+rcx*1+0x4c]
0x280b6818aad4   514  899d6cffffff         movl [rbp-0x94],rbx
0x280b6818aada   51a  8bd8                 movl rbx,rax
0x280b6818aadc   51c  8b856cffffff         movl rax,[rbp-0x94]
0x280b6818aae2   522  8b55b4               movl rdx,[rbp-0x4c]
0x280b6818aae5   525  8b7d84               movl rdi,[rbp-0x7c]
0x280b6818aae8   528  488b4e17             REX.W movq rcx,[rsi+0x17]
0x280b6818aaec   52c  0fb61401             movzxbl rdx,[rcx+rax*1]
0x280b6818aaf0   530  41b92e000000         movl r9,0x2e
0x280b6818aaf6   536  c745b400000000       movl [rbp-0x4c],0x0
0x280b6818aafd   53d  c745b0ffffffff       movl [rbp-0x50],0xffffffff
0x280b6818ab04   544  413bd1               cmpl rdx,r9
0x280b6818ab07   547  0f8407000000         jz 0x280b6818ab14  <+0x554>
0x280b6818ab0d   54d  33d2                 xorl rdx,rdx
0x280b6818ab0f   54f  e968010000           jmp 0x280b6818ac7c  <+0x6bc>
0x280b6818ab14   554  0fb6540101           movzxbl rdx,[rcx+rax*1+0x1]
0x280b6818ab19   559  83fa2a               cmpl rdx,0x2a
0x280b6818ab1c   55c  0f8515010000         jnz 0x280b6818ac37  <+0x677>
0x280b6818ab22   562  8b55b8               movl rdx,[rbp-0x48]
0x280b6818ab25   565  440fbe4c0102         movsxbl r9,[rcx+rax*1+0x2]
0x280b6818ab2b   56b  89956cffffff         movl [rbp-0x94],rdx
0x280b6818ab31   571  897d84               movl [rbp-0x7c],rdi
0x280b6818ab34   574  895d9c               movl [rbp-0x64],rbx
0x280b6818ab37   577  8945d0               movl [rbp-0x30],rax
0x280b6818ab3a   57a  418bc1               movl rax,r9
0x280b6818ab3d   57d  488b75f0             REX.W movq rsi,[rbp-0x10]
0x280b6818ab41   581  e8f1b4ffff           call 0x280b68186037  (jump table)
0x280b6818ab46   586  85c0                 testl rax,rax
0x280b6818ab48   588  0f8505000000         jnz 0x280b6818ab53  <+0x593>
0x280b6818ab4e   58e  e960000000           jmp 0x280b6818abb3  <+0x5f3>
0x280b6818ab53   593  8b45b8               movl rax,[rbp-0x48]
0x280b6818ab56   596  488b75f0             REX.W movq rsi,[rbp-0x10]
0x280b6818ab5a   59a  488b4e17             REX.W movq rcx,[rsi+0x17]
0x280b6818ab5e   59e  8b54014c             movl rdx,[rcx+rax*1+0x4c]
0x280b6818ab62   5a2  0fb6441103           movzxbl rax,[rcx+rdx*1+0x3]
0x280b6818ab67   5a7  83f824               cmpl rax,0x24
0x280b6818ab6a   5aa  0f8408000000         jz 0x280b6818ab78  <+0x5b8>
0x280b6818ab70   5b0  8955ac               movl [rbp-0x54],rdx
0x280b6818ab73   5b3  e93b000000           jmp 0x280b6818abb3  <+0x5f3>
0x280b6818ab78   5b8  0fbe441102           movsxbl rax,[rcx+rdx*1+0x2]
0x280b6818ab7d   5bd  c1e002               shll rax, 2
0x280b6818ab80   5c0  8b5dc4               movl rbx,[rbp-0x3c]
0x280b6818ab83   5c3  03c3                 addl rax,rbx
0x280b6818ab85   5c5  bbc0000000           movl rbx,0xc0
0x280b6818ab8a   5ca  2bc3                 subl rax,rbx
0x280b6818ab8c   5cc  bb0a000000           movl rbx,0xa
0x280b6818ab91   5d1  891c01               movl [rcx+rax*1],rbx
0x280b6818ab94   5d4  0fbe441102           movsxbl rax,[rcx+rdx*1+0x2]
0x280b6818ab99   5d9  c1e003               shll rax, 3
0x280b6818ab9c   5dc  8b5dc8               movl rbx,[rbp-0x38]
0x280b6818ab9f   5df  03c3                 addl rax,rbx
0x280b6818aba1   5e1  bb80010000           movl rbx,0x180
0x280b6818aba6   5e6  2bc3                 subl rax,rbx
0x280b6818aba8   5e8  8b1c01               movl rbx,[rcx+rax*1]
0x280b6818abab   5eb  8d4204               leal rax,[rdx+0x4]
0x280b6818abae   5ee  e95b000000           jmp 0x280b6818ac0e  <+0x64e>
0x280b6818abb3   5f3  8b4584               movl rax,[rbp-0x7c]
0x280b6818abb6   5f6  85c0                 testl rax,rax
0x280b6818abb8   5f8  0f8405000000         jz 0x280b6818abc3  <+0x603>
0x280b6818abbe   5fe  e93b110000           jmp 0x280b6818bcfe  <+0x173e>
0x280b6818abc3   603  8b45d4               movl rax,[rbp-0x2c]
0x280b6818abc6   606  85c0                 testl rax,rax
0x280b6818abc8   608  0f841f000000         jz 0x280b6818abed  <+0x62d>
0x280b6818abce   60e  8b45cc               movl rax,[rbp-0x34]
0x280b6818abd1   611  8b4dcc               movl rcx,[rbp-0x34]
0x280b6818abd4   614  488b75f0             REX.W movq rsi,[rbp-0x10]
0x280b6818abd8   618  488b5617             REX.W movq rdx,[rsi+0x17]
0x280b6818abdc   61c  8b1c0a               movl rbx,[rdx+rcx*1]
0x280b6818abdf   61f  8d4b04               leal rcx,[rbx+0x4]
0x280b6818abe2   622  890c02               movl [rdx+rax*1],rcx
0x280b6818abe5   625  8b041a               movl rax,[rdx+rbx*1]
0x280b6818abe8   628  e905000000           jmp 0x280b6818abf2  <+0x632>
0x280b6818abed   62d  33c0                 xorl rax,rax
0x280b6818abef   62f  8b5dd0               movl rbx,[rbp-0x30]
0x280b6818abf2   632  8b4db8               movl rcx,[rbp-0x48]
0x280b6818abf5   635  488b75f0             REX.W movq rsi,[rbp-0x10]
0x280b6818abf9   639  488b5617             REX.W movq rdx,[rsi+0x17]
0x280b6818abfd   63d  8b7c0a4c             movl rdi,[rdx+rcx*1+0x4c]
0x280b6818ac01   641  83c702               addl rdi,0x2
0x280b6818ac04   644  895dd0               movl [rbp-0x30],rbx
0x280b6818ac07   647  8bd8                 movl rbx,rax
0x280b6818ac09   649  8bc7                 movl rax,rdi
0x280b6818ac0b   64b  8b55ac               movl rdx,[rbp-0x54]
0x280b6818ac0e   64e  8b8d6cffffff         movl rcx,[rbp-0x94]
0x280b6818ac14   654  488b7e17             REX.W movq rdi,[rsi+0x17]
0x280b6818ac18   658  89440f4c             movl [rdi+rcx*1+0x4c],rax
0x280b6818ac1c   65c  8bcb                 movl rcx,rbx
0x280b6818ac1e   65e  83f1ff               xorl rcx,0xff
0x280b6818ac21   661  c1e91f               shrl rcx, 31
0x280b6818ac24   664  895db0               movl [rbp-0x50],rbx
0x280b6818ac27   667  8955ac               movl [rbp-0x54],rdx
0x280b6818ac2a   66a  8bd1                 movl rdx,rcx
0x280b6818ac2c   66c  8b5d9c               movl rbx,[rbp-0x64]
0x280b6818ac2f   66f  8b7d84               movl rdi,[rbp-0x7c]
0x280b6818ac32   672  e945000000           jmp 0x280b6818ac7c  <+0x6bc>
0x280b6818ac37   677  8b55b8               movl rdx,[rbp-0x48]
0x280b6818ac3a   67a  448d4801             leal r9,[rax+0x1]
0x280b6818ac3e   67e  44894c114c           movl [rcx+rdx*1+0x4c],r9
0x280b6818ac43   683  8b55b8               movl rdx,[rbp-0x48]
0x280b6818ac46   686  83c24c               addl rdx,0x4c
0x280b6818ac49   689  897d84               movl [rbp-0x7c],rdi
0x280b6818ac4c   68c  895d9c               movl [rbp-0x64],rbx
0x280b6818ac4f   68f  8945d0               movl [rbp-0x30],rax
0x280b6818ac52   692  8bc2                 movl rax,rdx
0x280b6818ac54   694  488b75f0             REX.W movq rsi,[rbp-0x10]
0x280b6818ac58   698  e80bb4ffff           call 0x280b68186068  (jump table)
0x280b6818ac5d   69d  8b4db8               movl rcx,[rbp-0x48]
0x280b6818ac60   6a0  488b75f0             REX.W movq rsi,[rbp-0x10]
0x280b6818ac64   6a4  488b5617             REX.W movq rdx,[rsi+0x17]
0x280b6818ac68   6a8  8b5c0a4c             movl rbx,[rdx+rcx*1+0x4c]
0x280b6818ac6c   6ac  8945b0               movl [rbp-0x50],rax
0x280b6818ac6f   6af  8bc3                 movl rax,rbx
0x280b6818ac71   6b1  ba01000000           movl rdx,0x1
0x280b6818ac76   6b6  8b5d9c               movl rbx,[rbp-0x64]
0x280b6818ac79   6b9  8b7d84               movl rdi,[rbp-0x7c]
0x280b6818ac7c   6bc  8945d0               movl [rbp-0x30],rax
0x280b6818ac7f   6bf  895d9c               movl [rbp-0x64],rbx
0x280b6818ac82   6c2  897d84               movl [rbp-0x7c],rdi
0x280b6818ac85   6c5  899578ffffff         movl [rbp-0x88],rdx
0x280b6818ac8b   6cb  488b4627             REX.W movq rax,[rsi+0x27]
0x280b6818ac8f   6cf  483b20               REX.W cmpq rsp,[rax]
0x280b6818ac92   6d2  0f867d130000         jna 0x280b6818c015  <+0x1a55>
0x280b6818ac98   6d8  8b45b4               movl rax,[rbp-0x4c]
0x280b6818ac9b   6db  8b4dd0               movl rcx,[rbp-0x30]
0x280b6818ac9e   6de  488b5617             REX.W movq rdx,[rsi+0x17]
0x280b6818aca2   6e2  0fbe1c0a             movsxbl rbx,[rdx+rcx*1]
0x280b6818aca6   6e6  b97b000000           movl rcx,0x7b
0x280b6818acab   6eb  2bd9                 subl rbx,rcx
0x280b6818acad   6ed  b91c000000           movl rcx,0x1c
0x280b6818acb2   6f2  83fbc6               cmpl rbx,0xc6
0x280b6818acb5   6f5  0f8305000000         jnc 0x280b6818acc0  <+0x700>
0x280b6818acbb   6fb  e9d9110000           jmp 0x280b6818be99  <+0x18d9>
0x280b6818acc0   700  8b5db8               movl rbx,[rbp-0x48]
0x280b6818acc3   703  8b7dd0               movl rdi,[rbp-0x30]
0x280b6818acc6   706  83c701               addl rdi,0x1
0x280b6818acc9   709  897c1a4c             movl [rdx+rbx*1+0x4c],rdi
0x280b6818accd   70d  8b5dd0               movl rbx,[rbp-0x30]
0x280b6818acd0   710  440fbe0c1a           movsxbl r9,[rdx+rbx*1]
0x280b6818acd5   715  bb3a000000           movl rbx,0x3a
0x280b6818acda   71a  0fafd8               imull rbx,rax
0x280b6818acdd   71d  418d1c19             leal rbx,[r9+rbx*1]
0x280b6818ace1   721  0fb6b41adf030000     movzxbl rsi,[rdx+rbx*1+0x3df]
0x280b6818ace9   729  bb01000000           movl rbx,0x1
0x280b6818acee   72e  f7db                 negl rbx
0x280b6818acf0   730  03de                 addl rbx,rsi
0x280b6818acf2   732  83fb08               cmpl rbx,0x8
0x280b6818acf5   735  0f8318000000         jnc 0x280b6818ad13  <+0x753>
0x280b6818acfb   73b  897dd0               movl [rbp-0x30],rdi
0x280b6818acfe   73e  8975b4               movl [rbp-0x4c],rsi
0x280b6818ad01   741  8945ac               movl [rbp-0x54],rax
0x280b6818ad04   744  894d98               movl [rbp-0x68],rcx
0x280b6818ad07   747  897d88               movl [rbp-0x78],rdi
0x280b6818ad0a   74a  488b75f0             REX.W movq rsi,[rbp-0x10]
0x280b6818ad0e   74e  e978ffffff           jmp 0x280b6818ac8b  <+0x6cb>
0x280b6818ad13   753  83fe1b               cmpl rsi,0x1b
0x280b6818ad16   756  0f84b8000000         jz 0x280b6818add4  <+0x814>
0x280b6818ad1c   75c  85f6                 testl rsi,rsi
0x280b6818ad1e   75e  0f850e000000         jnz 0x280b6818ad32  <+0x772>
0x280b6818ad24   764  897dd0               movl [rbp-0x30],rdi
0x280b6818ad27   767  8975b4               movl [rbp-0x4c],rsi
0x280b6818ad2a   76a  897d88               movl [rbp-0x78],rdi
0x280b6818ad2d   76d  e967110000           jmp 0x280b6818be99  <+0x18d9>
0x280b6818ad32   772  8b5d90               movl rbx,[rbp-0x70]
0x280b6818ad35   775  83fb00               cmpl rbx,0x0
0x280b6818ad38   778  0f8c3c000000         jl 0x280b6818ad7a  <+0x7ba>
0x280b6818ad3e   77e  8b5dc4               movl rbx,[rbp-0x3c]
0x280b6818ad41   781  448b4d90             movl r9,[rbp-0x70]
0x280b6818ad45   785  41c1e102             shll r9, 2
0x280b6818ad49   789  4103d9               addl rbx,r9
0x280b6818ad4c   78c  89341a               movl [rdx+rbx*1],rsi
0x280b6818ad4f   78f  8b5db8               movl rbx,[rbp-0x48]
0x280b6818ad52   792  448b4dc8             movl r9,[rbp-0x38]
0x280b6818ad56   796  8b5590               movl rdx,[rbp-0x70]
0x280b6818ad59   799  c1e203               shll rdx, 3
0x280b6818ad5c   79c  4403ca               addl r9,rdx
0x280b6818ad5f   79f  488b55f0             REX.W movq rdx,[rbp-0x10]
0x280b6818ad63   7a3  488b5217             REX.W movq rdx,[rdx+0x17]
0x280b6818ad67   7a7  8945ac               movl [rbp-0x54],rax
0x280b6818ad6a   7aa  4a8b040a             REX.W movq rax,[rdx+r9*1]
0x280b6818ad6e   7ae  4889441a40           REX.W movq [rdx+rbx*1+0x40],rax
0x280b6818ad73   7b3  8bc7                 movl rax,rdi
0x280b6818ad75   7b5  e979000000           jmp 0x280b6818adf3  <+0x833>
0x280b6818ad7a   7ba  8b5dd4               movl rbx,[rbp-0x2c]
0x280b6818ad7d   7bd  85db                 testl rbx,rbx
0x280b6818ad7f   7bf  0f8507000000         jnz 0x280b6818ad8c  <+0x7cc>
0x280b6818ad85   7c5  8bdf                 movl rbx,rdi
0x280b6818ad87   7c7  e9ee100000           jmp 0x280b6818be7a  <+0x18ba>
0x280b6818ad8c   7cc  8b5db8               movl rbx,[rbp-0x48]
0x280b6818ad8f   7cf  41b9c0ffffff         movl r9,0xffffffc0
0x280b6818ad95   7d5  412bd9               subl rbx,r9
0x280b6818ad98   7d8  448b4dcc             movl r9,[rbp-0x34]
0x280b6818ad9c   7dc  8b55bc               movl rdx,[rbp-0x44]
0x280b6818ad9f   7df  897d88               movl [rbp-0x78],rdi
0x280b6818ada2   7e2  894d98               movl [rbp-0x68],rcx
0x280b6818ada5   7e5  8945ac               movl [rbp-0x54],rax
0x280b6818ada8   7e8  8975b4               movl [rbp-0x4c],rsi
0x280b6818adab   7eb  897dd0               movl [rbp-0x30],rdi
0x280b6818adae   7ee  8bc3                 movl rax,rbx
0x280b6818adb0   7f0  8bda                 movl rbx,rdx
0x280b6818adb2   7f2  8bd6                 movl rdx,rsi
0x280b6818adb4   7f4  418bc9               movl rcx,r9
0x280b6818adb7   7f7  488b75f0             REX.W movq rsi,[rbp-0x10]
0x280b6818adbb   7fb  e8adb2ffff           call 0x280b6818606d  (jump table)
0x280b6818adc0   800  8b45b8               movl rax,[rbp-0x48]
0x280b6818adc3   803  488b75f0             REX.W movq rsi,[rbp-0x10]
0x280b6818adc7   807  488b4e17             REX.W movq rcx,[rsi+0x17]
0x280b6818adcb   80b  8b54014c             movl rdx,[rcx+rax*1+0x4c]
0x280b6818adcf   80f  e948000000           jmp 0x280b6818ae1c  <+0x85c>
0x280b6818add4   814  8b5d90               movl rbx,[rbp-0x70]
0x280b6818add7   817  83fb00               cmpl rbx,0x0
0x280b6818adda   81a  0f8c0e000000         jl 0x280b6818adee  <+0x82e>
0x280b6818ade0   820  897dd0               movl [rbp-0x30],rdi
0x280b6818ade3   823  8975b4               movl [rbp-0x4c],rsi
0x280b6818ade6   826  897d88               movl [rbp-0x78],rdi
0x280b6818ade9   829  e9ab100000           jmp 0x280b6818be99  <+0x18d9>
0x280b6818adee   82e  8945ac               movl [rbp-0x54],rax
0x280b6818adf1   831  8bc7                 movl rax,rdi
0x280b6818adf3   833  8b5dd4               movl rbx,[rbp-0x2c]
0x280b6818adf6   836  33ff                 xorl rdi,rdi
0x280b6818adf8   838  85db                 testl rbx,rbx
0x280b6818adfa   83a  0f8511000000         jnz 0x280b6818ae11  <+0x851>
0x280b6818ae00   840  897dd0               movl [rbp-0x30],rdi
0x280b6818ae03   843  8975b4               movl [rbp-0x4c],rsi
0x280b6818ae06   846  894d98               movl [rbp-0x68],rcx
0x280b6818ae09   849  894588               movl [rbp-0x78],rax
0x280b6818ae0c   84c  e940f8ffff           jmp 0x280b6818a651  <+0x91>
0x280b6818ae11   851  897dd0               movl [rbp-0x30],rdi
0x280b6818ae14   854  8975b4               movl [rbp-0x4c],rsi
0x280b6818ae17   857  894d98               movl [rbp-0x68],rcx
0x280b6818ae1a   85a  8bd0                 movl rdx,rax
0x280b6818ae1c   85c  8b45a4               movl rax,[rbp-0x5c]
0x280b6818ae1f   85f  25fffffeff           and rax,0xfffeffff
0x280b6818ae24   864  8b4da4               movl rcx,[rbp-0x5c]
0x280b6818ae27   867  8b5da4               movl rbx,[rbp-0x5c]
0x280b6818ae2a   86a  81e300200000         andl rbx,0x2000
0x280b6818ae30   870  85db                 testl rbx,rbx
0x280b6818ae32   872  0f45c8               cmovnzl rcx,rax
0x280b6818ae35   875  8b5d8c               movl rbx,[rbp-0x74]
0x280b6818ae38   878  be01000000           movl rsi,0x1
0x280b6818ae3d   87d  f7de                 negl rsi
0x280b6818ae3f   87f  03f2                 addl rsi,rdx
0x280b6818ae41   881  4c8b4df0             REX.W movq r9,[rbp-0x10]
0x280b6818ae45   885  498b7917             REX.W movq rdi,[r9+0x17]
0x280b6818ae49   889  440fbe0c37           movsxbl r9,[rdi+rsi*1]
0x280b6818ae4e   88e  418bf1               movl rsi,r9
0x280b6818ae51   891  83e6df               andl rsi,0xdf
0x280b6818ae54   894  418bf9               movl rdi,r9
0x280b6818ae57   897  83e70f               andl rdi,0xf
0x280b6818ae5a   89a  898574ffffff         movl [rbp-0x8c],rax
0x280b6818ae60   8a0  b803000000           movl rax,0x3
0x280b6818ae65   8a5  3bf8                 cmpl rdi,rax
0x280b6818ae67   8a7  400f94c7             setzl dil
0x280b6818ae6b   8ab  400fb6ff             movzxbl rdi,rdi
0x280b6818ae6f   8af  85ff                 testl rdi,rdi
0x280b6818ae71   8b1  410f44f1             cmovzl rsi,r9
0x280b6818ae75   8b5  8b45ac               movl rax,[rbp-0x54]
0x280b6818ae78   8b8  85c0                 testl rax,rax
0x280b6818ae7a   8ba  410f44f1             cmovzl rsi,r9
0x280b6818ae7e   8be  b858000000           movl rax,0x58
0x280b6818ae83   8c3  f7d8                 negl rax
0x280b6818ae85   8c5  03c6                 addl rax,rsi
0x280b6818ae87   8c7  bf21000000           movl rdi,0x21
0x280b6818ae8c   8cc  3bc7                 cmpl rax,rdi
0x280b6818ae8e   8ce  0f836a020000         jnc 0x280b6818b0fe  <+0xb3e>
0x280b6818ae94   8d4  bf10000000           movl rdi,0x10
0x280b6818ae99   8d9  3bc7                 cmpl rax,rdi
0x280b6818ae9b   8db  0f8318010000         jnc 0x280b6818afb9  <+0x9f9>
0x280b6818aea1   8e1  bf08000000           movl rdi,0x8
0x280b6818aea6   8e6  3bc7                 cmpl rax,rdi
0x280b6818aea8   8e8  0f837f000000         jnc 0x280b6818af2d  <+0x96d>
0x280b6818aeae   8ee  bf04000000           movl rdi,0x4
0x280b6818aeb3   8f3  3bc7                 cmpl rax,rdi
0x280b6818aeb5   8f5  0f8343000000         jnc 0x280b6818aefe  <+0x93e>
0x280b6818aebb   8fb  bf02000000           movl rdi,0x2
0x280b6818aec0   900  3bc7                 cmpl rax,rdi
0x280b6818aec2   902  0f8325000000         jnc 0x280b6818aeed  <+0x92d>
0x280b6818aec8   908  bf01000000           movl rdi,0x1
0x280b6818aecd   90d  3bc7                 cmpl rax,rdi
0x280b6818aecf   90f  0f830c000000         jnc 0x280b6818aee1  <+0x921>
0x280b6818aed5   915  33c0                 xorl rax,rax
0x280b6818aed7   917  bf00040000           movl rdi,0x400
0x280b6818aedc   91c  e950050000           jmp 0x280b6818b431  <+0xe71>
0x280b6818aee1   921  33c0                 xorl rax,rax
0x280b6818aee3   923  bf00040000           movl rdi,0x400
0x280b6818aee8   928  e9210e0000           jmp 0x280b6818bd0e  <+0x174e>
0x280b6818aeed   92d  bf03000000           movl rdi,0x3
0x280b6818aef2   932  3bc7                 cmpl rax,rdi
0x280b6818aef4   934  0f8302000000         jnc 0x280b6818aefc  <+0x93c>
0x280b6818aefa   93a  ebe5                 jmp 0x280b6818aee1  <+0x921>
0x280b6818aefc   93c  ebe3                 jmp 0x280b6818aee1  <+0x921>
0x280b6818aefe   93e  bf06000000           movl rdi,0x6
0x280b6818af03   943  3bc7                 cmpl rax,rdi
0x280b6818af05   945  0f8311000000         jnc 0x280b6818af1c  <+0x95c>
0x280b6818af0b   94b  bf05000000           movl rdi,0x5
0x280b6818af10   950  3bc7                 cmpl rax,rdi
0x280b6818af12   952  0f8302000000         jnc 0x280b6818af1a  <+0x95a>
0x280b6818af18   958  ebc7                 jmp 0x280b6818aee1  <+0x921>
0x280b6818af1a   95a  ebc5                 jmp 0x280b6818aee1  <+0x921>
0x280b6818af1c   95c  bf07000000           movl rdi,0x7
0x280b6818af21   961  3bc7                 cmpl rax,rdi
0x280b6818af23   963  0f8302000000         jnc 0x280b6818af2b  <+0x96b>
0x280b6818af29   969  ebb6                 jmp 0x280b6818aee1  <+0x921>
0x280b6818af2b   96b  ebb4                 jmp 0x280b6818aee1  <+0x921>
0x280b6818af2d   96d  bf0c000000           movl rdi,0xc
0x280b6818af32   972  3bc7                 cmpl rax,rdi
0x280b6818af34   974  0f8346000000         jnc 0x280b6818af80  <+0x9c0>
0x280b6818af3a   97a  bf0a000000           movl rdi,0xa
0x280b6818af3f   97f  3bc7                 cmpl rax,rdi
0x280b6818af41   981  0f831b000000         jnc 0x280b6818af62  <+0x9a2>
0x280b6818af47   987  bf09000000           movl rdi,0x9
0x280b6818af4c   98c  3bc7                 cmpl rax,rdi
0x280b6818af4e   98e  0f8302000000         jnc 0x280b6818af56  <+0x996>
0x280b6818af54   994  eb8b                 jmp 0x280b6818aee1  <+0x921>
0x280b6818af56   996  33c0                 xorl rax,rax
0x280b6818af58   998  bf00040000           movl rdi,0x400
0x280b6818af5d   99d  e90e0b0000           jmp 0x280b6818ba70  <+0x14b0>
0x280b6818af62   9a2  bf0b000000           movl rdi,0xb
0x280b6818af67   9a7  3bc7                 cmpl rax,rdi
0x280b6818af69   9a9  0f8305000000         jnc 0x280b6818af74  <+0x9b4>
0x280b6818af6f   9af  e96dffffff           jmp 0x280b6818aee1  <+0x921>
0x280b6818af74   9b4  33c0                 xorl rax,rax
0x280b6818af76   9b6  bf00040000           movl rdi,0x400
0x280b6818af7b   9bb  e9e80b0000           jmp 0x280b6818bb68  <+0x15a8>
0x280b6818af80   9c0  bf0e000000           movl rdi,0xe
0x280b6818af85   9c5  3bc7                 cmpl rax,rdi
0x280b6818af87   9c7  0f831b000000         jnc 0x280b6818afa8  <+0x9e8>
0x280b6818af8d   9cd  bf0d000000           movl rdi,0xd
0x280b6818af92   9d2  3bc7                 cmpl rax,rdi
0x280b6818af94   9d4  0f830c000000         jnc 0x280b6818afa6  <+0x9e6>
0x280b6818af9a   9da  33c0                 xorl rax,rax
0x280b6818af9c   9dc  bf00040000           movl rdi,0x400
0x280b6818afa1   9e1  e998050000           jmp 0x280b6818b53e  <+0xf7e>
0x280b6818afa6   9e6  ebae                 jmp 0x280b6818af56  <+0x996>
0x280b6818afa8   9e8  bf0f000000           movl rdi,0xf
0x280b6818afad   9ed  3bc7                 cmpl rax,rdi
0x280b6818afaf   9ef  0f8302000000         jnc 0x280b6818afb7  <+0x9f7>
0x280b6818afb5   9f5  eb9f                 jmp 0x280b6818af56  <+0x996>
0x280b6818afb7   9f7  eb9d                 jmp 0x280b6818af56  <+0x996>
0x280b6818afb9   9f9  bf18000000           movl rdi,0x18
0x280b6818afbe   9fe  3bc7                 cmpl rax,rdi
0x280b6818afc0   a00  0f838e000000         jnc 0x280b6818b054  <+0xa94>
0x280b6818afc6   a06  bf14000000           movl rdi,0x14
0x280b6818afcb   a0b  3bc7                 cmpl rax,rdi
0x280b6818afcd   a0d  0f8338000000         jnc 0x280b6818b00b  <+0xa4b>
0x280b6818afd3   a13  bf12000000           movl rdi,0x12
0x280b6818afd8   a18  3bc7                 cmpl rax,rdi
0x280b6818afda   a1a  0f8314000000         jnc 0x280b6818aff4  <+0xa34>
0x280b6818afe0   a20  bf11000000           movl rdi,0x11
0x280b6818afe5   a25  3bc7                 cmpl rax,rdi
0x280b6818afe7   a27  0f8305000000         jnc 0x280b6818aff2  <+0xa32>
0x280b6818afed   a2d  e9effeffff           jmp 0x280b6818aee1  <+0x921>
0x280b6818aff2   a32  eba6                 jmp 0x280b6818af9a  <+0x9da>
0x280b6818aff4   a34  bf13000000           movl rdi,0x13
0x280b6818aff9   a39  3bc7                 cmpl rax,rdi
0x280b6818affb   a3b  0f8305000000         jnc 0x280b6818b006  <+0xa46>
0x280b6818b001   a41  e9dbfeffff           jmp 0x280b6818aee1  <+0x921>
0x280b6818b006   a46  e9d6feffff           jmp 0x280b6818aee1  <+0x921>
0x280b6818b00b   a4b  bf16000000           movl rdi,0x16
0x280b6818b010   a50  3bc7                 cmpl rax,rdi
0x280b6818b012   a52  0f8317000000         jnc 0x280b6818b02f  <+0xa6f>
0x280b6818b018   a58  bf15000000           movl rdi,0x15
0x280b6818b01d   a5d  3bc7                 cmpl rax,rdi
0x280b6818b01f   a5f  0f8305000000         jnc 0x280b6818b02a  <+0xa6a>
0x280b6818b025   a65  e9b7feffff           jmp 0x280b6818aee1  <+0x921>
0x280b6818b02a   a6a  e9b2feffff           jmp 0x280b6818aee1  <+0x921>
0x280b6818b02f   a6f  bf17000000           movl rdi,0x17
0x280b6818b034   a74  3bc7                 cmpl rax,rdi
0x280b6818b036   a76  0f830c000000         jnc 0x280b6818b048  <+0xa88>
0x280b6818b03c   a7c  33c0                 xorl rax,rax
0x280b6818b03e   a7e  bf00040000           movl rdi,0x400
0x280b6818b043   a83  e98a010000           jmp 0x280b6818b1d2  <+0xc12>
0x280b6818b048   a88  33c0                 xorl rax,rax
0x280b6818b04a   a8a  bf00040000           movl rdi,0x400
0x280b6818b04f   a8f  e979040000           jmp 0x280b6818b4cd  <+0xf0d>
0x280b6818b054   a94  bf1c000000           movl rdi,0x1c
0x280b6818b059   a99  3bc7                 cmpl rax,rdi
0x280b6818b05b   a9b  0f8349000000         jnc 0x280b6818b0aa  <+0xaea>
0x280b6818b061   aa1  bf1a000000           movl rdi,0x1a
0x280b6818b066   aa6  3bc7                 cmpl rax,rdi
0x280b6818b068   aa8  0f831e000000         jnc 0x280b6818b08c  <+0xacc>
0x280b6818b06e   aae  bf19000000           movl rdi,0x19
0x280b6818b073   ab3  3bc7                 cmpl rax,rdi
0x280b6818b075   ab5  0f830c000000         jnc 0x280b6818b087  <+0xac7>
0x280b6818b07b   abb  33c0                 xorl rax,rax
0x280b6818b07d   abd  bf00040000           movl rdi,0x400
0x280b6818b082   ac2  e971030000           jmp 0x280b6818b3f8  <+0xe38>
0x280b6818b087   ac7  e955feffff           jmp 0x280b6818aee1  <+0x921>
0x280b6818b08c   acc  bf1b000000           movl rdi,0x1b
0x280b6818b091   ad1  3bc7                 cmpl rax,rdi
0x280b6818b093   ad3  0f8305000000         jnc 0x280b6818b09e  <+0xade>
0x280b6818b099   ad9  e943feffff           jmp 0x280b6818aee1  <+0x921>
0x280b6818b09e   ade  33c0                 xorl rax,rax
0x280b6818b0a0   ae0  bf00040000           movl rdi,0x400
0x280b6818b0a5   ae5  e945060000           jmp 0x280b6818b6ef  <+0x112f>
0x280b6818b0aa   aea  bf1e000000           movl rdi,0x1e
0x280b6818b0af   aef  3bc7                 cmpl rax,rdi
0x280b6818b0b1   af1  0f831e000000         jnc 0x280b6818b0d5  <+0xb15>
0x280b6818b0b7   af7  bf1d000000           movl rdi,0x1d
0x280b6818b0bc   afc  3bc7                 cmpl rax,rdi
0x280b6818b0be   afe  0f8305000000         jnc 0x280b6818b0c9  <+0xb09>
0x280b6818b0c4   b04  e918feffff           jmp 0x280b6818aee1  <+0x921>
0x280b6818b0c9   b09  33c0                 xorl rax,rax
0x280b6818b0cb   b0b  bf00040000           movl rdi,0x400
0x280b6818b0d0   b10  e9db000000           jmp 0x280b6818b1b0  <+0xbf0>
0x280b6818b0d5   b15  bf1f000000           movl rdi,0x1f
0x280b6818b0da   b1a  3bc7                 cmpl rax,rdi
0x280b6818b0dc   b1c  0f8305000000         jnc 0x280b6818b0e7  <+0xb27>
0x280b6818b0e2   b22  e9fafdffff           jmp 0x280b6818aee1  <+0x921>
0x280b6818b0e7   b27  bf20000000           movl rdi,0x20
0x280b6818b0ec   b2c  3bc7                 cmpl rax,rdi
0x280b6818b0ee   b2e  0f8305000000         jnc 0x280b6818b0f9  <+0xb39>
0x280b6818b0f4   b34  e9e8fdffff           jmp 0x280b6818aee1  <+0x921>
0x280b6818b0f9   b39  e9d7fdffff           jmp 0x280b6818aed5  <+0x915>
0x280b6818b0fe   b3e  33c0                 xorl rax,rax
0x280b6818b100   b40  bf00040000           movl rdi,0x400
0x280b6818b105   b45  e900000000           jmp 0x280b6818b10a  <+0xb4a>
0x280b6818b10a   b4a  41b941000000         movl r9,0x41
0x280b6818b110   b50  41f7d9               negl r9
0x280b6818b113   b53  4403ce               addl r9,rsi
0x280b6818b116   b56  8945a4               movl [rbp-0x5c],rax
0x280b6818b119   b59  b807000000           movl rax,0x7
0x280b6818b11e   b5e  443bc8               cmpl r9,rax
0x280b6818b121   b61  0f8371000000         jnc 0x280b6818b198  <+0xbd8>
0x280b6818b127   b67  b803000000           movl rax,0x3
0x280b6818b12c   b6c  443bc8               cmpl r9,rax
0x280b6818b12f   b6f  0f8331000000         jnc 0x280b6818b166  <+0xba6>
0x280b6818b135   b75  b801000000           movl rax,0x1
0x280b6818b13a   b7a  443bc8               cmpl r9,rax
0x280b6818b13d   b7d  0f8308000000         jnc 0x280b6818b14b  <+0xb8b>
0x280b6818b143   b83  8b45a4               movl rax,[rbp-0x5c]
0x280b6818b146   b86  e925090000           jmp 0x280b6818ba70  <+0x14b0>
0x280b6818b14b   b8b  b802000000           movl rax,0x2
0x280b6818b150   b90  443bc8               cmpl r9,rax
0x280b6818b153   b93  0f8308000000         jnc 0x280b6818b161  <+0xba1>
0x280b6818b159   b99  8b45a4               movl rax,[rbp-0x5c]
0x280b6818b15c   b9c  e9ad0b0000           jmp 0x280b6818bd0e  <+0x174e>
0x280b6818b161   ba1  e9a2060000           jmp 0x280b6818b808  <+0x1248>
0x280b6818b166   ba6  b805000000           movl rax,0x5
0x280b6818b16b   bab  443bc8               cmpl r9,rax
0x280b6818b16e   bae  0f8312000000         jnc 0x280b6818b186  <+0xbc6>
0x280b6818b174   bb4  b804000000           movl rax,0x4
0x280b6818b179   bb9  443bc8               cmpl r9,rax
0x280b6818b17c   bbc  0f8302000000         jnc 0x280b6818b184  <+0xbc4>
0x280b6818b182   bc2  ebd5                 jmp 0x280b6818b159  <+0xb99>
0x280b6818b184   bc4  ebbd                 jmp 0x280b6818b143  <+0xb83>
0x280b6818b186   bc6  b806000000           movl rax,0x6
0x280b6818b18b   bcb  443bc8               cmpl r9,rax
0x280b6818b18e   bce  0f8302000000         jnc 0x280b6818b196  <+0xbd6>
0x280b6818b194   bd4  ebad                 jmp 0x280b6818b143  <+0xb83>
0x280b6818b196   bd6  ebab                 jmp 0x280b6818b143  <+0xb83>
0x280b6818b198   bd8  e900000000           jmp 0x280b6818b19d  <+0xbdd>
0x280b6818b19d   bdd  83fe53               cmpl rsi,0x53
0x280b6818b1a0   be0  0f8505000000         jnz 0x280b6818b1ab  <+0xbeb>
0x280b6818b1a6   be6  e90c060000           jmp 0x280b6818b7b7  <+0x11f7>
0x280b6818b1ab   beb  e95b0b0000           jmp 0x280b6818bd0b  <+0x174b>
0x280b6818b1b0   bf0  448b4db8             movl r9,[rbp-0x48]
0x280b6818b1b4   bf4  8945a4               movl [rbp-0x5c],rax
0x280b6818b1b7   bf7  488b45f0             REX.W movq rax,[rbp-0x10]
0x280b6818b1bb   bfb  488b4017             REX.W movq rax,[rax+0x17]
0x280b6818b1bf   bff  894db4               movl [rbp-0x4c],rcx
0x280b6818b1c2   c02  4a8b4c0840           REX.W movq rcx,[rax+r9*1+0x40]
0x280b6818b1c7   c07  41b900040000         movl r9,0x400
0x280b6818b1cd   c0d  e910040000           jmp 0x280b6818b5e2  <+0x1022>
0x280b6818b1d2   c12  8b75ac               movl rsi,[rbp-0x54]
0x280b6818b1d5   c15  81e6ff000000         andl rsi,0xff
0x280b6818b1db   c1b  41b908000000         movl r9,0x8
0x280b6818b1e1   c21  413bf1               cmpl rsi,r9
0x280b6818b1e4   c24  0f83b5000000         jnc 0x280b6818b29f  <+0xcdf>
0x280b6818b1ea   c2a  41b904000000         movl r9,0x4
0x280b6818b1f0   c30  413bf1               cmpl rsi,r9
0x280b6818b1f3   c33  0f8349000000         jnc 0x280b6818b242  <+0xc82>
0x280b6818b1f9   c39  41b902000000         movl r9,0x2
0x280b6818b1ff   c3f  413bf1               cmpl rsi,r9
0x280b6818b202   c42  0f831d000000         jnc 0x280b6818b225  <+0xc65>
0x280b6818b208   c48  41b901000000         movl r9,0x1
0x280b6818b20e   c4e  413bf1               cmpl rsi,r9
0x280b6818b211   c51  0f8307000000         jnc 0x280b6818b21e  <+0xc5e>
0x280b6818b217   c57  33f6                 xorl rsi,rsi
0x280b6818b219   c59  e983000000           jmp 0x280b6818b2a1  <+0xce1>
0x280b6818b21e   c5e  33f6                 xorl rsi,rsi
0x280b6818b220   c60  e9ac000000           jmp 0x280b6818b2d1  <+0xd11>
0x280b6818b225   c65  41b903000000         movl r9,0x3
0x280b6818b22b   c6b  413bf1               cmpl rsi,r9
0x280b6818b22e   c6e  0f8307000000         jnc 0x280b6818b23b  <+0xc7b>
0x280b6818b234   c74  33f6                 xorl rsi,rsi
0x280b6818b236   c76  e9c6000000           jmp 0x280b6818b301  <+0xd41>
0x280b6818b23b   c7b  33f6                 xorl rsi,rsi
0x280b6818b23d   c7d  e9f2000000           jmp 0x280b6818b334  <+0xd74>
0x280b6818b242   c82  41b906000000         movl r9,0x6
0x280b6818b248   c88  413bf1               cmpl rsi,r9
0x280b6818b24b   c8b  0f8331000000         jnc 0x280b6818b282  <+0xcc2>
0x280b6818b251   c91  41b905000000         movl r9,0x5
0x280b6818b257   c97  413bf1               cmpl rsi,r9
0x280b6818b25a   c9a  0f8307000000         jnc 0x280b6818b267  <+0xca7>
0x280b6818b260   ca0  33f6                 xorl rsi,rsi
0x280b6818b262   ca2  e9fe000000           jmp 0x280b6818b365  <+0xda5>
0x280b6818b267   ca7  c745d000000000       movl [rbp-0x30],0x0
0x280b6818b26e   cae  894db4               movl [rbp-0x4c],rcx
0x280b6818b271   cb1  8945a4               movl [rbp-0x5c],rax
0x280b6818b274   cb4  895d98               movl [rbp-0x68],rbx
0x280b6818b277   cb7  897d90               movl [rbp-0x70],rdi
0x280b6818b27a   cba  895588               movl [rbp-0x78],rdx
0x280b6818b27d   cbd  e9cff3ffff           jmp 0x280b6818a651  <+0x91>
0x280b6818b282   cc2  41b907000000         movl r9,0x7
0x280b6818b288   cc8  413bf1               cmpl rsi,r9
0x280b6818b28b   ccb  0f8307000000         jnc 0x280b6818b298  <+0xcd8>
0x280b6818b291   cd1  33f6                 xorl rsi,rsi
0x280b6818b293   cd3  e9fd000000           jmp 0x280b6818b395  <+0xdd5>
0x280b6818b298   cd8  33f6                 xorl rsi,rsi
0x280b6818b29a   cda  e926010000           jmp 0x280b6818b3c5  <+0xe05>
0x280b6818b29f   cdf  ebc6                 jmp 0x280b6818b267  <+0xca7>
0x280b6818b2a1   ce1  448b4db8             movl r9,[rbp-0x48]
0x280b6818b2a5   ce5  8945a4               movl [rbp-0x5c],rax
0x280b6818b2a8   ce8  488b45f0             REX.W movq rax,[rbp-0x10]
0x280b6818b2ac   cec  488b4017             REX.W movq rax,[rax+0x17]
0x280b6818b2b0   cf0  894db4               movl [rbp-0x4c],rcx
0x280b6818b2b3   cf3  428b4c0840           movl rcx,[rax+r9*1+0x40]
0x280b6818b2b8   cf8  448b4da0             movl r9,[rbp-0x60]
0x280b6818b2bc   cfc  44890c08             movl [rax+rcx*1],r9
0x280b6818b2c0   d00  8975d0               movl [rbp-0x30],rsi
0x280b6818b2c3   d03  895d98               movl [rbp-0x68],rbx
0x280b6818b2c6   d06  897d90               movl [rbp-0x70],rdi
0x280b6818b2c9   d09  895588               movl [rbp-0x78],rdx
0x280b6818b2cc   d0c  e980f3ffff           jmp 0x280b6818a651  <+0x91>
0x280b6818b2d1   d11  448b4db8             movl r9,[rbp-0x48]
0x280b6818b2d5   d15  8945a4               movl [rbp-0x5c],rax
0x280b6818b2d8   d18  488b45f0             REX.W movq rax,[rbp-0x10]
0x280b6818b2dc   d1c  488b4017             REX.W movq rax,[rax+0x17]
0x280b6818b2e0   d20  894db4               movl [rbp-0x4c],rcx
0x280b6818b2e3   d23  428b4c0840           movl rcx,[rax+r9*1+0x40]
0x280b6818b2e8   d28  448b4da0             movl r9,[rbp-0x60]
0x280b6818b2ec   d2c  44890c08             movl [rax+rcx*1],r9
0x280b6818b2f0   d30  8975d0               movl [rbp-0x30],rsi
0x280b6818b2f3   d33  895d98               movl [rbp-0x68],rbx
0x280b6818b2f6   d36  897d90               movl [rbp-0x70],rdi
0x280b6818b2f9   d39  895588               movl [rbp-0x78],rdx
0x280b6818b2fc   d3c  e950f3ffff           jmp 0x280b6818a651  <+0x91>
0x280b6818b301   d41  448b4db8             movl r9,[rbp-0x48]
0x280b6818b305   d45  8945a4               movl [rbp-0x5c],rax
0x280b6818b308   d48  488b45f0             REX.W movq rax,[rbp-0x10]
0x280b6818b30c   d4c  488b4017             REX.W movq rax,[rax+0x17]
0x280b6818b310   d50  894db4               movl [rbp-0x4c],rcx
0x280b6818b313   d53  428b4c0840           movl rcx,[rax+r9*1+0x40]
0x280b6818b318   d58  448b4da0             movl r9,[rbp-0x60]
0x280b6818b31c   d5c  4d63c9               REX.W movsxlq r9,r9
0x280b6818b31f   d5f  4c890c08             REX.W movq [rax+rcx*1],r9
0x280b6818b323   d63  8975d0               movl [rbp-0x30],rsi
0x280b6818b326   d66  895d98               movl [rbp-0x68],rbx
0x280b6818b329   d69  897d90               movl [rbp-0x70],rdi
0x280b6818b32c   d6c  895588               movl [rbp-0x78],rdx
0x280b6818b32f   d6f  e91df3ffff           jmp 0x280b6818a651  <+0x91>
0x280b6818b334   d74  448b4db8             movl r9,[rbp-0x48]
0x280b6818b338   d78  8945a4               movl [rbp-0x5c],rax
0x280b6818b33b   d7b  488b45f0             REX.W movq rax,[rbp-0x10]
0x280b6818b33f   d7f  488b4017             REX.W movq rax,[rax+0x17]
0x280b6818b343   d83  894db4               movl [rbp-0x4c],rcx
0x280b6818b346   d86  428b4c0840           movl rcx,[rax+r9*1+0x40]
0x280b6818b34b   d8b  448b4da0             movl r9,[rbp-0x60]
0x280b6818b34f   d8f  6644890c08           movw [rax+rcx*1],r9
0x280b6818b354   d94  8975d0               movl [rbp-0x30],rsi
0x280b6818b357   d97  895d98               movl [rbp-0x68],rbx
0x280b6818b35a   d9a  897d90               movl [rbp-0x70],rdi
0x280b6818b35d   d9d  895588               movl [rbp-0x78],rdx
0x280b6818b360   da0  e9ecf2ffff           jmp 0x280b6818a651  <+0x91>
0x280b6818b365   da5  448b4db8             movl r9,[rbp-0x48]
0x280b6818b369   da9  8945a4               movl [rbp-0x5c],rax
0x280b6818b36c   dac  488b45f0             REX.W movq rax,[rbp-0x10]
0x280b6818b370   db0  488b4017             REX.W movq rax,[rax+0x17]
0x280b6818b374   db4  894db4               movl [rbp-0x4c],rcx
0x280b6818b377   db7  428b4c0840           movl rcx,[rax+r9*1+0x40]
0x280b6818b37c   dbc  448b4da0             movl r9,[rbp-0x60]
0x280b6818b380   dc0  44880c08             movb [rax+rcx*1],r9l
0x280b6818b384   dc4  8975d0               movl [rbp-0x30],rsi
0x280b6818b387   dc7  895d98               movl [rbp-0x68],rbx
0x280b6818b38a   dca  897d90               movl [rbp-0x70],rdi
0x280b6818b38d   dcd  895588               movl [rbp-0x78],rdx
0x280b6818b390   dd0  e9bcf2ffff           jmp 0x280b6818a651  <+0x91>
0x280b6818b395   dd5  448b4db8             movl r9,[rbp-0x48]
0x280b6818b399   dd9  8945a4               movl [rbp-0x5c],rax
0x280b6818b39c   ddc  488b45f0             REX.W movq rax,[rbp-0x10]
0x280b6818b3a0   de0  488b4017             REX.W movq rax,[rax+0x17]
0x280b6818b3a4   de4  894db4               movl [rbp-0x4c],rcx
0x280b6818b3a7   de7  428b4c0840           movl rcx,[rax+r9*1+0x40]
0x280b6818b3ac   dec  448b4da0             movl r9,[rbp-0x60]
0x280b6818b3b0   df0  44890c08             movl [rax+rcx*1],r9
0x280b6818b3b4   df4  8975d0               movl [rbp-0x30],rsi
0x280b6818b3b7   df7  895d98               movl [rbp-0x68],rbx
0x280b6818b3ba   dfa  897d90               movl [rbp-0x70],rdi
0x280b6818b3bd   dfd  895588               movl [rbp-0x78],rdx
0x280b6818b3c0   e00  e98cf2ffff           jmp 0x280b6818a651  <+0x91>
0x280b6818b3c5   e05  448b4db8             movl r9,[rbp-0x48]
0x280b6818b3c9   e09  8945a4               movl [rbp-0x5c],rax
0x280b6818b3cc   e0c  488b45f0             REX.W movq rax,[rbp-0x10]
0x280b6818b3d0   e10  488b4017             REX.W movq rax,[rax+0x17]
0x280b6818b3d4   e14  894db4               movl [rbp-0x4c],rcx
0x280b6818b3d7   e17  428b4c0840           movl rcx,[rax+r9*1+0x40]
0x280b6818b3dc   e1c  448b4da0             movl r9,[rbp-0x60]
0x280b6818b3e0   e20  4d63c9               REX.W movsxlq r9,r9
0x280b6818b3e3   e23  4c890c08             REX.W movq [rax+rcx*1],r9
0x280b6818b3e7   e27  8975d0               movl [rbp-0x30],rsi
0x280b6818b3ea   e2a  895d98               movl [rbp-0x68],rbx
0x280b6818b3ed   e2d  897d90               movl [rbp-0x70],rdi
0x280b6818b3f0   e30  895588               movl [rbp-0x78],rdx
0x280b6818b3f3   e33  e959f2ffff           jmp 0x280b6818a651  <+0x91>
0x280b6818b3f8   e38  448b4db0             movl r9,[rbp-0x50]
0x280b6818b3fc   e3c  8945a4               movl [rbp-0x5c],rax
0x280b6818b3ff   e3f  8b45b0               movl rax,[rbp-0x50]
0x280b6818b402   e42  894db4               movl [rbp-0x4c],rcx
0x280b6818b405   e45  b908000000           movl rcx,0x8
0x280b6818b40a   e4a  3bc1                 cmpl rax,rcx
0x280b6818b40c   e4c  0f97c0               setal al
0x280b6818b40f   e4f  0fb6c0               movzxbl rax,rax
0x280b6818b412   e52  b908000000           movl rcx,0x8
0x280b6818b417   e57  85c0                 testl rax,rax
0x280b6818b419   e59  440f44c9             cmovzl r9,rcx
0x280b6818b41d   e5d  8b45b4               movl rax,[rbp-0x4c]
0x280b6818b420   e60  83c808               orl rax,0x8
0x280b6818b423   e63  44894db0             movl [rbp-0x50],r9
0x280b6818b427   e67  8bc8                 movl rcx,rax
0x280b6818b429   e69  8b45a4               movl rax,[rbp-0x5c]
0x280b6818b42c   e6c  be78000000           movl rsi,0x78
0x280b6818b431   e71  448b4db8             movl r9,[rbp-0x48]
0x280b6818b435   e75  8945a4               movl [rbp-0x5c],rax
0x280b6818b438   e78  488b45f0             REX.W movq rax,[rbp-0x10]
0x280b6818b43c   e7c  488b4017             REX.W movq rax,[rax+0x17]
0x280b6818b440   e80  894db4               movl [rbp-0x4c],rcx
0x280b6818b443   e83  4a8b4c0840           REX.W movq rcx,[rax+r9*1+0x40]
0x280b6818b448   e88  448b4d8c             movl r9,[rbp-0x74]
0x280b6818b44c   e8c  8bc6                 movl rax,rsi
0x280b6818b44e   e8e  83e020               andl rax,0x20
0x280b6818b451   e91  895588               movl [rbp-0x78],rdx
0x280b6818b454   e94  897d90               movl [rbp-0x70],rdi
0x280b6818b457   e97  895d98               movl [rbp-0x68],rbx
0x280b6818b45a   e9a  8975d0               movl [rbp-0x30],rsi
0x280b6818b45d   e9d  418bd1               movl rdx,r9
0x280b6818b460   ea0  48898d58ffffff       REX.W movq [rbp-0xa8],rcx
0x280b6818b467   ea7  8bc8                 movl rcx,rax
0x280b6818b469   ea9  488b8558ffffff       REX.W movq rax,[rbp-0xa8]
0x280b6818b470   eb0  488b75f0             REX.W movq rsi,[rbp-0x10]
0x280b6818b474   eb4  e8f9abffff           call 0x280b68186072  (jump table)
0x280b6818b479   eb9  8b4db8               movl rcx,[rbp-0x48]
0x280b6818b47c   ebc  488b75f0             REX.W movq rsi,[rbp-0x10]
0x280b6818b480   ec0  488b5617             REX.W movq rdx,[rsi+0x17]
0x280b6818b484   ec4  488b5c0a40           REX.W movq rbx,[rdx+rcx*1+0x40]
0x280b6818b489   ec9  4885db               REX.W testq rbx,rbx
0x280b6818b48c   ecc  0f94c3               setzl bl
0x280b6818b48f   ecf  0fb6db               movzxbl rbx,rbx
0x280b6818b492   ed2  85db                 testl rbx,rbx
0x280b6818b494   ed4  0f8405000000         jz 0x280b6818b49f  <+0xedf>
0x280b6818b49a   eda  e968010000           jmp 0x280b6818b607  <+0x1047>
0x280b6818b49f   edf  8b4db4               movl rcx,[rbp-0x4c]
0x280b6818b4a2   ee2  83e108               andl rcx,0x8
0x280b6818b4a5   ee5  85c9                 testl rcx,rcx
0x280b6818b4a7   ee7  0f8505000000         jnz 0x280b6818b4b2  <+0xef2>
0x280b6818b4ad   eed  e955010000           jmp 0x280b6818b607  <+0x1047>
0x280b6818b4b2   ef2  8b4dd0               movl rcx,[rbp-0x30]
0x280b6818b4b5   ef5  c1e904               shrl rcx, 4
0x280b6818b4b8   ef8  81c100040000         addl rcx,0x400
0x280b6818b4be   efe  c745a402000000       movl [rbp-0x5c],0x2
0x280b6818b4c5   f05  894d90               movl [rbp-0x70],rcx
0x280b6818b4c8   f08  e93a010000           jmp 0x280b6818b607  <+0x1047>
0x280b6818b4cd   f0d  448b4db8             movl r9,[rbp-0x48]
0x280b6818b4d1   f11  8945a4               movl [rbp-0x5c],rax
0x280b6818b4d4   f14  488b45f0             REX.W movq rax,[rbp-0x10]
0x280b6818b4d8   f18  488b4017             REX.W movq rax,[rax+0x17]
0x280b6818b4dc   f1c  894db4               movl [rbp-0x4c],rcx
0x280b6818b4df   f1f  4a8b4c0840           REX.W movq rcx,[rax+r9*1+0x40]
0x280b6818b4e4   f24  448b4d8c             movl r9,[rbp-0x74]
0x280b6818b4e8   f28  895588               movl [rbp-0x78],rdx
0x280b6818b4eb   f2b  897d90               movl [rbp-0x70],rdi
0x280b6818b4ee   f2e  895d98               movl [rbp-0x68],rbx
0x280b6818b4f1   f31  8975d0               movl [rbp-0x30],rsi
0x280b6818b4f4   f34  488bc1               REX.W movq rax,rcx
0x280b6818b4f7   f37  418bd1               movl rdx,r9
0x280b6818b4fa   f3a  488b75f0             REX.W movq rsi,[rbp-0x10]
0x280b6818b4fe   f3e  e874abffff           call 0x280b68186077  (jump table)
0x280b6818b503   f43  8b4db4               movl rcx,[rbp-0x4c]
0x280b6818b506   f46  83e108               andl rcx,0x8
0x280b6818b509   f49  85c9                 testl rcx,rcx
0x280b6818b50b   f4b  0f8505000000         jnz 0x280b6818b516  <+0xf56>
0x280b6818b511   f51  e9f1000000           jmp 0x280b6818b607  <+0x1047>
0x280b6818b516   f56  8b4db0               movl rcx,[rbp-0x50]
0x280b6818b519   f59  8b558c               movl rdx,[rbp-0x74]
0x280b6818b51c   f5c  2bd0                 subl rdx,rax
0x280b6818b51e   f5e  8d5a01               leal rbx,[rdx+0x1]
0x280b6818b521   f61  8b75b0               movl rsi,[rbp-0x50]
0x280b6818b524   f64  3bd6                 cmpl rdx,rsi
0x280b6818b526   f66  400f9cc6             setll sil
0x280b6818b52a   f6a  400fb6f6             movzxbl rsi,rsi
0x280b6818b52e   f6e  85f6                 testl rsi,rsi
0x280b6818b530   f70  0f44cb               cmovzl rcx,rbx
0x280b6818b533   f73  8955d0               movl [rbp-0x30],rdx
0x280b6818b536   f76  894db0               movl [rbp-0x50],rcx
0x280b6818b539   f79  e9c9000000           jmp 0x280b6818b607  <+0x1047>
0x280b6818b53e   f7e  448b4db8             movl r9,[rbp-0x48]
0x280b6818b542   f82  8945a4               movl [rbp-0x5c],rax
0x280b6818b545   f85  488b45f0             REX.W movq rax,[rbp-0x10]
0x280b6818b549   f89  488b4017             REX.W movq rax,[rax+0x17]
0x280b6818b54d   f8d  894db4               movl [rbp-0x4c],rcx
0x280b6818b550   f90  4a8b4c0840           REX.W movq rcx,[rax+r9*1+0x40]
0x280b6818b555   f95  4533c9               xorl r9,r9
0x280b6818b558   f98  493bc9               REX.W cmpq rcx,r9
0x280b6818b55b   f9b  410f9cc1             setll r9l
0x280b6818b55f   f9f  450fb6c9             movzxbl r9,r9
0x280b6818b563   fa3  4585c9               testl r9,r9
0x280b6818b566   fa6  0f842b000000         jz 0x280b6818b597  <+0xfd7>
0x280b6818b56c   fac  448b4db8             movl r9,[rbp-0x48]
0x280b6818b570   fb0  33c0                 xorl rax,rax
0x280b6818b572   fb2  482bc1               REX.W subq rax,rcx
0x280b6818b575   fb5  488b4df0             REX.W movq rcx,[rbp-0x10]
0x280b6818b579   fb9  488b4917             REX.W movq rcx,[rcx+0x17]
0x280b6818b57d   fbd  4a89440940           REX.W movq [rcx+r9*1+0x40],rax
0x280b6818b582   fc2  c745a401000000       movl [rbp-0x5c],0x1
0x280b6818b589   fc9  488bc8               REX.W movq rcx,rax
0x280b6818b58c   fcc  41b900040000         movl r9,0x400
0x280b6818b592   fd2  e94b000000           jmp 0x280b6818b5e2  <+0x1022>
0x280b6818b597   fd7  448b4db4             movl r9,[rbp-0x4c]
0x280b6818b59b   fdb  4181e100080000       andl r9,0x800
0x280b6818b5a2   fe2  4585c9               testl r9,r9
0x280b6818b5a5   fe5  0f8412000000         jz 0x280b6818b5bd  <+0xffd>
0x280b6818b5ab   feb  c745a401000000       movl [rbp-0x5c],0x1
0x280b6818b5b2   ff2  41b901040000         movl r9,0x401
0x280b6818b5b8   ff8  e925000000           jmp 0x280b6818b5e2  <+0x1022>
0x280b6818b5bd   ffd  448b4db4             movl r9,[rbp-0x4c]
0x280b6818b5c1  1001  4183e101             andl r9,0x1
0x280b6818b5c5  1005  b800040000           movl rax,0x400
0x280b6818b5ca  100a  895588               movl [rbp-0x78],rdx
0x280b6818b5cd  100d  ba02040000           movl rdx,0x402
0x280b6818b5d2  1012  4585c9               testl r9,r9
0x280b6818b5d5  1015  0f44d0               cmovzl rdx,rax
0x280b6818b5d8  1018  44894da4             movl [rbp-0x5c],r9
0x280b6818b5dc  101c  448bca               movl r9,rdx
0x280b6818b5df  101f  8b5588               movl rdx,[rbp-0x78]
0x280b6818b5e2  1022  8b458c               movl rax,[rbp-0x74]
0x280b6818b5e5  1025  48898d7cffffff       REX.W movq [rbp-0x84],rcx
0x280b6818b5ec  102c  895588               movl [rbp-0x78],rdx
0x280b6818b5ef  102f  44894d90             movl [rbp-0x70],r9
0x280b6818b5f3  1033  895d98               movl [rbp-0x68],rbx
0x280b6818b5f6  1036  8975d0               movl [rbp-0x30],rsi
0x280b6818b5f9  1039  8bd0                 movl rdx,rax
0x280b6818b5fb  103b  488bc1               REX.W movq rax,rcx
0x280b6818b5fe  103e  488b75f0             REX.W movq rsi,[rbp-0x10]
0x280b6818b602  1042  e879aaffff           call 0x280b68186080  (jump table)
0x280b6818b607  1047  8b8d78ffffff         movl rcx,[rbp-0x88]
0x280b6818b60d  104d  8b55b0               movl rdx,[rbp-0x50]
0x280b6818b610  1050  33db                 xorl rbx,rbx
0x280b6818b612  1052  3bd3                 cmpl rdx,rbx
0x280b6818b614  1054  0f9cc2               setll dl
0x280b6818b617  1057  0fb6d2               movzxbl rdx,rdx
0x280b6818b61a  105a  33db                 xorl rbx,rbx
0x280b6818b61c  105c  85d2                 testl rdx,rdx
0x280b6818b61e  105e  0f44cb               cmovzl rcx,rbx
0x280b6818b621  1061  85c9                 testl rcx,rcx
0x280b6818b623  1063  0f8408000000         jz 0x280b6818b631  <+0x1071>
0x280b6818b629  1069  8945a8               movl [rbp-0x58],rax
0x280b6818b62c  106c  e960080000           jmp 0x280b6818be91  <+0x18d1>
0x280b6818b631  1071  8b4db4               movl rcx,[rbp-0x4c]
0x280b6818b634  1074  81e1fffffeff         andl rcx,0xfffeffff
0x280b6818b63a  107a  8b55b4               movl rdx,[rbp-0x4c]
0x280b6818b63d  107d  8b9d78ffffff         movl rbx,[rbp-0x88]
0x280b6818b643  1083  85db                 testl rbx,rbx
0x280b6818b645  1085  0f44ca               cmovzl rcx,rdx
0x280b6818b648  1088  8b55b8               movl rdx,[rbp-0x48]
0x280b6818b64b  108b  488b75f0             REX.W movq rsi,[rbp-0x10]
0x280b6818b64f  108f  488b5e17             REX.W movq rbx,[rsi+0x17]
0x280b6818b653  1093  488b7c1340           REX.W movq rdi,[rbx+rdx*1+0x40]
0x280b6818b658  1098  33d2                 xorl rdx,rdx
0x280b6818b65a  109a  483bfa               REX.W cmpq rdi,rdx
0x280b6818b65d  109d  0f95c2               setnzl dl
0x280b6818b660  10a0  0fb6d2               movzxbl rdx,rdx
0x280b6818b663  10a3  85d2                 testl rdx,rdx
0x280b6818b665  10a5  0f8405000000         jz 0x280b6818b670  <+0x10b0>
0x280b6818b66b  10ab  e937000000           jmp 0x280b6818b6a7  <+0x10e7>
0x280b6818b670  10b0  8b55b0               movl rdx,[rbp-0x50]
0x280b6818b673  10b3  85d2                 testl rdx,rdx
0x280b6818b675  10b5  0f8405000000         jz 0x280b6818b680  <+0x10c0>
0x280b6818b67b  10bb  e927000000           jmp 0x280b6818b6a7  <+0x10e7>
0x280b6818b680  10c0  8b558c               movl rdx,[rbp-0x74]
0x280b6818b683  10c3  c745b000000000       movl [rbp-0x50],0x0
0x280b6818b68a  10ca  8955a8               movl [rbp-0x58],rdx
0x280b6818b68d  10cd  4889bd7cffffff       REX.W movq [rbp-0x84],rdi
0x280b6818b694  10d4  8bda                 movl rbx,rdx
0x280b6818b696  10d6  8b45a4               movl rax,[rbp-0x5c]
0x280b6818b699  10d9  8b5588               movl rdx,[rbp-0x78]
0x280b6818b69c  10dc  8b75d0               movl rsi,[rbp-0x30]
0x280b6818b69f  10df  8b7d90               movl rdi,[rbp-0x70]
0x280b6818b6a2  10e2  e967060000           jmp 0x280b6818bd0e  <+0x174e>
0x280b6818b6a7  10e7  8b55b0               movl rdx,[rbp-0x50]
0x280b6818b6aa  10ea  4885ff               REX.W testq rdi,rdi
0x280b6818b6ad  10ed  410f94c1             setzl r9l
0x280b6818b6b1  10f1  450fb6c9             movzxbl r9,r9
0x280b6818b6b5  10f5  8b758c               movl rsi,[rbp-0x74]
0x280b6818b6b8  10f8  2bf0                 subl rsi,rax
0x280b6818b6ba  10fa  4403ce               addl r9,rsi
0x280b6818b6bd  10fd  8b75b0               movl rsi,[rbp-0x50]
0x280b6818b6c0  1100  443bce               cmpl r9,rsi
0x280b6818b6c3  1103  400f9cc6             setll sil
0x280b6818b6c7  1107  400fb6f6             movzxbl rsi,rsi
0x280b6818b6cb  110b  85f6                 testl rsi,rsi
0x280b6818b6cd  110d  410f44d1             cmovzl rdx,r9
0x280b6818b6d1  1111  8955b0               movl [rbp-0x50],rdx
0x280b6818b6d4  1114  8945a8               movl [rbp-0x58],rax
0x280b6818b6d7  1117  4889bd7cffffff       REX.W movq [rbp-0x84],rdi
0x280b6818b6de  111e  418bf1               movl rsi,r9
0x280b6818b6e1  1121  8b5588               movl rdx,[rbp-0x78]
0x280b6818b6e4  1124  8b5d98               movl rbx,[rbp-0x68]
0x280b6818b6e7  1127  8b7d90               movl rdi,[rbp-0x70]
0x280b6818b6ea  112a  e91c060000           jmp 0x280b6818bd0b  <+0x174b>
0x280b6818b6ef  112f  448b4db8             movl r9,[rbp-0x48]
0x280b6818b6f3  1133  8945a4               movl [rbp-0x5c],rax
0x280b6818b6f6  1136  488b45f0             REX.W movq rax,[rbp-0x10]
0x280b6818b6fa  113a  488b4017             REX.W movq rax,[rax+0x17]
0x280b6818b6fe  113e  894db4               movl [rbp-0x4c],rcx
0x280b6818b701  1141  428b4c0840           movl rcx,[rax+r9*1+0x40]
0x280b6818b706  1146  be0a040000           movl rsi,0x40a
0x280b6818b70b  114b  85c9                 testl rcx,rcx
0x280b6818b70d  114d  0f45f1               cmovnzl rsi,rcx
0x280b6818b710  1150  448b4db0             movl r9,[rbp-0x50]
0x280b6818b714  1154  8b45b0               movl rax,[rbp-0x50]
0x280b6818b717  1157  895588               movl [rbp-0x78],rdx
0x280b6818b71a  115a  33d2                 xorl rdx,rdx
0x280b6818b71c  115c  3bc2                 cmpl rax,rdx
0x280b6818b71e  115e  0f9cc0               setll al
0x280b6818b721  1161  0fb6c0               movzxbl rax,rax
0x280b6818b724  1164  baffffff7f           movl rdx,0x7fffffff
0x280b6818b729  1169  85c0                 testl rax,rax
0x280b6818b72b  116b  410f44d1             cmovzl rdx,r9
0x280b6818b72f  116f  897d90               movl [rbp-0x70],rdi
0x280b6818b732  1172  895d98               movl [rbp-0x68],rbx
0x280b6818b735  1175  8975a8               movl [rbp-0x58],rsi
0x280b6818b738  1178  894dd0               movl [rbp-0x30],rcx
0x280b6818b73b  117b  8bc6                 movl rax,rsi
0x280b6818b73d  117d  488b75f0             REX.W movq rsi,[rbp-0x10]
0x280b6818b741  1181  e8ffa8ffff           call 0x280b68186045  (jump table)
0x280b6818b746  1186  8b4da8               movl rcx,[rbp-0x58]
0x280b6818b749  1189  8d0c08               leal rcx,[rax+rcx*1]
0x280b6818b74c  118c  8b55b0               movl rdx,[rbp-0x50]
0x280b6818b74f  118f  83fa00               cmpl rdx,0x0
0x280b6818b752  1192  0f8c1d000000         jl 0x280b6818b775  <+0x11b5>
0x280b6818b758  1198  8b9574ffffff         movl rdx,[rbp-0x8c]
0x280b6818b75e  119e  8945b0               movl [rbp-0x50],rax
0x280b6818b761  11a1  8bd9                 movl rbx,rcx
0x280b6818b763  11a3  8bca                 movl rcx,rdx
0x280b6818b765  11a5  8bf0                 movl rsi,rax
0x280b6818b767  11a7  8b45a4               movl rax,[rbp-0x5c]
0x280b6818b76a  11aa  8b5588               movl rdx,[rbp-0x78]
0x280b6818b76d  11ad  8b7d90               movl rdi,[rbp-0x70]
0x280b6818b770  11b0  e999050000           jmp 0x280b6818bd0e  <+0x174e>
0x280b6818b775  11b5  8b9574ffffff         movl rdx,[rbp-0x8c]
0x280b6818b77b  11bb  488b75f0             REX.W movq rsi,[rbp-0x10]
0x280b6818b77f  11bf  488b5e17             REX.W movq rbx,[rsi+0x17]
0x280b6818b783  11c3  0fb63c0b             movzxbl rdi,[rbx+rcx*1]
0x280b6818b787  11c7  85ff                 testl rdi,rdi
0x280b6818b789  11c9  0f8411000000         jz 0x280b6818b7a0  <+0x11e0>
0x280b6818b78f  11cf  8945d0               movl [rbp-0x30],rax
0x280b6818b792  11d2  8955b4               movl [rbp-0x4c],rdx
0x280b6818b795  11d5  8945b0               movl [rbp-0x50],rax
0x280b6818b798  11d8  894d98               movl [rbp-0x68],rcx
0x280b6818b79b  11db  e9f1060000           jmp 0x280b6818be91  <+0x18d1>
0x280b6818b7a0  11e0  8945b0               movl [rbp-0x50],rax
0x280b6818b7a3  11e3  8bd9                 movl rbx,rcx
0x280b6818b7a5  11e5  8bca                 movl rcx,rdx
0x280b6818b7a7  11e7  8bf0                 movl rsi,rax
0x280b6818b7a9  11e9  8b45a4               movl rax,[rbp-0x5c]
0x280b6818b7ac  11ec  8b5588               movl rdx,[rbp-0x78]
0x280b6818b7af  11ef  8b7d90               movl rdi,[rbp-0x70]
0x280b6818b7b2  11f2  e957050000           jmp 0x280b6818bd0e  <+0x174e>
0x280b6818b7b7  11f7  8b45b0               movl rax,[rbp-0x50]
0x280b6818b7ba  11fa  85c0                 testl rax,rax
0x280b6818b7bc  11fc  0f8418000000         jz 0x280b6818b7da  <+0x121a>
0x280b6818b7c2  1202  8b45b8               movl rax,[rbp-0x48]
0x280b6818b7c5  1205  4c8b4df0             REX.W movq r9,[rbp-0x10]
0x280b6818b7c9  1209  4d8b4917             REX.W movq r9,[r9+0x17]
0x280b6818b7cd  120d  894db4               movl [rbp-0x4c],rcx
0x280b6818b7d0  1210  418b4c0140           movl rcx,[r9+rax*1+0x40]
0x280b6818b7d5  1215  e981000000           jmp 0x280b6818b85b  <+0x129b>
0x280b6818b7da  121a  8b45d4               movl rax,[rbp-0x2c]
0x280b6818b7dd  121d  8b759c               movl rsi,[rbp-0x64]
0x280b6818b7e0  1220  895588               movl [rbp-0x78],rdx
0x280b6818b7e3  1223  897d90               movl [rbp-0x70],rdi
0x280b6818b7e6  1226  895d98               movl [rbp-0x68],rbx
0x280b6818b7e9  1229  894db4               movl [rbp-0x4c],rcx
0x280b6818b7ec  122c  448bc9               movl r9,rcx
0x280b6818b7ef  122f  8bce                 movl rcx,rsi
0x280b6818b7f1  1231  ba20000000           movl rdx,0x20
0x280b6818b7f6  1236  33db                 xorl rbx,rbx
0x280b6818b7f8  1238  488b75f0             REX.W movq rsi,[rbp-0x10]
0x280b6818b7fc  123c  e884a8ffff           call 0x280b68186085  (jump table)
0x280b6818b801  1241  33c0                 xorl rax,rax
0x280b6818b803  1243  e91e020000           jmp 0x280b6818ba26  <+0x1466>
0x280b6818b808  1248  8b45b8               movl rax,[rbp-0x48]
0x280b6818b80b  124b  4533c9               xorl r9,r9
0x280b6818b80e  124e  894db4               movl [rbp-0x4c],rcx
0x280b6818b811  1251  488b4df0             REX.W movq rcx,[rbp-0x10]
0x280b6818b815  1255  488b4917             REX.W movq rcx,[rcx+0x17]
0x280b6818b819  1259  44894c010c           movl [rcx+rax*1+0xc],r9
0x280b6818b81e  125e  8b45b8               movl rax,[rbp-0x48]
0x280b6818b821  1261  448b4db8             movl r9,[rbp-0x48]
0x280b6818b825  1265  89856cffffff         movl [rbp-0x94],rax
0x280b6818b82b  126b  4a8b440940           REX.W movq rax,[rcx+r9*1+0x40]
0x280b6818b830  1270  448b8d6cffffff       movl r9,[rbp-0x94]
0x280b6818b837  1277  4289440908           movl [rcx+r9*1+0x8],rax
0x280b6818b83c  127c  8b45b8               movl rax,[rbp-0x48]
0x280b6818b83f  127f  448b4db8             movl r9,[rbp-0x48]
0x280b6818b843  1283  4183c108             addl r9,0x8
0x280b6818b847  1287  44894c0140           movl [rcx+rax*1+0x40],r9
0x280b6818b84c  128c  8b45b8               movl rax,[rbp-0x48]
0x280b6818b84f  128f  83c008               addl rax,0x8
0x280b6818b852  1292  c745b0ffffffff       movl [rbp-0x50],0xffffffff
0x280b6818b859  1299  8bc8                 movl rcx,rax
0x280b6818b85b  129b  c745d000000000       movl [rbp-0x30],0x0
0x280b6818b862  12a2  895d98               movl [rbp-0x68],rbx
0x280b6818b865  12a5  894d94               movl [rbp-0x6c],rcx
0x280b6818b868  12a8  897d90               movl [rbp-0x70],rdi
0x280b6818b86b  12ab  895588               movl [rbp-0x78],rdx
0x280b6818b86e  12ae  488b75f0             REX.W movq rsi,[rbp-0x10]
0x280b6818b872  12b2  488b4627             REX.W movq rax,[rsi+0x27]
0x280b6818b876  12b6  483b20               REX.W cmpq rsp,[rax]
0x280b6818b879  12b9  0f865d080000         jna 0x280b6818c0dc  <+0x1b1c>
0x280b6818b87f  12bf  8b4594               movl rax,[rbp-0x6c]
0x280b6818b882  12c2  488b4e17             REX.W movq rcx,[rsi+0x17]
0x280b6818b886  12c6  8b1401               movl rdx,[rcx+rax*1]
0x280b6818b889  12c9  85d2                 testl rdx,rdx
0x280b6818b88b  12cb  0f8505000000         jnz 0x280b6818b896  <+0x12d6>
0x280b6818b891  12d1  e987000000           jmp 0x280b6818b91d  <+0x135d>
0x280b6818b896  12d6  8b45b8               movl rax,[rbp-0x48]
0x280b6818b899  12d9  83c004               addl rax,0x4
0x280b6818b89c  12dc  8955ac               movl [rbp-0x54],rdx
0x280b6818b89f  12df  488b75f0             REX.W movq rsi,[rbp-0x10]
0x280b6818b8a3  12e3  e805a8ffff           call 0x280b681860ad  (jump table)
0x280b6818b8a8  12e8  33c9                 xorl rcx,rcx
0x280b6818b8aa  12ea  3bc1                 cmpl rax,rcx
0x280b6818b8ac  12ec  0f9cc1               setll cl
0x280b6818b8af  12ef  0fb6c9               movzxbl rcx,rcx
0x280b6818b8b2  12f2  85c9                 testl rcx,rcx
0x280b6818b8b4  12f4  0f8405000000         jz 0x280b6818b8bf  <+0x12ff>
0x280b6818b8ba  12fa  e94c000000           jmp 0x280b6818b90b  <+0x134b>
0x280b6818b8bf  12ff  8b55b0               movl rdx,[rbp-0x50]
0x280b6818b8c2  1302  8b5dd0               movl rbx,[rbp-0x30]
0x280b6818b8c5  1305  2bd3                 subl rdx,rbx
0x280b6818b8c7  1307  3bc2                 cmpl rax,rdx
0x280b6818b8c9  1309  0f8605000000         jna 0x280b6818b8d4  <+0x1314>
0x280b6818b8cf  130f  e937000000           jmp 0x280b6818b90b  <+0x134b>
0x280b6818b8d4  1314  8b5594               movl rdx,[rbp-0x6c]
0x280b6818b8d7  1317  83c204               addl rdx,0x4
0x280b6818b8da  131a  8b5db0               movl rbx,[rbp-0x50]
0x280b6818b8dd  131d  8b75d0               movl rsi,[rbp-0x30]
0x280b6818b8e0  1320  03f0                 addl rsi,rax
0x280b6818b8e2  1322  3bde                 cmpl rbx,rsi
0x280b6818b8e4  1324  0f8611000000         jna 0x280b6818b8fb  <+0x133b>
0x280b6818b8ea  132a  8975d0               movl [rbp-0x30],rsi
0x280b6818b8ed  132d  8945ac               movl [rbp-0x54],rax
0x280b6818b8f0  1330  894da8               movl [rbp-0x58],rcx
0x280b6818b8f3  1333  895594               movl [rbp-0x6c],rdx
0x280b6818b8f6  1336  e973ffffff           jmp 0x280b6818b86e  <+0x12ae>
0x280b6818b8fb  133b  8975d0               movl [rbp-0x30],rsi
0x280b6818b8fe  133e  894da8               movl [rbp-0x58],rcx
0x280b6818b901  1341  895594               movl [rbp-0x6c],rdx
0x280b6818b904  1344  8bd0                 movl rdx,rax
0x280b6818b906  1346  e912000000           jmp 0x280b6818b91d  <+0x135d>
0x280b6818b90b  134b  85c9                 testl rcx,rcx
0x280b6818b90d  134d  0f8405000000         jz 0x280b6818b918  <+0x1358>
0x280b6818b913  1353  e9a4050000           jmp 0x280b6818bebc  <+0x18fc>
0x280b6818b918  1358  894da8               movl [rbp-0x58],rcx
0x280b6818b91b  135b  8bd0                 movl rdx,rax
0x280b6818b91d  135d  8b45d0               movl rax,[rbp-0x30]
0x280b6818b920  1360  b93d000000           movl rcx,0x3d
0x280b6818b925  1365  83f800               cmpl rax,0x0
0x280b6818b928  1368  0f8d07000000         jge 0x280b6818b935  <+0x1375>
0x280b6818b92e  136e  8bc2                 movl rax,rdx
0x280b6818b930  1370  e964050000           jmp 0x280b6818be99  <+0x18d9>
0x280b6818b935  1375  8b45d4               movl rax,[rbp-0x2c]
0x280b6818b938  1378  8b5d9c               movl rbx,[rbp-0x64]
0x280b6818b93b  137b  8b75d0               movl rsi,[rbp-0x30]
0x280b6818b93e  137e  8b7db4               movl rdi,[rbp-0x4c]
0x280b6818b941  1381  894d98               movl [rbp-0x68],rcx
0x280b6818b944  1384  8955ac               movl [rbp-0x54],rdx
0x280b6818b947  1387  8bcb                 movl rcx,rbx
0x280b6818b949  1389  8bde                 movl rbx,rsi
0x280b6818b94b  138b  448bcf               movl r9,rdi
0x280b6818b94e  138e  ba20000000           movl rdx,0x20
0x280b6818b953  1393  488b75f0             REX.W movq rsi,[rbp-0x10]
0x280b6818b957  1397  e829a7ffff           call 0x280b68186085  (jump table)
0x280b6818b95c  139c  8b45d0               movl rax,[rbp-0x30]
0x280b6818b95f  139f  85c0                 testl rax,rax
0x280b6818b961  13a1  0f8507000000         jnz 0x280b6818b96e  <+0x13ae>
0x280b6818b967  13a7  33c0                 xorl rax,rax
0x280b6818b969  13a9  e9b8000000           jmp 0x280b6818ba26  <+0x1466>
0x280b6818b96e  13ae  8b45b8               movl rax,[rbp-0x48]
0x280b6818b971  13b1  488b75f0             REX.W movq rsi,[rbp-0x10]
0x280b6818b975  13b5  488b4e17             REX.W movq rcx,[rsi+0x17]
0x280b6818b979  13b9  8b540140             movl rdx,[rcx+rax*1+0x40]
0x280b6818b97d  13bd  c745ac00000000       movl [rbp-0x54],0x0
0x280b6818b984  13c4  895594               movl [rbp-0x6c],rdx
0x280b6818b987  13c7  488b4627             REX.W movq rax,[rsi+0x27]
0x280b6818b98b  13cb  483b20               REX.W cmpq rsp,[rax]
0x280b6818b98e  13ce  0f8660070000         jna 0x280b6818c0f4  <+0x1b34>
0x280b6818b994  13d4  8b4594               movl rax,[rbp-0x6c]
0x280b6818b997  13d7  8b1401               movl rdx,[rcx+rax*1]
0x280b6818b99a  13da  85d2                 testl rdx,rdx
0x280b6818b99c  13dc  0f850b000000         jnz 0x280b6818b9ad  <+0x13ed>
0x280b6818b9a2  13e2  8955a8               movl [rbp-0x58],rdx
0x280b6818b9a5  13e5  8b45d0               movl rax,[rbp-0x30]
0x280b6818b9a8  13e8  e979000000           jmp 0x280b6818ba26  <+0x1466>
0x280b6818b9ad  13ed  8b45b8               movl rax,[rbp-0x48]
0x280b6818b9b0  13f0  83c004               addl rax,0x4
0x280b6818b9b3  13f3  8955a8               movl [rbp-0x58],rdx
0x280b6818b9b6  13f6  488b75f0             REX.W movq rsi,[rbp-0x10]
0x280b6818b9ba  13fa  e8eea6ffff           call 0x280b681860ad  (jump table)
0x280b6818b9bf  13ff  8b4dac               movl rcx,[rbp-0x54]
0x280b6818b9c2  1402  8d0c08               leal rcx,[rax+rcx*1]
0x280b6818b9c5  1405  8b55d0               movl rdx,[rbp-0x30]
0x280b6818b9c8  1408  3bca                 cmpl rcx,rdx
0x280b6818b9ca  140a  0f860e000000         jna 0x280b6818b9de  <+0x141e>
0x280b6818b9d0  1410  894dac               movl [rbp-0x54],rcx
0x280b6818b9d3  1413  8945a8               movl [rbp-0x58],rax
0x280b6818b9d6  1416  8b45d0               movl rax,[rbp-0x30]
0x280b6818b9d9  1419  e948000000           jmp 0x280b6818ba26  <+0x1466>
0x280b6818b9de  141e  8b55d4               movl rdx,[rbp-0x2c]
0x280b6818b9e1  1421  8b5db8               movl rbx,[rbp-0x48]
0x280b6818b9e4  1424  83c304               addl rbx,0x4
0x280b6818b9e7  1427  8945a8               movl [rbp-0x58],rax
0x280b6818b9ea  142a  894dac               movl [rbp-0x54],rcx
0x280b6818b9ed  142d  8bc8                 movl rcx,rax
0x280b6818b9ef  142f  8bc2                 movl rax,rdx
0x280b6818b9f1  1431  8bd3                 movl rdx,rbx
0x280b6818b9f3  1433  488b75f0             REX.W movq rsi,[rbp-0x10]
0x280b6818b9f7  1437  e867a6ffff           call 0x280b68186063  (jump table)
0x280b6818b9fc  143c  8b4594               movl rax,[rbp-0x6c]
0x280b6818b9ff  143f  83c004               addl rax,0x4
0x280b6818ba02  1442  8b4dd0               movl rcx,[rbp-0x30]
0x280b6818ba05  1445  8b55ac               movl rdx,[rbp-0x54]
0x280b6818ba08  1448  3bca                 cmpl rcx,rdx
0x280b6818ba0a  144a  0f8610000000         jna 0x280b6818ba20  <+0x1460>
0x280b6818ba10  1450  894594               movl [rbp-0x6c],rax
0x280b6818ba13  1453  488b75f0             REX.W movq rsi,[rbp-0x10]
0x280b6818ba17  1457  488b4e17             REX.W movq rcx,[rsi+0x17]
0x280b6818ba1b  145b  e967ffffff           jmp 0x280b6818b987  <+0x13c7>
0x280b6818ba20  1460  894594               movl [rbp-0x6c],rax
0x280b6818ba23  1463  8b45d0               movl rax,[rbp-0x30]
0x280b6818ba26  1466  8b4dd4               movl rcx,[rbp-0x2c]
0x280b6818ba29  1469  8b559c               movl rdx,[rbp-0x64]
0x280b6818ba2c  146c  8b5db4               movl rbx,[rbp-0x4c]
0x280b6818ba2f  146f  81f300200000         xorl rbx,0x2000
0x280b6818ba35  1475  8945d0               movl [rbp-0x30],rax
0x280b6818ba38  1478  448bcb               movl r9,rbx
0x280b6818ba3b  147b  8bd8                 movl rbx,rax
0x280b6818ba3d  147d  8bc1                 movl rax,rcx
0x280b6818ba3f  147f  8bca                 movl rcx,rdx
0x280b6818ba41  1481  ba20000000           movl rdx,0x20
0x280b6818ba46  1486  488b75f0             REX.W movq rsi,[rbp-0x10]
0x280b6818ba4a  148a  e836a6ffff           call 0x280b68186085  (jump table)
0x280b6818ba4f  148f  8b459c               movl rax,[rbp-0x64]
0x280b6818ba52  1492  8b4dd0               movl rcx,[rbp-0x30]
0x280b6818ba55  1495  8b55d0               movl rdx,[rbp-0x30]
0x280b6818ba58  1498  8b5d9c               movl rbx,[rbp-0x64]
0x280b6818ba5b  149b  3bd3                 cmpl rdx,rbx
0x280b6818ba5d  149d  0f9cc2               setll dl
0x280b6818ba60  14a0  0fb6d2               movzxbl rdx,rdx
0x280b6818ba63  14a3  85d2                 testl rdx,rdx
0x280b6818ba65  14a5  0f44c1               cmovzl rax,rcx
0x280b6818ba68  14a8  8945d0               movl [rbp-0x30],rax
0x280b6818ba6b  14ab  e9e1ebffff           jmp 0x280b6818a651  <+0x91>
0x280b6818ba70  14b0  448b8d78ffffff       movl r9,[rbp-0x88]
0x280b6818ba77  14b7  8945a4               movl [rbp-0x5c],rax
0x280b6818ba7a  14ba  8b45b0               movl rax,[rbp-0x50]
0x280b6818ba7d  14bd  894db4               movl [rbp-0x4c],rcx
0x280b6818ba80  14c0  33c9                 xorl rcx,rcx
0x280b6818ba82  14c2  3bc1                 cmpl rax,rcx
0x280b6818ba84  14c4  0f9cc0               setll al
0x280b6818ba87  14c7  0fb6c0               movzxbl rax,rax
0x280b6818ba8a  14ca  33c9                 xorl rcx,rcx
0x280b6818ba8c  14cc  85c0                 testl rax,rax
0x280b6818ba8e  14ce  440f44c9             cmovzl r9,rcx
0x280b6818ba92  14d2  4585c9               testl r9,r9
0x280b6818ba95  14d5  0f8411000000         jz 0x280b6818baac  <+0x14ec>
0x280b6818ba9b  14db  8975d0               movl [rbp-0x30],rsi
0x280b6818ba9e  14de  895d98               movl [rbp-0x68],rbx
0x280b6818baa1  14e1  897d90               movl [rbp-0x70],rdi
0x280b6818baa4  14e4  895588               movl [rbp-0x78],rdx
0x280b6818baa7  14e7  e9e5030000           jmp 0x280b6818be91  <+0x18d1>
0x280b6818baac  14ec  8b45d4               movl rax,[rbp-0x2c]
0x280b6818baaf  14ef  8b4db8               movl rcx,[rbp-0x48]
0x280b6818bab2  14f2  4c8b4df0             REX.W movq r9,[rbp-0x10]
0x280b6818bab6  14f6  498b5917             REX.W movq rbx,[r9+0x17]
0x280b6818baba  14fa  c5fb10440b40         vmovsd xmm0,[rbx+rcx*1+0x40]
0x280b6818bac0  1500  8b4d9c               movl rcx,[rbp-0x64]
0x280b6818bac3  1503  448b4db0             movl r9,[rbp-0x50]
0x280b6818bac7  1507  8b5db4               movl rbx,[rbp-0x4c]
0x280b6818baca  150a  895588               movl [rbp-0x78],rdx
0x280b6818bacd  150d  8b55c0               movl rdx,[rbp-0x40]
0x280b6818bad0  1510  899d58ffffff         movl [rbp-0xa8],rbx
0x280b6818bad6  1516  89b554ffffff         movl [rbp-0xac],rsi
0x280b6818badc  151c  8975d0               movl [rbp-0x30],rsi
0x280b6818badf  151f  897d90               movl [rbp-0x70],rdi
0x280b6818bae2  1522  488b75f0             REX.W movq rsi,[rbp-0x10]
0x280b6818bae6  1526  8b7613               movl rsi,[rsi+0x13]
0x280b6818bae9  1529  3bd6                 cmpl rdx,rsi
0x280b6818baeb  152b  0f831d060000         jnc 0x280b6818c10e  <+0x1b4e>
0x280b6818baf1  1531  488b5df0             REX.W movq rbx,[rbp-0x10]
0x280b6818baf5  1535  488b5b3f             REX.W movq rbx,[rbx+0x3f]
0x280b6818baf9  1539  c1e202               shll rdx, 2
0x280b6818bafc  153c  8b3c13               movl rdi,[rbx+rdx*1]
0x280b6818baff  153f  be0c000000           movl rsi,0xc
0x280b6818bb04  1544  483bfe               REX.W cmpq rdi,rsi
0x280b6818bb07  1547  0f8506060000         jnz 0x280b6818c113  <+0x1b53>
0x280b6818bb0d  154d  488b5df0             REX.W movq rbx,[rbp-0x10]
0x280b6818bb11  1551  8b5b0f               movl rbx,[rbx+0xf]
0x280b6818bb14  1554  4903de               REX.W addq rbx,r14
0x280b6818bb17  1557  8b741307             movl rsi,[rbx+rdx*1+0x7]
0x280b6818bb1b  155b  4903f6               REX.W addq rsi,r14
0x280b6818bb1e  155e  03d2                 addl rdx,rdx
0x280b6818bb20  1560  488b5df0             REX.W movq rbx,[rbp-0x10]
0x280b6818bb24  1564  488b5b37             REX.W movq rbx,[rbx+0x37]
0x280b6818bb28  1568  488b3c13             REX.W movq rdi,[rbx+rdx*1]
0x280b6818bb2c  156c  8bd1                 movl rdx,rcx
0x280b6818bb2e  156e  418bc9               movl rcx,r9
0x280b6818bb31  1571  c5f310c8             vmovsd xmm1,xmm1,xmm0
0x280b6818bb35  1575  8b9d58ffffff         movl rbx,[rbp-0xa8]
0x280b6818bb3b  157b  448b8d54ffffff       movl r9,[rbp-0xac]
0x280b6818bb42  1582  ffd7                 call rdi
0x280b6818bb44  1584  b93d000000           movl rcx,0x3d
0x280b6818bb49  1589  83f800               cmpl rax,0x0
0x280b6818bb4c  158c  0f8c0b000000         jl 0x280b6818bb5d  <+0x159d>
0x280b6818bb52  1592  8945d0               movl [rbp-0x30],rax
0x280b6818bb55  1595  894d98               movl [rbp-0x68],rcx
0x280b6818bb58  1598  e9f4eaffff           jmp 0x280b6818a651  <+0x91>
0x280b6818bb5d  159d  8945d0               movl [rbp-0x30],rax
0x280b6818bb60  15a0  8b45ac               movl rax,[rbp-0x54]
0x280b6818bb63  15a3  e931030000           jmp 0x280b6818be99  <+0x18d9>
0x280b6818bb68  15a8  448b4db8             movl r9,[rbp-0x48]
0x280b6818bb6c  15ac  8945a4               movl [rbp-0x5c],rax
0x280b6818bb6f  15af  8b45b8               movl rax,[rbp-0x48]
0x280b6818bb72  15b2  894db4               movl [rbp-0x4c],rcx
0x280b6818bb75  15b5  488b4df0             REX.W movq rcx,[rbp-0x10]
0x280b6818bb79  15b9  488b4917             REX.W movq rcx,[rcx+0x17]
0x280b6818bb7d  15bd  895588               movl [rbp-0x78],rdx
0x280b6818bb80  15c0  488b540140           REX.W movq rdx,[rcx+rax*1+0x40]
0x280b6818bb85  15c5  4288540937           movb [rcx+r9*1+0x37],dl
0x280b6818bb8a  15ca  8b8570ffffff         movl rax,[rbp-0x90]
0x280b6818bb90  15d0  8b9574ffffff         movl rdx,[rbp-0x8c]
0x280b6818bb96  15d6  c745b001000000       movl [rbp-0x50],0x1
0x280b6818bb9d  15dd  8945a8               movl [rbp-0x58],rax
0x280b6818bba0  15e0  8bca                 movl rcx,rdx
0x280b6818bba2  15e2  8b45a4               movl rax,[rbp-0x5c]
0x280b6818bba5  15e5  8b5588               movl rdx,[rbp-0x78]
0x280b6818bba8  15e8  e961010000           jmp 0x280b6818bd0e  <+0x174e>
0x280b6818bbad  15ed  8b4db8               movl rcx,[rbp-0x48]
0x280b6818bbb0  15f0  8b5dd0               movl rbx,[rbp-0x30]
0x280b6818bbb3  15f3  83c301               addl rbx,0x1
0x280b6818bbb6  15f6  895c0a4c             movl [rdx+rcx*1+0x4c],rbx
0x280b6818bbba  15fa  8b4dd0               movl rcx,[rbp-0x30]
0x280b6818bbbd  15fd  0fb67c0a01           movzxbl rdi,[rdx+rcx*1+0x1]
0x280b6818bbc2  1602  895dd0               movl [rbp-0x30],rbx
0x280b6818bbc5  1605  897db4               movl [rbp-0x4c],rdi
0x280b6818bbc8  1608  895d94               movl [rbp-0x6c],rbx
0x280b6818bbcb  160b  e9d7eaffff           jmp 0x280b6818a6a7  <+0xe7>
0x280b6818bbd0  1610  8b7dd4               movl rdi,[rbp-0x2c]
0x280b6818bbd3  1613  85ff                 testl rdi,rdi
0x280b6818bbd5  1615  0f8407000000         jz 0x280b6818bbe2  <+0x1622>
0x280b6818bbdb  161b  8bfb                 movl rdi,rbx
0x280b6818bbdd  161d  e9ea020000           jmp 0x280b6818becc  <+0x190c>
0x280b6818bbe2  1622  8b7d84               movl rdi,[rbp-0x7c]
0x280b6818bbe5  1625  85ff                 testl rdi,rdi
0x280b6818bbe7  1627  0f8518000000         jnz 0x280b6818bc05  <+0x1645>
0x280b6818bbed  162d  895da8               movl [rbp-0x58],rbx
0x280b6818bbf0  1630  8945a0               movl [rbp-0x60],rax
0x280b6818bbf3  1633  8bf1                 movl rsi,rcx
0x280b6818bbf5  1635  8bfb                 movl rdi,rbx
0x280b6818bbf7  1637  8b45ac               movl rax,[rbp-0x54]
0x280b6818bbfa  163a  8b4d98               movl rcx,[rbp-0x68]
0x280b6818bbfd  163d  8b5d88               movl rbx,[rbp-0x78]
0x280b6818bc00  1640  e975020000           jmp 0x280b6818be7a  <+0x18ba>
0x280b6818bc05  1645  c745d001000000       movl [rbp-0x30],0x1
0x280b6818bc0c  164c  894db4               movl [rbp-0x4c],rcx
0x280b6818bc0f  164f  895da8               movl [rbp-0x58],rbx
0x280b6818bc12  1652  8945a0               movl [rbp-0x60],rax
0x280b6818bc15  1655  488b4627             REX.W movq rax,[rsi+0x27]
0x280b6818bc19  1659  483b20               REX.W cmpq rsp,[rax]
0x280b6818bc1c  165c  0f860a050000         jna 0x280b6818c12c  <+0x1b6c>
0x280b6818bc22  1662  8b45c4               movl rax,[rbp-0x3c]
0x280b6818bc25  1665  8b4dd0               movl rcx,[rbp-0x30]
0x280b6818bc28  1668  c1e102               shll rcx, 2
0x280b6818bc2b  166b  03c1                 addl rax,rcx
0x280b6818bc2d  166d  8b0c02               movl rcx,[rdx+rax*1]
0x280b6818bc30  1670  85c9                 testl rcx,rcx
0x280b6818bc32  1672  0f8456000000         jz 0x280b6818bc8e  <+0x16ce>
0x280b6818bc38  1678  8b45c8               movl rax,[rbp-0x38]
0x280b6818bc3b  167b  8b5dd0               movl rbx,[rbp-0x30]
0x280b6818bc3e  167e  c1e303               shll rbx, 3
0x280b6818bc41  1681  03c3                 addl rax,rbx
0x280b6818bc43  1683  8b5dcc               movl rbx,[rbp-0x34]
0x280b6818bc46  1686  8b7dbc               movl rdi,[rbp-0x44]
0x280b6818bc49  1689  894db4               movl [rbp-0x4c],rcx
0x280b6818bc4c  168c  8bd1                 movl rdx,rcx
0x280b6818bc4e  168e  8bcb                 movl rcx,rbx
0x280b6818bc50  1690  8bdf                 movl rbx,rdi
0x280b6818bc52  1692  488b75f0             REX.W movq rsi,[rbp-0x10]
0x280b6818bc56  1696  e812a4ffff           call 0x280b6818606d  (jump table)
0x280b6818bc5b  169b  8b45d0               movl rax,[rbp-0x30]
0x280b6818bc5e  169e  83c001               addl rax,0x1
0x280b6818bc61  16a1  b901000000           movl rcx,0x1
0x280b6818bc66  16a6  83f80a               cmpl rax,0xa
0x280b6818bc69  16a9  0f8410000000         jz 0x280b6818bc7f  <+0x16bf>
0x280b6818bc6f  16af  8945d0               movl [rbp-0x30],rax
0x280b6818bc72  16b2  894da0               movl [rbp-0x60],rcx
0x280b6818bc75  16b5  488b75f0             REX.W movq rsi,[rbp-0x10]
0x280b6818bc79  16b9  488b5617             REX.W movq rdx,[rsi+0x17]
0x280b6818bc7d  16bd  eb96                 jmp 0x280b6818bc15  <+0x1655>
0x280b6818bc7f  16bf  8bd8                 movl rbx,rax
0x280b6818bc81  16c1  8bc1                 movl rax,rcx
0x280b6818bc83  16c3  8b4db4               movl rcx,[rbp-0x4c]
0x280b6818bc86  16c6  8b7da8               movl rdi,[rbp-0x58]
0x280b6818bc89  16c9  e93e020000           jmp 0x280b6818becc  <+0x190c>
0x280b6818bc8e  16ce  8b45d0               movl rax,[rbp-0x30]
0x280b6818bc91  16d1  bb01000000           movl rbx,0x1
0x280b6818bc96  16d6  83f80a               cmpl rax,0xa
0x280b6818bc99  16d9  0f820d000000         jc 0x280b6818bcac  <+0x16ec>
0x280b6818bc9f  16df  8bc3                 movl rax,rbx
0x280b6818bca1  16e1  8b5dd0               movl rbx,[rbp-0x30]
0x280b6818bca4  16e4  8b7da8               movl rdi,[rbp-0x58]
0x280b6818bca7  16e7  e920020000           jmp 0x280b6818becc  <+0x190c>
0x280b6818bcac  16ec  894db4               movl [rbp-0x4c],rcx
0x280b6818bcaf  16ef  895da0               movl [rbp-0x60],rbx
0x280b6818bcb2  16f2  488b4627             REX.W movq rax,[rsi+0x27]
0x280b6818bcb6  16f6  483b20               REX.W cmpq rsp,[rax]
0x280b6818bcb9  16f9  0f8682040000         jna 0x280b6818c141  <+0x1b81>
0x280b6818bcbf  16ff  8b45c4               movl rax,[rbp-0x3c]
0x280b6818bcc2  1702  8b4dd0               movl rcx,[rbp-0x30]
0x280b6818bcc5  1705  c1e102               shll rcx, 2
0x280b6818bcc8  1708  03c1                 addl rax,rcx
0x280b6818bcca  170a  8b0c02               movl rcx,[rdx+rax*1]
0x280b6818bccd  170d  85c9                 testl rcx,rcx
0x280b6818bccf  170f  0f8405000000         jz 0x280b6818bcda  <+0x171a>
0x280b6818bcd5  1715  e924000000           jmp 0x280b6818bcfe  <+0x173e>
0x280b6818bcda  171a  8b45d0               movl rax,[rbp-0x30]
0x280b6818bcdd  171d  83c001               addl rax,0x1
0x280b6818bce0  1720  83f80a               cmpl rax,0xa
0x280b6818bce3  1723  0f8405000000         jz 0x280b6818bcee  <+0x172e>
0x280b6818bce9  1729  8945d0               movl [rbp-0x30],rax
0x280b6818bcec  172c  ebc4                 jmp 0x280b6818bcb2  <+0x16f2>
0x280b6818bcee  172e  8bd8                 movl rbx,rax
0x280b6818bcf0  1730  8b45a0               movl rax,[rbp-0x60]
0x280b6818bcf3  1733  8b4db4               movl rcx,[rbp-0x4c]
0x280b6818bcf6  1736  8b7da8               movl rdi,[rbp-0x58]
0x280b6818bcf9  1739  e9ce010000           jmp 0x280b6818becc  <+0x190c>
0x280b6818bcfe  173e  8b45ac               movl rax,[rbp-0x54]
0x280b6818bd01  1741  b91c000000           movl rcx,0x1c
0x280b6818bd06  1746  e98e010000           jmp 0x280b6818be99  <+0x18d9>
0x280b6818bd0b  174b  8b45a4               movl rax,[rbp-0x5c]
0x280b6818bd0e  174e  448b4da8             movl r9,[rbp-0x58]
0x280b6818bd12  1752  41f7d9               negl r9
0x280b6818bd15  1755  4403cb               addl r9,rbx
0x280b6818bd18  1758  8b55b0               movl rdx,[rbp-0x50]
0x280b6818bd1b  175b  8945a4               movl [rbp-0x5c],rax
0x280b6818bd1e  175e  8b45b0               movl rax,[rbp-0x50]
0x280b6818bd21  1761  413bc1               cmpl rax,r9
0x280b6818bd24  1764  0f9cc0               setll al
0x280b6818bd27  1767  0fb6c0               movzxbl rax,rax
0x280b6818bd2a  176a  85c0                 testl rax,rax
0x280b6818bd2c  176c  410f45d1             cmovnzl rdx,r9
0x280b6818bd30  1770  8b45a4               movl rax,[rbp-0x5c]
0x280b6818bd33  1773  894db4               movl [rbp-0x4c],rcx
0x280b6818bd36  1776  b9ffffff7f           movl rcx,0x7fffffff
0x280b6818bd3b  177b  2bc8                 subl rcx,rax
0x280b6818bd3d  177d  3bd1                 cmpl rdx,rcx
0x280b6818bd3f  177f  0f8e15000000         jle 0x280b6818bd5a  <+0x179a>
0x280b6818bd45  1785  8975d0               movl [rbp-0x30],rsi
0x280b6818bd48  1788  8955b0               movl [rbp-0x50],rdx
0x280b6818bd4b  178b  895d98               movl [rbp-0x68],rbx
0x280b6818bd4e  178e  897d90               movl [rbp-0x70],rdi
0x280b6818bd51  1791  44894d88             movl [rbp-0x78],r9
0x280b6818bd55  1795  e937010000           jmp 0x280b6818be91  <+0x18d1>
0x280b6818bd5a  179a  8b45a4               movl rax,[rbp-0x5c]
0x280b6818bd5d  179d  8d0402               leal rax,[rdx+rax*1]
0x280b6818bd60  17a0  8b4d9c               movl rcx,[rbp-0x64]
0x280b6818bd63  17a3  8b5d9c               movl rbx,[rbp-0x64]
0x280b6818bd66  17a6  3bc3                 cmpl rax,rbx
0x280b6818bd68  17a8  0f9fc3               setgl bl
0x280b6818bd6b  17ab  0fb6db               movzxbl rbx,rbx
0x280b6818bd6e  17ae  85db                 testl rbx,rbx
0x280b6818bd70  17b0  0f45c8               cmovnzl rcx,rax
0x280b6818bd73  17b3  8b5d94               movl rbx,[rbp-0x6c]
0x280b6818bd76  17b6  be3d000000           movl rsi,0x3d
0x280b6818bd7b  17bb  3bcb                 cmpl rcx,rbx
0x280b6818bd7d  17bd  0f8e14000000         jle 0x280b6818bd97  <+0x17d7>
0x280b6818bd83  17c3  894dd0               movl [rbp-0x30],rcx
0x280b6818bd86  17c6  8955b0               movl [rbp-0x50],rdx
0x280b6818bd89  17c9  897d90               movl [rbp-0x70],rdi
0x280b6818bd8c  17cc  44894d88             movl [rbp-0x78],r9
0x280b6818bd90  17d0  8bce                 movl rcx,rsi
0x280b6818bd92  17d2  e902010000           jmp 0x280b6818be99  <+0x18d9>
0x280b6818bd97  17d7  8b5dd4               movl rbx,[rbp-0x2c]
0x280b6818bd9a  17da  8955b0               movl [rbp-0x50],rdx
0x280b6818bd9d  17dd  8b55b4               movl rdx,[rbp-0x4c]
0x280b6818bda0  17e0  44894d88             movl [rbp-0x78],r9
0x280b6818bda4  17e4  897d90               movl [rbp-0x70],rdi
0x280b6818bda7  17e7  897598               movl [rbp-0x68],rsi
0x280b6818bdaa  17ea  8945ac               movl [rbp-0x54],rax
0x280b6818bdad  17ed  894dd0               movl [rbp-0x30],rcx
0x280b6818bdb0  17f0  448bca               movl r9,rdx
0x280b6818bdb3  17f3  899d58ffffff         movl [rbp-0xa8],rbx
0x280b6818bdb9  17f9  8bd8                 movl rbx,rax
0x280b6818bdbb  17fb  8b8558ffffff         movl rax,[rbp-0xa8]
0x280b6818bdc1  1801  ba20000000           movl rdx,0x20
0x280b6818bdc6  1806  488b75f0             REX.W movq rsi,[rbp-0x10]
0x280b6818bdca  180a  e8b6a2ffff           call 0x280b68186085  (jump table)
0x280b6818bdcf  180f  8b45d4               movl rax,[rbp-0x2c]
0x280b6818bdd2  1812  8b4d90               movl rcx,[rbp-0x70]
0x280b6818bdd5  1815  8b55a4               movl rdx,[rbp-0x5c]
0x280b6818bdd8  1818  899560ffffff         movl [rbp-0xa0],rdx
0x280b6818bdde  181e  8bd1                 movl rdx,rcx
0x280b6818bde0  1820  8b8d60ffffff         movl rcx,[rbp-0xa0]
0x280b6818bde6  1826  488b75f0             REX.W movq rsi,[rbp-0x10]
0x280b6818bdea  182a  e874a2ffff           call 0x280b68186063  (jump table)
0x280b6818bdef  182f  8b45d4               movl rax,[rbp-0x2c]
0x280b6818bdf2  1832  8b4dd0               movl rcx,[rbp-0x30]
0x280b6818bdf5  1835  8b55ac               movl rdx,[rbp-0x54]
0x280b6818bdf8  1838  8b5db4               movl rbx,[rbp-0x4c]
0x280b6818bdfb  183b  81f300000100         xorl rbx,0x10000
0x280b6818be01  1841  448bcb               movl r9,rbx
0x280b6818be04  1844  8bda                 movl rbx,rdx
0x280b6818be06  1846  ba30000000           movl rdx,0x30
0x280b6818be0b  184b  488b75f0             REX.W movq rsi,[rbp-0x10]
0x280b6818be0f  184f  e871a2ffff           call 0x280b68186085  (jump table)
0x280b6818be14  1854  8b45d4               movl rax,[rbp-0x2c]
0x280b6818be17  1857  8b4db0               movl rcx,[rbp-0x50]
0x280b6818be1a  185a  8b5588               movl rdx,[rbp-0x78]
0x280b6818be1d  185d  8bda                 movl rbx,rdx
0x280b6818be1f  185f  ba30000000           movl rdx,0x30
0x280b6818be24  1864  4533c9               xorl r9,r9
0x280b6818be27  1867  488b75f0             REX.W movq rsi,[rbp-0x10]
0x280b6818be2b  186b  e855a2ffff           call 0x280b68186085  (jump table)
0x280b6818be30  1870  8b45d4               movl rax,[rbp-0x2c]
0x280b6818be33  1873  8b4da8               movl rcx,[rbp-0x58]
0x280b6818be36  1876  8b5588               movl rdx,[rbp-0x78]
0x280b6818be39  1879  899560ffffff         movl [rbp-0xa0],rdx
0x280b6818be3f  187f  8bd1                 movl rdx,rcx
0x280b6818be41  1881  8b8d60ffffff         movl rcx,[rbp-0xa0]
0x280b6818be47  1887  488b75f0             REX.W movq rsi,[rbp-0x10]
0x280b6818be4b  188b  e813a2ffff           call 0x280b68186063  (jump table)
0x280b6818be50  1890  8b45d4               movl rax,[rbp-0x2c]
0x280b6818be53  1893  8b4dd0               movl rcx,[rbp-0x30]
0x280b6818be56  1896  8b55ac               movl rdx,[rbp-0x54]
0x280b6818be59  1899  8b5db4               movl rbx,[rbp-0x4c]
0x280b6818be5c  189c  81f300200000         xorl rbx,0x2000
0x280b6818be62  18a2  448bcb               movl r9,rbx
0x280b6818be65  18a5  8bda                 movl rbx,rdx
0x280b6818be67  18a7  ba20000000           movl rdx,0x20
0x280b6818be6c  18ac  488b75f0             REX.W movq rsi,[rbp-0x10]
0x280b6818be70  18b0  e810a2ffff           call 0x280b68186085  (jump table)
0x280b6818be75  18b5  e9d7e7ffff           jmp 0x280b6818a651  <+0x91>
0x280b6818be7a  18ba  8945ac               movl [rbp-0x54],rax
0x280b6818be7d  18bd  894d98               movl [rbp-0x68],rcx
0x280b6818be80  18c0  895d88               movl [rbp-0x78],rbx
0x280b6818be83  18c3  8bce                 movl rcx,rsi
0x280b6818be85  18c5  8bdf                 movl rbx,rdi
0x280b6818be87  18c7  33c0                 xorl rax,rax
0x280b6818be89  18c9  8b7da8               movl rdi,[rbp-0x58]
0x280b6818be8c  18cc  e93b000000           jmp 0x280b6818becc  <+0x190c>
0x280b6818be91  18d1  8b45ac               movl rax,[rbp-0x54]
0x280b6818be94  18d4  b93d000000           movl rcx,0x3d
0x280b6818be99  18d9  894d98               movl [rbp-0x68],rcx
0x280b6818be9c  18dc  8945ac               movl [rbp-0x54],rax
0x280b6818be9f  18df  488b75f0             REX.W movq rsi,[rbp-0x10]
0x280b6818bea3  18e3  e8a2a1ffff           call 0x280b6818604a  (jump table)
0x280b6818bea8  18e8  8b4d98               movl rcx,[rbp-0x68]
0x280b6818beab  18eb  488b75f0             REX.W movq rsi,[rbp-0x10]
0x280b6818beaf  18ef  488b5617             REX.W movq rdx,[rsi+0x17]
0x280b6818beb3  18f3  890c02               movl [rdx+rax*1],rcx
0x280b6818beb6  18f6  8b45ac               movl rax,[rbp-0x54]
0x280b6818beb9  18f9  8b4da8               movl rcx,[rbp-0x58]
0x280b6818bebc  18fc  8945ac               movl [rbp-0x54],rax
0x280b6818bebf  18ff  8bf9                 movl rdi,rcx
0x280b6818bec1  1901  b8ffffffff           movl rax,0xffffffff
0x280b6818bec6  1906  8b4db4               movl rcx,[rbp-0x4c]
0x280b6818bec9  1909  8b5dd0               movl rbx,[rbp-0x30]
0x280b6818becc  190c  8b55b8               movl rdx,[rbp-0x48]
0x280b6818becf  190f  83c250               addl rdx,0x50
0x280b6818bed2  1912  4c8b4df0             REX.W movq r9,[rbp-0x10]
0x280b6818bed6  1916  498b7147             REX.W movq rsi,[r9+0x47]
0x280b6818beda  191a  8916                 movl [rsi],rdx
0x280b6818bedc  191c  488be5               REX.W movq rsp,rbp
0x280b6818bedf  191f  5d                   pop rbp
0x280b6818bee0  1920  c21000               ret 0x10
0x280b6818bee3  1923  51                   push rcx
0x280b6818bee4  1924  52                   push rdx
0x280b6818bee5  1925  53                   push rbx
0x280b6818bee6  1926  56                   push rsi
0x280b6818bee7  1927  57                   push rdi
0x280b6818bee8  1928  4151                 push r9
0x280b6818beea  192a  e881a4ffff           call 0x280b68186370  (jump table)
0x280b6818beef  192f  4159                 pop r9
0x280b6818bef1  1931  5f                   pop rdi
0x280b6818bef2  1932  5e                   pop rsi
0x280b6818bef3  1933  5b                   pop rbx
0x280b6818bef4  1934  5a                   pop rdx
0x280b6818bef5  1935  59                   pop rcx
0x280b6818bef6  1936  e903e7ffff           jmp 0x280b6818a5fe  <+0x3e>
0x280b6818befb  193b  e810a2ffff           call 0x280b68186110  (jump table)
0x280b6818bf00  1940  e86ba4ffff           call 0x280b68186370  (jump table)
0x280b6818bf05  1945  488b75f0             REX.W movq rsi,[rbp-0x10]
0x280b6818bf09  1949  e954e7ffff           jmp 0x280b6818a662  <+0xa2>
0x280b6818bf0e  194e  e8fda1ffff           call 0x280b68186110  (jump table)
0x280b6818bf13  1953  e8f8a1ffff           call 0x280b68186110  (jump table)
0x280b6818bf18  1958  52                   push rdx
0x280b6818bf19  1959  e852a4ffff           call 0x280b68186370  (jump table)
0x280b6818bf1e  195e  5a                   pop rdx
0x280b6818bf1f  195f  488b75f0             REX.W movq rsi,[rbp-0x10]
0x280b6818bf23  1963  e98ce7ffff           jmp 0x280b6818a6b4  <+0xf4>
0x280b6818bf28  1968  52                   push rdx
0x280b6818bf29  1969  e842a4ffff           call 0x280b68186370  (jump table)
0x280b6818bf2e  196e  5a                   pop rdx
0x280b6818bf2f  196f  488b75f0             REX.W movq rsi,[rbp-0x10]
0x280b6818bf33  1973  e9b5e7ffff           jmp 0x280b6818a6ed  <+0x12d>
0x280b6818bf38  1978  e8d3a1ffff           call 0x280b68186110  (jump table)
0x280b6818bf3d  197d  e8cea1ffff           call 0x280b68186110  (jump table)
0x280b6818bf42  1982  e8c9a1ffff           call 0x280b68186110  (jump table)
0x280b6818bf47  1987  e8c4a1ffff           call 0x280b68186110  (jump table)
0x280b6818bf4c  198c  e8bfa1ffff           call 0x280b68186110  (jump table)
0x280b6818bf51  1991  e8baa1ffff           call 0x280b68186110  (jump table)
0x280b6818bf56  1996  e8b5a1ffff           call 0x280b68186110  (jump table)
0x280b6818bf5b  199b  e8b0a1ffff           call 0x280b68186110  (jump table)
0x280b6818bf60  19a0  e8aba1ffff           call 0x280b68186110  (jump table)
0x280b6818bf65  19a5  e8a6a1ffff           call 0x280b68186110  (jump table)
0x280b6818bf6a  19aa  52                   push rdx
0x280b6818bf6b  19ab  e800a4ffff           call 0x280b68186370  (jump table)
0x280b6818bf70  19b0  5a                   pop rdx
0x280b6818bf71  19b1  488b75f0             REX.W movq rsi,[rbp-0x10]
0x280b6818bf75  19b5  e938e9ffff           jmp 0x280b6818a8b2  <+0x2f2>
0x280b6818bf7a  19ba  e891a1ffff           call 0x280b68186110  (jump table)
0x280b6818bf7f  19bf  e88ca1ffff           call 0x280b68186110  (jump table)
0x280b6818bf84  19c4  e887a1ffff           call 0x280b68186110  (jump table)
0x280b6818bf89  19c9  e882a1ffff           call 0x280b68186110  (jump table)
0x280b6818bf8e  19ce  e87da1ffff           call 0x280b68186110  (jump table)
0x280b6818bf93  19d3  e878a1ffff           call 0x280b68186110  (jump table)
0x280b6818bf98  19d8  e873a1ffff           call 0x280b68186110  (jump table)
0x280b6818bf9d  19dd  e86ea1ffff           call 0x280b68186110  (jump table)
0x280b6818bfa2  19e2  e869a1ffff           call 0x280b68186110  (jump table)
0x280b6818bfa7  19e7  e864a1ffff           call 0x280b68186110  (jump table)
0x280b6818bfac  19ec  e85fa1ffff           call 0x280b68186110  (jump table)
0x280b6818bfb1  19f1  e85aa1ffff           call 0x280b68186110  (jump table)
0x280b6818bfb6  19f6  e855a1ffff           call 0x280b68186110  (jump table)
0x280b6818bfbb  19fb  e850a1ffff           call 0x280b68186110  (jump table)
0x280b6818bfc0  1a00  e84ba1ffff           call 0x280b68186110  (jump table)
0x280b6818bfc5  1a05  e846a1ffff           call 0x280b68186110  (jump table)
0x280b6818bfca  1a0a  e841a1ffff           call 0x280b68186110  (jump table)
0x280b6818bfcf  1a0f  e83ca1ffff           call 0x280b68186110  (jump table)
0x280b6818bfd4  1a14  e837a1ffff           call 0x280b68186110  (jump table)
0x280b6818bfd9  1a19  e832a1ffff           call 0x280b68186110  (jump table)
0x280b6818bfde  1a1e  e82da1ffff           call 0x280b68186110  (jump table)
0x280b6818bfe3  1a23  e828a1ffff           call 0x280b68186110  (jump table)
0x280b6818bfe8  1a28  e823a1ffff           call 0x280b68186110  (jump table)
0x280b6818bfed  1a2d  e81ea1ffff           call 0x280b68186110  (jump table)
0x280b6818bff2  1a32  e819a1ffff           call 0x280b68186110  (jump table)
0x280b6818bff7  1a37  e814a1ffff           call 0x280b68186110  (jump table)
0x280b6818bffc  1a3c  e80fa1ffff           call 0x280b68186110  (jump table)
0x280b6818c001  1a41  e80aa1ffff           call 0x280b68186110  (jump table)
0x280b6818c006  1a46  e805a1ffff           call 0x280b68186110  (jump table)
0x280b6818c00b  1a4b  e800a1ffff           call 0x280b68186110  (jump table)
0x280b6818c010  1a50  e8fba0ffff           call 0x280b68186110  (jump table)
0x280b6818c015  1a55  e856a3ffff           call 0x280b68186370  (jump table)
0x280b6818c01a  1a5a  488b75f0             REX.W movq rsi,[rbp-0x10]
0x280b6818c01e  1a5e  e975ecffff           jmp 0x280b6818ac98  <+0x6d8>
0x280b6818c023  1a63  e8e8a0ffff           call 0x280b68186110  (jump table)
0x280b6818c028  1a68  e8e3a0ffff           call 0x280b68186110  (jump table)
0x280b6818c02d  1a6d  e8dea0ffff           call 0x280b68186110  (jump table)
0x280b6818c032  1a72  e8d9a0ffff           call 0x280b68186110  (jump table)
0x280b6818c037  1a77  e8d4a0ffff           call 0x280b68186110  (jump table)
0x280b6818c03c  1a7c  e8cfa0ffff           call 0x280b68186110  (jump table)
0x280b6818c041  1a81  e8caa0ffff           call 0x280b68186110  (jump table)
0x280b6818c046  1a86  e8c5a0ffff           call 0x280b68186110  (jump table)
0x280b6818c04b  1a8b  e8c0a0ffff           call 0x280b68186110  (jump table)
0x280b6818c050  1a90  e8bba0ffff           call 0x280b68186110  (jump table)
0x280b6818c055  1a95  e8b6a0ffff           call 0x280b68186110  (jump table)
0x280b6818c05a  1a9a  e8b1a0ffff           call 0x280b68186110  (jump table)
0x280b6818c05f  1a9f  e8aca0ffff           call 0x280b68186110  (jump table)
0x280b6818c064  1aa4  e8a7a0ffff           call 0x280b68186110  (jump table)
0x280b6818c069  1aa9  e8a2a0ffff           call 0x280b68186110  (jump table)
0x280b6818c06e  1aae  e89da0ffff           call 0x280b68186110  (jump table)
0x280b6818c073  1ab3  e898a0ffff           call 0x280b68186110  (jump table)
0x280b6818c078  1ab8  e893a0ffff           call 0x280b68186110  (jump table)
0x280b6818c07d  1abd  e88ea0ffff           call 0x280b68186110  (jump table)
0x280b6818c082  1ac2  e889a0ffff           call 0x280b68186110  (jump table)
0x280b6818c087  1ac7  e884a0ffff           call 0x280b68186110  (jump table)
0x280b6818c08c  1acc  e87fa0ffff           call 0x280b68186110  (jump table)
0x280b6818c091  1ad1  e87aa0ffff           call 0x280b68186110  (jump table)
0x280b6818c096  1ad6  e875a0ffff           call 0x280b68186110  (jump table)
0x280b6818c09b  1adb  e870a0ffff           call 0x280b68186110  (jump table)
0x280b6818c0a0  1ae0  e86ba0ffff           call 0x280b68186110  (jump table)
0x280b6818c0a5  1ae5  e866a0ffff           call 0x280b68186110  (jump table)
0x280b6818c0aa  1aea  e861a0ffff           call 0x280b68186110  (jump table)
0x280b6818c0af  1aef  e85ca0ffff           call 0x280b68186110  (jump table)
0x280b6818c0b4  1af4  e857a0ffff           call 0x280b68186110  (jump table)
0x280b6818c0b9  1af9  e852a0ffff           call 0x280b68186110  (jump table)
0x280b6818c0be  1afe  e84da0ffff           call 0x280b68186110  (jump table)
0x280b6818c0c3  1b03  e848a0ffff           call 0x280b68186110  (jump table)
0x280b6818c0c8  1b08  e843a0ffff           call 0x280b68186110  (jump table)
0x280b6818c0cd  1b0d  e83ea0ffff           call 0x280b68186110  (jump table)
0x280b6818c0d2  1b12  e839a0ffff           call 0x280b68186110  (jump table)
0x280b6818c0d7  1b17  e834a0ffff           call 0x280b68186110  (jump table)
0x280b6818c0dc  1b1c  e88fa2ffff           call 0x280b68186370  (jump table)
0x280b6818c0e1  1b21  488b75f0             REX.W movq rsi,[rbp-0x10]
0x280b6818c0e5  1b25  e995f7ffff           jmp 0x280b6818b87f  <+0x12bf>
0x280b6818c0ea  1b2a  e821a0ffff           call 0x280b68186110  (jump table)
0x280b6818c0ef  1b2f  e81ca0ffff           call 0x280b68186110  (jump table)
0x280b6818c0f4  1b34  51                   push rcx
0x280b6818c0f5  1b35  e876a2ffff           call 0x280b68186370  (jump table)
0x280b6818c0fa  1b3a  59                   pop rcx
0x280b6818c0fb  1b3b  488b75f0             REX.W movq rsi,[rbp-0x10]
0x280b6818c0ff  1b3f  e990f8ffff           jmp 0x280b6818b994  <+0x13d4>
0x280b6818c104  1b44  e807a0ffff           call 0x280b68186110  (jump table)
0x280b6818c109  1b49  e802a0ffff           call 0x280b68186110  (jump table)
0x280b6818c10e  1b4e  e88da0ffff           call 0x280b681861a0  (jump table)
0x280b6818c113  1b53  e858a0ffff           call 0x280b68186170  (jump table)
0x280b6818c118  1b58  e8f39fffff           call 0x280b68186110  (jump table)
0x280b6818c11d  1b5d  e8ee9fffff           call 0x280b68186110  (jump table)
0x280b6818c122  1b62  e8e99fffff           call 0x280b68186110  (jump table)
0x280b6818c127  1b67  e8e49fffff           call 0x280b68186110  (jump table)
0x280b6818c12c  1b6c  52                   push rdx
0x280b6818c12d  1b6d  e83ea2ffff           call 0x280b68186370  (jump table)
0x280b6818c132  1b72  5a                   pop rdx
0x280b6818c133  1b73  488b75f0             REX.W movq rsi,[rbp-0x10]
0x280b6818c137  1b77  e9e6faffff           jmp 0x280b6818bc22  <+0x1662>
0x280b6818c13c  1b7c  e8cf9fffff           call 0x280b68186110  (jump table)
0x280b6818c141  1b81  52                   push rdx
0x280b6818c142  1b82  e829a2ffff           call 0x280b68186370  (jump table)
0x280b6818c147  1b87  5a                   pop rdx
0x280b6818c148  1b88  488b75f0             REX.W movq rsi,[rbp-0x10]
0x280b6818c14c  1b8c  e96efbffff           jmp 0x280b6818bcbf  <+0x16ff>
0x280b6818c151  1b91  e8ba9fffff           call 0x280b68186110  (jump table)
0x280b6818c156  1b96  e8b59fffff           call 0x280b68186110  (jump table)
0x280b6818c15b  1b9b  90                   nop

Protected instructions:
 pc offset  land pad
        64      193b
        cb      194e
        cf      1953
       130      1978
       14f      197d
       15c      1982
       207      1987
       20b      198c
       22c      1991
       247      1996
       25c      199b
       280      19a0
       285      19a5
       2fb      19ba
       30a      19bf
       3ac      19c4
       3e4      19c9
       3e8      19ce
       3fe      19d3
       417      19d8
       41a      19dd
       42e      19e2
       467      19e7
       46d      19ec
       470      19f1
       48c      19f6
       4a6      19fb
       510      1a00
       52c      1a05
       554      1a0a
       565      1a0f
       59e      1a14
       5a2      1a19
       5b8      1a1e
       5d1      1a23
       5d4      1a28
       5e8      1a2d
       61c      1a32
       622      1a37
       625      1a3c
       63d      1a41
       658      1a46
       67e      1a4b
       6a8      1a50
       6e2      1a63
       709      1a68
       710      1a6d
       721      1a72
       78c      1a77
       7aa      1a7c
       7ae      1a81
       80b      1a86
       889      1a8b
       c02      1a90
       cf3      1a95
       cfc      1a9a
       d23      1a9f
       d2c      1aa4
       d53      1aa9
       d5f      1aae
       d86      1ab3
       d8f      1ab8
       db7      1abd
       dc0      1ac2
       de7      1ac7
       df0      1acc
       e17      1ad1
       e23      1ad6
       e83      1adb
       ec4      1ae0
       f1f      1ae5
       f90      1aea
       fbd      1aef
      1093      1af4
      1141      1af9
      11c3      1afe
      1210      1b03
      1259      1b08
      126b      1b0d
      1277      1b12
      1287      1b17
      12c6      1b2a
      13b9      1b2f
      13d7      1b44
      14fa      1b49
      15c0      1b58
      15c5      1b5d
      15f6      1b62
      15fd      1b67
      166d      1b7c
      170a      1b91
      18f3      1b96

Source positions:
 pc offset  position
       1d0       246  statement
       21c       272  statement
       3c7       458  statement
       4ef       615  statement
       581       676  statement
       698       819  statement
       7fb       976  statement
       eb4      1353  statement
       f3e      1398  statement
      1042      1506  statement
      1181      1621  statement
      123c      1692  statement
      12e3      1763  statement
      1397      1833  statement
      13fa      1877  statement
      1437      1900  statement
      148a      1933  statement
      1582      1983  statement
      1696      2093  statement
      180a      2230  statement
      182a      2238  statement
      184f      2255  statement
      186b      2267  statement
      188b      2275  statement
      18b0      2292  statement
      18e3      2310  statement
      192a         0  statement
      193b        51  statement
      1940        80  statement
      194e       105  statement
      1953       122  statement
      1959       129  statement
      1969       164  statement
      1978       168  statement
      197d       185  statement
      1982       197  statement
      1987       266  statement
      198c       269  statement
      1991       278  statement
      1996       292  statement
      199b       302  statement
      19a0       328  statement
      19a5       339  statement
      19ab       380  statement
      19ba       391  statement
      19bf       403  statement
      19c4       455  statement
      19c9       465  statement
      19ce       470  statement
      19d3       480  statement
      19d8       495  statement
      19dd       500  statement
      19e2       513  statement
      19e7       550  statement
      19ec       558  statement
      19f1       563  statement
      19f6       571  statement
      19fb       580  statement
      1a00       626  statement
      1a05       646  statement
      1a0a       657  statement
      1a0f       673  statement
      1a14       683  statement
      1a19       688  statement
      1a1e       698  statement
      1a23       713  statement
      1a28       718  statement
      1a2d       731  statement
      1a32       756  statement
      1a37       764  statement
      1a3c       769  statement
      1a41       780  statement
      1a46       789  statement
      1a4b       810  statement
      1a50       825  statement
      1a55       835  statement
      1a63       847  statement
      1a68       868  statement
      1a6d       873  statement
      1a72       890  statement
      1a77       938  statement
      1a7c       951  statement
      1a81       954  statement
      1a86       980  statement
      1a8b      1077  statement
      1a90      1176  statement
      1a95      1225  statement
      1a9a      1230  statement
      1a9f      1238  statement
      1aa4      1243  statement
      1aa9      1251  statement
      1aae      1257  statement
      1ab3      1265  statement
      1ab8      1270  statement
      1abd      1278  statement
      1ac2      1283  statement
      1ac7      1291  statement
      1acc      1296  statement
      1ad1      1304  statement
      1ad6      1310  statement
      1adb      1343  statement
      1ae0      1359  statement
      1ae5      1393  statement
      1aea      1435  statement
      1aef      1454  statement
      1af4      1541  statement
      1af9      1594  statement
      1afe      1658  statement
      1b03      1672  statement
      1b08      1701  statement
      1b0d      1708  statement
      1b12      1711  statement
      1b17      1721  statement
      1b1c      1742  statement
      1b2a      1746  statement
      1b2f      1853  statement
      1b35      1858  statement
      1b44      1862  statement
      1b49      1970  statement
      1b4e      1983  statement
      1b53      1983  statement
      1b58      2000  statement
      1b5d      2003  statement
      1b62      2030  statement
      1b67      2035  statement
      1b6d      2062  statement
      1b7c      2072  statement
      1b82      2126  statement
      1b91      2136  statement
      1b96      2314  statement

Safepoints (entries = 1, byte size = 14)
0x280b6818a795    1d5  slots (sp->fp): 00000000000000000000000000000000

RelocInfo (size = 0)

--- End code ---
--- WebAssembly code ---
name: wasm-to-js:iii:i-emscripten_memcpy_big
index: 2
kind: wasm-to-js
Body (size = 512 = 460 + 52 padding)
Instructions (size = 432)
0x280b6818c540     0  55                   push rbp
0x280b6818c541     1  4889e5               REX.W movq rbp,rsp
0x280b6818c544     4  6a0a                 push 0xa
0x280b6818c546     6  56                   push rsi
0x280b6818c547     7  4883ec48             REX.W subq rsp,0x48
0x280b6818c54b     b  8b5e0b               movl rbx,[rsi+0xb]
0x280b6818c54e     e  4903de               REX.W addq rbx,r14
0x280b6818c551    11  8b7e0f               movl rdi,[rsi+0xf]
0x280b6818c554    14  4903fe               REX.W addq rdi,r14
0x280b6818c557    17  4c8b4603             REX.W movq r8,[rsi+0x3]
0x280b6818c55b    1b  4c8b4e03             REX.W movq r9,[rsi+0x3]
0x280b6818c55f    1f  4d8b8948450000       REX.W movq r9,[r9+0x4548]
0x280b6818c566    26  41c70100000000       movl [r9],0x0
0x280b6818c56d    2d  448b4f0f             movl r9,[rdi+0xf]
0x280b6818c571    31  4d03ce               REX.W addq r9,r14
0x280b6818c574    34  448b5f0b             movl r11,[rdi+0xb]
0x280b6818c578    38  4d03de               REX.W addq r11,r14
0x280b6818c57b    3b  4d8b8070010000       REX.W movq r8,[r8+0x170]
0x280b6818c582    42  488975e8             REX.W movq [rbp-0x18],rsi
0x280b6818c586    46  48895de0             REX.W movq [rbp-0x20],rbx
0x280b6818c58a    4a  41f6431b60           testb [r11+0x1b],0x60
0x280b6818c58f    4f  0f850c000000         jnz 0x280b6818c5a1  <+0x61>
0x280b6818c595    55  448b5b13             movl r11,[rbx+0x13]
0x280b6818c599    59  4d03de               REX.W addq r11,r14
0x280b6818c59c    5c  e903000000           jmp 0x280b6818c5a4  <+0x64>
0x280b6818c5a1    61  4d8bd8               REX.W movq r11,r8
0x280b6818c5a4    64  4c8be0               REX.W movq r12,rax
0x280b6818c5a7    67  4403e0               addl r12,rax
0x280b6818c5aa    6a  0f8062000000         jo 0x280b6818c612  <+0xd2>
0x280b6818c5b0    70  4d63e4               REX.W movsxlq r12,r12
0x280b6818c5b3    73  4c8bfa               REX.W movq r15,rdx
0x280b6818c5b6    76  4403fa               addl r15,rdx
0x280b6818c5b9    79  0f8098000000         jo 0x280b6818c657  <+0x117>
0x280b6818c5bf    7f  4d63ff               REX.W movsxlq r15,r15
0x280b6818c5c2    82  488bc1               REX.W movq rax,rcx
0x280b6818c5c5    85  03c1                 addl rax,rcx
0x280b6818c5c7    87  0f80d2000000         jo 0x280b6818c69f  <+0x15f>
0x280b6818c5cd    8d  4863c8               REX.W movsxlq rcx,rax
0x280b6818c5d0    90  51                   push rcx
0x280b6818c5d1    91  4157                 push r15
0x280b6818c5d3    93  4154                 push r12
0x280b6818c5d5    95  4153                 push r11
0x280b6818c5d7    97  b804000000           movl rax,0x4
0x280b6818c5dc    9c  498bd0               REX.W movq rdx,r8
0x280b6818c5df    9f  498bf1               REX.W movq rsi,r9
0x280b6818c5e2    a2  8b4f17               movl rcx,[rdi+0x17]
0x280b6818c5e5    a5  4903ce               REX.W addq rcx,r14
0x280b6818c5e8    a8  488b490f             REX.W movq rcx,[rcx+0xf]
0x280b6818c5ec    ac  ffd1                 call rcx
0x280b6818c5ee    ae  a801                 test al,0x1
0x280b6818c5f0    b0  0f85e9000000         jnz 0x280b6818c6df  <+0x19f>
0x280b6818c5f6    b6  d1f8                 sarl rax, 1
0x280b6818c5f8    b8  488b5de8             REX.W movq rbx,[rbp-0x18]
0x280b6818c5fc    bc  488b5b03             REX.W movq rbx,[rbx+0x3]
0x280b6818c600    c0  488b9b48450000       REX.W movq rbx,[rbx+0x4548]
0x280b6818c607    c7  c70301000000         movl [rbx],0x1
0x280b6818c60d    cd  488be5               REX.W movq rsp,rbp
0x280b6818c610    d0  5d                   pop rbp
0x280b6818c611    d1  c3                   retl
0x280b6818c612    d2  48897dd8             REX.W movq [rbp-0x28],rdi
0x280b6818c616    d6  4c895dd0             REX.W movq [rbp-0x30],r11
0x280b6818c61a    da  4c8945b8             REX.W movq [rbp-0x48],r8
0x280b6818c61e    de  4c894db0             REX.W movq [rbp-0x50],r9
0x280b6818c622    e2  48894da8             REX.W movq [rbp-0x58],rcx
0x280b6818c626    e6  488955c0             REX.W movq [rbp-0x40],rdx
0x280b6818c62a    ea  e8019cffff           call 0x280b68186230  (jump table)    ;; wasm stub: WasmInt32ToHeapNumber
0x280b6818c62f    ef  4c8be0               REX.W movq r12,rax
0x280b6818c632    f2  488b75e8             REX.W movq rsi,[rbp-0x18]
0x280b6818c636    f6  488b5de0             REX.W movq rbx,[rbp-0x20]
0x280b6818c63a    fa  488b7dd8             REX.W movq rdi,[rbp-0x28]
0x280b6818c63e    fe  4c8b5dd0             REX.W movq r11,[rbp-0x30]
0x280b6818c642   102  4c8b45b8             REX.W movq r8,[rbp-0x48]
0x280b6818c646   106  4c8b4db0             REX.W movq r9,[rbp-0x50]
0x280b6818c64a   10a  488b4da8             REX.W movq rcx,[rbp-0x58]
0x280b6818c64e   10e  488b55c0             REX.W movq rdx,[rbp-0x40]
0x280b6818c652   112  e95cffffff           jmp 0x280b6818c5b3  <+0x73>
0x280b6818c657   117  48897dd8             REX.W movq [rbp-0x28],rdi
0x280b6818c65b   11b  4c895dd0             REX.W movq [rbp-0x30],r11
0x280b6818c65f   11f  4c8965c8             REX.W movq [rbp-0x38],r12
0x280b6818c663   123  4c8945b8             REX.W movq [rbp-0x48],r8
0x280b6818c667   127  4c894db0             REX.W movq [rbp-0x50],r9
0x280b6818c66b   12b  48894da8             REX.W movq [rbp-0x58],rcx
0x280b6818c66f   12f  488bc2               REX.W movq rax,rdx
0x280b6818c672   132  e8b99bffff           call 0x280b68186230  (jump table)    ;; wasm stub: WasmInt32ToHeapNumber
0x280b6818c677   137  4c8bf8               REX.W movq r15,rax
0x280b6818c67a   13a  488b75e8             REX.W movq rsi,[rbp-0x18]
0x280b6818c67e   13e  488b5de0             REX.W movq rbx,[rbp-0x20]
0x280b6818c682   142  488b7dd8             REX.W movq rdi,[rbp-0x28]
0x280b6818c686   146  4c8b5dd0             REX.W movq r11,[rbp-0x30]
0x280b6818c68a   14a  4c8b65c8             REX.W movq r12,[rbp-0x38]
0x280b6818c68e   14e  4c8b45b8             REX.W movq r8,[rbp-0x48]
0x280b6818c692   152  4c8b4db0             REX.W movq r9,[rbp-0x50]
0x280b6818c696   156  488b4da8             REX.W movq rcx,[rbp-0x58]
0x280b6818c69a   15a  e923ffffff           jmp 0x280b6818c5c2  <+0x82>
0x280b6818c69f   15f  48897dd8             REX.W movq [rbp-0x28],rdi
0x280b6818c6a3   163  4c895dd0             REX.W movq [rbp-0x30],r11
0x280b6818c6a7   167  4c8965c8             REX.W movq [rbp-0x38],r12
0x280b6818c6ab   16b  4c897dc0             REX.W movq [rbp-0x40],r15
0x280b6818c6af   16f  4c8945b8             REX.W movq [rbp-0x48],r8
0x280b6818c6b3   173  4c894db0             REX.W movq [rbp-0x50],r9
0x280b6818c6b7   177  488bc1               REX.W movq rax,rcx
0x280b6818c6ba   17a  e8719bffff           call 0x280b68186230  (jump table)    ;; wasm stub: WasmInt32ToHeapNumber
0x280b6818c6bf   17f  488bc8               REX.W movq rcx,rax
0x280b6818c6c2   182  488b7dd8             REX.W movq rdi,[rbp-0x28]
0x280b6818c6c6   186  4c8b5dd0             REX.W movq r11,[rbp-0x30]
0x280b6818c6ca   18a  4c8b65c8             REX.W movq r12,[rbp-0x38]
0x280b6818c6ce   18e  4c8b7dc0             REX.W movq r15,[rbp-0x40]
0x280b6818c6d2   192  4c8b45b8             REX.W movq r8,[rbp-0x48]
0x280b6818c6d6   196  4c8b4db0             REX.W movq r9,[rbp-0x50]
0x280b6818c6da   19a  e9f1feffff           jmp 0x280b6818c5d0  <+0x90>
0x280b6818c6df   19f  488b75e0             REX.W movq rsi,[rbp-0x20]
0x280b6818c6e3   1a3  e8589bffff           call 0x280b68186240  (jump table)    ;; wasm stub: WasmTaggedNonSmiToInt32
0x280b6818c6e8   1a8  e90bffffff           jmp 0x280b6818c5f8  <+0xb8>
0x280b6818c6ed   1ad  90                   nop
0x280b6818c6ee   1ae  6690                 nop

Safepoints (entries = 5, byte size = 28)
0x280b6818c5ee     ae  slots (sp->fp): 0000000110000000
0x280b6818c62f     ef  slots (sp->fp): 0100011110000000
0x280b6818c677    137  slots (sp->fp): 0100111110000000
0x280b6818c6bf    17f  slots (sp->fp): 0101111110000000
0x280b6818c6e8    1a8  slots (sp->fp): 0000000010000000

RelocInfo (size = 10)
0x280b6818c62b  wasm stub call
0x280b6818c673  wasm stub call
0x280b6818c6bb  wasm stub call
0x280b6818c6e4  wasm stub call

--- End code ---
--- WebAssembly code ---
name: wasm-to-js:ii:i-gettimeofday
index: 0
kind: wasm-to-js
Body (size = 384 = 348 + 36 padding)
Instructions (size = 328)
0x280b6818c740     0  55                   push rbp
0x280b6818c741     1  4889e5               REX.W movq rbp,rsp
0x280b6818c744     4  6a0a                 push 0xa
0x280b6818c746     6  56                   push rsi
0x280b6818c747     7  4883ec40             REX.W subq rsp,0x40
0x280b6818c74b     b  8b5e0b               movl rbx,[rsi+0xb]
0x280b6818c74e     e  4903de               REX.W addq rbx,r14
0x280b6818c751    11  8b7e0f               movl rdi,[rsi+0xf]
0x280b6818c754    14  4903fe               REX.W addq rdi,r14
0x280b6818c757    17  488b4e03             REX.W movq rcx,[rsi+0x3]
0x280b6818c75b    1b  4c8b4603             REX.W movq r8,[rsi+0x3]
0x280b6818c75f    1f  4d8b8048450000       REX.W movq r8,[r8+0x4548]
0x280b6818c766    26  41c70000000000       movl [r8],0x0
0x280b6818c76d    2d  448b470f             movl r8,[rdi+0xf]
0x280b6818c771    31  4d03c6               REX.W addq r8,r14
0x280b6818c774    34  448b4f0b             movl r9,[rdi+0xb]
0x280b6818c778    38  4d03ce               REX.W addq r9,r14
0x280b6818c77b    3b  488b8970010000       REX.W movq rcx,[rcx+0x170]
0x280b6818c782    42  488975e8             REX.W movq [rbp-0x18],rsi
0x280b6818c786    46  48895de0             REX.W movq [rbp-0x20],rbx
0x280b6818c78a    4a  41f6411b60           testb [r9+0x1b],0x60
0x280b6818c78f    4f  0f850c000000         jnz 0x280b6818c7a1  <+0x61>
0x280b6818c795    55  448b4b13             movl r9,[rbx+0x13]
0x280b6818c799    59  4d03ce               REX.W addq r9,r14
0x280b6818c79c    5c  e903000000           jmp 0x280b6818c7a4  <+0x64>
0x280b6818c7a1    61  4c8bc9               REX.W movq r9,rcx
0x280b6818c7a4    64  4c8bd8               REX.W movq r11,rax
0x280b6818c7a7    67  4403d8               addl r11,rax
0x280b6818c7aa    6a  0f8053000000         jo 0x280b6818c803  <+0xc3>
0x280b6818c7b0    70  4d63db               REX.W movsxlq r11,r11
0x280b6818c7b3    73  4c8be2               REX.W movq r12,rdx
0x280b6818c7b6    76  4403e2               addl r12,rdx
0x280b6818c7b9    79  0f8081000000         jo 0x280b6818c840  <+0x100>
0x280b6818c7bf    7f  4d63e4               REX.W movsxlq r12,r12
0x280b6818c7c2    82  4154                 push r12
0x280b6818c7c4    84  4153                 push r11
0x280b6818c7c6    86  4151                 push r9
0x280b6818c7c8    88  b803000000           movl rax,0x3
0x280b6818c7cd    8d  488bd1               REX.W movq rdx,rcx
0x280b6818c7d0    90  498bf0               REX.W movq rsi,r8
0x280b6818c7d3    93  8b4f17               movl rcx,[rdi+0x17]
0x280b6818c7d6    96  4903ce               REX.W addq rcx,r14
0x280b6818c7d9    99  488b490f             REX.W movq rcx,[rcx+0xf]
0x280b6818c7dd    9d  ffd1                 call rcx
0x280b6818c7df    9f  a801                 test al,0x1
0x280b6818c7e1    a1  0f8591000000         jnz 0x280b6818c878  <+0x138>
0x280b6818c7e7    a7  d1f8                 sarl rax, 1
0x280b6818c7e9    a9  488b5de8             REX.W movq rbx,[rbp-0x18]
0x280b6818c7ed    ad  488b5b03             REX.W movq rbx,[rbx+0x3]
0x280b6818c7f1    b1  488b9b48450000       REX.W movq rbx,[rbx+0x4548]
0x280b6818c7f8    b8  c70301000000         movl [rbx],0x1
0x280b6818c7fe    be  488be5               REX.W movq rsp,rbp
0x280b6818c801    c1  5d                   pop rbp
0x280b6818c802    c2  c3                   retl
0x280b6818c803    c3  48897dd8             REX.W movq [rbp-0x28],rdi
0x280b6818c807    c7  4c894dd0             REX.W movq [rbp-0x30],r9
0x280b6818c80b    cb  48894dc0             REX.W movq [rbp-0x40],rcx
0x280b6818c80f    cf  4c8945b8             REX.W movq [rbp-0x48],r8
0x280b6818c813    d3  488955b0             REX.W movq [rbp-0x50],rdx
0x280b6818c817    d7  e8149affff           call 0x280b68186230  (jump table)    ;; wasm stub: WasmInt32ToHeapNumber
0x280b6818c81c    dc  4c8bd8               REX.W movq r11,rax
0x280b6818c81f    df  488b75e8             REX.W movq rsi,[rbp-0x18]
0x280b6818c823    e3  488b5de0             REX.W movq rbx,[rbp-0x20]
0x280b6818c827    e7  488b7dd8             REX.W movq rdi,[rbp-0x28]
0x280b6818c82b    eb  4c8b4dd0             REX.W movq r9,[rbp-0x30]
0x280b6818c82f    ef  488b4dc0             REX.W movq rcx,[rbp-0x40]
0x280b6818c833    f3  4c8b45b8             REX.W movq r8,[rbp-0x48]
0x280b6818c837    f7  488b55b0             REX.W movq rdx,[rbp-0x50]
0x280b6818c83b    fb  e973ffffff           jmp 0x280b6818c7b3  <+0x73>
0x280b6818c840   100  48897dd8             REX.W movq [rbp-0x28],rdi
0x280b6818c844   104  4c894dd0             REX.W movq [rbp-0x30],r9
0x280b6818c848   108  4c895dc8             REX.W movq [rbp-0x38],r11
0x280b6818c84c   10c  48894dc0             REX.W movq [rbp-0x40],rcx
0x280b6818c850   110  4c8945b8             REX.W movq [rbp-0x48],r8
0x280b6818c854   114  488bc2               REX.W movq rax,rdx
0x280b6818c857   117  e8d499ffff           call 0x280b68186230  (jump table)    ;; wasm stub: WasmInt32ToHeapNumber
0x280b6818c85c   11c  4c8be0               REX.W movq r12,rax
0x280b6818c85f   11f  488b7dd8             REX.W movq rdi,[rbp-0x28]
0x280b6818c863   123  4c8b4dd0             REX.W movq r9,[rbp-0x30]
0x280b6818c867   127  4c8b5dc8             REX.W movq r11,[rbp-0x38]
0x280b6818c86b   12b  488b4dc0             REX.W movq rcx,[rbp-0x40]
0x280b6818c86f   12f  4c8b45b8             REX.W movq r8,[rbp-0x48]
0x280b6818c873   133  e94affffff           jmp 0x280b6818c7c2  <+0x82>
0x280b6818c878   138  488b75e0             REX.W movq rsi,[rbp-0x20]
0x280b6818c87c   13c  e8bf99ffff           call 0x280b68186240  (jump table)    ;; wasm stub: WasmTaggedNonSmiToInt32
0x280b6818c881   141  e963ffffff           jmp 0x280b6818c7e9  <+0xa9>
0x280b6818c886   146  90                   nop
0x280b6818c887   147  90                   nop

Safepoints (entries = 4, byte size = 20)
0x280b6818c7df     9f  slots (sp->fp): 00000011
0x280b6818c81c     dc  slots (sp->fp): 01001111
0x280b6818c85c    11c  slots (sp->fp): 01011111
0x280b6818c881    141  slots (sp->fp): 00000001

RelocInfo (size = 7)
0x280b6818c818  wasm stub call
0x280b6818c858  wasm stub call
0x280b6818c87d  wasm stub call

--- End code ---
--- WebAssembly code ---
name: fmt_x
index: 26
kind: wasm function
compiler: Liftoff
Body (size = 256 = 244 + 12 padding)
Instructions (size = 232)
0x280b6818f3c0     0  55                   push rbp
0x280b6818f3c1     1  4889e5               REX.W movq rbp,rsp
0x280b6818f3c4     4  6a08                 push 0x8
0x280b6818f3c6     6  56                   push rsi
0x280b6818f3c7     7  4881ec30000000       REX.W subq rsp,0x30
0x280b6818f3ce     e  488b5e27             REX.W movq rbx,[rsi+0x27]
0x280b6818f3d2    12  483b23               REX.W cmpq rsp,[rbx]
0x280b6818f3d5    15  0f869e000000         jna 0x280b6818f479  <+0xb9>
0x280b6818f3db    1b  4885c0               REX.W testq rax,rax
0x280b6818f3de    1e  0f94c3               setzl bl
0x280b6818f3e1    21  0fb6db               movzxbl rbx,rbx
0x280b6818f3e4    24  85db                 testl rbx,rbx
0x280b6818f3e6    26  0f8584000000         jnz 0x280b6818f470  <+0xb0>
0x280b6818f3ec    2c  488945d0             REX.W movq [rbp-0x30],rax
0x280b6818f3f0    30  8955cc               movl [rbp-0x34],rdx
0x280b6818f3f3    33  894dc8               movl [rbp-0x38],rcx
0x280b6818f3f6    36  c745c400000000       movl [rbp-0x3c],0x0
0x280b6818f3fd    3d  488b4627             REX.W movq rax,[rsi+0x27]
0x280b6818f401    41  483b20               REX.W cmpq rsp,[rax]
0x280b6818f404    44  0f8683000000         jna 0x280b6818f48d  <+0xcd>
0x280b6818f40a    4a  8b45cc               movl rax,[rbp-0x34]
0x280b6818f40d    4d  b901000000           movl rcx,0x1
0x280b6818f412    52  2bc1                 subl rax,rcx
0x280b6818f414    54  488b4dd0             REX.W movq rcx,[rbp-0x30]
0x280b6818f418    58  8bc9                 movl rcx,rcx
0x280b6818f41a    5a  83e10f               andl rcx,0xf
0x280b6818f41d    5d  81c1f0050000         addl rcx,0x5f0
0x280b6818f423    63  488b5617             REX.W movq rdx,[rsi+0x17]
0x280b6818f427    67  0fb61c0a             movzxbl rbx,[rdx+rcx*1]
0x280b6818f42b    6b  8b4dc8               movl rcx,[rbp-0x38]
0x280b6818f42e    6e  0bd9                 orl rbx,rcx
0x280b6818f430    70  881c02               movb [rdx+rax*1],bl
0x280b6818f433    73  488b4dd0             REX.W movq rcx,[rbp-0x30]
0x280b6818f437    77  bb0f000000           movl rbx,0xf
0x280b6818f43c    7c  483bcb               REX.W cmpq rcx,rbx
0x280b6818f43f    7f  0f97c1               setal cl
0x280b6818f442    82  0fb6c9               movzxbl rcx,rcx
0x280b6818f445    85  488b5dd0             REX.W movq rbx,[rbp-0x30]
0x280b6818f449    89  48c1eb04             REX.W shrq rbx, 4
0x280b6818f44d    8d  85c9                 testl rcx,rcx
0x280b6818f44f    8f  0f840c000000         jz 0x280b6818f461  <+0xa1>
0x280b6818f455    95  48895dd0             REX.W movq [rbp-0x30],rbx
0x280b6818f459    99  8945cc               movl [rbp-0x34],rax
0x280b6818f45c    9c  894dc4               movl [rbp-0x3c],rcx
0x280b6818f45f    9f  eb9c                 jmp 0x280b6818f3fd  <+0x3d>
0x280b6818f461    a1  8bd0                 movl rdx,rax
0x280b6818f463    a3  488bc3               REX.W movq rax,rbx
0x280b6818f466    a6  8bd9                 movl rbx,rcx
0x280b6818f468    a8  8b4dc8               movl rcx,[rbp-0x38]
0x280b6818f46b    ab  e902000000           jmp 0x280b6818f472  <+0xb2>
0x280b6818f470    b0  33db                 xorl rbx,rbx
0x280b6818f472    b2  8bc2                 movl rax,rdx
0x280b6818f474    b4  488be5               REX.W movq rsp,rbp
0x280b6818f477    b7  5d                   pop rbp
0x280b6818f478    b8  c3                   retl
0x280b6818f479    b9  50                   push rax
0x280b6818f47a    ba  51                   push rcx
0x280b6818f47b    bb  52                   push rdx
0x280b6818f47c    bc  e8ef6effff           call 0x280b68186370  (jump table)
0x280b6818f481    c1  5a                   pop rdx
0x280b6818f482    c2  59                   pop rcx
0x280b6818f483    c3  58                   pop rax
0x280b6818f484    c4  488b75f0             REX.W movq rsi,[rbp-0x10]
0x280b6818f488    c8  e94effffff           jmp 0x280b6818f3db  <+0x1b>
0x280b6818f48d    cd  e8de6effff           call 0x280b68186370  (jump table)
0x280b6818f492    d2  488b75f0             REX.W movq rsi,[rbp-0x10]
0x280b6818f496    d6  e96fffffff           jmp 0x280b6818f40a  <+0x4a>
0x280b6818f49b    db  e8706cffff           call 0x280b68186110  (jump table)
0x280b6818f4a0    e0  e86b6cffff           call 0x280b68186110  (jump table)
0x280b6818f4a5    e5  0f1f00               nop

Protected instructions:
 pc offset  land pad
        67        db
        70        e0

Source positions:
 pc offset  position
        bc         0  statement
        cd         9  statement
        db        28  statement
        e0        34  statement

Safepoints (entries = 1, byte size = 11)
0x280b6818f481     c1  slots (sp->fp): 0000000000000000

RelocInfo (size = 0)

--- End code ---
--- WebAssembly code ---
name: __get_tp
index: 34
kind: wasm function
compiler: TurboFan
Body (size = 64 = 28 + 36 padding)
Instructions (size = 20)
0x280b6818f4c0     0  55                   push rbp
0x280b6818f4c1     1  4889e5               REX.W movq rbp,rsp
0x280b6818f4c4     4  6a08                 push 0x8
0x280b6818f4c6     6  56                   push rsi
0x280b6818f4c7     7  b8d40a0000           movl rax,0xad4
0x280b6818f4cc     c  488be5               REX.W movq rsp,rbp
0x280b6818f4cf     f  5d                   pop rbp
0x280b6818f4d0    10  c3                   retl
0x280b6818f4d1    11  90                   nop
0x280b6818f4d2    12  6690                 nop

Safepoints (entries = 0, byte size = 8)

RelocInfo (size = 0)

--- End code ---
--- WebAssembly code ---
name: shl_simd(unsigned char*, unsigned char*, unsigned int, int)
index: 5
kind: wasm function
compiler: TurboFan
Body (size = 3712 = 3688 + 24 padding)
Instructions (size = 3672)
0x280b6818cb40     0  55                   push rbp
0x280b6818cb41     1  4889e5               REX.W movq rbp,rsp
0x280b6818cb44     4  6a08                 push 0x8
0x280b6818cb46     6  56                   push rsi
0x280b6818cb47     7  4881ece0000000       REX.W subq rsp,0xe0
0x280b6818cb4e     e  4c8b4617             REX.W movq r8,[rsi+0x17]
0x280b6818cb52    12  48895de8             REX.W movq [rbp-0x18],rbx
0x280b6818cb56    16  488945c0             REX.W movq [rbp-0x40],rax
0x280b6818cb5a    1a  488bf9               REX.W movq rdi,rcx
0x280b6818cb5d    1d  48894dd8             REX.W movq [rbp-0x28],rcx
0x280b6818cb61    21  83fb10               cmpl rbx,0x10
0x280b6818cb64    24  0f8cff0a0000         jl 0x280b6818d669  <+0xb29>
0x280b6818cb6a    2a  448d4bf0             leal r9,[rbx-0x10]
0x280b6818cb6e    2e  4d8bd9               REX.W movq r11,r9
0x280b6818cb71    31  41c1eb04             shrl r11, 4
0x280b6818cb75    35  4183c301             addl r11,0x1
0x280b6818cb79    39  4c895dc8             REX.W movq [rbp-0x38],r11
0x280b6818cb7d    3d  4183f930             cmpl r9,0x30
0x280b6818cb81    41  0f8308000000         jnc 0x280b6818cb8f  <+0x4f>
0x280b6818cb87    47  4531e4               xorl r12,r12
0x280b6818cb8a    4a  e9da070000           jmp 0x280b6818d369  <+0x829>
0x280b6818cb8f    4f  4c8b4e27             REX.W movq r9,[rsi+0x27]
0x280b6818cb93    53  4c8be7               REX.W movq r12,rdi
0x280b6818cb96    56  4183e407             andl r12,0x7
0x280b6818cb9a    5a  c441796efc           vmovd xmm15,r12
0x280b6818cb9f    5f  c4c27978c7           vpbroadcastb xmm0,xmm15
0x280b6818cba4    64  c4c37914c400         vpextrb r12l,xmm0,0x0
0x280b6818cbaa    6a  c4c37914c701         vpextrb r15l,xmm0,0x1
0x280b6818cbb0    70  c4e37914c102         vpextrb cl,xmm0,0x2
0x280b6818cbb6    76  c4e37914c703         vpextrb dil,xmm0,0x3
0x280b6818cbbc    7c  c4e37914c304         vpextrb bl,xmm0,0x4
0x280b6818cbc2    82  c4e37914c605         vpextrb sil,xmm0,0x5
0x280b6818cbc8    88  c4c37914c306         vpextrb r11l,xmm0,0x6
0x280b6818cbce    8e  48899d50ffffff       REX.W movq [rbp-0xb0],rbx
0x280b6818cbd5    95  c4e37914c307         vpextrb bl,xmm0,0x7
0x280b6818cbdb    9b  48899d68ffffff       REX.W movq [rbp-0x98],rbx
0x280b6818cbe2    a2  c4e37914c308         vpextrb bl,xmm0,0x8
0x280b6818cbe8    a8  48899d70ffffff       REX.W movq [rbp-0x90],rbx
0x280b6818cbef    af  c4e37914c309         vpextrb bl,xmm0,0x9
0x280b6818cbf5    b5  48899d78ffffff       REX.W movq [rbp-0x88],rbx
0x280b6818cbfc    bc  c4e37914c30a         vpextrb bl,xmm0,0xa
0x280b6818cc02    c2  48895d80             REX.W movq [rbp-0x80],rbx
0x280b6818cc06    c6  c4e37914c30b         vpextrb bl,xmm0,0xb
0x280b6818cc0c    cc  48895d88             REX.W movq [rbp-0x78],rbx
0x280b6818cc10    d0  c4e37914c30c         vpextrb bl,xmm0,0xc
0x280b6818cc16    d6  48895d90             REX.W movq [rbp-0x70],rbx
0x280b6818cc1a    da  c4e37914c30d         vpextrb bl,xmm0,0xd
0x280b6818cc20    e0  48895d98             REX.W movq [rbp-0x68],rbx
0x280b6818cc24    e4  c4e37914c30e         vpextrb bl,xmm0,0xe
0x280b6818cc2a    ea  48895da0             REX.W movq [rbp-0x60],rbx
0x280b6818cc2e    ee  c4e37914c30f         vpextrb bl,xmm0,0xf
0x280b6818cc34    f4  4c899d60ffffff       REX.W movq [rbp-0xa0],r11
0x280b6818cc3b    fb  4c8b5dc8             REX.W movq r11,[rbp-0x38]
0x280b6818cc3f    ff  4181e3fcffff1f       andl r11,0x1ffffffc
0x280b6818cc46   106  4c898d10ffffff       REX.W movq [rbp-0xf0],r9
0x280b6818cc4d   10d  4c89a530ffffff       REX.W movq [rbp-0xd0],r12
0x280b6818cc54   114  4c89bd38ffffff       REX.W movq [rbp-0xc8],r15
0x280b6818cc5b   11b  48898d40ffffff       REX.W movq [rbp-0xc0],rcx
0x280b6818cc62   122  4889bd48ffffff       REX.W movq [rbp-0xb8],rdi
0x280b6818cc69   129  4889b558ffffff       REX.W movq [rbp-0xa8],rsi
0x280b6818cc70   130  48895da8             REX.W movq [rbp-0x58],rbx
0x280b6818cc74   134  33db                 xorl rbx,rbx
0x280b6818cc76   136  488bf3               REX.W movq rsi,rbx
0x280b6818cc79   139  e91e000000           jmp 0x280b6818cc9c  <+0x15c>
0x280b6818cc7e   13e  6690                 nop
0x280b6818cc80   140  4c8b8d10ffffff       REX.W movq r9,[rbp-0xf0]
0x280b6818cc87   147  488bb518ffffff       REX.W movq rsi,[rbp-0xe8]
0x280b6818cc8e   14e  4c8bbd38ffffff       REX.W movq r15,[rbp-0xc8]
0x280b6818cc95   155  4c8ba530ffffff       REX.W movq r12,[rbp-0xd0]
0x280b6818cc9c   15c  493b21               REX.W cmpq rsp,[r9]
0x280b6818cc9f   15f  0f86570b0000         jna 0x280b6818d7fc  <+0xcbc>
0x280b6818cca5   165  8d7e40               leal rdi,[rsi+0x40]
0x280b6818cca8   168  4889bd18ffffff       REX.W movq [rbp-0xe8],rdi
0x280b6818ccaf   16f  8d3c30               leal rdi,[rax+rsi*1]
0x280b6818ccb2   172  c4c17a6f0438         vmovdqu xmm0,[r8+rdi*1]
0x280b6818ccb8   178  c4e37914c700         vpextrb dil,xmm0,0x0
0x280b6818ccbe   17e  400fbeff             movsxbl rdi,rdi
0x280b6818ccc2   182  c4c37914c101         vpextrb r9l,xmm0,0x1
0x280b6818ccc8   188  450fbec9             movsxbl r9,r9
0x280b6818cccc   18c  4c89e1               REX.W movq rcx,r12
0x280b6818cccf   18f  d3ff                 sarl rdi, cl
0x280b6818ccd1   191  c4e37914c102         vpextrb cl,xmm0,0x2
0x280b6818ccd7   197  0fbec9               movsxbl rcx,rcx
0x280b6818ccda   19a  48898d20ffffff       REX.W movq [rbp-0xe0],rcx
0x280b6818cce1   1a1  498bcf               REX.W movq rcx,r15
0x280b6818cce4   1a4  41d3f9               sarl r9, cl
0x280b6818cce7   1a7  c5796eff             vmovd xmm15,rdi
0x280b6818cceb   1ab  c4c27978cf           vpbroadcastb xmm1,xmm15
0x280b6818ccf0   1b0  c4e37914c703         vpextrb dil,xmm0,0x3
0x280b6818ccf6   1b6  400fbeff             movsxbl rdi,rdi
0x280b6818ccfa   1ba  488b8d40ffffff       REX.W movq rcx,[rbp-0xc0]
0x280b6818cd01   1c1  4c8ba520ffffff       REX.W movq r12,[rbp-0xe0]
0x280b6818cd08   1c8  41d3fc               sarl r12, cl
0x280b6818cd0b   1cb  c4c37120c901         vpinsrb xmm1,xmm1,r9l,0x1
0x280b6818cd11   1d1  c4c37914c104         vpextrb r9l,xmm0,0x4
0x280b6818cd17   1d7  450fbec9             movsxbl r9,r9
0x280b6818cd1b   1db  488b8d48ffffff       REX.W movq rcx,[rbp-0xb8]
0x280b6818cd22   1e2  d3ff                 sarl rdi, cl
0x280b6818cd24   1e4  c4c37120cc02         vpinsrb xmm1,xmm1,r12l,0x2
0x280b6818cd2a   1ea  c4c37914c405         vpextrb r12l,xmm0,0x5
0x280b6818cd30   1f0  450fbee4             movsxbl r12,r12
0x280b6818cd34   1f4  488b8d50ffffff       REX.W movq rcx,[rbp-0xb0]
0x280b6818cd3b   1fb  41d3f9               sarl r9, cl
0x280b6818cd3e   1fe  c4e37120cf03         vpinsrb xmm1,xmm1,dil,0x3
0x280b6818cd44   204  c4e37914c706         vpextrb dil,xmm0,0x6
0x280b6818cd4a   20a  400fbeff             movsxbl rdi,rdi
0x280b6818cd4e   20e  488b8d58ffffff       REX.W movq rcx,[rbp-0xa8]
0x280b6818cd55   215  41d3fc               sarl r12, cl
0x280b6818cd58   218  c4c37120c904         vpinsrb xmm1,xmm1,r9l,0x4
0x280b6818cd5e   21e  c4c37914c107         vpextrb r9l,xmm0,0x7
0x280b6818cd64   224  450fbec9             movsxbl r9,r9
0x280b6818cd68   228  488b8d60ffffff       REX.W movq rcx,[rbp-0xa0]
0x280b6818cd6f   22f  d3ff                 sarl rdi, cl
0x280b6818cd71   231  c4c37120cc05         vpinsrb xmm1,xmm1,r12l,0x5
0x280b6818cd77   237  c4c37914c408         vpextrb r12l,xmm0,0x8
0x280b6818cd7d   23d  450fbee4             movsxbl r12,r12
0x280b6818cd81   241  488b8d68ffffff       REX.W movq rcx,[rbp-0x98]
0x280b6818cd88   248  41d3f9               sarl r9, cl
0x280b6818cd8b   24b  c4e37120cf06         vpinsrb xmm1,xmm1,dil,0x6
0x280b6818cd91   251  c4e37914c709         vpextrb dil,xmm0,0x9
0x280b6818cd97   257  400fbeff             movsxbl rdi,rdi
0x280b6818cd9b   25b  488b8d70ffffff       REX.W movq rcx,[rbp-0x90]
0x280b6818cda2   262  41d3fc               sarl r12, cl
0x280b6818cda5   265  c4c37120c907         vpinsrb xmm1,xmm1,r9l,0x7
0x280b6818cdab   26b  c4c37914c10a         vpextrb r9l,xmm0,0xa
0x280b6818cdb1   271  450fbec9             movsxbl r9,r9
0x280b6818cdb5   275  488b8d78ffffff       REX.W movq rcx,[rbp-0x88]
0x280b6818cdbc   27c  d3ff                 sarl rdi, cl
0x280b6818cdbe   27e  c4c37120cc08         vpinsrb xmm1,xmm1,r12l,0x8
0x280b6818cdc4   284  c4c37914c40b         vpextrb r12l,xmm0,0xb
0x280b6818cdca   28a  450fbee4             movsxbl r12,r12
0x280b6818cdce   28e  488b4d80             REX.W movq rcx,[rbp-0x80]
0x280b6818cdd2   292  41d3f9               sarl r9, cl
0x280b6818cdd5   295  c4e37120cf09         vpinsrb xmm1,xmm1,dil,0x9
0x280b6818cddb   29b  c4e37914c70c         vpextrb dil,xmm0,0xc
0x280b6818cde1   2a1  400fbeff             movsxbl rdi,rdi
0x280b6818cde5   2a5  488b4d88             REX.W movq rcx,[rbp-0x78]
0x280b6818cde9   2a9  41d3fc               sarl r12, cl
0x280b6818cdec   2ac  c4c37120c90a         vpinsrb xmm1,xmm1,r9l,0xa
0x280b6818cdf2   2b2  c4c37914c10d         vpextrb r9l,xmm0,0xd
0x280b6818cdf8   2b8  450fbec9             movsxbl r9,r9
0x280b6818cdfc   2bc  488b4d90             REX.W movq rcx,[rbp-0x70]
0x280b6818ce00   2c0  d3ff                 sarl rdi, cl
0x280b6818ce02   2c2  c4c37120cc0b         vpinsrb xmm1,xmm1,r12l,0xb
0x280b6818ce08   2c8  c4c37914c40e         vpextrb r12l,xmm0,0xe
0x280b6818ce0e   2ce  450fbee4             movsxbl r12,r12
0x280b6818ce12   2d2  488b4d98             REX.W movq rcx,[rbp-0x68]
0x280b6818ce16   2d6  41d3f9               sarl r9, cl
0x280b6818ce19   2d9  c4e37120cf0c         vpinsrb xmm1,xmm1,dil,0xc
0x280b6818ce1f   2df  c4e37914c70f         vpextrb dil,xmm0,0xf
0x280b6818ce25   2e5  400fbeff             movsxbl rdi,rdi
0x280b6818ce29   2e9  488b4da0             REX.W movq rcx,[rbp-0x60]
0x280b6818ce2d   2ed  41d3fc               sarl r12, cl
0x280b6818ce30   2f0  c4c37120c10d         vpinsrb xmm0,xmm1,r9l,0xd
0x280b6818ce36   2f6  488b4da8             REX.W movq rcx,[rbp-0x58]
0x280b6818ce3a   2fa  d3ff                 sarl rdi, cl
0x280b6818ce3c   2fc  c4c37920c40e         vpinsrb xmm0,xmm0,r12l,0xe
0x280b6818ce42   302  448d0c32             leal r9,[rdx+rsi*1]
0x280b6818ce46   306  4c8be6               REX.W movq r12,rsi
0x280b6818ce49   309  4183cc10             orl r12,0x10
0x280b6818ce4d   30d  c4e37920c70f         vpinsrb xmm0,xmm0,dil,0xf
0x280b6818ce53   313  428d3c20             leal rdi,[rax+r12*1]
0x280b6818ce57   317  c4817a7f0408         vmovdqu [r8+r9*1],xmm0
0x280b6818ce5d   31d  c4c17a6f0438         vmovdqu xmm0,[r8+rdi*1]
0x280b6818ce63   323  c4e37914c700         vpextrb dil,xmm0,0x0
0x280b6818ce69   329  400fbeff             movsxbl rdi,rdi
0x280b6818ce6d   32d  c4c37914c101         vpextrb r9l,xmm0,0x1
0x280b6818ce73   333  450fbec9             movsxbl r9,r9
0x280b6818ce77   337  488b8d30ffffff       REX.W movq rcx,[rbp-0xd0]
0x280b6818ce7e   33e  d3ff                 sarl rdi, cl
0x280b6818ce80   340  c4e37914c102         vpextrb cl,xmm0,0x2
0x280b6818ce86   346  0fbec9               movsxbl rcx,rcx
0x280b6818ce89   349  48898d20ffffff       REX.W movq [rbp-0xe0],rcx
0x280b6818ce90   350  498bcf               REX.W movq rcx,r15
0x280b6818ce93   353  41d3f9               sarl r9, cl
0x280b6818ce96   356  c5796eff             vmovd xmm15,rdi
0x280b6818ce9a   35a  c4c27978cf           vpbroadcastb xmm1,xmm15
0x280b6818ce9f   35f  c4e37914c703         vpextrb dil,xmm0,0x3
0x280b6818cea5   365  400fbeff             movsxbl rdi,rdi
0x280b6818cea9   369  488b8d40ffffff       REX.W movq rcx,[rbp-0xc0]
0x280b6818ceb0   370  4c8bbd20ffffff       REX.W movq r15,[rbp-0xe0]
0x280b6818ceb7   377  41d3ff               sarl r15, cl
0x280b6818ceba   37a  c4c37120c901         vpinsrb xmm1,xmm1,r9l,0x1
0x280b6818cec0   380  c4c37914c104         vpextrb r9l,xmm0,0x4
0x280b6818cec6   386  450fbec9             movsxbl r9,r9
0x280b6818ceca   38a  488b8d48ffffff       REX.W movq rcx,[rbp-0xb8]
0x280b6818ced1   391  d3ff                 sarl rdi, cl
0x280b6818ced3   393  c4c37120cf02         vpinsrb xmm1,xmm1,r15l,0x2
0x280b6818ced9   399  c4c37914c705         vpextrb r15l,xmm0,0x5
0x280b6818cedf   39f  450fbeff             movsxbl r15,r15
0x280b6818cee3   3a3  488b8d50ffffff       REX.W movq rcx,[rbp-0xb0]
0x280b6818ceea   3aa  41d3f9               sarl r9, cl
0x280b6818ceed   3ad  c4e37120cf03         vpinsrb xmm1,xmm1,dil,0x3
0x280b6818cef3   3b3  c4e37914c706         vpextrb dil,xmm0,0x6
0x280b6818cef9   3b9  400fbeff             movsxbl rdi,rdi
0x280b6818cefd   3bd  488b8d58ffffff       REX.W movq rcx,[rbp-0xa8]
0x280b6818cf04   3c4  41d3ff               sarl r15, cl
0x280b6818cf07   3c7  c4c37120c904         vpinsrb xmm1,xmm1,r9l,0x4
0x280b6818cf0d   3cd  c4c37914c107         vpextrb r9l,xmm0,0x7
0x280b6818cf13   3d3  450fbec9             movsxbl r9,r9
0x280b6818cf17   3d7  488b8d60ffffff       REX.W movq rcx,[rbp-0xa0]
0x280b6818cf1e   3de  d3ff                 sarl rdi, cl
0x280b6818cf20   3e0  c4c37120cf05         vpinsrb xmm1,xmm1,r15l,0x5
0x280b6818cf26   3e6  c4c37914c708         vpextrb r15l,xmm0,0x8
0x280b6818cf2c   3ec  450fbeff             movsxbl r15,r15
0x280b6818cf30   3f0  488b8d68ffffff       REX.W movq rcx,[rbp-0x98]
0x280b6818cf37   3f7  41d3f9               sarl r9, cl
0x280b6818cf3a   3fa  c4e37120cf06         vpinsrb xmm1,xmm1,dil,0x6
0x280b6818cf40   400  c4e37914c709         vpextrb dil,xmm0,0x9
0x280b6818cf46   406  400fbeff             movsxbl rdi,rdi
0x280b6818cf4a   40a  488b8d70ffffff       REX.W movq rcx,[rbp-0x90]
0x280b6818cf51   411  41d3ff               sarl r15, cl
0x280b6818cf54   414  c4c37120c907         vpinsrb xmm1,xmm1,r9l,0x7
0x280b6818cf5a   41a  c4c37914c10a         vpextrb r9l,xmm0,0xa
0x280b6818cf60   420  450fbec9             movsxbl r9,r9
0x280b6818cf64   424  488b8d78ffffff       REX.W movq rcx,[rbp-0x88]
0x280b6818cf6b   42b  d3ff                 sarl rdi, cl
0x280b6818cf6d   42d  c4c37120cf08         vpinsrb xmm1,xmm1,r15l,0x8
0x280b6818cf73   433  c4c37914c70b         vpextrb r15l,xmm0,0xb
0x280b6818cf79   439  450fbeff             movsxbl r15,r15
0x280b6818cf7d   43d  488b4d80             REX.W movq rcx,[rbp-0x80]
0x280b6818cf81   441  41d3f9               sarl r9, cl
0x280b6818cf84   444  c4e37120cf09         vpinsrb xmm1,xmm1,dil,0x9
0x280b6818cf8a   44a  c4e37914c70c         vpextrb dil,xmm0,0xc
0x280b6818cf90   450  400fbeff             movsxbl rdi,rdi
0x280b6818cf94   454  488b4d88             REX.W movq rcx,[rbp-0x78]
0x280b6818cf98   458  41d3ff               sarl r15, cl
0x280b6818cf9b   45b  c4c37120c90a         vpinsrb xmm1,xmm1,r9l,0xa
0x280b6818cfa1   461  c4c37914c10d         vpextrb r9l,xmm0,0xd
0x280b6818cfa7   467  450fbec9             movsxbl r9,r9
0x280b6818cfab   46b  488b4d90             REX.W movq rcx,[rbp-0x70]
0x280b6818cfaf   46f  d3ff                 sarl rdi, cl
0x280b6818cfb1   471  c4c37120cf0b         vpinsrb xmm1,xmm1,r15l,0xb
0x280b6818cfb7   477  c4c37914c70e         vpextrb r15l,xmm0,0xe
0x280b6818cfbd   47d  450fbeff             movsxbl r15,r15
0x280b6818cfc1   481  488b4d98             REX.W movq rcx,[rbp-0x68]
0x280b6818cfc5   485  41d3f9               sarl r9, cl
0x280b6818cfc8   488  c4e37120cf0c         vpinsrb xmm1,xmm1,dil,0xc
0x280b6818cfce   48e  c4e37914c70f         vpextrb dil,xmm0,0xf
0x280b6818cfd4   494  400fbeff             movsxbl rdi,rdi
0x280b6818cfd8   498  488b4da0             REX.W movq rcx,[rbp-0x60]
0x280b6818cfdc   49c  41d3ff               sarl r15, cl
0x280b6818cfdf   49f  c4c37120c10d         vpinsrb xmm0,xmm1,r9l,0xd
0x280b6818cfe5   4a5  488b4da8             REX.W movq rcx,[rbp-0x58]
0x280b6818cfe9   4a9  d3ff                 sarl rdi, cl
0x280b6818cfeb   4ab  c4c37920c70e         vpinsrb xmm0,xmm0,r15l,0xe
0x280b6818cff1   4b1  468d0c22             leal r9,[rdx+r12*1]
0x280b6818cff5   4b5  4c8be6               REX.W movq r12,rsi
0x280b6818cff8   4b8  4183cc20             orl r12,0x20
0x280b6818cffc   4bc  c4e37920c70f         vpinsrb xmm0,xmm0,dil,0xf
0x280b6818d002   4c2  428d3c20             leal rdi,[rax+r12*1]
0x280b6818d006   4c6  c4817a7f0408         vmovdqu [r8+r9*1],xmm0
0x280b6818d00c   4cc  c4c17a6f0438         vmovdqu xmm0,[r8+rdi*1]
0x280b6818d012   4d2  c4e37914c700         vpextrb dil,xmm0,0x0
0x280b6818d018   4d8  400fbeff             movsxbl rdi,rdi
0x280b6818d01c   4dc  c4c37914c101         vpextrb r9l,xmm0,0x1
0x280b6818d022   4e2  450fbec9             movsxbl r9,r9
0x280b6818d026   4e6  488b8d30ffffff       REX.W movq rcx,[rbp-0xd0]
0x280b6818d02d   4ed  d3ff                 sarl rdi, cl
0x280b6818d02f   4ef  c4c37914c702         vpextrb r15l,xmm0,0x2
0x280b6818d035   4f5  450fbeff             movsxbl r15,r15
0x280b6818d039   4f9  488b8d38ffffff       REX.W movq rcx,[rbp-0xc8]
0x280b6818d040   500  41d3f9               sarl r9, cl
0x280b6818d043   503  c5796eff             vmovd xmm15,rdi
0x280b6818d047   507  c4c27978cf           vpbroadcastb xmm1,xmm15
0x280b6818d04c   50c  c4e37914c703         vpextrb dil,xmm0,0x3
0x280b6818d052   512  400fbeff             movsxbl rdi,rdi
0x280b6818d056   516  488b8d40ffffff       REX.W movq rcx,[rbp-0xc0]
0x280b6818d05d   51d  41d3ff               sarl r15, cl
0x280b6818d060   520  c4c37120c901         vpinsrb xmm1,xmm1,r9l,0x1
0x280b6818d066   526  c4c37914c104         vpextrb r9l,xmm0,0x4
0x280b6818d06c   52c  450fbec9             movsxbl r9,r9
0x280b6818d070   530  488b8d48ffffff       REX.W movq rcx,[rbp-0xb8]
0x280b6818d077   537  d3ff                 sarl rdi, cl
0x280b6818d079   539  c4c37120cf02         vpinsrb xmm1,xmm1,r15l,0x2
0x280b6818d07f   53f  c4c37914c705         vpextrb r15l,xmm0,0x5
0x280b6818d085   545  450fbeff             movsxbl r15,r15
0x280b6818d089   549  488b8d50ffffff       REX.W movq rcx,[rbp-0xb0]
0x280b6818d090   550  41d3f9               sarl r9, cl
0x280b6818d093   553  c4e37120cf03         vpinsrb xmm1,xmm1,dil,0x3
0x280b6818d099   559  c4e37914c706         vpextrb dil,xmm0,0x6
0x280b6818d09f   55f  400fbeff             movsxbl rdi,rdi
0x280b6818d0a3   563  488b8d58ffffff       REX.W movq rcx,[rbp-0xa8]
0x280b6818d0aa   56a  41d3ff               sarl r15, cl
0x280b6818d0ad   56d  c4c37120c904         vpinsrb xmm1,xmm1,r9l,0x4
0x280b6818d0b3   573  c4c37914c107         vpextrb r9l,xmm0,0x7
0x280b6818d0b9   579  450fbec9             movsxbl r9,r9
0x280b6818d0bd   57d  488b8d60ffffff       REX.W movq rcx,[rbp-0xa0]
0x280b6818d0c4   584  d3ff                 sarl rdi, cl
0x280b6818d0c6   586  c4c37120cf05         vpinsrb xmm1,xmm1,r15l,0x5
0x280b6818d0cc   58c  c4c37914c708         vpextrb r15l,xmm0,0x8
0x280b6818d0d2   592  450fbeff             movsxbl r15,r15
0x280b6818d0d6   596  488b8d68ffffff       REX.W movq rcx,[rbp-0x98]
0x280b6818d0dd   59d  41d3f9               sarl r9, cl
0x280b6818d0e0   5a0  c4e37120cf06         vpinsrb xmm1,xmm1,dil,0x6
0x280b6818d0e6   5a6  c4e37914c709         vpextrb dil,xmm0,0x9
0x280b6818d0ec   5ac  400fbeff             movsxbl rdi,rdi
0x280b6818d0f0   5b0  488b8d70ffffff       REX.W movq rcx,[rbp-0x90]
0x280b6818d0f7   5b7  41d3ff               sarl r15, cl
0x280b6818d0fa   5ba  c4c37120c907         vpinsrb xmm1,xmm1,r9l,0x7
0x280b6818d100   5c0  c4c37914c10a         vpextrb r9l,xmm0,0xa
0x280b6818d106   5c6  450fbec9             movsxbl r9,r9
0x280b6818d10a   5ca  488b8d78ffffff       REX.W movq rcx,[rbp-0x88]
0x280b6818d111   5d1  d3ff                 sarl rdi, cl
0x280b6818d113   5d3  c4c37120cf08         vpinsrb xmm1,xmm1,r15l,0x8
0x280b6818d119   5d9  c4c37914c70b         vpextrb r15l,xmm0,0xb
0x280b6818d11f   5df  450fbeff             movsxbl r15,r15
0x280b6818d123   5e3  488b4d80             REX.W movq rcx,[rbp-0x80]
0x280b6818d127   5e7  41d3f9               sarl r9, cl
0x280b6818d12a   5ea  c4e37120cf09         vpinsrb xmm1,xmm1,dil,0x9
0x280b6818d130   5f0  c4e37914c70c         vpextrb dil,xmm0,0xc
0x280b6818d136   5f6  400fbeff             movsxbl rdi,rdi
0x280b6818d13a   5fa  488b4d88             REX.W movq rcx,[rbp-0x78]
0x280b6818d13e   5fe  41d3ff               sarl r15, cl
0x280b6818d141   601  c4c37120c90a         vpinsrb xmm1,xmm1,r9l,0xa
0x280b6818d147   607  c4c37914c10d         vpextrb r9l,xmm0,0xd
0x280b6818d14d   60d  450fbec9             movsxbl r9,r9
0x280b6818d151   611  488b4d90             REX.W movq rcx,[rbp-0x70]
0x280b6818d155   615  d3ff                 sarl rdi, cl
0x280b6818d157   617  c4c37120cf0b         vpinsrb xmm1,xmm1,r15l,0xb
0x280b6818d15d   61d  c4c37914c70e         vpextrb r15l,xmm0,0xe
0x280b6818d163   623  450fbeff             movsxbl r15,r15
0x280b6818d167   627  488b4d98             REX.W movq rcx,[rbp-0x68]
0x280b6818d16b   62b  41d3f9               sarl r9, cl
0x280b6818d16e   62e  c4e37120cf0c         vpinsrb xmm1,xmm1,dil,0xc
0x280b6818d174   634  c4e37914c70f         vpextrb dil,xmm0,0xf
0x280b6818d17a   63a  400fbeff             movsxbl rdi,rdi
0x280b6818d17e   63e  488b4da0             REX.W movq rcx,[rbp-0x60]
0x280b6818d182   642  41d3ff               sarl r15, cl
0x280b6818d185   645  c4c37120c10d         vpinsrb xmm0,xmm1,r9l,0xd
0x280b6818d18b   64b  488b4da8             REX.W movq rcx,[rbp-0x58]
0x280b6818d18f   64f  d3ff                 sarl rdi, cl
0x280b6818d191   651  c4c37920c70e         vpinsrb xmm0,xmm0,r15l,0xe
0x280b6818d197   657  468d0c22             leal r9,[rdx+r12*1]
0x280b6818d19b   65b  83ce30               orl rsi,0x30
0x280b6818d19e   65e  c4e37920c70f         vpinsrb xmm0,xmm0,dil,0xf
0x280b6818d1a4   664  8d3c30               leal rdi,[rax+rsi*1]
0x280b6818d1a7   667  c4817a7f0408         vmovdqu [r8+r9*1],xmm0
0x280b6818d1ad   66d  c4c17a6f0438         vmovdqu xmm0,[r8+rdi*1]
0x280b6818d1b3   673  c4e37914c700         vpextrb dil,xmm0,0x0
0x280b6818d1b9   679  400fbeff             movsxbl rdi,rdi
0x280b6818d1bd   67d  c4c37914c101         vpextrb r9l,xmm0,0x1
0x280b6818d1c3   683  450fbec9             movsxbl r9,r9
0x280b6818d1c7   687  488b8d30ffffff       REX.W movq rcx,[rbp-0xd0]
0x280b6818d1ce   68e  d3ff                 sarl rdi, cl
0x280b6818d1d0   690  c4c37914c402         vpextrb r12l,xmm0,0x2
0x280b6818d1d6   696  450fbee4             movsxbl r12,r12
0x280b6818d1da   69a  488b8d38ffffff       REX.W movq rcx,[rbp-0xc8]
0x280b6818d1e1   6a1  41d3f9               sarl r9, cl
0x280b6818d1e4   6a4  c5796eff             vmovd xmm15,rdi
0x280b6818d1e8   6a8  c4c27978cf           vpbroadcastb xmm1,xmm15
0x280b6818d1ed   6ad  c4e37914c703         vpextrb dil,xmm0,0x3
0x280b6818d1f3   6b3  400fbeff             movsxbl rdi,rdi
0x280b6818d1f7   6b7  488b8d40ffffff       REX.W movq rcx,[rbp-0xc0]
0x280b6818d1fe   6be  41d3fc               sarl r12, cl
0x280b6818d201   6c1  c4c37120c901         vpinsrb xmm1,xmm1,r9l,0x1
0x280b6818d207   6c7  c4c37914c104         vpextrb r9l,xmm0,0x4
0x280b6818d20d   6cd  450fbec9             movsxbl r9,r9
0x280b6818d211   6d1  488b8d48ffffff       REX.W movq rcx,[rbp-0xb8]
0x280b6818d218   6d8  d3ff                 sarl rdi, cl
0x280b6818d21a   6da  c4c37120cc02         vpinsrb xmm1,xmm1,r12l,0x2
0x280b6818d220   6e0  c4c37914c405         vpextrb r12l,xmm0,0x5
0x280b6818d226   6e6  450fbee4             movsxbl r12,r12
0x280b6818d22a   6ea  488b8d50ffffff       REX.W movq rcx,[rbp-0xb0]
0x280b6818d231   6f1  41d3f9               sarl r9, cl
0x280b6818d234   6f4  c4e37120cf03         vpinsrb xmm1,xmm1,dil,0x3
0x280b6818d23a   6fa  c4e37914c706         vpextrb dil,xmm0,0x6
0x280b6818d240   700  400fbeff             movsxbl rdi,rdi
0x280b6818d244   704  488b8d58ffffff       REX.W movq rcx,[rbp-0xa8]
0x280b6818d24b   70b  41d3fc               sarl r12, cl
0x280b6818d24e   70e  c4c37120c904         vpinsrb xmm1,xmm1,r9l,0x4
0x280b6818d254   714  c4c37914c107         vpextrb r9l,xmm0,0x7
0x280b6818d25a   71a  450fbec9             movsxbl r9,r9
0x280b6818d25e   71e  488b8d60ffffff       REX.W movq rcx,[rbp-0xa0]
0x280b6818d265   725  d3ff                 sarl rdi, cl
0x280b6818d267   727  c4c37120cc05         vpinsrb xmm1,xmm1,r12l,0x5
0x280b6818d26d   72d  c4c37914c408         vpextrb r12l,xmm0,0x8
0x280b6818d273   733  450fbee4             movsxbl r12,r12
0x280b6818d277   737  488b8d68ffffff       REX.W movq rcx,[rbp-0x98]
0x280b6818d27e   73e  41d3f9               sarl r9, cl
0x280b6818d281   741  c4e37120cf06         vpinsrb xmm1,xmm1,dil,0x6
0x280b6818d287   747  c4e37914c709         vpextrb dil,xmm0,0x9
0x280b6818d28d   74d  400fbeff             movsxbl rdi,rdi
0x280b6818d291   751  488b8d70ffffff       REX.W movq rcx,[rbp-0x90]
0x280b6818d298   758  41d3fc               sarl r12, cl
0x280b6818d29b   75b  c4c37120c907         vpinsrb xmm1,xmm1,r9l,0x7
0x280b6818d2a1   761  c4c37914c10a         vpextrb r9l,xmm0,0xa
0x280b6818d2a7   767  450fbec9             movsxbl r9,r9
0x280b6818d2ab   76b  488b8d78ffffff       REX.W movq rcx,[rbp-0x88]
0x280b6818d2b2   772  d3ff                 sarl rdi, cl
0x280b6818d2b4   774  c4c37120cc08         vpinsrb xmm1,xmm1,r12l,0x8
0x280b6818d2ba   77a  c4c37914c40b         vpextrb r12l,xmm0,0xb
0x280b6818d2c0   780  450fbee4             movsxbl r12,r12
0x280b6818d2c4   784  488b4d80             REX.W movq rcx,[rbp-0x80]
0x280b6818d2c8   788  41d3f9               sarl r9, cl
0x280b6818d2cb   78b  c4e37120cf09         vpinsrb xmm1,xmm1,dil,0x9
0x280b6818d2d1   791  c4e37914c70c         vpextrb dil,xmm0,0xc
0x280b6818d2d7   797  400fbeff             movsxbl rdi,rdi
0x280b6818d2db   79b  488b4d88             REX.W movq rcx,[rbp-0x78]
0x280b6818d2df   79f  41d3fc               sarl r12, cl
0x280b6818d2e2   7a2  c4c37120c90a         vpinsrb xmm1,xmm1,r9l,0xa
0x280b6818d2e8   7a8  c4c37914c10d         vpextrb r9l,xmm0,0xd
0x280b6818d2ee   7ae  450fbec9             movsxbl r9,r9
0x280b6818d2f2   7b2  488b4d90             REX.W movq rcx,[rbp-0x70]
0x280b6818d2f6   7b6  d3ff                 sarl rdi, cl
0x280b6818d2f8   7b8  c4c37120cc0b         vpinsrb xmm1,xmm1,r12l,0xb
0x280b6818d2fe   7be  c4c37914c40e         vpextrb r12l,xmm0,0xe
0x280b6818d304   7c4  450fbee4             movsxbl r12,r12
0x280b6818d308   7c8  488b4d98             REX.W movq rcx,[rbp-0x68]
0x280b6818d30c   7cc  41d3f9               sarl r9, cl
0x280b6818d30f   7cf  c4e37120cf0c         vpinsrb xmm1,xmm1,dil,0xc
0x280b6818d315   7d5  c4e37914c70f         vpextrb dil,xmm0,0xf
0x280b6818d31b   7db  400fbeff             movsxbl rdi,rdi
0x280b6818d31f   7df  488b4da0             REX.W movq rcx,[rbp-0x60]
0x280b6818d323   7e3  41d3fc               sarl r12, cl
0x280b6818d326   7e6  c4c37120c10d         vpinsrb xmm0,xmm1,r9l,0xd
0x280b6818d32c   7ec  488b4da8             REX.W movq rcx,[rbp-0x58]
0x280b6818d330   7f0  d3ff                 sarl rdi, cl
0x280b6818d332   7f2  c4c37920c40e         vpinsrb xmm0,xmm0,r12l,0xe
0x280b6818d338   7f8  03f2                 addl rsi,rdx
0x280b6818d33a   7fa  c4e37920c70f         vpinsrb xmm0,xmm0,dil,0xf
0x280b6818d340   800  c4c17a7f0430         vmovdqu [r8+rsi*1],xmm0
0x280b6818d346   806  83c304               addl rbx,0x4
0x280b6818d349   809  443bdb               cmpl r11,rbx
0x280b6818d34c   80c  0f852ef9ffff         jnz 0x280b6818cc80  <+0x140>
0x280b6818d352   812  4c8ba518ffffff       REX.W movq r12,[rbp-0xe8]
0x280b6818d359   819  488b5de8             REX.W movq rbx,[rbp-0x18]
0x280b6818d35d   81d  488b7dd8             REX.W movq rdi,[rbp-0x28]
0x280b6818d361   821  488b75f0             REX.W movq rsi,[rbp-0x10]
0x280b6818d365   825  4c8b5dc8             REX.W movq r11,[rbp-0x38]
0x280b6818d369   829  4533c9               xorl r9,r9
0x280b6818d36c   82c  4c89a518ffffff       REX.W movq [rbp-0xe8],r12
0x280b6818d373   833  4183e303             andl r11,0x3
0x280b6818d377   837  0f84e4020000         jz 0x280b6818d661  <+0xb21>
0x280b6818d37d   83d  4c8b7e27             REX.W movq r15,[rsi+0x27]
0x280b6818d381   841  488bcf               REX.W movq rcx,rdi
0x280b6818d384   844  83e107               andl rcx,0x7
0x280b6818d387   847  c5796ef9             vmovd xmm15,rcx
0x280b6818d38b   84b  c4c27978c7           vpbroadcastb xmm0,xmm15
0x280b6818d390   850  c4e37914c100         vpextrb cl,xmm0,0x0
0x280b6818d396   856  c4e37914c701         vpextrb dil,xmm0,0x1
0x280b6818d39c   85c  c4e37914c602         vpextrb sil,xmm0,0x2
0x280b6818d3a2   862  c4e37914c303         vpextrb bl,xmm0,0x3
0x280b6818d3a8   868  c4c37914c404         vpextrb r12l,xmm0,0x4
0x280b6818d3ae   86e  48899d48ffffff       REX.W movq [rbp-0xb8],rbx
0x280b6818d3b5   875  c4e37914c305         vpextrb bl,xmm0,0x5
0x280b6818d3bb   87b  48899d58ffffff       REX.W movq [rbp-0xa8],rbx
0x280b6818d3c2   882  c4e37914c306         vpextrb bl,xmm0,0x6
0x280b6818d3c8   888  48899d60ffffff       REX.W movq [rbp-0xa0],rbx
0x280b6818d3cf   88f  c4e37914c307         vpextrb bl,xmm0,0x7
0x280b6818d3d5   895  48899d68ffffff       REX.W movq [rbp-0x98],rbx
0x280b6818d3dc   89c  c4e37914c308         vpextrb bl,xmm0,0x8
0x280b6818d3e2   8a2  48899d70ffffff       REX.W movq [rbp-0x90],rbx
0x280b6818d3e9   8a9  c4e37914c309         vpextrb bl,xmm0,0x9
0x280b6818d3ef   8af  48899d78ffffff       REX.W movq [rbp-0x88],rbx
0x280b6818d3f6   8b6  c4e37914c30a         vpextrb bl,xmm0,0xa
0x280b6818d3fc   8bc  48895d80             REX.W movq [rbp-0x80],rbx
0x280b6818d400   8c0  c4e37914c30b         vpextrb bl,xmm0,0xb
0x280b6818d406   8c6  48895d88             REX.W movq [rbp-0x78],rbx
0x280b6818d40a   8ca  c4e37914c30c         vpextrb bl,xmm0,0xc
0x280b6818d410   8d0  48895d90             REX.W movq [rbp-0x70],rbx
0x280b6818d414   8d4  c4e37914c30d         vpextrb bl,xmm0,0xd
0x280b6818d41a   8da  48895d98             REX.W movq [rbp-0x68],rbx
0x280b6818d41e   8de  c4e37914c30e         vpextrb bl,xmm0,0xe
0x280b6818d424   8e4  48895da0             REX.W movq [rbp-0x60],rbx
0x280b6818d428   8e8  c4e37914c30f         vpextrb bl,xmm0,0xf
0x280b6818d42e   8ee  48898d28ffffff       REX.W movq [rbp-0xd8],rcx
0x280b6818d435   8f5  4889bd30ffffff       REX.W movq [rbp-0xd0],rdi
0x280b6818d43c   8fc  4889b538ffffff       REX.W movq [rbp-0xc8],rsi
0x280b6818d443   903  48895da8             REX.W movq [rbp-0x58],rbx
0x280b6818d447   907  e946000000           jmp 0x280b6818d492  <+0x952>
0x280b6818d44c   90c  660f1f840000000000   nop
0x280b6818d455   915  660f1f840000000000   nop
0x280b6818d45e   91e  660f1f840000000000   nop
0x280b6818d467   927  660f1f840000000000   nop
0x280b6818d470   930  660f1f840000000000   nop
0x280b6818d479   939  0f1f8000000000       nop
0x280b6818d480   940  488b8d28ffffff       REX.W movq rcx,[rbp-0xd8]
0x280b6818d487   947  488bb538ffffff       REX.W movq rsi,[rbp-0xc8]
0x280b6818d48e   94e  488b45c0             REX.W movq rax,[rbp-0x40]
0x280b6818d492   952  488b9d18ffffff       REX.W movq rbx,[rbp-0xe8]
0x280b6818d499   959  493b27               REX.W cmpq rsp,[r15]
0x280b6818d49c   95c  0f86a4030000         jna 0x280b6818d846  <+0xd06>
0x280b6818d4a2   962  8d7b10               leal rdi,[rbx+0x10]
0x280b6818d4a5   965  4889bd18ffffff       REX.W movq [rbp-0xe8],rdi
0x280b6818d4ac   96c  8d3c18               leal rdi,[rax+rbx*1]
0x280b6818d4af   96f  c4c17a6f0438         vmovdqu xmm0,[r8+rdi*1]
0x280b6818d4b5   975  c4e37914c700         vpextrb dil,xmm0,0x0
0x280b6818d4bb   97b  400fbeff             movsxbl rdi,rdi
0x280b6818d4bf   97f  c4e37914c001         vpextrb al,xmm0,0x1
0x280b6818d4c5   985  0fbec0               movsxbl rax,rax
0x280b6818d4c8   988  d3ff                 sarl rdi, cl
0x280b6818d4ca   98a  c4e37914c102         vpextrb cl,xmm0,0x2
0x280b6818d4d0   990  0fbec9               movsxbl rcx,rcx
0x280b6818d4d3   993  48898d40ffffff       REX.W movq [rbp-0xc0],rcx
0x280b6818d4da   99a  488b8d30ffffff       REX.W movq rcx,[rbp-0xd0]
0x280b6818d4e1   9a1  d3f8                 sarl rax, cl
0x280b6818d4e3   9a3  c5796eff             vmovd xmm15,rdi
0x280b6818d4e7   9a7  c4c27978cf           vpbroadcastb xmm1,xmm15
0x280b6818d4ec   9ac  c4e37914c703         vpextrb dil,xmm0,0x3
0x280b6818d4f2   9b2  400fbeff             movsxbl rdi,rdi
0x280b6818d4f6   9b6  488bce               REX.W movq rcx,rsi
0x280b6818d4f9   9b9  488bb540ffffff       REX.W movq rsi,[rbp-0xc0]
0x280b6818d500   9c0  d3fe                 sarl rsi, cl
0x280b6818d502   9c2  c4e37120c801         vpinsrb xmm1,xmm1,al,0x1
0x280b6818d508   9c8  c4e37914c004         vpextrb al,xmm0,0x4
0x280b6818d50e   9ce  0fbec0               movsxbl rax,rax
0x280b6818d511   9d1  488b8d48ffffff       REX.W movq rcx,[rbp-0xb8]
0x280b6818d518   9d8  d3ff                 sarl rdi, cl
0x280b6818d51a   9da  c4e37120ce02         vpinsrb xmm1,xmm1,sil,0x2
0x280b6818d520   9e0  c4e37914c605         vpextrb sil,xmm0,0x5
0x280b6818d526   9e6  400fbef6             movsxbl rsi,rsi
0x280b6818d52a   9ea  4c89e1               REX.W movq rcx,r12
0x280b6818d52d   9ed  d3f8                 sarl rax, cl
0x280b6818d52f   9ef  c4e37120cf03         vpinsrb xmm1,xmm1,dil,0x3
0x280b6818d535   9f5  c4e37914c706         vpextrb dil,xmm0,0x6
0x280b6818d53b   9fb  400fbeff             movsxbl rdi,rdi
0x280b6818d53f   9ff  488b8d58ffffff       REX.W movq rcx,[rbp-0xa8]
0x280b6818d546   a06  d3fe                 sarl rsi, cl
0x280b6818d548   a08  c4e37120c804         vpinsrb xmm1,xmm1,al,0x4
0x280b6818d54e   a0e  c4e37914c007         vpextrb al,xmm0,0x7
0x280b6818d554   a14  0fbec0               movsxbl rax,rax
0x280b6818d557   a17  488b8d60ffffff       REX.W movq rcx,[rbp-0xa0]
0x280b6818d55e   a1e  d3ff                 sarl rdi, cl
0x280b6818d560   a20  c4e37120ce05         vpinsrb xmm1,xmm1,sil,0x5
0x280b6818d566   a26  c4e37914c608         vpextrb sil,xmm0,0x8
0x280b6818d56c   a2c  400fbef6             movsxbl rsi,rsi
0x280b6818d570   a30  488b8d68ffffff       REX.W movq rcx,[rbp-0x98]
0x280b6818d577   a37  d3f8                 sarl rax, cl
0x280b6818d579   a39  c4e37120cf06         vpinsrb xmm1,xmm1,dil,0x6
0x280b6818d57f   a3f  c4e37914c709         vpextrb dil,xmm0,0x9
0x280b6818d585   a45  400fbeff             movsxbl rdi,rdi
0x280b6818d589   a49  488b8d70ffffff       REX.W movq rcx,[rbp-0x90]
0x280b6818d590   a50  d3fe                 sarl rsi, cl
0x280b6818d592   a52  c4e37120c807         vpinsrb xmm1,xmm1,al,0x7
0x280b6818d598   a58  c4e37914c00a         vpextrb al,xmm0,0xa
0x280b6818d59e   a5e  0fbec0               movsxbl rax,rax
0x280b6818d5a1   a61  488b8d78ffffff       REX.W movq rcx,[rbp-0x88]
0x280b6818d5a8   a68  d3ff                 sarl rdi, cl
0x280b6818d5aa   a6a  c4e37120ce08         vpinsrb xmm1,xmm1,sil,0x8
0x280b6818d5b0   a70  c4e37914c60b         vpextrb sil,xmm0,0xb
0x280b6818d5b6   a76  400fbef6             movsxbl rsi,rsi
0x280b6818d5ba   a7a  488b4d80             REX.W movq rcx,[rbp-0x80]
0x280b6818d5be   a7e  d3f8                 sarl rax, cl
0x280b6818d5c0   a80  c4e37120cf09         vpinsrb xmm1,xmm1,dil,0x9
0x280b6818d5c6   a86  c4e37914c70c         vpextrb dil,xmm0,0xc
0x280b6818d5cc   a8c  400fbeff             movsxbl rdi,rdi
0x280b6818d5d0   a90  488b4d88             REX.W movq rcx,[rbp-0x78]
0x280b6818d5d4   a94  d3fe                 sarl rsi, cl
0x280b6818d5d6   a96  c4e37120c80a         vpinsrb xmm1,xmm1,al,0xa
0x280b6818d5dc   a9c  c4e37914c00d         vpextrb al,xmm0,0xd
0x280b6818d5e2   aa2  0fbec0               movsxbl rax,rax
0x280b6818d5e5   aa5  488b4d90             REX.W movq rcx,[rbp-0x70]
0x280b6818d5e9   aa9  d3ff                 sarl rdi, cl
0x280b6818d5eb   aab  c4e37120ce0b         vpinsrb xmm1,xmm1,sil,0xb
0x280b6818d5f1   ab1  c4e37914c60e         vpextrb sil,xmm0,0xe
0x280b6818d5f7   ab7  400fbef6             movsxbl rsi,rsi
0x280b6818d5fb   abb  488b4d98             REX.W movq rcx,[rbp-0x68]
0x280b6818d5ff   abf  d3f8                 sarl rax, cl
0x280b6818d601   ac1  c4e37120cf0c         vpinsrb xmm1,xmm1,dil,0xc
0x280b6818d607   ac7  c4e37914c70f         vpextrb dil,xmm0,0xf
0x280b6818d60d   acd  400fbeff             movsxbl rdi,rdi
0x280b6818d611   ad1  488b4da0             REX.W movq rcx,[rbp-0x60]
0x280b6818d615   ad5  d3fe                 sarl rsi, cl
0x280b6818d617   ad7  c4e37120c00d         vpinsrb xmm0,xmm1,al,0xd
0x280b6818d61d   add  488b4da8             REX.W movq rcx,[rbp-0x58]
0x280b6818d621   ae1  d3ff                 sarl rdi, cl
0x280b6818d623   ae3  c4e37920c60e         vpinsrb xmm0,xmm0,sil,0xe
0x280b6818d629   ae9  8d041a               leal rax,[rdx+rbx*1]
0x280b6818d62c   aec  c4e37920c70f         vpinsrb xmm0,xmm0,dil,0xf
0x280b6818d632   af2  c4c17a7f0400         vmovdqu [r8+rax*1],xmm0
0x280b6818d638   af8  4183c101             addl r9,0x1
0x280b6818d63c   afc  453bd9               cmpl r11,r9
0x280b6818d63f   aff  0f853bfeffff         jnz 0x280b6818d480  <+0x940>
0x280b6818d645   b05  4c8b8d18ffffff       REX.W movq r9,[rbp-0xe8]
0x280b6818d64c   b0c  488b5de8             REX.W movq rbx,[rbp-0x18]
0x280b6818d650   b10  488b45c0             REX.W movq rax,[rbp-0x40]
0x280b6818d654   b14  488b7dd8             REX.W movq rdi,[rbp-0x28]
0x280b6818d658   b18  488b75f0             REX.W movq rsi,[rbp-0x10]
0x280b6818d65c   b1c  e90b000000           jmp 0x280b6818d66c  <+0xb2c>
0x280b6818d661   b21  4d89e1               REX.W movq r9,r12
0x280b6818d664   b24  e903000000           jmp 0x280b6818d66c  <+0xb2c>
0x280b6818d669   b29  4533c9               xorl r9,r9
0x280b6818d66c   b2c  4c898d18ffffff       REX.W movq [rbp-0xe8],r9
0x280b6818d673   b33  413bd9               cmpl rbx,r9
0x280b6818d676   b36  0f8e7b010000         jle 0x280b6818d7f7  <+0xcb7>
0x280b6818d67c   b3c  4c8bdb               REX.W movq r11,rbx
0x280b6818d67f   b3f  452bd9               subl r11,r9
0x280b6818d682   b42  4183e303             andl r11,0x3
0x280b6818d686   b46  0f8508000000         jnz 0x280b6818d694  <+0xb54>
0x280b6818d68c   b4c  4d8bd9               REX.W movq r11,r9
0x280b6818d68f   b4f  e99a000000           jmp 0x280b6818d72e  <+0xbee>
0x280b6818d694   b54  4c8b6627             REX.W movq r12,[rsi+0x27]
0x280b6818d698   b58  4c8bff               REX.W movq r15,rdi
0x280b6818d69b   b5b  4183e707             andl r15,0x7
0x280b6818d69f   b5f  488bf8               REX.W movq rdi,rax
0x280b6818d6a2   b62  33c0                 xorl rax,rax
0x280b6818d6a4   b64  498bc9               REX.W movq rcx,r9
0x280b6818d6a7   b67  e917000000           jmp 0x280b6818d6c3  <+0xb83>
0x280b6818d6ac   b6c  660f1f840000000000   nop
0x280b6818d6b5   b75  660f1f840000000000   nop
0x280b6818d6be   b7e  6690                 nop
0x280b6818d6c0   b80  488bcb               REX.W movq rcx,rbx
0x280b6818d6c3   b83  493b2424             REX.W cmpq rsp,[r12]
0x280b6818d6c7   b87  0f86d9010000         jna 0x280b6818d8a6  <+0xd66>
0x280b6818d6cd   b8d  8d7101               leal rsi,[rcx+0x1]
0x280b6818d6d0   b90  8d1c0f               leal rbx,[rdi+rcx*1]
0x280b6818d6d3   b93  410fb61c18           movzxbl rbx,[r8+rbx*1]
0x280b6818d6d8   b98  03ca                 addl rcx,rdx
0x280b6818d6da   b9a  4c8bc9               REX.W movq r9,rcx
0x280b6818d6dd   b9d  498bcf               REX.W movq rcx,r15
0x280b6818d6e0   ba0  d3e3                 shll rbx, cl
0x280b6818d6e2   ba2  43881c08             movb [r8+r9*1],bl
0x280b6818d6e6   ba6  83c001               addl rax,0x1
0x280b6818d6e9   ba9  413bc3               cmpl rax,r11
0x280b6818d6ec   bac  0f8423000000         jz 0x280b6818d715  <+0xbd5>
0x280b6818d6f2   bb2  8d5e01               leal rbx,[rsi+0x1]
0x280b6818d6f5   bb5  448d0c3e             leal r9,[rsi+rdi*1]
0x280b6818d6f9   bb9  470fb60c08           movzxbl r9,[r8+r9*1]
0x280b6818d6fe   bbe  03f2                 addl rsi,rdx
0x280b6818d700   bc0  498bcf               REX.W movq rcx,r15
0x280b6818d703   bc3  41d3e1               shll r9, cl
0x280b6818d706   bc6  45880c30             movb [r8+rsi*1],r9l
0x280b6818d70a   bca  83c001               addl rax,0x1
0x280b6818d70d   bcd  443bd8               cmpl r11,rax
0x280b6818d710   bd0  75ae                 jnz 0x280b6818d6c0  <+0xb80>
0x280b6818d712   bd2  488bf3               REX.W movq rsi,rbx
0x280b6818d715   bd5  4c8bde               REX.W movq r11,rsi
0x280b6818d718   bd8  488b5de8             REX.W movq rbx,[rbp-0x18]
0x280b6818d71c   bdc  488bc7               REX.W movq rax,rdi
0x280b6818d71f   bdf  488b7dd8             REX.W movq rdi,[rbp-0x28]
0x280b6818d723   be3  488b75f0             REX.W movq rsi,[rbp-0x10]
0x280b6818d727   be7  4c8b8d18ffffff       REX.W movq r9,[rbp-0xe8]
0x280b6818d72e   bee  41f7d1               notl r9
0x280b6818d731   bf1  4403cb               addl r9,rbx
0x280b6818d734   bf4  4183f903             cmpl r9,0x3
0x280b6818d738   bf8  0f82b9000000         jc 0x280b6818d7f7  <+0xcb7>
0x280b6818d73e   bfe  488b7627             REX.W movq rsi,[rsi+0x27]
0x280b6818d742   c02  83e707               andl rdi,0x7
0x280b6818d745   c05  e939000000           jmp 0x280b6818d783  <+0xc43>
0x280b6818d74a   c0a  660f1f840000000000   nop
0x280b6818d753   c13  660f1f840000000000   nop
0x280b6818d75c   c1c  660f1f840000000000   nop
0x280b6818d765   c25  660f1f840000000000   nop
0x280b6818d76e   c2e  660f1f840000000000   nop
0x280b6818d777   c37  660f1f840000000000   nop
0x280b6818d780   c40  4d8bd9               REX.W movq r11,r9
0x280b6818d783   c43  483b26               REX.W cmpq rsp,[rsi]
0x280b6818d786   c46  0f8660010000         jna 0x280b6818d8ec  <+0xdac>
0x280b6818d78c   c4c  458d4b04             leal r9,[r11+0x4]
0x280b6818d790   c50  468d2418             leal r12,[rax+r11*1]
0x280b6818d794   c54  470fb62420           movzxbl r12,[r8+r12*1]
0x280b6818d799   c59  468d3c1a             leal r15,[rdx+r11*1]
0x280b6818d79d   c5d  488bcf               REX.W movq rcx,rdi
0x280b6818d7a0   c60  41d3e4               shll r12, cl
0x280b6818d7a3   c63  428d4c1801           leal rcx,[rax+r11*1+0x1]
0x280b6818d7a8   c68  47882438             movb [r8+r15*1],r12l
0x280b6818d7ac   c6c  450fb62408           movzxbl r12,[r8+rcx*1]
0x280b6818d7b1   c71  468d7c1a01           leal r15,[rdx+r11*1+0x1]
0x280b6818d7b6   c76  488bcf               REX.W movq rcx,rdi
0x280b6818d7b9   c79  41d3e4               shll r12, cl
0x280b6818d7bc   c7c  428d4c1802           leal rcx,[rax+r11*1+0x2]
0x280b6818d7c1   c81  47882438             movb [r8+r15*1],r12l
0x280b6818d7c5   c85  450fb62408           movzxbl r12,[r8+rcx*1]
0x280b6818d7ca   c8a  468d7c1a02           leal r15,[rdx+r11*1+0x2]
0x280b6818d7cf   c8f  488bcf               REX.W movq rcx,rdi
0x280b6818d7d2   c92  41d3e4               shll r12, cl
0x280b6818d7d5   c95  428d4c1803           leal rcx,[rax+r11*1+0x3]
0x280b6818d7da   c9a  47882438             movb [r8+r15*1],r12l
0x280b6818d7de   c9e  450fb62408           movzxbl r12,[r8+rcx*1]
0x280b6818d7e3   ca3  468d5c1a03           leal r11,[rdx+r11*1+0x3]
0x280b6818d7e8   ca8  488bcf               REX.W movq rcx,rdi
0x280b6818d7eb   cab  41d3e4               shll r12, cl
0x280b6818d7ee   cae  47882418             movb [r8+r11*1],r12l
0x280b6818d7f2   cb2  413bd9               cmpl rbx,r9
0x280b6818d7f5   cb5  7589                 jnz 0x280b6818d780  <+0xc40>
0x280b6818d7f7   cb7  488be5               REX.W movq rsp,rbp
0x280b6818d7fa   cba  5d                   pop rbp
0x280b6818d7fb   cbb  c3                   retl
0x280b6818d7fc   cbc  4c8945e0             REX.W movq [rbp-0x20],r8
0x280b6818d800   cc0  488955d0             REX.W movq [rbp-0x30],rdx
0x280b6818d804   cc4  4c895db8             REX.W movq [rbp-0x48],r11
0x280b6818d808   cc8  48895db0             REX.W movq [rbp-0x50],rbx
0x280b6818d80c   ccc  4889b528ffffff       REX.W movq [rbp-0xd8],rsi
0x280b6818d813   cd3  e8588bffff           call 0x280b68186370  (jump table)    ;; wasm stub: WasmStackGuard
0x280b6818d818   cd8  4c8b45e0             REX.W movq r8,[rbp-0x20]
0x280b6818d81c   cdc  488b55d0             REX.W movq rdx,[rbp-0x30]
0x280b6818d820   ce0  488b45c0             REX.W movq rax,[rbp-0x40]
0x280b6818d824   ce4  4c8b5db8             REX.W movq r11,[rbp-0x48]
0x280b6818d828   ce8  488b5db0             REX.W movq rbx,[rbp-0x50]
0x280b6818d82c   cec  4c8bbd38ffffff       REX.W movq r15,[rbp-0xc8]
0x280b6818d833   cf3  4c8ba530ffffff       REX.W movq r12,[rbp-0xd0]
0x280b6818d83a   cfa  488bb528ffffff       REX.W movq rsi,[rbp-0xd8]
0x280b6818d841   d01  e95ff4ffff           jmp 0x280b6818cca5  <+0x165>
0x280b6818d846   d06  4c8945e0             REX.W movq [rbp-0x20],r8
0x280b6818d84a   d0a  488955d0             REX.W movq [rbp-0x30],rdx
0x280b6818d84e   d0e  4c895dc8             REX.W movq [rbp-0x38],r11
0x280b6818d852   d12  4c894db8             REX.W movq [rbp-0x48],r9
0x280b6818d856   d16  48895db0             REX.W movq [rbp-0x50],rbx
0x280b6818d85a   d1a  4c89a550ffffff       REX.W movq [rbp-0xb0],r12
0x280b6818d861   d21  4c89bd20ffffff       REX.W movq [rbp-0xe0],r15
0x280b6818d868   d28  e8038bffff           call 0x280b68186370  (jump table)    ;; wasm stub: WasmStackGuard
0x280b6818d86d   d2d  4c8b45e0             REX.W movq r8,[rbp-0x20]
0x280b6818d871   d31  488b55d0             REX.W movq rdx,[rbp-0x30]
0x280b6818d875   d35  488b45c0             REX.W movq rax,[rbp-0x40]
0x280b6818d879   d39  4c8b5dc8             REX.W movq r11,[rbp-0x38]
0x280b6818d87d   d3d  4c8b4db8             REX.W movq r9,[rbp-0x48]
0x280b6818d881   d41  488b5db0             REX.W movq rbx,[rbp-0x50]
0x280b6818d885   d45  4c8ba550ffffff       REX.W movq r12,[rbp-0xb0]
0x280b6818d88c   d4c  488bb538ffffff       REX.W movq rsi,[rbp-0xc8]
0x280b6818d893   d53  488b8d28ffffff       REX.W movq rcx,[rbp-0xd8]
0x280b6818d89a   d5a  4c8bbd20ffffff       REX.W movq r15,[rbp-0xe0]
0x280b6818d8a1   d61  e9fcfbffff           jmp 0x280b6818d4a2  <+0x962>
0x280b6818d8a6   d66  4c8945e0             REX.W movq [rbp-0x20],r8
0x280b6818d8aa   d6a  488955d0             REX.W movq [rbp-0x30],rdx
0x280b6818d8ae   d6e  4c895dc8             REX.W movq [rbp-0x38],r11
0x280b6818d8b2   d72  4c897db8             REX.W movq [rbp-0x48],r15
0x280b6818d8b6   d76  488945b0             REX.W movq [rbp-0x50],rax
0x280b6818d8ba   d7a  48894da8             REX.W movq [rbp-0x58],rcx
0x280b6818d8be   d7e  4c8965a0             REX.W movq [rbp-0x60],r12
0x280b6818d8c2   d82  e8a98affff           call 0x280b68186370  (jump table)    ;; wasm stub: WasmStackGuard
0x280b6818d8c7   d87  4c8b45e0             REX.W movq r8,[rbp-0x20]
0x280b6818d8cb   d8b  488b55d0             REX.W movq rdx,[rbp-0x30]
0x280b6818d8cf   d8f  488b7dc0             REX.W movq rdi,[rbp-0x40]
0x280b6818d8d3   d93  4c8b5dc8             REX.W movq r11,[rbp-0x38]
0x280b6818d8d7   d97  4c8b7db8             REX.W movq r15,[rbp-0x48]
0x280b6818d8db   d9b  488b45b0             REX.W movq rax,[rbp-0x50]
0x280b6818d8df   d9f  488b4da8             REX.W movq rcx,[rbp-0x58]
0x280b6818d8e3   da3  4c8b65a0             REX.W movq r12,[rbp-0x60]
0x280b6818d8e7   da7  e9e1fdffff           jmp 0x280b6818d6cd  <+0xb8d>
0x280b6818d8ec   dac  4c8945e0             REX.W movq [rbp-0x20],r8
0x280b6818d8f0   db0  48897dd8             REX.W movq [rbp-0x28],rdi
0x280b6818d8f4   db4  488955d0             REX.W movq [rbp-0x30],rdx
0x280b6818d8f8   db8  4c895dc8             REX.W movq [rbp-0x38],r11
0x280b6818d8fc   dbc  488975b8             REX.W movq [rbp-0x48],rsi
0x280b6818d900   dc0  e86b8affff           call 0x280b68186370  (jump table)    ;; wasm stub: WasmStackGuard
0x280b6818d905   dc5  488b5de8             REX.W movq rbx,[rbp-0x18]
0x280b6818d909   dc9  4c8b45e0             REX.W movq r8,[rbp-0x20]
0x280b6818d90d   dcd  488b7dd8             REX.W movq rdi,[rbp-0x28]
0x280b6818d911   dd1  488b55d0             REX.W movq rdx,[rbp-0x30]
0x280b6818d915   dd5  4c8b5dc8             REX.W movq r11,[rbp-0x38]
0x280b6818d919   dd9  488b45c0             REX.W movq rax,[rbp-0x40]
0x280b6818d91d   ddd  488b75b8             REX.W movq rsi,[rbp-0x48]
0x280b6818d921   de1  e966feffff           jmp 0x280b6818d78c  <+0xc4c>
0x280b6818d926   de6  e8e587ffff           call 0x280b68186110  (jump table)    ;; wasm stub: ThrowWasmTrapMemOutOfBounds
0x280b6818d92b   deb  e8e087ffff           call 0x280b68186110  (jump table)    ;; wasm stub: ThrowWasmTrapMemOutOfBounds
0x280b6818d930   df0  e8db87ffff           call 0x280b68186110  (jump table)    ;; wasm stub: ThrowWasmTrapMemOutOfBounds
0x280b6818d935   df5  e8d687ffff           call 0x280b68186110  (jump table)    ;; wasm stub: ThrowWasmTrapMemOutOfBounds
0x280b6818d93a   dfa  e8d187ffff           call 0x280b68186110  (jump table)    ;; wasm stub: ThrowWasmTrapMemOutOfBounds
0x280b6818d93f   dff  e8cc87ffff           call 0x280b68186110  (jump table)    ;; wasm stub: ThrowWasmTrapMemOutOfBounds
0x280b6818d944   e04  e8c787ffff           call 0x280b68186110  (jump table)    ;; wasm stub: ThrowWasmTrapMemOutOfBounds
0x280b6818d949   e09  e8c287ffff           call 0x280b68186110  (jump table)    ;; wasm stub: ThrowWasmTrapMemOutOfBounds
0x280b6818d94e   e0e  e8bd87ffff           call 0x280b68186110  (jump table)    ;; wasm stub: ThrowWasmTrapMemOutOfBounds
0x280b6818d953   e13  e8b887ffff           call 0x280b68186110  (jump table)    ;; wasm stub: ThrowWasmTrapMemOutOfBounds
0x280b6818d958   e18  e8b387ffff           call 0x280b68186110  (jump table)    ;; wasm stub: ThrowWasmTrapMemOutOfBounds
0x280b6818d95d   e1d  e8ae87ffff           call 0x280b68186110  (jump table)    ;; wasm stub: ThrowWasmTrapMemOutOfBounds
0x280b6818d962   e22  e8a987ffff           call 0x280b68186110  (jump table)    ;; wasm stub: ThrowWasmTrapMemOutOfBounds
0x280b6818d967   e27  e8a487ffff           call 0x280b68186110  (jump table)    ;; wasm stub: ThrowWasmTrapMemOutOfBounds
0x280b6818d96c   e2c  e89f87ffff           call 0x280b68186110  (jump table)    ;; wasm stub: ThrowWasmTrapMemOutOfBounds
0x280b6818d971   e31  e89a87ffff           call 0x280b68186110  (jump table)    ;; wasm stub: ThrowWasmTrapMemOutOfBounds
0x280b6818d976   e36  e89587ffff           call 0x280b68186110  (jump table)    ;; wasm stub: ThrowWasmTrapMemOutOfBounds
0x280b6818d97b   e3b  e89087ffff           call 0x280b68186110  (jump table)    ;; wasm stub: ThrowWasmTrapMemOutOfBounds
0x280b6818d980   e40  e88b87ffff           call 0x280b68186110  (jump table)    ;; wasm stub: ThrowWasmTrapMemOutOfBounds
0x280b6818d985   e45  e88687ffff           call 0x280b68186110  (jump table)    ;; wasm stub: ThrowWasmTrapMemOutOfBounds
0x280b6818d98a   e4a  e88187ffff           call 0x280b68186110  (jump table)    ;; wasm stub: ThrowWasmTrapMemOutOfBounds
0x280b6818d98f   e4f  e87c87ffff           call 0x280b68186110  (jump table)    ;; wasm stub: ThrowWasmTrapMemOutOfBounds
0x280b6818d994   e54  90                   nop
0x280b6818d995   e55  0f1f00               nop

Protected instructions:
 pc offset  land pad
       cae       de6
       c9e       deb
       c9a       df0
       c85       df5
       c81       dfa
       c6c       dff
       c68       e04
       c54       e09
       bc6       e0e
       bb9       e13
       ba2       e18
       b93       e1d
       af2       e22
       96f       e27
       800       e2c
       66d       e31
       667       e36
       4cc       e3b
       4c6       e40
       31d       e45
       317       e4a
       172       e4f

Source positions:
 pc offset  position
       172       125
       317       384
       31d       403
       4c6       582
       4cc       601
       667       780
       66d       799
       800       978
       96f      1020
       af2      1247
       b93      1319
       ba2      1325
       bb9      1319
       bc6      1325
       c54      1368
       c68      1374
       c6c      1392
       c81      1398
       c85      1416
       c9a      1422
       c9e      1440
       cae      1446
       cbc       113
       d06      1008
       d66      1307
       dac      1356
       de6      1446
       deb      1440
       df0      1422
       df5      1416
       dfa      1398
       dff      1392
       e04      1374
       e09      1368
       e0e      1325
       e13      1319
       e18      1325
       e1d      1319
       e22      1247
       e27      1020
       e2c       978
       e31       799
       e36       780
       e3b       601
       e40       582
       e45       403
       e4a       384
       e4f       125

Safepoints (entries = 1, byte size = 14)
0x280b6818d818    cd8  slots (sp->fp): 00000000000000000000000000000000

RelocInfo (size = 32)
0x280b6818d814  wasm stub call
0x280b6818d869  wasm stub call
0x280b6818d8c3  wasm stub call
0x280b6818d901  wasm stub call
0x280b6818d927  wasm stub call
0x280b6818d92c  wasm stub call
0x280b6818d931  wasm stub call
0x280b6818d936  wasm stub call
0x280b6818d93b  wasm stub call
0x280b6818d940  wasm stub call
0x280b6818d945  wasm stub call
0x280b6818d94a  wasm stub call
0x280b6818d94f  wasm stub call
0x280b6818d954  wasm stub call
0x280b6818d959  wasm stub call
0x280b6818d95e  wasm stub call
0x280b6818d963  wasm stub call
0x280b6818d968  wasm stub call
0x280b6818d96d  wasm stub call
0x280b6818d972  wasm stub call
0x280b6818d977  wasm stub call
0x280b6818d97c  wasm stub call
0x280b6818d981  wasm stub call
0x280b6818d986  wasm stub call
0x280b6818d98b  wasm stub call
0x280b6818d990  wasm stub call

--- End code ---
--- WebAssembly code ---
name: main
index: 6
kind: wasm function
compiler: TurboFan
Body (size = 768 = 724 + 44 padding)
Instructions (size = 704)
0x280b6818db00     0  55                   push rbp
0x280b6818db01     1  4889e5               REX.W movq rbp,rsp
0x280b6818db04     4  6a08                 push 0x8
0x280b6818db06     6  56                   push rsi
0x280b6818db07     7  4883ec50             REX.W subq rsp,0x50
0x280b6818db0b     b  488b7e27             REX.W movq rdi,[rsi+0x27]
0x280b6818db0f     f  48897da0             REX.W movq [rbp-0x60],rdi
0x280b6818db13    13  483b27               REX.W cmpq rsp,[rdi]
0x280b6818db16    16  0f8615020000         jna 0x280b6818dd31  <+0x231>
0x280b6818db1c    1c  4c8b4617             REX.W movq r8,[rsi+0x17]
0x280b6818db20    20  4c8b4e47             REX.W movq r9,[rsi+0x47]
0x280b6818db24    24  458b19               movl r11,[r9]
0x280b6818db27    27  418d93c0d8ffff       leal rdx,[r11-0x2740]
0x280b6818db2e    2e  418911               movl [r9],rdx
0x280b6818db31    31  8d82b0130000         leal rax,[rdx+0x13b0]
0x280b6818db37    37  4c8945d8             REX.W movq [rbp-0x28],r8
0x280b6818db3b    3b  4c894de8             REX.W movq [rbp-0x18],r9
0x280b6818db3f    3f  488955e0             REX.W movq [rbp-0x20],rdx
0x280b6818db43    43  4533db               xorl r11,r11
0x280b6818db46    46  488945b8             REX.W movq [rbp-0x48],rax
0x280b6818db4a    4a  4d8be3               REX.W movq r12,r11
0x280b6818db4d    4d  e935000000           jmp 0x280b6818db87  <+0x87>
0x280b6818db52    52  660f1f840000000000   nop
0x280b6818db5b    5b  660f1f840000000000   nop
0x280b6818db64    64  660f1f840000000000   nop
0x280b6818db6d    6d  660f1f840000000000   nop
0x280b6818db76    76  660f1f840000000000   nop
0x280b6818db7f    7f  90                   nop
0x280b6818db80    80  4d8be7               REX.W movq r12,r15
0x280b6818db83    83  488b7da0             REX.W movq rdi,[rbp-0x60]
0x280b6818db87    87  483b27               REX.W cmpq rsp,[rdi]
0x280b6818db8a    8a  0f86b3010000         jna 0x280b6818dd43  <+0x243>
0x280b6818db90    90  458d7c2408           leal r15,[r12+0x8]
0x280b6818db95    95  428d1c20             leal rbx,[rax+r12*1]
0x280b6818db99    99  4c89e1               REX.W movq rcx,r12
0x280b6818db9c    9c  83c901               orl rcx,0x1
0x280b6818db9f    9f  8d3c08               leal rdi,[rax+rcx*1]
0x280b6818dba2    a2  4d89e1               REX.W movq r9,r12
0x280b6818dba5    a5  4183c902             orl r9,0x2
0x280b6818dba9    a9  41880c18             movb [r8+rbx*1],cl
0x280b6818dbad    ad  428d1c08             leal rbx,[rax+r9*1]
0x280b6818dbb1    b1  4c89e1               REX.W movq rcx,r12
0x280b6818dbb4    b4  83c903               orl rcx,0x3
0x280b6818dbb7    b7  45880c38             movb [r8+rdi*1],r9l
0x280b6818dbbb    bb  8d3c08               leal rdi,[rax+rcx*1]
0x280b6818dbbe    be  4d89e1               REX.W movq r9,r12
0x280b6818dbc1    c1  4183c904             orl r9,0x4
0x280b6818dbc5    c5  41880c18             movb [r8+rbx*1],cl
0x280b6818dbc9    c9  428d1c08             leal rbx,[rax+r9*1]
0x280b6818dbcd    cd  4c89e1               REX.W movq rcx,r12
0x280b6818dbd0    d0  83c905               orl rcx,0x5
0x280b6818dbd3    d3  45880c38             movb [r8+rdi*1],r9l
0x280b6818dbd7    d7  8d3c08               leal rdi,[rax+rcx*1]
0x280b6818dbda    da  4d89e1               REX.W movq r9,r12
0x280b6818dbdd    dd  4183c906             orl r9,0x6
0x280b6818dbe1    e1  41880c18             movb [r8+rbx*1],cl
0x280b6818dbe5    e5  428d1c08             leal rbx,[rax+r9*1]
0x280b6818dbe9    e9  4183cc07             orl r12,0x7
0x280b6818dbed    ed  45880c38             movb [r8+rdi*1],r9l
0x280b6818dbf1    f1  428d3c20             leal rdi,[rax+r12*1]
0x280b6818dbf5    f5  45882418             movb [r8+rbx*1],r12l
0x280b6818dbf9    f9  45883c38             movb [r8+rdi*1],r15l
0x280b6818dbfd    fd  4181ff88130000       cmpl r15,0x1388
0x280b6818dc04   104  0f8576ffffff         jnz 0x280b6818db80  <+0x80>
0x280b6818dc0a   10a  8b7e0b               movl rdi,[rsi+0xb]
0x280b6818dc0d   10d  4903fe               REX.W addq rdi,r14
0x280b6818dc10   110  448b4f07             movl r9,[rdi+0x7]
0x280b6818dc14   114  4d03ce               REX.W addq r9,r14
0x280b6818dc17   117  4c8b662f             REX.W movq r12,[rsi+0x2f]
0x280b6818dc1b   11b  4d8b3c24             REX.W movq r15,[r12]
0x280b6818dc1f   11f  8d5a18               leal rbx,[rdx+0x18]
0x280b6818dc22   122  48897dc8             REX.W movq [rbp-0x38],rdi
0x280b6818dc26   126  4c8965d0             REX.W movq [rbp-0x30],r12
0x280b6818dc2a   12a  498bf1               REX.W movq rsi,r9
0x280b6818dc2d   12d  488bc3               REX.W movq rax,rbx
0x280b6818dc30   130  498bd3               REX.W movq rdx,r11
0x280b6818dc33   133  41ffd7               call r15
0x280b6818dc36   136  488b55e0             REX.W movq rdx,[rbp-0x20]
0x280b6818dc3a   13a  8d7a20               leal rdi,[rdx+0x20]
0x280b6818dc3d   13d  48897db0             REX.W movq [rbp-0x50],rdi
0x280b6818dc41   141  33c9                 xorl rcx,rcx
0x280b6818dc43   143  e944000000           jmp 0x280b6818dc8c  <+0x18c>
0x280b6818dc48   148  660f1f840000000000   nop
0x280b6818dc51   151  660f1f840000000000   nop
0x280b6818dc5a   15a  660f1f840000000000   nop
0x280b6818dc63   163  660f1f840000000000   nop
0x280b6818dc6c   16c  660f1f840000000000   nop
0x280b6818dc75   175  660f1f840000000000   nop
0x280b6818dc7e   17e  6690                 nop
0x280b6818dc80   180  488b4dc0             REX.W movq rcx,[rbp-0x40]
0x280b6818dc84   184  488b55e0             REX.W movq rdx,[rbp-0x20]
0x280b6818dc88   188  488b7db0             REX.W movq rdi,[rbp-0x50]
0x280b6818dc8c   18c  4c8b45a0             REX.W movq r8,[rbp-0x60]
0x280b6818dc90   190  493b20               REX.W cmpq rsp,[r8]
0x280b6818dc93   193  0f86cf000000         jna 0x280b6818dd68  <+0x268>
0x280b6818dc99   199  448d4901             leal r9,[rcx+0x1]
0x280b6818dc9d   19d  4c894dc0             REX.W movq [rbp-0x40],r9
0x280b6818dca1   1a1  488b75f0             REX.W movq rsi,[rbp-0x10]
0x280b6818dca5   1a5  488b45b8             REX.W movq rax,[rbp-0x48]
0x280b6818dca9   1a9  488bd7               REX.W movq rdx,rdi
0x280b6818dcac   1ac  bb88130000           movl rbx,0x1388
0x280b6818dcb1   1b1  e84f83ffff           call 0x280b68186005  (jump table)    ;; internal wasm call
0x280b6818dcb6   1b6  817dc010270000       cmpl [rbp-0x40],0x2710
0x280b6818dcbd   1bd  75c1                 jnz 0x280b6818dc80  <+0x180>
0x280b6818dcbf   1bf  488b7dc8             REX.W movq rdi,[rbp-0x38]
0x280b6818dcc3   1c3  8b7707               movl rsi,[rdi+0x7]
0x280b6818dcc6   1c6  4903f6               REX.W addq rsi,r14
0x280b6818dcc9   1c9  488b7dd0             REX.W movq rdi,[rbp-0x30]
0x280b6818dccd   1cd  488b3f               REX.W movq rdi,[rdi]
0x280b6818dcd0   1d0  488b55e0             REX.W movq rdx,[rbp-0x20]
0x280b6818dcd4   1d4  8d4210               leal rax,[rdx+0x10]
0x280b6818dcd7   1d7  33d2                 xorl rdx,rdx
0x280b6818dcd9   1d9  ffd7                 call rdi
0x280b6818dcdb   1db  488b55e0             REX.W movq rdx,[rbp-0x20]
0x280b6818dcdf   1df  488b7dd8             REX.W movq rdi,[rbp-0x28]
0x280b6818dce3   1e3  448b443a14           movl r8,[rdx+rdi*1+0x14]
0x280b6818dce8   1e8  448b4c3a1c           movl r9,[rdx+rdi*1+0x1c]
0x280b6818dced   1ed  448b5c3a10           movl r11,[rdx+rdi*1+0x10]
0x280b6818dcf2   1f2  448b643a18           movl r12,[rdx+rdi*1+0x18]
0x280b6818dcf7   1f7  4529e3               subl r11,r12
0x280b6818dcfa   1fa  4569db40420f00       imull r11,r11,0xf4240
0x280b6818dd01   201  452bc1               subl r8,r9
0x280b6818dd04   204  4503c3               addl r8,r11
0x280b6818dd07   207  44890417             movl [rdi+rdx*1],r8
0x280b6818dd0b   20b  b811040000           movl rax,0x411
0x280b6818dd10   210  488b75f0             REX.W movq rsi,[rbp-0x10]
0x280b6818dd14   214  e8f682ffff           call 0x280b6818600f  (jump table)    ;; internal wasm call
0x280b6818dd19   219  488b7de0             REX.W movq rdi,[rbp-0x20]
0x280b6818dd1d   21d  81c740270000         addl rdi,0x2740
0x280b6818dd23   223  4c8b45e8             REX.W movq r8,[rbp-0x18]
0x280b6818dd27   227  418938               movl [r8],rdi
0x280b6818dd2a   22a  33c0                 xorl rax,rax
0x280b6818dd2c   22c  488be5               REX.W movq rsp,rbp
0x280b6818dd2f   22f  5d                   pop rbp
0x280b6818dd30   230  c3                   retl
0x280b6818dd31   231  e83a86ffff           call 0x280b68186370  (jump table)    ;; wasm stub: WasmStackGuard
0x280b6818dd36   236  488b75f0             REX.W movq rsi,[rbp-0x10]
0x280b6818dd3a   23a  488b7da0             REX.W movq rdi,[rbp-0x60]
0x280b6818dd3e   23e  e9d9fdffff           jmp 0x280b6818db1c  <+0x1c>
0x280b6818dd43   243  4c8965d0             REX.W movq [rbp-0x30],r12
0x280b6818dd47   247  e82486ffff           call 0x280b68186370  (jump table)    ;; wasm stub: WasmStackGuard
0x280b6818dd4c   24c  4533db               xorl r11,r11
0x280b6818dd4f   24f  488b55e0             REX.W movq rdx,[rbp-0x20]
0x280b6818dd53   253  488b75f0             REX.W movq rsi,[rbp-0x10]
0x280b6818dd57   257  4c8b45d8             REX.W movq r8,[rbp-0x28]
0x280b6818dd5b   25b  488b45b8             REX.W movq rax,[rbp-0x48]
0x280b6818dd5f   25f  4c8b65d0             REX.W movq r12,[rbp-0x30]
0x280b6818dd63   263  e928feffff           jmp 0x280b6818db90  <+0x90>
0x280b6818dd68   268  48894da8             REX.W movq [rbp-0x58],rcx
0x280b6818dd6c   26c  e8ff85ffff           call 0x280b68186370  (jump table)    ;; wasm stub: WasmStackGuard
0x280b6818dd71   271  488b7db0             REX.W movq rdi,[rbp-0x50]
0x280b6818dd75   275  488b4da8             REX.W movq rcx,[rbp-0x58]
0x280b6818dd79   279  e91bffffff           jmp 0x280b6818dc99  <+0x199>
0x280b6818dd7e   27e  e88d83ffff           call 0x280b68186110  (jump table)    ;; wasm stub: ThrowWasmTrapMemOutOfBounds
0x280b6818dd83   283  e88883ffff           call 0x280b68186110  (jump table)    ;; wasm stub: ThrowWasmTrapMemOutOfBounds
0x280b6818dd88   288  e88383ffff           call 0x280b68186110  (jump table)    ;; wasm stub: ThrowWasmTrapMemOutOfBounds
0x280b6818dd8d   28d  e87e83ffff           call 0x280b68186110  (jump table)    ;; wasm stub: ThrowWasmTrapMemOutOfBounds
0x280b6818dd92   292  e87983ffff           call 0x280b68186110  (jump table)    ;; wasm stub: ThrowWasmTrapMemOutOfBounds
0x280b6818dd97   297  e87483ffff           call 0x280b68186110  (jump table)    ;; wasm stub: ThrowWasmTrapMemOutOfBounds
0x280b6818dd9c   29c  e86f83ffff           call 0x280b68186110  (jump table)    ;; wasm stub: ThrowWasmTrapMemOutOfBounds
0x280b6818dda1   2a1  e86a83ffff           call 0x280b68186110  (jump table)    ;; wasm stub: ThrowWasmTrapMemOutOfBounds
0x280b6818dda6   2a6  e86583ffff           call 0x280b68186110  (jump table)    ;; wasm stub: ThrowWasmTrapMemOutOfBounds
0x280b6818ddab   2ab  e86083ffff           call 0x280b68186110  (jump table)    ;; wasm stub: ThrowWasmTrapMemOutOfBounds
0x280b6818ddb0   2b0  e85b83ffff           call 0x280b68186110  (jump table)    ;; wasm stub: ThrowWasmTrapMemOutOfBounds
0x280b6818ddb5   2b5  e85683ffff           call 0x280b68186110  (jump table)    ;; wasm stub: ThrowWasmTrapMemOutOfBounds
0x280b6818ddba   2ba  e85183ffff           call 0x280b68186110  (jump table)    ;; wasm stub: ThrowWasmTrapMemOutOfBounds
0x280b6818ddbf   2bf  90                   nop

Protected instructions:
 pc offset  land pad
       207       27e
       1f2       283
       1ed       288
       1e8       28d
       1e3       292
        f9       297
        f5       29c
        ed       2a1
        e1       2a6
        d3       2ab
        c5       2b0
        b7       2b5
        a9       2ba

Source positions:
 pc offset  position
        a9        36
        b7        55
        c5        74
        d3        93
        e1       112
        ed       131
        f5       150
        f9       169
       122       192
       19d       213
       1d7       237
       1db       244
       1e8       249
       1ed       255
       1f2       260
       207       270
       20b       278
       231         0
       243        18
       268       195
       27e       270
       283       260
       288       255
       28d       249
       292       244
       297       169
       29c       150
       2a1       131
       2a6       112
       2ab        93
       2b0        74
       2b5        55
       2ba        36

Safepoints (entries = 4, byte size = 20)
0x280b6818dc36    136  slots (sp->fp): 00000100
0x280b6818dcdb    1db  slots (sp->fp): 00000000
0x280b6818dd71    271  slots (sp->fp): 00000100
0x280b6818dd83    283  slots (sp->fp): 00000000

RelocInfo (size = 24)
0x280b6818dcb2  internal wasm call
0x280b6818dd15  internal wasm call
0x280b6818dd32  wasm stub call
0x280b6818dd48  wasm stub call
0x280b6818dd6d  wasm stub call
0x280b6818dd7f  wasm stub call
0x280b6818dd84  wasm stub call
0x280b6818dd89  wasm stub call
0x280b6818dd8e  wasm stub call
0x280b6818dd93  wasm stub call
0x280b6818dd98  wasm stub call
0x280b6818dd9d  wasm stub call
0x280b6818dda2  wasm stub call
0x280b6818dda7  wasm stub call
0x280b6818ddac  wasm stub call
0x280b6818ddb1  wasm stub call
0x280b6818ddb6  wasm stub call
0x280b6818ddbb  wasm stub call

--- End code ---
--- WebAssembly code ---
name: iprintf
index: 7
kind: wasm function
compiler: TurboFan
Body (size = 192 = 140 + 52 padding)
Instructions (size = 128)
0x280b6818de00     0  55                   push rbp
0x280b6818de01     1  4889e5               REX.W movq rbp,rsp
0x280b6818de04     4  6a08                 push 0x8
0x280b6818de06     6  56                   push rsi
0x280b6818de07     7  4883ec20             REX.W subq rsp,0x20
0x280b6818de0b     b  488b5e27             REX.W movq rbx,[rsi+0x27]
0x280b6818de0f     f  483b23               REX.W cmpq rsp,[rbx]
0x280b6818de12    12  0f8644000000         jna 0x280b6818de5c  <+0x5c>
0x280b6818de18    18  488b5e17             REX.W movq rbx,[rsi+0x17]
0x280b6818de1c    1c  488b7e47             REX.W movq rdi,[rsi+0x47]
0x280b6818de20    20  448b07               movl r8,[rdi]
0x280b6818de23    23  4183e810             subl r8,0x10
0x280b6818de27    27  448907               movl [rdi],r8
0x280b6818de2a    2a  418954180c           movl [r8+rbx*1+0xc],rdx
0x280b6818de2f    2f  48897de8             REX.W movq [rbp-0x18],rdi
0x280b6818de33    33  4c8945e0             REX.W movq [rbp-0x20],r8
0x280b6818de37    37  488bca               REX.W movq rcx,rdx
0x280b6818de3a    3a  488bd0               REX.W movq rdx,rax
0x280b6818de3d    3d  b800060000           movl rax,0x600
0x280b6818de42    42  488bd8               REX.W movq rbx,rax
0x280b6818de45    45  e84082ffff           call 0x280b6818608a  (jump table)    ;; internal wasm call
0x280b6818de4a    4a  488b5de0             REX.W movq rbx,[rbp-0x20]
0x280b6818de4e    4e  83c310               addl rbx,0x10
0x280b6818de51    51  488b7de8             REX.W movq rdi,[rbp-0x18]
0x280b6818de55    55  891f                 movl [rdi],rbx
0x280b6818de57    57  488be5               REX.W movq rsp,rbp
0x280b6818de5a    5a  5d                   pop rbp
0x280b6818de5b    5b  c3                   retl
0x280b6818de5c    5c  488945d8             REX.W movq [rbp-0x28],rax
0x280b6818de60    60  488955d0             REX.W movq [rbp-0x30],rdx
0x280b6818de64    64  e80785ffff           call 0x280b68186370  (jump table)    ;; wasm stub: WasmStackGuard
0x280b6818de69    69  488b75f0             REX.W movq rsi,[rbp-0x10]
0x280b6818de6d    6d  488b45d8             REX.W movq rax,[rbp-0x28]
0x280b6818de71    71  488b55d0             REX.W movq rdx,[rbp-0x30]
0x280b6818de75    75  eba1                 jmp 0x280b6818de18  <+0x18>
0x280b6818de77    77  e89482ffff           call 0x280b68186110  (jump table)    ;; wasm stub: ThrowWasmTrapMemOutOfBounds
0x280b6818de7c    7c  90                   nop
0x280b6818de7d    7d  0f1f00               nop

Protected instructions:
 pc offset  land pad
        2a        77

Source positions:
 pc offset  position
        2a        16
        2f        26
        5c         0
        77        16

Safepoints (entries = 1, byte size = 10)
0x280b6818de4a     4a  slots (sp->fp): 00000000

RelocInfo (size = 6)
0x280b6818de46  internal wasm call
0x280b6818de65  wasm stub call
0x280b6818de78  wasm stub call

--- End code ---
--- WebAssembly code ---
name: __fwritex
index: 20
kind: wasm function
compiler: TurboFan
Body (size = 768 = 740 + 28 padding)
Instructions (size = 728)
0x280b6818dec0     0  55                   push rbp
0x280b6818dec1     1  4889e5               REX.W movq rbp,rsp
0x280b6818dec4     4  6a08                 push 0x8
0x280b6818dec6     6  56                   push rsi
0x280b6818dec7     7  4883ec40             REX.W subq rsp,0x40
0x280b6818decb     b  488b5e27             REX.W movq rbx,[rsi+0x27]
0x280b6818decf     f  48894de8             REX.W movq [rbp-0x18],rcx
0x280b6818ded3    13  488945e0             REX.W movq [rbp-0x20],rax
0x280b6818ded7    17  488955d8             REX.W movq [rbp-0x28],rdx
0x280b6818dedb    1b  48895db0             REX.W movq [rbp-0x50],rbx
0x280b6818dedf    1f  483b23               REX.W cmpq rsp,[rbx]
0x280b6818dee2    22  0f860f020000         jna 0x280b6818e0f7  <+0x237>
0x280b6818dee8    28  488b7e17             REX.W movq rdi,[rsi+0x17]
0x280b6818deec    2c  448bc1               movl r8,rcx
0x280b6818deef    2f  458b4c3810           movl r9,[r8+rdi*1+0x10]
0x280b6818def4    34  48897dc8             REX.W movq [rbp-0x38],rdi
0x280b6818def8    38  4c8945d0             REX.W movq [rbp-0x30],r8
0x280b6818defc    3c  4183f900             cmpl r9,0x0
0x280b6818df00    40  0f8535000000         jnz 0x280b6818df3b  <+0x7b>
0x280b6818df06    46  488bc1               REX.W movq rax,rcx
0x280b6818df09    49  e82481ffff           call 0x280b68186032  (jump table)    ;; internal wasm call
0x280b6818df0e    4e  83f800               cmpl rax,0x0
0x280b6818df11    51  0f85d9010000         jnz 0x280b6818e0f0  <+0x230>
0x280b6818df17    57  488b5dd0             REX.W movq rbx,[rbp-0x30]
0x280b6818df1b    5b  488b7dc8             REX.W movq rdi,[rbp-0x38]
0x280b6818df1f    5f  448b4c3b10           movl r9,[rbx+rdi*1+0x10]
0x280b6818df24    64  4c8bc3               REX.W movq r8,rbx
0x280b6818df27    67  488b5db0             REX.W movq rbx,[rbp-0x50]
0x280b6818df2b    6b  488b4de8             REX.W movq rcx,[rbp-0x18]
0x280b6818df2f    6f  488b45e0             REX.W movq rax,[rbp-0x20]
0x280b6818df33    73  488b55d8             REX.W movq rdx,[rbp-0x28]
0x280b6818df37    77  488b75f0             REX.W movq rsi,[rbp-0x10]
0x280b6818df3b    7b  458b5c3814           movl r11,[r8+rdi*1+0x14]
0x280b6818df40    80  452bcb               subl r9,r11
0x280b6818df43    83  443bca               cmpl r9,rdx
0x280b6818df46    86  0f824e010000         jc 0x280b6818e09a  <+0x1da>
0x280b6818df4c    8c  458b4c3850           movl r9,[r8+rdi*1+0x50]
0x280b6818df51    91  4183f900             cmpl r9,0x0
0x280b6818df55    95  0f8c02010000         jl 0x280b6818e05d  <+0x19d>
0x280b6818df5b    9b  4c8bcb               REX.W movq r9,rbx
0x280b6818df5e    9e  488bda               REX.W movq rbx,rdx
0x280b6818df61    a1  4c8be0               REX.W movq r12,rax
0x280b6818df64    a4  660f1f840000000000   nop
0x280b6818df6d    ad  660f1f840000000000   nop
0x280b6818df76    b6  660f1f840000000000   nop
0x280b6818df7f    bf  90                   nop
0x280b6818df80    c0  493b21               REX.W cmpq rsp,[r9]
0x280b6818df83    c3  0f868c010000         jna 0x280b6818e115  <+0x255>
0x280b6818df89    c9  83fb00               cmpl rbx,0x0
0x280b6818df8c    cc  0f84c1000000         jz 0x280b6818e053  <+0x193>
0x280b6818df92    d2  448d7bff             leal r15,[rbx-0x1]
0x280b6818df96    d6  438d0427             leal rax,[r15+r12*1]
0x280b6818df9a    da  0fb60407             movzxbl rax,[rdi+rax*1]
0x280b6818df9e    de  83f80a               cmpl rax,0xa
0x280b6818dfa1    e1  0f841d000000         jz 0x280b6818dfc4  <+0x104>
0x280b6818dfa7    e7  83fb01               cmpl rbx,0x1
0x280b6818dfaa    ea  0f84a3000000         jz 0x280b6818e053  <+0x193>
0x280b6818dfb0    f0  418d5fff             leal rbx,[r15-0x1]
0x280b6818dfb4    f4  428d0423             leal rax,[rbx+r12*1]
0x280b6818dfb8    f8  0fb60407             movzxbl rax,[rdi+rax*1]
0x280b6818dfbc    fc  83f80a               cmpl rax,0xa
0x280b6818dfbf    ff  75bf                 jnz 0x280b6818df80  <+0xc0>
0x280b6818dfc1   101  498bdf               REX.W movq rbx,r15
0x280b6818dfc4   104  458b4c3824           movl r9,[r8+rdi*1+0x24]
0x280b6818dfc9   109  4c8b5e3f             REX.W movq r11,[rsi+0x3f]
0x280b6818dfcd   10d  4c8b7e37             REX.W movq r15,[rsi+0x37]
0x280b6818dfd1   111  8b460f               movl rax,[rsi+0xf]
0x280b6818dfd4   114  4903c6               REX.W addq rax,r14
0x280b6818dfd7   117  428d0c8d00000000     leal rcx,[r9*4+0x0]
0x280b6818dfdf   11f  4183f904             cmpl r9,0x4
0x280b6818dfe3   123  0f8385010000         jnc 0x280b6818e16e  <+0x2ae>
0x280b6818dfe9   129  41833c0b00           cmpl [r11+rcx*1],0x0
0x280b6818dfee   12e  0f8575010000         jnz 0x280b6818e169  <+0x2a9>
0x280b6818dff4   134  468b5c8807           movl r11,[rax+r9*4+0x7]
0x280b6818dff9   139  4d03de               REX.W addq r11,r14
0x280b6818dffc   13c  4f8b0ccf             REX.W movq r9,[r15+r9*8]
0x280b6818e000   140  48895dc0             REX.W movq [rbp-0x40],rbx
0x280b6818e004   144  498bf3               REX.W movq rsi,r11
0x280b6818e007   147  488b45e8             REX.W movq rax,[rbp-0x18]
0x280b6818e00b   14b  4c89e2               REX.W movq rdx,r12
0x280b6818e00e   14e  488bcb               REX.W movq rcx,rbx
0x280b6818e011   151  41ffd1               call r9
0x280b6818e014   154  3b45c0               cmpl rax,[rbp-0x40]
0x280b6818e017   157  0f8231000000         jc 0x280b6818e04e  <+0x18e>
0x280b6818e01d   15d  488b55d8             REX.W movq rdx,[rbp-0x28]
0x280b6818e021   161  2b55c0               subl rdx,[rbp-0x40]
0x280b6818e024   164  488b5de0             REX.W movq rbx,[rbp-0x20]
0x280b6818e028   168  488b7dc0             REX.W movq rdi,[rbp-0x40]
0x280b6818e02c   16c  8d043b               leal rax,[rbx+rdi*1]
0x280b6818e02f   16f  4c8b45d0             REX.W movq r8,[rbp-0x30]
0x280b6818e033   173  4c8b4dc8             REX.W movq r9,[rbp-0x38]
0x280b6818e037   177  478b5c0814           movl r11,[r8+r9*1+0x14]
0x280b6818e03c   17c  488bd8               REX.W movq rbx,rax
0x280b6818e03f   17f  488bc7               REX.W movq rax,rdi
0x280b6818e042   182  498bf9               REX.W movq rdi,r9
0x280b6818e045   185  488b75f0             REX.W movq rsi,[rbp-0x10]
0x280b6818e049   189  e914000000           jmp 0x280b6818e062  <+0x1a2>
0x280b6818e04e   18e  488be5               REX.W movq rsp,rbp
0x280b6818e051   191  5d                   pop rbp
0x280b6818e052   192  c3                   retl
0x280b6818e053   193  33c0                 xorl rax,rax
0x280b6818e055   195  4c89e3               REX.W movq rbx,r12
0x280b6818e058   198  e905000000           jmp 0x280b6818e062  <+0x1a2>
0x280b6818e05d   19d  488bd8               REX.W movq rbx,rax
0x280b6818e060   1a0  33c0                 xorl rax,rax
0x280b6818e062   1a2  488955d8             REX.W movq [rbp-0x28],rdx
0x280b6818e066   1a6  488945c0             REX.W movq [rbp-0x40],rax
0x280b6818e06a   1aa  498bc3               REX.W movq rax,r11
0x280b6818e06d   1ad  488bca               REX.W movq rcx,rdx
0x280b6818e070   1b0  488bd3               REX.W movq rdx,rbx
0x280b6818e073   1b3  e8d77fffff           call 0x280b6818604f  (jump table)    ;; internal wasm call
0x280b6818e078   1b8  488b5dd0             REX.W movq rbx,[rbp-0x30]
0x280b6818e07c   1bc  488b7dc8             REX.W movq rdi,[rbp-0x38]
0x280b6818e080   1c0  448b443b14           movl r8,[rbx+rdi*1+0x14]
0x280b6818e085   1c5  488b55d8             REX.W movq rdx,[rbp-0x28]
0x280b6818e089   1c9  4403c2               addl r8,rdx
0x280b6818e08c   1cc  4489443b14           movl [rbx+rdi*1+0x14],r8
0x280b6818e091   1d1  488b5dc0             REX.W movq rbx,[rbp-0x40]
0x280b6818e095   1d5  8d041a               leal rax,[rdx+rbx*1]
0x280b6818e098   1d8  ebb4                 jmp 0x280b6818e04e  <+0x18e>
0x280b6818e09a   1da  418b5c3824           movl rbx,[r8+rdi*1+0x24]
0x280b6818e09f   1df  488bfe               REX.W movq rdi,rsi
0x280b6818e0a2   1e2  4c8b473f             REX.W movq r8,[rdi+0x3f]
0x280b6818e0a6   1e6  4c8b4f37             REX.W movq r9,[rdi+0x37]
0x280b6818e0aa   1ea  8b7f0f               movl rdi,[rdi+0xf]
0x280b6818e0ad   1ed  4903fe               REX.W addq rdi,r14
0x280b6818e0b0   1f0  448d1c9d00000000     leal r11,[rbx*4+0x0]
0x280b6818e0b8   1f8  83fb04               cmpl rbx,0x4
0x280b6818e0bb   1fb  0f838f000000         jnc 0x280b6818e150  <+0x290>
0x280b6818e0c1   201  43833c1800           cmpl [r8+r11*1],0x0
0x280b6818e0c6   206  0f857f000000         jnz 0x280b6818e14b  <+0x28b>
0x280b6818e0cc   20c  8b749f07             movl rsi,[rdi+rbx*4+0x7]
0x280b6818e0d0   210  4903f6               REX.W addq rsi,r14
0x280b6818e0d3   213  498b1cd9             REX.W movq rbx,[r9+rbx*8]
0x280b6818e0d7   217  4c8bd0               REX.W movq r10,rax
0x280b6818e0da   21a  488bc2               REX.W movq rax,rdx
0x280b6818e0dd   21d  498bd2               REX.W movq rdx,r10
0x280b6818e0e0   220  4c8bd1               REX.W movq r10,rcx
0x280b6818e0e3   223  488bc8               REX.W movq rcx,rax
0x280b6818e0e6   226  498bc2               REX.W movq rax,r10
0x280b6818e0e9   229  ffd3                 call rbx
0x280b6818e0eb   22b  e95effffff           jmp 0x280b6818e04e  <+0x18e>
0x280b6818e0f0   230  33c0                 xorl rax,rax
0x280b6818e0f2   232  e957ffffff           jmp 0x280b6818e04e  <+0x18e>
0x280b6818e0f7   237  e87482ffff           call 0x280b68186370  (jump table)    ;; wasm stub: WasmStackGuard
0x280b6818e0fc   23c  488b4de8             REX.W movq rcx,[rbp-0x18]
0x280b6818e100   240  488b45e0             REX.W movq rax,[rbp-0x20]
0x280b6818e104   244  488b55d8             REX.W movq rdx,[rbp-0x28]
0x280b6818e108   248  488b75f0             REX.W movq rsi,[rbp-0x10]
0x280b6818e10c   24c  488b5db0             REX.W movq rbx,[rbp-0x50]
0x280b6818e110   250  e9d3fdffff           jmp 0x280b6818dee8  <+0x28>
0x280b6818e115   255  4c895dc0             REX.W movq [rbp-0x40],r11
0x280b6818e119   259  48895db8             REX.W movq [rbp-0x48],rbx
0x280b6818e11d   25d  e84e82ffff           call 0x280b68186370  (jump table)    ;; wasm stub: WasmStackGuard
0x280b6818e122   262  488b4de8             REX.W movq rcx,[rbp-0x18]
0x280b6818e126   266  4c8b65e0             REX.W movq r12,[rbp-0x20]
0x280b6818e12a   26a  488b55d8             REX.W movq rdx,[rbp-0x28]
0x280b6818e12e   26e  488b75f0             REX.W movq rsi,[rbp-0x10]
0x280b6818e132   272  4c8b45d0             REX.W movq r8,[rbp-0x30]
0x280b6818e136   276  488b7dc8             REX.W movq rdi,[rbp-0x38]
0x280b6818e13a   27a  4c8b5dc0             REX.W movq r11,[rbp-0x40]
0x280b6818e13e   27e  488b5db8             REX.W movq rbx,[rbp-0x48]
0x280b6818e142   282  4c8b4db0             REX.W movq r9,[rbp-0x50]
0x280b6818e146   286  e93efeffff           jmp 0x280b6818df89  <+0xc9>
0x280b6818e14b   28b  e82080ffff           call 0x280b68186170  (jump table)    ;; wasm stub: ThrowWasmTrapFuncSigMismatch
0x280b6818e150   290  e84b80ffff           call 0x280b681861a0  (jump table)    ;; wasm stub: ThrowWasmTrapTableOutOfBounds
0x280b6818e155   295  e8b67fffff           call 0x280b68186110  (jump table)    ;; wasm stub: ThrowWasmTrapMemOutOfBounds
0x280b6818e15a   29a  e8b17fffff           call 0x280b68186110  (jump table)    ;; wasm stub: ThrowWasmTrapMemOutOfBounds
0x280b6818e15f   29f  e8ac7fffff           call 0x280b68186110  (jump table)    ;; wasm stub: ThrowWasmTrapMemOutOfBounds
0x280b6818e164   2a4  e8a77fffff           call 0x280b68186110  (jump table)    ;; wasm stub: ThrowWasmTrapMemOutOfBounds
0x280b6818e169   2a9  e80280ffff           call 0x280b68186170  (jump table)    ;; wasm stub: ThrowWasmTrapFuncSigMismatch
0x280b6818e16e   2ae  e82d80ffff           call 0x280b681861a0  (jump table)    ;; wasm stub: ThrowWasmTrapTableOutOfBounds
0x280b6818e173   2b3  e8987fffff           call 0x280b68186110  (jump table)    ;; wasm stub: ThrowWasmTrapMemOutOfBounds
0x280b6818e178   2b8  e8937fffff           call 0x280b68186110  (jump table)    ;; wasm stub: ThrowWasmTrapMemOutOfBounds
0x280b6818e17d   2bd  e88e7fffff           call 0x280b68186110  (jump table)    ;; wasm stub: ThrowWasmTrapMemOutOfBounds
0x280b6818e182   2c2  e8897fffff           call 0x280b68186110  (jump table)    ;; wasm stub: ThrowWasmTrapMemOutOfBounds
0x280b6818e187   2c7  e8847fffff           call 0x280b68186110  (jump table)    ;; wasm stub: ThrowWasmTrapMemOutOfBounds
0x280b6818e18c   2cc  e87f7fffff           call 0x280b68186110  (jump table)    ;; wasm stub: ThrowWasmTrapMemOutOfBounds
0x280b6818e191   2d1  e87a7fffff           call 0x280b68186110  (jump table)    ;; wasm stub: ThrowWasmTrapMemOutOfBounds
0x280b6818e196   2d6  90                   nop
0x280b6818e197   2d7  90                   nop

Protected instructions:
 pc offset  land pad
       1da       295
       1cc       29a
       1c0       29f
       177       2a4
       104       2b3
        f8       2b8
        da       2bd
        8c       2c2
        7b       2c7
        5f       2cc
        2f       2d1

Source positions:
 pc offset  position
        2f        11
        46        21
        57        27
        7b        39
        8c        68
        da       113
       104       130
       140       133
       16f       159
       1a2       171
       1b8       178
       1cc       184
       1da        56
       217        59
       237         0
       255        87
       28b        59
       295        56
       29a       184
       29f       178
       2a4       159
       2a9       133
       2b3       130
       2b8       113
       2c2        68
       2c7        39
       2cc        27
       2d1        11

Safepoints (entries = 1, byte size = 11)
0x280b6818df0e     4e  slots (sp->fp): 0000000000000000

RelocInfo (size = 27)
0x280b6818df0a  internal wasm call
0x280b6818e074  internal wasm call
0x280b6818e0f8  wasm stub call
0x280b6818e11e  wasm stub call
0x280b6818e14c  wasm stub call
0x280b6818e151  wasm stub call
0x280b6818e156  wasm stub call
0x280b6818e15b  wasm stub call
0x280b6818e160  wasm stub call
0x280b6818e165  wasm stub call
0x280b6818e16a  wasm stub call
0x280b6818e16f  wasm stub call
0x280b6818e174  wasm stub call
0x280b6818e179  wasm stub call
0x280b6818e17e  wasm stub call
0x280b6818e183  wasm stub call
0x280b6818e188  wasm stub call
0x280b6818e18d  wasm stub call
0x280b6818e192  wasm stub call

--- End code ---
--- WebAssembly code ---
name: __emscripten_stdout_seek
index: 10
kind: wasm function
compiler: Liftoff
Body (size = 64 = 64 + 0 padding)
Instructions (size = 52)
0x280b681872c0     0  55                   push rbp
0x280b681872c1     1  4889e5               REX.W movq rbp,rsp
0x280b681872c4     4  6a08                 push 0x8
0x280b681872c6     6  56                   push rsi
0x280b681872c7     7  4881ec18000000       REX.W subq rsp,0x18
0x280b681872ce     e  488b5e27             REX.W movq rbx,[rsi+0x27]
0x280b681872d2    12  483b23               REX.W cmpq rsp,[rbx]
0x280b681872d5    15  0f8607000000         jna 0x280b681872e2  <+0x22>
0x280b681872db    1b  33c0                 xorl rax,rax
0x280b681872dd    1d  488be5               REX.W movq rsp,rbp
0x280b681872e0    20  5d                   pop rbp
0x280b681872e1    21  c3                   retl
0x280b681872e2    22  50                   push rax
0x280b681872e3    23  51                   push rcx
0x280b681872e4    24  52                   push rdx
0x280b681872e5    25  e886f0ffff           call 0x280b68186370  (jump table)
0x280b681872ea    2a  5a                   pop rdx
0x280b681872eb    2b  59                   pop rcx
0x280b681872ec    2c  58                   pop rax
0x280b681872ed    2d  488b75f0             REX.W movq rsi,[rbp-0x10]
0x280b681872f1    31  ebe8                 jmp 0x280b681872db  <+0x1b>
0x280b681872f3    33  90                   nop

Source positions:
 pc offset  position
        25         0  statement

Safepoints (entries = 1, byte size = 11)
0x280b681872ea     2a  slots (sp->fp): 0000000000000000

RelocInfo (size = 0)

--- End code ---
--- WebAssembly code ---
name: fmt_u
index: 28
kind: wasm function
compiler: TurboFan
Body (size = 576 = 516 + 60 padding)
Instructions (size = 504)
0x280b6818e880     0  55                   push rbp
0x280b6818e881     1  4889e5               REX.W movq rbp,rsp
0x280b6818e884     4  6a08                 push 0x8
0x280b6818e886     6  56                   push rsi
0x280b6818e887     7  4883ec20             REX.W subq rsp,0x20
0x280b6818e88b     b  488b5e17             REX.W movq rbx,[rsi+0x17]
0x280b6818e88f     f  48b90000000001000000 REX.W movq rcx,0x100000000
0x280b6818e899    19  483bc1               REX.W cmpq rax,rcx
0x280b6818e89c    1c  0f8283000000         jc 0x280b6818e925  <+0xa5>
0x280b6818e8a2    22  488b4e27             REX.W movq rcx,[rsi+0x27]
0x280b6818e8a6    26  4c8bc2               REX.W movq r8,rdx
0x280b6818e8a9    29  41b90a000000         movl r9,0xa
0x280b6818e8af    2f  49bbffffffff09000000 REX.W movq r11,0x9ffffffff
0x280b6818e8b9    39  0f1f8000000000       nop
0x280b6818e8c0    40  488bf8               REX.W movq rdi,rax
0x280b6818e8c3    43  483b21               REX.W cmpq rsp,[rcx]
0x280b6818e8c6    46  0f862b010000         jna 0x280b6818e9f7  <+0x177>
0x280b6818e8cc    4c  488bc7               REX.W movq rax,rdi
0x280b6818e8cf    4f  33d2                 xorl rdx,rdx
0x280b6818e8d1    51  49f7f1               REX.W divq r9
0x280b6818e8d4    54  4c8be0               REX.W movq r12,rax
0x280b6818e8d7    57  496bd40a             REX.W imulq rdx,r12,0xa
0x280b6818e8db    5b  4c8bff               REX.W movq r15,rdi
0x280b6818e8de    5e  4c2bfa               REX.W subq r15,rdx
0x280b6818e8e1    61  418bd7               movl rdx,r15
0x280b6818e8e4    64  4183e801             subl r8,0x1
0x280b6818e8e8    68  83ca30               orl rdx,0x30
0x280b6818e8eb    6b  42881403             movb [rbx+r8*1],dl
0x280b6818e8ef    6f  4c3bdf               REX.W cmpq r11,rdi
0x280b6818e8f2    72  0f8327000000         jnc 0x280b6818e91f  <+0x9f>
0x280b6818e8f8    78  4c89e0               REX.W movq rax,r12
0x280b6818e8fb    7b  33d2                 xorl rdx,rdx
0x280b6818e8fd    7d  49f7f1               REX.W divq r9
0x280b6818e900    80  486bd00a             REX.W imulq rdx,rax,0xa
0x280b6818e904    84  4c89e7               REX.W movq rdi,r12
0x280b6818e907    87  482bfa               REX.W subq rdi,rdx
0x280b6818e90a    8a  8bd7                 movl rdx,rdi
0x280b6818e90c    8c  4183e801             subl r8,0x1
0x280b6818e910    90  83ca30               orl rdx,0x30
0x280b6818e913    93  42881403             movb [rbx+r8*1],dl
0x280b6818e917    97  4d39e3               REX.W cmpq r11,r12
0x280b6818e91a    9a  72a4                 jc 0x280b6818e8c0  <+0x40>
0x280b6818e91c    9c  4c8be0               REX.W movq r12,rax
0x280b6818e91f    9f  498bd0               REX.W movq rdx,r8
0x280b6818e922    a2  4c89e0               REX.W movq rax,r12
0x280b6818e925    a5  8bc8                 movl rcx,rax
0x280b6818e927    a7  83f900               cmpl rcx,0x0
0x280b6818e92a    aa  0f8508000000         jnz 0x280b6818e938  <+0xb8>
0x280b6818e930    b0  488bc2               REX.W movq rax,rdx
0x280b6818e933    b3  488be5               REX.W movq rsp,rbp
0x280b6818e936    b6  5d                   pop rbp
0x280b6818e937    b7  c3                   retl
0x280b6818e938    b8  488b7627             REX.W movq rsi,[rsi+0x27]
0x280b6818e93c    bc  488bfa               REX.W movq rdi,rdx
0x280b6818e93f    bf  41b867666666         movl r8,0x66666667
0x280b6818e945    c5  e939000000           jmp 0x280b6818e983  <+0x103>
0x280b6818e94a    ca  660f1f840000000000   nop
0x280b6818e953    d3  660f1f840000000000   nop
0x280b6818e95c    dc  660f1f840000000000   nop
0x280b6818e965    e5  660f1f840000000000   nop
0x280b6818e96e    ee  660f1f840000000000   nop
0x280b6818e977    f7  660f1f840000000000   nop
0x280b6818e980   100  488bca               REX.W movq rcx,rdx
0x280b6818e983   103  483b26               REX.W cmpq rsp,[rsi]
0x280b6818e986   106  0f86a6000000         jna 0x280b6818ea32  <+0x1b2>
0x280b6818e98c   10c  488bd1               REX.W movq rdx,rcx
0x280b6818e98f   10f  d1ea                 shrl rdx, 1
0x280b6818e991   111  488bc2               REX.W movq rax,rdx
0x280b6818e994   114  41f7e0               mull r8
0x280b6818e997   117  4c8bca               REX.W movq r9,rdx
0x280b6818e99a   11a  41d1e9               shrl r9, 1
0x280b6818e99d   11d  416bd10a             imull rdx,r9,0xa
0x280b6818e9a1   121  4c8bd9               REX.W movq r11,rcx
0x280b6818e9a4   124  442bda               subl r11,rdx
0x280b6818e9a7   127  83ef01               subl rdi,0x1
0x280b6818e9aa   12a  4183cb30             orl r11,0x30
0x280b6818e9ae   12e  44881c3b             movb [rbx+rdi*1],r11l
0x280b6818e9b2   132  83f909               cmpl rcx,0x9
0x280b6818e9b5   135  0f862c000000         jna 0x280b6818e9e7  <+0x167>
0x280b6818e9bb   13b  498bd1               REX.W movq rdx,r9
0x280b6818e9be   13e  d1ea                 shrl rdx, 1
0x280b6818e9c0   140  488bc2               REX.W movq rax,rdx
0x280b6818e9c3   143  41f7e0               mull r8
0x280b6818e9c6   146  d1ea                 shrl rdx, 1
0x280b6818e9c8   148  6bca0a               imull rcx,rdx,0xa
0x280b6818e9cb   14b  4d8bd9               REX.W movq r11,r9
0x280b6818e9ce   14e  442bd9               subl r11,rcx
0x280b6818e9d1   151  83ef01               subl rdi,0x1
0x280b6818e9d4   154  4183cb30             orl r11,0x30
0x280b6818e9d8   158  44881c3b             movb [rbx+rdi*1],r11l
0x280b6818e9dc   15c  4183f909             cmpl r9,0x9
0x280b6818e9e0   160  779e                 ja 0x280b6818e980  <+0x100>
0x280b6818e9e2   162  e908000000           jmp 0x280b6818e9ef  <+0x16f>
0x280b6818e9e7   167  488bc7               REX.W movq rax,rdi
0x280b6818e9ea   16a  e944ffffff           jmp 0x280b6818e933  <+0xb3>
0x280b6818e9ef   16f  488bc7               REX.W movq rax,rdi
0x280b6818e9f2   172  e93cffffff           jmp 0x280b6818e933  <+0xb3>
0x280b6818e9f7   177  48895de8             REX.W movq [rbp-0x18],rbx
0x280b6818e9fb   17b  48897de0             REX.W movq [rbp-0x20],rdi
0x280b6818e9ff   17f  4c8945d0             REX.W movq [rbp-0x30],r8
0x280b6818ea03   183  48894dd8             REX.W movq [rbp-0x28],rcx
0x280b6818ea07   187  e86479ffff           call 0x280b68186370  (jump table)    ;; wasm stub: WasmStackGuard
0x280b6818ea0c   18c  488b5de8             REX.W movq rbx,[rbp-0x18]
0x280b6818ea10   190  488b75f0             REX.W movq rsi,[rbp-0x10]
0x280b6818ea14   194  4c8b1d96feffff       REX.W movq r11,[rip+0xfffffe96]
0x280b6818ea1b   19b  41b90a000000         movl r9,0xa
0x280b6818ea21   1a1  488b7de0             REX.W movq rdi,[rbp-0x20]
0x280b6818ea25   1a5  4c8b45d0             REX.W movq r8,[rbp-0x30]
0x280b6818ea29   1a9  488b4dd8             REX.W movq rcx,[rbp-0x28]
0x280b6818ea2d   1ad  e99afeffff           jmp 0x280b6818e8cc  <+0x4c>
0x280b6818ea32   1b2  48895de8             REX.W movq [rbp-0x18],rbx
0x280b6818ea36   1b6  48894de0             REX.W movq [rbp-0x20],rcx
0x280b6818ea3a   1ba  48897dd0             REX.W movq [rbp-0x30],rdi
0x280b6818ea3e   1be  488975d8             REX.W movq [rbp-0x28],rsi
0x280b6818ea42   1c2  e82979ffff           call 0x280b68186370  (jump table)    ;; wasm stub: WasmStackGuard
0x280b6818ea47   1c7  488b5de8             REX.W movq rbx,[rbp-0x18]
0x280b6818ea4b   1cb  41b867666666         movl r8,0x66666667
0x280b6818ea51   1d1  488b4de0             REX.W movq rcx,[rbp-0x20]
0x280b6818ea55   1d5  488b7dd0             REX.W movq rdi,[rbp-0x30]
0x280b6818ea59   1d9  488b75d8             REX.W movq rsi,[rbp-0x28]
0x280b6818ea5d   1dd  e92affffff           jmp 0x280b6818e98c  <+0x10c>
0x280b6818ea62   1e2  e8a976ffff           call 0x280b68186110  (jump table)    ;; wasm stub: ThrowWasmTrapMemOutOfBounds
0x280b6818ea67   1e7  e8a476ffff           call 0x280b68186110  (jump table)    ;; wasm stub: ThrowWasmTrapMemOutOfBounds
0x280b6818ea6c   1ec  e89f76ffff           call 0x280b68186110  (jump table)    ;; wasm stub: ThrowWasmTrapMemOutOfBounds
0x280b6818ea71   1f1  e89a76ffff           call 0x280b68186110  (jump table)    ;; wasm stub: ThrowWasmTrapMemOutOfBounds
0x280b6818ea76   1f6  90                   nop
0x280b6818ea77   1f7  90                   nop

Protected instructions:
 pc offset  land pad
       158       1e2
       12e       1e7
        93       1ec
        6b       1f1

Source positions:
 pc offset  position
        6b        55
       12e       112
       177        29
       1b2        87
       1e2       112
       1ec        55

Safepoints (entries = 1, byte size = 11)
0x280b6818ea0c    18c  slots (sp->fp): 00000000

RelocInfo (size = 8)
0x280b6818ea08  wasm stub call
0x280b6818ea43  wasm stub call
0x280b6818ea63  wasm stub call
0x280b6818ea68  wasm stub call
0x280b6818ea6d  wasm stub call
0x280b6818ea72  wasm stub call

--- End code ---
--- WebAssembly code ---
name: __syscall_getpid
index: 32
kind: wasm function
compiler: TurboFan
Body (size = 64 = 28 + 36 padding)
Instructions (size = 20)
0x280b6818eac0     0  55                   push rbp
0x280b6818eac1     1  4889e5               REX.W movq rbp,rsp
0x280b6818eac4     4  6a08                 push 0x8
0x280b6818eac6     6  56                   push rsi
0x280b6818eac7     7  b82a000000           movl rax,0x2a
0x280b6818eacc     c  488be5               REX.W movq rsp,rbp
0x280b6818eacf     f  5d                   pop rbp
0x280b6818ead0    10  c3                   retl
0x280b6818ead1    11  90                   nop
0x280b6818ead2    12  6690                 nop

Safepoints (entries = 0, byte size = 8)

RelocInfo (size = 0)

--- End code ---
--- WebAssembly code ---
name: __wasi_syscall_ret
index: 31
kind: wasm function
compiler: TurboFan
Body (size = 128 = 112 + 16 padding)
Instructions (size = 100)
0x280b6818eb00     0  55                   push rbp
0x280b6818eb01     1  4889e5               REX.W movq rbp,rsp
0x280b6818eb04     4  6a08                 push 0x8
0x280b6818eb06     6  56                   push rsi
0x280b6818eb07     7  4883ec10             REX.W subq rsp,0x10
0x280b6818eb0b     b  488b5e27             REX.W movq rbx,[rsi+0x27]
0x280b6818eb0f     f  488945e0             REX.W movq [rbp-0x20],rax
0x280b6818eb13    13  483b23               REX.W cmpq rsp,[rbx]
0x280b6818eb16    16  0f8631000000         jna 0x280b6818eb4d  <+0x4d>
0x280b6818eb1c    1c  488b5e17             REX.W movq rbx,[rsi+0x17]
0x280b6818eb20    20  48895de8             REX.W movq [rbp-0x18],rbx
0x280b6818eb24    24  83f800               cmpl rax,0x0
0x280b6818eb27    27  0f841c000000         jz 0x280b6818eb49  <+0x49>
0x280b6818eb2d    2d  e81875ffff           call 0x280b6818604a  (jump table)    ;; internal wasm call
0x280b6818eb32    32  8bd8                 movl rbx,rax
0x280b6818eb34    34  488b55e8             REX.W movq rdx,[rbp-0x18]
0x280b6818eb38    38  488b4de0             REX.W movq rcx,[rbp-0x20]
0x280b6818eb3c    3c  890c1a               movl [rdx+rbx*1],rcx
0x280b6818eb3f    3f  b8ffffffff           movl rax,0xffffffff
0x280b6818eb44    44  488be5               REX.W movq rsp,rbp
0x280b6818eb47    47  5d                   pop rbp
0x280b6818eb48    48  c3                   retl
0x280b6818eb49    49  33c0                 xorl rax,rax
0x280b6818eb4b    4b  ebf7                 jmp 0x280b6818eb44  <+0x44>
0x280b6818eb4d    4d  e81e78ffff           call 0x280b68186370  (jump table)    ;; wasm stub: WasmStackGuard
0x280b6818eb52    52  488b45e0             REX.W movq rax,[rbp-0x20]
0x280b6818eb56    56  488b75f0             REX.W movq rsi,[rbp-0x10]
0x280b6818eb5a    5a  ebc0                 jmp 0x280b6818eb1c  <+0x1c>
0x280b6818eb5c    5c  e8af75ffff           call 0x280b68186110  (jump table)    ;; wasm stub: ThrowWasmTrapMemOutOfBounds
0x280b6818eb61    61  90                   nop
0x280b6818eb62    62  6690                 nop

Protected instructions:
 pc offset  land pad
        3c        5c

Source positions:
 pc offset  position
        2d        10
        34        14
        4d         0
        5c        14

Safepoints (entries = 1, byte size = 10)
0x280b6818eb32     32  slots (sp->fp): 00000000

RelocInfo (size = 4)
0x280b6818eb2e  internal wasm call
0x280b6818eb4e  wasm stub call
0x280b6818eb5d  wasm stub call

--- End code ---
--- WebAssembly code ---
name: vfiprintf
index: 30
kind: wasm function
compiler: TurboFan
Body (size = 128 = 88 + 40 padding)
Instructions (size = 76)
0x280b6818eb80     0  55                   push rbp
0x280b6818eb81     1  4889e5               REX.W movq rbp,rsp
0x280b6818eb84     4  6a08                 push 0x8
0x280b6818eb86     6  56                   push rsi
0x280b6818eb87     7  4883ec18             REX.W subq rsp,0x18
0x280b6818eb8b     b  488b7e27             REX.W movq rdi,[rsi+0x27]
0x280b6818eb8f     f  483b27               REX.W cmpq rsp,[rdi]
0x280b6818eb92    12  0f860f000000         jna 0x280b6818eba7  <+0x27>
0x280b6818eb98    18  33db                 xorl rbx,rbx
0x280b6818eb9a    1a  4c8bcb               REX.W movq r9,rbx
0x280b6818eb9d    1d  e8b774ffff           call 0x280b68186059  (jump table)    ;; internal wasm call
0x280b6818eba2    22  488be5               REX.W movq rsp,rbp
0x280b6818eba5    25  5d                   pop rbp
0x280b6818eba6    26  c3                   retl
0x280b6818eba7    27  488945e8             REX.W movq [rbp-0x18],rax
0x280b6818ebab    2b  488955e0             REX.W movq [rbp-0x20],rdx
0x280b6818ebaf    2f  48894dd8             REX.W movq [rbp-0x28],rcx
0x280b6818ebb3    33  e8b877ffff           call 0x280b68186370  (jump table)    ;; wasm stub: WasmStackGuard
0x280b6818ebb8    38  488b75f0             REX.W movq rsi,[rbp-0x10]
0x280b6818ebbc    3c  488b45e8             REX.W movq rax,[rbp-0x18]
0x280b6818ebc0    40  488b55e0             REX.W movq rdx,[rbp-0x20]
0x280b6818ebc4    44  488b4dd8             REX.W movq rcx,[rbp-0x28]
0x280b6818ebc8    48  ebce                 jmp 0x280b6818eb98  <+0x18>
0x280b6818ebca    4a  90                   nop
0x280b6818ebcb    4b  90                   nop

Source positions:
 pc offset  position
        18        11
        27         0

Safepoints (entries = 1, byte size = 10)
0x280b6818eba2     22  slots (sp->fp): 00000000

RelocInfo (size = 3)
0x280b6818eb9e  internal wasm call
0x280b6818ebb4  wasm stub call

--- End code ---
--- WebAssembly code ---
name: pad
index: 29
kind: wasm function
compiler: TurboFan
Body (size = 384 = 384 + 0 padding)
Instructions (size = 372)
0x280b6818ec00     0  55                   push rbp
0x280b6818ec01     1  4889e5               REX.W movq rbp,rsp
0x280b6818ec04     4  6a08                 push 0x8
0x280b6818ec06     6  56                   push rsi
0x280b6818ec07     7  4883ec40             REX.W subq rsp,0x40
0x280b6818ec0b     b  488b7e27             REX.W movq rdi,[rsi+0x27]
0x280b6818ec0f     f  488945d8             REX.W movq [rbp-0x28],rax
0x280b6818ec13    13  48897dc8             REX.W movq [rbp-0x38],rdi
0x280b6818ec17    17  483b27               REX.W cmpq rsp,[rdi]
0x280b6818ec1a    1a  0f860a010000         jna 0x280b6818ed2a  <+0x12a>
0x280b6818ec20    20  4c8b4647             REX.W movq r8,[rsi+0x47]
0x280b6818ec24    24  458b18               movl r11,[r8]
0x280b6818ec27    27  4181eb00010000       subl r11,0x100
0x280b6818ec2e    2e  458918               movl [r8],r11
0x280b6818ec31    31  4c8945e8             REX.W movq [rbp-0x18],r8
0x280b6818ec35    35  4c895de0             REX.W movq [rbp-0x20],r11
0x280b6818ec39    39  3bcb                 cmpl rcx,rbx
0x280b6818ec3b    3b  0f8ed6000000         jle 0x280b6818ed17  <+0x117>
0x280b6818ec41    41  41f7c100200100       testl r9,0x12000
0x280b6818ec48    48  0f85c9000000         jnz 0x280b6818ed17  <+0x117>
0x280b6818ec4e    4e  2bcb                 subl rcx,rbx
0x280b6818ec50    50  41b900010000         movl r9,0x100
0x280b6818ec56    56  81f900010000         cmpl rcx,0x100
0x280b6818ec5c    5c  440f42c9             cmovcl r9,rcx
0x280b6818ec60    60  0fb6d2               movzxbl rdx,rdx
0x280b6818ec63    63  bb00010000           movl rbx,0x100
0x280b6818ec68    68  48894dd0             REX.W movq [rbp-0x30],rcx
0x280b6818ec6c    6c  498bc3               REX.W movq rax,r11
0x280b6818ec6f    6f  498bc9               REX.W movq rcx,r9
0x280b6818ec72    72  e8ac73ffff           call 0x280b68186023  (jump table)    ;; internal wasm call
0x280b6818ec77    77  817dd000010000       cmpl [rbp-0x30],0x100
0x280b6818ec7e    7e  0f8276000000         jc 0x280b6818ecfa  <+0xfa>
0x280b6818ec84    84  660f1f840000000000   nop
0x280b6818ec8d    8d  660f1f840000000000   nop
0x280b6818ec96    96  660f1f840000000000   nop
0x280b6818ec9f    9f  660f1f840000000000   nop
0x280b6818eca8    a8  660f1f840000000000   nop
0x280b6818ecb1    b1  660f1f840000000000   nop
0x280b6818ecba    ba  660f1f440000         nop
0x280b6818ecc0    c0  488b4dd0             REX.W movq rcx,[rbp-0x30]
0x280b6818ecc4    c4  488b5dc8             REX.W movq rbx,[rbp-0x38]
0x280b6818ecc8    c8  483b23               REX.W cmpq rsp,[rbx]
0x280b6818eccb    cb  0f868f000000         jna 0x280b6818ed60  <+0x160>
0x280b6818ecd1    d1  81e900010000         subl rcx,0x100
0x280b6818ecd7    d7  48894dd0             REX.W movq [rbp-0x30],rcx
0x280b6818ecdb    db  488b75f0             REX.W movq rsi,[rbp-0x10]
0x280b6818ecdf    df  488b45d8             REX.W movq rax,[rbp-0x28]
0x280b6818ece3    e3  488b55e0             REX.W movq rdx,[rbp-0x20]
0x280b6818ece7    e7  b900010000           movl rcx,0x100
0x280b6818ecec    ec  e87273ffff           call 0x280b68186063  (jump table)    ;; internal wasm call
0x280b6818ecf1    f1  817dd0ff000000       cmpl [rbp-0x30],0xff
0x280b6818ecf8    f8  77c6                 ja 0x280b6818ecc0  <+0xc0>
0x280b6818ecfa    fa  488b75f0             REX.W movq rsi,[rbp-0x10]
0x280b6818ecfe    fe  488b45d8             REX.W movq rax,[rbp-0x28]
0x280b6818ed02   102  488b55e0             REX.W movq rdx,[rbp-0x20]
0x280b6818ed06   106  488b4dd0             REX.W movq rcx,[rbp-0x30]
0x280b6818ed0a   10a  e85473ffff           call 0x280b68186063  (jump table)    ;; internal wasm call
0x280b6818ed0f   10f  4c8b45e8             REX.W movq r8,[rbp-0x18]
0x280b6818ed13   113  4c8b5de0             REX.W movq r11,[rbp-0x20]
0x280b6818ed17   117  498bdb               REX.W movq rbx,r11
0x280b6818ed1a   11a  81c300010000         addl rbx,0x100
0x280b6818ed20   120  498bf8               REX.W movq rdi,r8
0x280b6818ed23   123  891f                 movl [rdi],rbx
0x280b6818ed25   125  488be5               REX.W movq rsp,rbp
0x280b6818ed28   128  5d                   pop rbp
0x280b6818ed29   129  c3                   retl
0x280b6818ed2a   12a  488955c0             REX.W movq [rbp-0x40],rdx
0x280b6818ed2e   12e  48894dd0             REX.W movq [rbp-0x30],rcx
0x280b6818ed32   132  48895db8             REX.W movq [rbp-0x48],rbx
0x280b6818ed36   136  4c894db0             REX.W movq [rbp-0x50],r9
0x280b6818ed3a   13a  e83176ffff           call 0x280b68186370  (jump table)    ;; wasm stub: WasmStackGuard
0x280b6818ed3f   13f  488b75f0             REX.W movq rsi,[rbp-0x10]
0x280b6818ed43   143  488b45d8             REX.W movq rax,[rbp-0x28]
0x280b6818ed47   147  488b7dc8             REX.W movq rdi,[rbp-0x38]
0x280b6818ed4b   14b  488b55c0             REX.W movq rdx,[rbp-0x40]
0x280b6818ed4f   14f  488b4dd0             REX.W movq rcx,[rbp-0x30]
0x280b6818ed53   153  488b5db8             REX.W movq rbx,[rbp-0x48]
0x280b6818ed57   157  4c8b4db0             REX.W movq r9,[rbp-0x50]
0x280b6818ed5b   15b  e9c0feffff           jmp 0x280b6818ec20  <+0x20>
0x280b6818ed60   160  48894dd0             REX.W movq [rbp-0x30],rcx
0x280b6818ed64   164  e80776ffff           call 0x280b68186370  (jump table)    ;; wasm stub: WasmStackGuard
0x280b6818ed69   169  488b4dd0             REX.W movq rcx,[rbp-0x30]
0x280b6818ed6d   16d  e95fffffff           jmp 0x280b6818ecd1  <+0xd1>
0x280b6818ed72   172  90                   nop
0x280b6818ed73   173  90                   nop

Source positions:
 pc offset  position
        63        58
        d7        75
        fa        99
       12a         0
       160        66

Safepoints (entries = 1, byte size = 11)
0x280b6818ec77     77  slots (sp->fp): 0000000000000000

RelocInfo (size = 12)
0x280b6818ec73  internal wasm call
0x280b6818eced  internal wasm call
0x280b6818ed0b  internal wasm call
0x280b6818ed3b  wasm stub call
0x280b6818ed65  wasm stub call

--- End code ---
--- WebAssembly code ---
name: out
index: 23
kind: wasm function
compiler: TurboFan
Body (size = 128 = 124 + 4 padding)
Instructions (size = 112)
0x280b6818f8c0     0  55                   push rbp
0x280b6818f8c1     1  4889e5               REX.W movq rbp,rsp
0x280b6818f8c4     4  6a08                 push 0x8
0x280b6818f8c6     6  56                   push rsi
0x280b6818f8c7     7  4883ec18             REX.W subq rsp,0x18
0x280b6818f8cb     b  488b5e27             REX.W movq rbx,[rsi+0x27]
0x280b6818f8cf     f  483b23               REX.W cmpq rsp,[rbx]
0x280b6818f8d2    12  0f862f000000         jna 0x280b6818f907  <+0x47>
0x280b6818f8d8    18  488b5e17             REX.W movq rbx,[rsi+0x17]
0x280b6818f8dc    1c  8bf8                 movl rdi,rax
0x280b6818f8de    1e  0fb61c3b             movzxbl rbx,[rbx+rdi*1]
0x280b6818f8e2    22  f6c320               testb rbx,0x20
0x280b6818f8e5    25  0f8517000000         jnz 0x280b6818f902  <+0x42>
0x280b6818f8eb    2b  4c8bd2               REX.W movq r10,rdx
0x280b6818f8ee    2e  488bd0               REX.W movq rdx,rax
0x280b6818f8f1    31  498bc2               REX.W movq rax,r10
0x280b6818f8f4    34  4c8bd1               REX.W movq r10,rcx
0x280b6818f8f7    37  488bca               REX.W movq rcx,rdx
0x280b6818f8fa    3a  498bd2               REX.W movq rdx,r10
0x280b6818f8fd    3d  e85267ffff           call 0x280b68186054  (jump table)    ;; internal wasm call
0x280b6818f902    42  488be5               REX.W movq rsp,rbp
0x280b6818f905    45  5d                   pop rbp
0x280b6818f906    46  c3                   retl
0x280b6818f907    47  488955e8             REX.W movq [rbp-0x18],rdx
0x280b6818f90b    4b  48894de0             REX.W movq [rbp-0x20],rcx
0x280b6818f90f    4f  488945d8             REX.W movq [rbp-0x28],rax
0x280b6818f913    53  e8586affff           call 0x280b68186370  (jump table)    ;; wasm stub: WasmStackGuard
0x280b6818f918    58  488b75f0             REX.W movq rsi,[rbp-0x10]
0x280b6818f91c    5c  488b55e8             REX.W movq rdx,[rbp-0x18]
0x280b6818f920    60  488b4de0             REX.W movq rcx,[rbp-0x20]
0x280b6818f924    64  488b45d8             REX.W movq rax,[rbp-0x28]
0x280b6818f928    68  ebae                 jmp 0x280b6818f8d8  <+0x18>
0x280b6818f92a    6a  e8e167ffff           call 0x280b68186110  (jump table)    ;; wasm stub: ThrowWasmTrapMemOutOfBounds
0x280b6818f92f    6f  90                   nop

Protected instructions:
 pc offset  land pad
        1e        6a

Source positions:
 pc offset  position
        1e         3
        2b        18
        47         0
        6a         3

Safepoints (entries = 1, byte size = 10)
0x280b6818f902     42  slots (sp->fp): 00000000

RelocInfo (size = 4)
0x280b6818f8fe  internal wasm call
0x280b6818f914  wasm stub call
0x280b6818f92b  wasm stub call

--- End code ---
--- WebAssembly code ---
name: fmt_o
index: 27
kind: wasm function
compiler: TurboFan
Body (size = 256 = 204 + 52 padding)
Instructions (size = 192)
0x280b6818f940     0  55                   push rbp
0x280b6818f941     1  4889e5               REX.W movq rbp,rsp
0x280b6818f944     4  6a08                 push 0x8
0x280b6818f946     6  56                   push rsi
0x280b6818f947     7  4883ec20             REX.W subq rsp,0x20
0x280b6818f94b     b  488b5e17             REX.W movq rbx,[rsi+0x17]
0x280b6818f94f     f  4883f800             REX.W cmpq rax,0x0
0x280b6818f953    13  0f8508000000         jnz 0x280b6818f961  <+0x21>
0x280b6818f959    19  488bc2               REX.W movq rax,rdx
0x280b6818f95c    1c  488be5               REX.W movq rsp,rbp
0x280b6818f95f    1f  5d                   pop rbp
0x280b6818f960    20  c3                   retl
0x280b6818f961    21  488b4e27             REX.W movq rcx,[rsi+0x27]
0x280b6818f965    25  e91a000000           jmp 0x280b6818f984  <+0x44>
0x280b6818f96a    2a  660f1f840000000000   nop
0x280b6818f973    33  660f1f840000000000   nop
0x280b6818f97c    3c  0f1f4000             nop
0x280b6818f980    40  48c1e803             REX.W shrq rax, 3
0x280b6818f984    44  483b21               REX.W cmpq rsp,[rcx]
0x280b6818f987    47  0f8641000000         jna 0x280b6818f9ce  <+0x8e>
0x280b6818f98d    4d  8bf0                 movl rsi,rax
0x280b6818f98f    4f  83e607               andl rsi,0x7
0x280b6818f992    52  83ea01               subl rdx,0x1
0x280b6818f995    55  83ce30               orl rsi,0x30
0x280b6818f998    58  40883413             movb [rbx+rdx*1],sil
0x280b6818f99c    5c  4883f807             REX.W cmpq rax,0x7
0x280b6818f9a0    60  0f861e000000         jna 0x280b6818f9c4  <+0x84>
0x280b6818f9a6    66  48c1e803             REX.W shrq rax, 3
0x280b6818f9aa    6a  8bf0                 movl rsi,rax
0x280b6818f9ac    6c  83e607               andl rsi,0x7
0x280b6818f9af    6f  83ea01               subl rdx,0x1
0x280b6818f9b2    72  83ce30               orl rsi,0x30
0x280b6818f9b5    75  40883413             movb [rbx+rdx*1],sil
0x280b6818f9b9    79  4883f807             REX.W cmpq rax,0x7
0x280b6818f9bd    7d  77c1                 ja 0x280b6818f980  <+0x40>
0x280b6818f9bf    7f  e905000000           jmp 0x280b6818f9c9  <+0x89>
0x280b6818f9c4    84  488bc2               REX.W movq rax,rdx
0x280b6818f9c7    87  eb93                 jmp 0x280b6818f95c  <+0x1c>
0x280b6818f9c9    89  488bc2               REX.W movq rax,rdx
0x280b6818f9cc    8c  eb8e                 jmp 0x280b6818f95c  <+0x1c>
0x280b6818f9ce    8e  48895de8             REX.W movq [rbp-0x18],rbx
0x280b6818f9d2    92  488945e0             REX.W movq [rbp-0x20],rax
0x280b6818f9d6    96  488955d8             REX.W movq [rbp-0x28],rdx
0x280b6818f9da    9a  48894dd0             REX.W movq [rbp-0x30],rcx
0x280b6818f9de    9e  e88d69ffff           call 0x280b68186370  (jump table)    ;; wasm stub: WasmStackGuard
0x280b6818f9e3    a3  488b5de8             REX.W movq rbx,[rbp-0x18]
0x280b6818f9e7    a7  488b45e0             REX.W movq rax,[rbp-0x20]
0x280b6818f9eb    ab  488b55d8             REX.W movq rdx,[rbp-0x28]
0x280b6818f9ef    af  488b4dd0             REX.W movq rcx,[rbp-0x30]
0x280b6818f9f3    b3  eb98                 jmp 0x280b6818f98d  <+0x4d>
0x280b6818f9f5    b5  e81667ffff           call 0x280b68186110  (jump table)    ;; wasm stub: ThrowWasmTrapMemOutOfBounds
0x280b6818f9fa    ba  e81167ffff           call 0x280b68186110  (jump table)    ;; wasm stub: ThrowWasmTrapMemOutOfBounds
0x280b6818f9ff    bf  90                   nop

Protected instructions:
 pc offset  land pad
        75        b5
        58        ba

Source positions:
 pc offset  position
        58        27
        8e         9
        b5        27

Safepoints (entries = 1, byte size = 10)
0x280b6818f9e3     a3  slots (sp->fp): 00000000

RelocInfo (size = 5)
0x280b6818f9df  wasm stub call
0x280b6818f9f6  wasm stub call
0x280b6818f9fb  wasm stub call

--- End code ---
--- WebAssembly code ---
name: getint
index: 24
kind: wasm function
compiler: TurboFan
Body (size = 384 = 364 + 20 padding)
Instructions (size = 352)
0x280b6818fa40     0  55                   push rbp
0x280b6818fa41     1  4889e5               REX.W movq rbp,rsp
0x280b6818fa44     4  6a08                 push 0x8
0x280b6818fa46     6  56                   push rsi
0x280b6818fa47     7  4883ec20             REX.W subq rsp,0x20
0x280b6818fa4b     b  488b5e27             REX.W movq rbx,[rsi+0x27]
0x280b6818fa4f     f  48895dd0             REX.W movq [rbp-0x30],rbx
0x280b6818fa53    13  483b23               REX.W cmpq rsp,[rbx]
0x280b6818fa56    16  0f86e9000000         jna 0x280b6818fb45  <+0x105>
0x280b6818fa5c    1c  488b5617             REX.W movq rdx,[rsi+0x17]
0x280b6818fa60    20  8bc8                 movl rcx,rax
0x280b6818fa62    22  8b3c0a               movl rdi,[rdx+rcx*1]
0x280b6818fa65    25  0fbe043a             movsxbl rax,[rdx+rdi*1]
0x280b6818fa69    29  488955e8             REX.W movq [rbp-0x18],rdx
0x280b6818fa6d    2d  48894de0             REX.W movq [rbp-0x20],rcx
0x280b6818fa71    31  e8c165ffff           call 0x280b68186037  (jump table)    ;; internal wasm call
0x280b6818fa76    36  83f800               cmpl rax,0x0
0x280b6818fa79    39  0f84c2000000         jz 0x280b6818fb41  <+0x101>
0x280b6818fa7f    3f  33c0                 xorl rax,rax
0x280b6818fa81    41  e93e000000           jmp 0x280b6818fac4  <+0x84>
0x280b6818fa86    46  660f1f840000000000   nop
0x280b6818fa8f    4f  660f1f840000000000   nop
0x280b6818fa98    58  660f1f840000000000   nop
0x280b6818faa1    61  660f1f840000000000   nop
0x280b6818faaa    6a  660f1f840000000000   nop
0x280b6818fab3    73  660f1f840000000000   nop
0x280b6818fabc    7c  0f1f4000             nop
0x280b6818fac0    80  488b45d8             REX.W movq rax,[rbp-0x28]
0x280b6818fac4    84  488b55e8             REX.W movq rdx,[rbp-0x18]
0x280b6818fac8    88  488b4de0             REX.W movq rcx,[rbp-0x20]
0x280b6818facc    8c  bfffffffff           movl rdi,0xffffffff
0x280b6818fad1    91  488b5dd0             REX.W movq rbx,[rbp-0x30]
0x280b6818fad5    95  483b23               REX.W cmpq rsp,[rbx]
0x280b6818fad8    98  0f867d000000         jna 0x280b6818fb5b  <+0x11b>
0x280b6818fade    9e  448b040a             movl r8,[rdx+rcx*1]
0x280b6818fae2    a2  3dcccccc0c           cmp rax,0xccccccc
0x280b6818fae7    a7  0f8608000000         jna 0x280b6818faf5  <+0xb5>
0x280b6818faed    ad  4c8bcf               REX.W movq r9,rdi
0x280b6818faf0    b0  e923000000           jmp 0x280b6818fb18  <+0xd8>
0x280b6818faf5    b5  460fbe0c02           movsxbl r9,[rdx+r8*1]
0x280b6818fafa    ba  446bd80a             imull r11,rax,0xa
0x280b6818fafe    be  4183e930             subl r9,0x30
0x280b6818fb02    c2  41bcffffff7f         movl r12,0x7fffffff
0x280b6818fb08    c8  452be3               subl r12,r11
0x280b6818fb0b    cb  4503d9               addl r11,r9
0x280b6818fb0e    ce  453be1               cmpl r12,r9
0x280b6818fb11    d1  440f4cdf             cmovll r11,rdi
0x280b6818fb15    d5  4d8bcb               REX.W movq r9,r11
0x280b6818fb18    d8  458d5801             leal r11,[r8+0x1]
0x280b6818fb1c    dc  44891c0a             movl [rdx+rcx*1],r11
0x280b6818fb20    e0  410fbe441001         movsxbl rax,[r8+rdx*1+0x1]
0x280b6818fb26    e6  4c894dd8             REX.W movq [rbp-0x28],r9
0x280b6818fb2a    ea  488b75f0             REX.W movq rsi,[rbp-0x10]
0x280b6818fb2e    ee  e80465ffff           call 0x280b68186037  (jump table)    ;; internal wasm call
0x280b6818fb33    f3  83f800               cmpl rax,0x0
0x280b6818fb36    f6  7588                 jnz 0x280b6818fac0  <+0x80>
0x280b6818fb38    f8  488b45d8             REX.W movq rax,[rbp-0x28]
0x280b6818fb3c    fc  488be5               REX.W movq rsp,rbp
0x280b6818fb3f    ff  5d                   pop rbp
0x280b6818fb40   100  c3                   retl
0x280b6818fb41   101  33c0                 xorl rax,rax
0x280b6818fb43   103  ebf7                 jmp 0x280b6818fb3c  <+0xfc>
0x280b6818fb45   105  488945e0             REX.W movq [rbp-0x20],rax
0x280b6818fb49   109  e82268ffff           call 0x280b68186370  (jump table)    ;; wasm stub: WasmStackGuard
0x280b6818fb4e   10e  488b75f0             REX.W movq rsi,[rbp-0x10]
0x280b6818fb52   112  488b45e0             REX.W movq rax,[rbp-0x20]
0x280b6818fb56   116  e901ffffff           jmp 0x280b6818fa5c  <+0x1c>
0x280b6818fb5b   11b  488945d8             REX.W movq [rbp-0x28],rax
0x280b6818fb5f   11f  e80c68ffff           call 0x280b68186370  (jump table)    ;; wasm stub: WasmStackGuard
0x280b6818fb64   124  488b55e8             REX.W movq rdx,[rbp-0x18]
0x280b6818fb68   128  488b4de0             REX.W movq rcx,[rbp-0x20]
0x280b6818fb6c   12c  bfffffffff           movl rdi,0xffffffff
0x280b6818fb71   131  488b45d8             REX.W movq rax,[rbp-0x28]
0x280b6818fb75   135  488b5dd0             REX.W movq rbx,[rbp-0x30]
0x280b6818fb79   139  e960ffffff           jmp 0x280b6818fade  <+0x9e>
0x280b6818fb7e   13e  e88d65ffff           call 0x280b68186110  (jump table)    ;; wasm stub: ThrowWasmTrapMemOutOfBounds
0x280b6818fb83   143  e88865ffff           call 0x280b68186110  (jump table)    ;; wasm stub: ThrowWasmTrapMemOutOfBounds
0x280b6818fb88   148  e88365ffff           call 0x280b68186110  (jump table)    ;; wasm stub: ThrowWasmTrapMemOutOfBounds
0x280b6818fb8d   14d  e87e65ffff           call 0x280b68186110  (jump table)    ;; wasm stub: ThrowWasmTrapMemOutOfBounds
0x280b6818fb92   152  e87965ffff           call 0x280b68186110  (jump table)    ;; wasm stub: ThrowWasmTrapMemOutOfBounds
0x280b6818fb97   157  e87465ffff           call 0x280b68186110  (jump table)    ;; wasm stub: ThrowWasmTrapMemOutOfBounds
0x280b6818fb9c   15c  90                   nop
0x280b6818fb9d   15d  0f1f00               nop

Protected instructions:
 pc offset  land pad
        e0       13e
        dc       143
        b5       148
        9e       14d
        25       152
        22       157

Source positions:
 pc offset  position
        22         9
        25        12
        29        15
        9e        28
        b5        52
        dc        91
        e0       100
        e6       103
       105         0
       11b        24
       13e       100
       143        91
       148        52
       14d        28
       152        12
       157         9

Safepoints (entries = 1, byte size = 10)
0x280b6818fa76     36  slots (sp->fp): 00000000

RelocInfo (size = 14)
0x280b6818fa72  internal wasm call
0x280b6818fb2f  internal wasm call
0x280b6818fb4a  wasm stub call
0x280b6818fb60  wasm stub call
0x280b6818fb7f  wasm stub call
0x280b6818fb84  wasm stub call
0x280b6818fb89  wasm stub call
0x280b6818fb8e  wasm stub call
0x280b6818fb93  wasm stub call
0x280b6818fb98  wasm stub call

--- End code ---
--- WebAssembly code ---
name: __vfprintf_internal
index: 21
kind: wasm function
compiler: TurboFan
Body (size = 960 = 904 + 56 padding)
Instructions (size = 892)
0x280b6818fbc0     0  55                   push rbp
0x280b6818fbc1     1  4889e5               REX.W movq rbp,rsp
0x280b6818fbc4     4  6a08                 push 0x8
0x280b6818fbc6     6  56                   push rsi
0x280b6818fbc7     7  4883ec70             REX.W subq rsp,0x70
0x280b6818fbcb     b  488b7e27             REX.W movq rdi,[rsi+0x27]
0x280b6818fbcf     f  488945d0             REX.W movq [rbp-0x30],rax
0x280b6818fbd3    13  488955b0             REX.W movq [rbp-0x50],rdx
0x280b6818fbd7    17  48895d88             REX.W movq [rbp-0x78],rbx
0x280b6818fbdb    1b  4c894d80             REX.W movq [rbp-0x80],r9
0x280b6818fbdf    1f  483b27               REX.W cmpq rsp,[rdi]
0x280b6818fbe2    22  0f86c2020000         jna 0x280b6818feaa  <+0x2ea>
0x280b6818fbe8    28  488b7e17             REX.W movq rdi,[rsi+0x17]
0x280b6818fbec    2c  4c8b4647             REX.W movq r8,[rsi+0x47]
0x280b6818fbf0    30  458b18               movl r11,[r8]
0x280b6818fbf3    33  4181ebd0000000       subl r11,0xd0
0x280b6818fbfa    3a  458918               movl [r8],r11
0x280b6818fbfd    3d  41898c3bcc000000     movl [r11+rdi*1+0xcc],rcx
0x280b6818fc05    45  458da3a0000000       leal r12,[r11+0xa0]
0x280b6818fc0c    4c  48897dd8             REX.W movq [rbp-0x28],rdi
0x280b6818fc10    50  4c8945e8             REX.W movq [rbp-0x18],r8
0x280b6818fc14    54  4c895de0             REX.W movq [rbp-0x20],r11
0x280b6818fc18    58  33d2                 xorl rdx,rdx
0x280b6818fc1a    5a  b928000000           movl rcx,0x28
0x280b6818fc1f    5f  4c896590             REX.W movq [rbp-0x70],r12
0x280b6818fc23    63  4c89e0               REX.W movq rax,r12
0x280b6818fc26    66  4c8bfa               REX.W movq r15,rdx
0x280b6818fc29    69  e8f563ffff           call 0x280b68186023  (jump table)    ;; internal wasm call
0x280b6818fc2e    6e  488b7de0             REX.W movq rdi,[rbp-0x20]
0x280b6818fc32    72  4c8b45d8             REX.W movq r8,[rbp-0x28]
0x280b6818fc36    76  468b9c07cc000000     movl r11,[rdi+r8*1+0xcc]
0x280b6818fc3e    7e  46899c07c8000000     movl [rdi+r8*1+0xc8],r11
0x280b6818fc46    86  8d5f50               leal rbx,[rdi+0x50]
0x280b6818fc49    89  8d8fc8000000         leal rcx,[rdi+0xc8]
0x280b6818fc4f    8f  ff7580               push [rbp-0x80]
0x280b6818fc52    92  ff7588               push [rbp-0x78]
0x280b6818fc55    95  48895d98             REX.W movq [rbp-0x68],rbx
0x280b6818fc59    99  48894da0             REX.W movq [rbp-0x60],rcx
0x280b6818fc5d    9d  488b75f0             REX.W movq rsi,[rbp-0x10]
0x280b6818fc61    a1  33c0                 xorl rax,rax
0x280b6818fc63    a3  488b55b0             REX.W movq rdx,[rbp-0x50]
0x280b6818fc67    a7  4c8b4d90             REX.W movq r9,[rbp-0x70]
0x280b6818fc6b    ab  e8ee63ffff           call 0x280b6818605e  (jump table)    ;; internal wasm call
0x280b6818fc70    b0  83f800               cmpl rax,0x0
0x280b6818fc73    b3  0f8c12020000         jl 0x280b6818fe8b  <+0x2cb>
0x280b6818fc79    b9  8b7dd0               movl rdi,[rbp-0x30]
0x280b6818fc7c    bc  4c8b45d8             REX.W movq r8,[rbp-0x28]
0x280b6818fc80    c0  468b5c074c           movl r11,[rdi+r8*1+0x4c]
0x280b6818fc85    c5  48897dc0             REX.W movq [rbp-0x40],rdi
0x280b6818fc89    c9  4183fb00             cmpl r11,0x0
0x280b6818fc8d    cd  0f8d07000000         jge 0x280b6818fc9a  <+0xda>
0x280b6818fc93    d3  33c0                 xorl rax,rax
0x280b6818fc95    d5  e915000000           jmp 0x280b6818fcaf  <+0xef>
0x280b6818fc9a    da  488b75f0             REX.W movq rsi,[rbp-0x10]
0x280b6818fc9e    de  488b45d0             REX.W movq rax,[rbp-0x30]
0x280b6818fca2    e2  e88163ffff           call 0x280b68186028  (jump table)    ;; internal wasm call
0x280b6818fca7    e7  488b7dc0             REX.W movq rdi,[rbp-0x40]
0x280b6818fcab    eb  4c8b45d8             REX.W movq r8,[rbp-0x28]
0x280b6818fcaf    ef  4d8bd0               REX.W movq r10,r8
0x280b6818fcb2    f2  4c8bc7               REX.W movq r8,rdi
0x280b6818fcb5    f5  498bfa               REX.W movq rdi,r10
0x280b6818fcb8    f8  468b1c07             movl r11,[rdi+r8*1]
0x280b6818fcbc    fc  458b643848           movl r12,[r8+rdi*1+0x48]
0x280b6818fcc1   101  488945c8             REX.W movq [rbp-0x38],rax
0x280b6818fcc5   105  4c895db8             REX.W movq [rbp-0x48],r11
0x280b6818fcc9   109  4183fc00             cmpl r12,0x0
0x280b6818fccd   10d  0f8f0b000000         jg 0x280b6818fcde  <+0x11e>
0x280b6818fcd3   113  4d8be3               REX.W movq r12,r11
0x280b6818fcd6   116  4183e4df             andl r12,0xdf
0x280b6818fcda   11a  46892407             movl [rdi+r8*1],r12
0x280b6818fcde   11e  458b643830           movl r12,[r8+rdi*1+0x30]
0x280b6818fce3   123  4183fc00             cmpl r12,0x0
0x280b6818fce7   127  0f841f000000         jz 0x280b6818fd0c  <+0x14c>
0x280b6818fced   12d  458b643810           movl r12,[r8+rdi*1+0x10]
0x280b6818fcf2   132  4183fc00             cmpl r12,0x0
0x280b6818fcf6   136  0f8508000000         jnz 0x280b6818fd04  <+0x144>
0x280b6818fcfc   13c  4531e4               xorl r12,r12
0x280b6818fcff   13f  e931000000           jmp 0x280b6818fd35  <+0x175>
0x280b6818fd04   144  4531e4               xorl r12,r12
0x280b6818fd07   147  e947000000           jmp 0x280b6818fd53  <+0x193>
0x280b6818fd0c   14c  41c744383050000000   movl [r8+rdi*1+0x30],0x50
0x280b6818fd15   155  41c744381c00000000   movl [r8+rdi*1+0x1c],0x0
0x280b6818fd1e   15e  49c744381000000000   REX.W movq [r8+rdi*1+0x10],0x0
0x280b6818fd27   167  458b64382c           movl r12,[r8+rdi*1+0x2c]
0x280b6818fd2c   16c  4c8b7de0             REX.W movq r15,[rbp-0x20]
0x280b6818fd30   170  45897c382c           movl [r8+rdi*1+0x2c],r15
0x280b6818fd35   175  4c8965a8             REX.W movq [rbp-0x58],r12
0x280b6818fd39   179  488b75f0             REX.W movq rsi,[rbp-0x10]
0x280b6818fd3d   17d  488b45d0             REX.W movq rax,[rbp-0x30]
0x280b6818fd41   181  e8ec62ffff           call 0x280b68186032  (jump table)    ;; internal wasm call
0x280b6818fd46   186  83f800               cmpl rax,0x0
0x280b6818fd49   189  0f8530000000         jnz 0x280b6818fd7f  <+0x1bf>
0x280b6818fd4f   18f  4c8b65a8             REX.W movq r12,[rbp-0x58]
0x280b6818fd53   193  ff7580               push [rbp-0x80]
0x280b6818fd56   196  ff7588               push [rbp-0x78]
0x280b6818fd59   199  4c8965a8             REX.W movq [rbp-0x58],r12
0x280b6818fd5d   19d  488b75f0             REX.W movq rsi,[rbp-0x10]
0x280b6818fd61   1a1  488b45d0             REX.W movq rax,[rbp-0x30]
0x280b6818fd65   1a5  488b55b0             REX.W movq rdx,[rbp-0x50]
0x280b6818fd69   1a9  488b4da0             REX.W movq rcx,[rbp-0x60]
0x280b6818fd6d   1ad  488b5d98             REX.W movq rbx,[rbp-0x68]
0x280b6818fd71   1b1  4c8b4d90             REX.W movq r9,[rbp-0x70]
0x280b6818fd75   1b5  e8e462ffff           call 0x280b6818605e  (jump table)    ;; internal wasm call
0x280b6818fd7a   1ba  e908000000           jmp 0x280b6818fd87  <+0x1c7>
0x280b6818fd7f   1bf  b8ffffffff           movl rax,0xffffffff
0x280b6818fd84   1c4  488bf8               REX.W movq rdi,rax
0x280b6818fd87   1c7  4c8b65a8             REX.W movq r12,[rbp-0x58]
0x280b6818fd8b   1cb  488945b0             REX.W movq [rbp-0x50],rax
0x280b6818fd8f   1cf  4183fc00             cmpl r12,0x0
0x280b6818fd93   1d3  0f850d000000         jnz 0x280b6818fda6  <+0x1e6>
0x280b6818fd99   1d9  4c8b45c0             REX.W movq r8,[rbp-0x40]
0x280b6818fd9d   1dd  488b7dd8             REX.W movq rdi,[rbp-0x28]
0x280b6818fda1   1e1  e99a000000           jmp 0x280b6818fe40  <+0x280>
0x280b6818fda6   1e6  488b7dd8             REX.W movq rdi,[rbp-0x28]
0x280b6818fdaa   1ea  4c8b45c0             REX.W movq r8,[rbp-0x40]
0x280b6818fdae   1ee  458b5c3824           movl r11,[r8+rdi*1+0x24]
0x280b6818fdb3   1f3  488b75f0             REX.W movq rsi,[rbp-0x10]
0x280b6818fdb7   1f7  4c8b7e3f             REX.W movq r15,[rsi+0x3f]
0x280b6818fdbb   1fb  488b5e37             REX.W movq rbx,[rsi+0x37]
0x280b6818fdbf   1ff  8b560f               movl rdx,[rsi+0xf]
0x280b6818fdc2   202  4903d6               REX.W addq rdx,r14
0x280b6818fdc5   205  428d0c9d00000000     leal rcx,[r11*4+0x0]
0x280b6818fdcd   20d  4183fb04             cmpl r11,0x4
0x280b6818fdd1   211  0f8311010000         jnc 0x280b6818fee8  <+0x328>
0x280b6818fdd7   217  41833c0f00           cmpl [r15+rcx*1],0x0
0x280b6818fddc   21c  0f8501010000         jnz 0x280b6818fee3  <+0x323>
0x280b6818fde2   222  468b7c9a07           movl r15,[rdx+r11*4+0x7]
0x280b6818fde7   227  4d03fe               REX.W addq r15,r14
0x280b6818fdea   22a  4e8b1cdb             REX.W movq r11,[rbx+r11*8]
0x280b6818fdee   22e  498bf7               REX.W movq rsi,r15
0x280b6818fdf1   231  488b45d0             REX.W movq rax,[rbp-0x30]
0x280b6818fdf5   235  33c9                 xorl rcx,rcx
0x280b6818fdf7   237  488bd1               REX.W movq rdx,rcx
0x280b6818fdfa   23a  41ffd3               call r11
0x280b6818fdfd   23d  488b7dd8             REX.W movq rdi,[rbp-0x28]
0x280b6818fe01   241  4c8b45c0             REX.W movq r8,[rbp-0x40]
0x280b6818fe05   245  41c744383000000000   movl [r8+rdi*1+0x30],0x0
0x280b6818fe0e   24e  4c8b65a8             REX.W movq r12,[rbp-0x58]
0x280b6818fe12   252  458964382c           movl [r8+rdi*1+0x2c],r12
0x280b6818fe17   257  41c744381c00000000   movl [r8+rdi*1+0x1c],0x0
0x280b6818fe20   260  458b5c3814           movl r11,[r8+rdi*1+0x14]
0x280b6818fe25   265  41bcffffffff         movl r12,0xffffffff
0x280b6818fe2b   26b  4183fb00             cmpl r11,0x0
0x280b6818fe2f   26f  440f4565b0           cmovnzl r12,[rbp-0x50]
0x280b6818fe34   274  49c744381000000000   REX.W movq [r8+rdi*1+0x10],0x0
0x280b6818fe3d   27d  4c89e0               REX.W movq rax,r12
0x280b6818fe40   280  4c8b5db8             REX.W movq r11,[rbp-0x48]
0x280b6818fe44   284  4183e320             andl r11,0x20
0x280b6818fe48   288  468b2407             movl r12,[rdi+r8*1]
0x280b6818fe4c   28c  4509e3               orl r11,r12
0x280b6818fe4f   28f  46891c07             movl [rdi+r8*1],r11
0x280b6818fe53   293  bfffffffff           movl rdi,0xffffffff
0x280b6818fe58   298  41f6c420             testb r12,0x20
0x280b6818fe5c   29c  0f45c7               cmovnzl rax,rdi
0x280b6818fe5f   29f  488945d8             REX.W movq [rbp-0x28],rax
0x280b6818fe63   2a3  837dc800             cmpl [rbp-0x38],0x0
0x280b6818fe67   2a7  0f8416000000         jz 0x280b6818fe83  <+0x2c3>
0x280b6818fe6d   2ad  488b75f0             REX.W movq rsi,[rbp-0x10]
0x280b6818fe71   2b1  488b45d0             REX.W movq rax,[rbp-0x30]
0x280b6818fe75   2b5  e8b361ffff           call 0x280b6818602d  (jump table)    ;; internal wasm call
0x280b6818fe7a   2ba  488b7dd8             REX.W movq rdi,[rbp-0x28]
0x280b6818fe7e   2be  e90d000000           jmp 0x280b6818fe90  <+0x2d0>
0x280b6818fe83   2c3  488bf8               REX.W movq rdi,rax
0x280b6818fe86   2c6  e905000000           jmp 0x280b6818fe90  <+0x2d0>
0x280b6818fe8b   2cb  bfffffffff           movl rdi,0xffffffff
0x280b6818fe90   2d0  4c8b45e0             REX.W movq r8,[rbp-0x20]
0x280b6818fe94   2d4  4181c0d0000000       addl r8,0xd0
0x280b6818fe9b   2db  4c8b5de8             REX.W movq r11,[rbp-0x18]
0x280b6818fe9f   2df  458903               movl [r11],r8
0x280b6818fea2   2e2  488bc7               REX.W movq rax,rdi
0x280b6818fea5   2e5  488be5               REX.W movq rsp,rbp
0x280b6818fea8   2e8  5d                   pop rbp
0x280b6818fea9   2e9  c3                   retl
0x280b6818feaa   2ea  48894dc8             REX.W movq [rbp-0x38],rcx
0x280b6818feae   2ee  e8bd64ffff           call 0x280b68186370  (jump table)    ;; wasm stub: WasmStackGuard
0x280b6818feb3   2f3  488b75f0             REX.W movq rsi,[rbp-0x10]
0x280b6818feb7   2f7  488b4dc8             REX.W movq rcx,[rbp-0x38]
0x280b6818febb   2fb  e928fdffff           jmp 0x280b6818fbe8  <+0x28>
0x280b6818fec0   300  e84b62ffff           call 0x280b68186110  (jump table)    ;; wasm stub: ThrowWasmTrapMemOutOfBounds
0x280b6818fec5   305  e84662ffff           call 0x280b68186110  (jump table)    ;; wasm stub: ThrowWasmTrapMemOutOfBounds
0x280b6818feca   30a  e84162ffff           call 0x280b68186110  (jump table)    ;; wasm stub: ThrowWasmTrapMemOutOfBounds
0x280b6818fecf   30f  e83c62ffff           call 0x280b68186110  (jump table)    ;; wasm stub: ThrowWasmTrapMemOutOfBounds
0x280b6818fed4   314  e83762ffff           call 0x280b68186110  (jump table)    ;; wasm stub: ThrowWasmTrapMemOutOfBounds
0x280b6818fed9   319  e83262ffff           call 0x280b68186110  (jump table)    ;; wasm stub: ThrowWasmTrapMemOutOfBounds
0x280b6818fede   31e  e82d62ffff           call 0x280b68186110  (jump table)    ;; wasm stub: ThrowWasmTrapMemOutOfBounds
0x280b6818fee3   323  e88862ffff           call 0x280b68186170  (jump table)    ;; wasm stub: ThrowWasmTrapFuncSigMismatch
0x280b6818fee8   328  e8b362ffff           call 0x280b681861a0  (jump table)    ;; wasm stub: ThrowWasmTrapTableOutOfBounds
0x280b6818feed   32d  e81e62ffff           call 0x280b68186110  (jump table)    ;; wasm stub: ThrowWasmTrapMemOutOfBounds
0x280b6818fef2   332  e81962ffff           call 0x280b68186110  (jump table)    ;; wasm stub: ThrowWasmTrapMemOutOfBounds
0x280b6818fef7   337  e81462ffff           call 0x280b68186110  (jump table)    ;; wasm stub: ThrowWasmTrapMemOutOfBounds
0x280b6818fefc   33c  e80f62ffff           call 0x280b68186110  (jump table)    ;; wasm stub: ThrowWasmTrapMemOutOfBounds
0x280b6818ff01   341  e80a62ffff           call 0x280b68186110  (jump table)    ;; wasm stub: ThrowWasmTrapMemOutOfBounds
0x280b6818ff06   346  e80562ffff           call 0x280b68186110  (jump table)    ;; wasm stub: ThrowWasmTrapMemOutOfBounds
0x280b6818ff0b   34b  e80062ffff           call 0x280b68186110  (jump table)    ;; wasm stub: ThrowWasmTrapMemOutOfBounds
0x280b6818ff10   350  e8fb61ffff           call 0x280b68186110  (jump table)    ;; wasm stub: ThrowWasmTrapMemOutOfBounds
0x280b6818ff15   355  e8f661ffff           call 0x280b68186110  (jump table)    ;; wasm stub: ThrowWasmTrapMemOutOfBounds
0x280b6818ff1a   35a  e8f161ffff           call 0x280b68186110  (jump table)    ;; wasm stub: ThrowWasmTrapMemOutOfBounds
0x280b6818ff1f   35f  e8ec61ffff           call 0x280b68186110  (jump table)    ;; wasm stub: ThrowWasmTrapMemOutOfBounds
0x280b6818ff24   364  e8e761ffff           call 0x280b68186110  (jump table)    ;; wasm stub: ThrowWasmTrapMemOutOfBounds
0x280b6818ff29   369  e8e261ffff           call 0x280b68186110  (jump table)    ;; wasm stub: ThrowWasmTrapMemOutOfBounds
0x280b6818ff2e   36e  e8dd61ffff           call 0x280b68186110  (jump table)    ;; wasm stub: ThrowWasmTrapMemOutOfBounds
0x280b6818ff33   373  e8d861ffff           call 0x280b68186110  (jump table)    ;; wasm stub: ThrowWasmTrapMemOutOfBounds
0x280b6818ff38   378  90                   nop
0x280b6818ff39   379  0f1f00               nop

Protected instructions:
 pc offset  land pad
       28f       300
       288       305
       274       30a
       260       30f
       257       314
       252       319
       245       31e
       1ee       32d
       170       332
       167       337
       15e       33c
       155       341
       14c       346
       12d       34b
       11e       350
       11a       355
        fc       35a
        f8       35f
        c0       364
        7e       369
        76       36e
        3d       373

Source positions:
 pc offset  position
        3d        23
        4c        37
        6e        44
        7e        48
        8f        80
        bc        96
        da       106
        ef       113
        fc       120
       11a       135
       11e       147
       12d       194
       14c       158
       155       165
       15e       172
       167       177
       16c       186
       175       206
       193       238
       1e6       262
       22e       265
       23d       273
       24e       280
       257       287
       260       292
       274       301
       288       318
       28f       326
       2ad       348
       2ea         0
       300       326
       305       318
       30a       301
       30f       292
       314       287
       319       280
       31e       273
       323       265
       32d       262
       332       186
       337       177
       33c       172
       341       165
       346       158
       34b       194
       350       147
       355       135
       35a       120
       35f       113
       364        96
       369        48
       36e        44
       373        23

Safepoints (entries = 1, byte size = 12)
0x280b6818fc2e     6e  slots (sp->fp): 000000000000000000000000

RelocInfo (size = 45)
0x280b6818fc2a  internal wasm call
0x280b6818fc6c  internal wasm call
0x280b6818fca3  internal wasm call
0x280b6818fd42  internal wasm call
0x280b6818fd76  internal wasm call
0x280b6818fe76  internal wasm call
0x280b6818feaf  wasm stub call
0x280b6818fec1  wasm stub call
0x280b6818fec6  wasm stub call
0x280b6818fecb  wasm stub call
0x280b6818fed0  wasm stub call
0x280b6818fed5  wasm stub call
0x280b6818feda  wasm stub call
0x280b6818fedf  wasm stub call
0x280b6818fee4  wasm stub call
0x280b6818fee9  wasm stub call
0x280b6818feee  wasm stub call
0x280b6818fef3  wasm stub call
0x280b6818fef8  wasm stub call
0x280b6818fefd  wasm stub call
0x280b6818ff02  wasm stub call
0x280b6818ff07  wasm stub call
0x280b6818ff0c  wasm stub call
0x280b6818ff11  wasm stub call
0x280b6818ff16  wasm stub call
0x280b6818ff1b  wasm stub call
0x280b6818ff20  wasm stub call
0x280b6818ff25  wasm stub call
0x280b6818ff2a  wasm stub call
0x280b6818ff2f  wasm stub call
0x280b6818ff34  wasm stub call

--- End code ---
--- WebAssembly code ---
name: __emscripten_stdout_seek
index: 10
kind: wasm function
compiler: TurboFan
Body (size = 64 = 24 + 40 padding)
Instructions (size = 16)
0x280b6818d9c0     0  55                   push rbp
0x280b6818d9c1     1  4889e5               REX.W movq rbp,rsp
0x280b6818d9c4     4  6a08                 push 0x8
0x280b6818d9c6     6  56                   push rsi
0x280b6818d9c7     7  33c0                 xorl rax,rax
0x280b6818d9c9     9  488be5               REX.W movq rsp,rbp
0x280b6818d9cc     c  5d                   pop rbp
0x280b6818d9cd     d  c3                   retl
0x280b6818d9ce     e  90                   nop
0x280b6818d9cf     f  90                   nop

Safepoints (entries = 0, byte size = 8)

RelocInfo (size = 0)

--- End code ---
--- WebAssembly code ---
name: wctomb
index: 37
kind: wasm function
compiler: TurboFan
Body (size = 128 = 92 + 36 padding)
Instructions (size = 80)
0x280b6818da00     0  55                   push rbp
0x280b6818da01     1  4889e5               REX.W movq rbp,rsp
0x280b6818da04     4  6a08                 push 0x8
0x280b6818da06     6  56                   push rsi
0x280b6818da07     7  4883ec10             REX.W subq rsp,0x10
0x280b6818da0b     b  488b5e27             REX.W movq rbx,[rsi+0x27]
0x280b6818da0f     f  483b23               REX.W cmpq rsp,[rbx]
0x280b6818da12    12  0f8619000000         jna 0x280b6818da31  <+0x31>
0x280b6818da18    18  83f800               cmpl rax,0x0
0x280b6818da1b    1b  0f840c000000         jz 0x280b6818da2d  <+0x2d>
0x280b6818da21    21  33c9                 xorl rcx,rcx
0x280b6818da23    23  e88086ffff           call 0x280b681860a8  (jump table)    ;; internal wasm call
0x280b6818da28    28  488be5               REX.W movq rsp,rbp
0x280b6818da2b    2b  5d                   pop rbp
0x280b6818da2c    2c  c3                   retl
0x280b6818da2d    2d  33c0                 xorl rax,rax
0x280b6818da2f    2f  ebf7                 jmp 0x280b6818da28  <+0x28>
0x280b6818da31    31  488945e8             REX.W movq [rbp-0x18],rax
0x280b6818da35    35  488955e0             REX.W movq [rbp-0x20],rdx
0x280b6818da39    39  e83289ffff           call 0x280b68186370  (jump table)    ;; wasm stub: WasmStackGuard
0x280b6818da3e    3e  488b75f0             REX.W movq rsi,[rbp-0x10]
0x280b6818da42    42  488b45e8             REX.W movq rax,[rbp-0x18]
0x280b6818da46    46  488b55e0             REX.W movq rdx,[rbp-0x20]
0x280b6818da4a    4a  ebcc                 jmp 0x280b6818da18  <+0x18>
0x280b6818da4c    4c  90                   nop
0x280b6818da4d    4d  0f1f00               nop

Source positions:
 pc offset  position
        21        16
        31         0

Safepoints (entries = 1, byte size = 10)
0x280b6818da28     28  slots (sp->fp): 00000000

RelocInfo (size = 3)
0x280b6818da24  internal wasm call
0x280b6818da3a  wasm stub call

--- End code ---
--- WebAssembly code ---
name: __lockfile
index: 12
kind: wasm function
compiler: TurboFan
Body (size = 64 = 28 + 36 padding)
Instructions (size = 20)
0x280b6818da80     0  55                   push rbp
0x280b6818da81     1  4889e5               REX.W movq rbp,rsp
0x280b6818da84     4  6a08                 push 0x8
0x280b6818da86     6  56                   push rsi
0x280b6818da87     7  b801000000           movl rax,0x1
0x280b6818da8c     c  488be5               REX.W movq rsp,rbp
0x280b6818da8f     f  5d                   pop rbp
0x280b6818da90    10  c3                   retl
0x280b6818da91    11  90                   nop
0x280b6818da92    12  6690                 nop

Safepoints (entries = 0, byte size = 8)

RelocInfo (size = 0)

--- End code ---
--- WebAssembly code ---
name: __emscripten_stdout_close
index: 9
kind: wasm function
compiler: TurboFan
Body (size = 64 = 24 + 40 padding)
Instructions (size = 16)
0x280b6818dac0     0  55                   push rbp
0x280b6818dac1     1  4889e5               REX.W movq rbp,rsp
0x280b6818dac4     4  6a08                 push 0x8
0x280b6818dac6     6  56                   push rsi
0x280b6818dac7     7  33c0                 xorl rax,rax
0x280b6818dac9     9  488be5               REX.W movq rsp,rbp
0x280b6818dacc     c  5d                   pop rbp
0x280b6818dacd     d  c3                   retl
0x280b6818dace     e  90                   nop
0x280b6818dacf     f  90                   nop

Safepoints (entries = 0, byte size = 8)

RelocInfo (size = 0)

--- End code ---
--- WebAssembly code ---
name: __wasm_call_ctors
index: 4
kind: wasm function
compiler: Liftoff
Body (size = 64 = 64 + 0 padding)
Instructions (size = 52)
0x280b68189d00     0  55                   push rbp
0x280b68189d01     1  4889e5               REX.W movq rbp,rsp
0x280b68189d04     4  6a08                 push 0x8
0x280b68189d06     6  56                   push rsi
0x280b68189d07     7  4881ec18000000       REX.W subq rsp,0x18
0x280b68189d0e     e  488b4627             REX.W movq rax,[rsi+0x27]
0x280b68189d12    12  483b20               REX.W cmpq rsp,[rax]
0x280b68189d15    15  0f860e000000         jna 0x280b68189d29  <+0x29>
0x280b68189d1b    1b  488b75f0             REX.W movq rsi,[rbp-0x10]
0x280b68189d1f    1f  e87fc3ffff           call 0x280b681860a3  (jump table)
0x280b68189d24    24  488be5               REX.W movq rsp,rbp
0x280b68189d27    27  5d                   pop rbp
0x280b68189d28    28  c3                   retl
0x280b68189d29    29  e842c6ffff           call 0x280b68186370  (jump table)
0x280b68189d2e    2e  488b75f0             REX.W movq rsi,[rbp-0x10]
0x280b68189d32    32  ebe7                 jmp 0x280b68189d1b  <+0x1b>

Source positions:
 pc offset  position
        1f         1  statement
        29         0  statement

Safepoints (entries = 1, byte size = 10)
0x280b68189d24     24  slots (sp->fp): 00000000

RelocInfo (size = 0)

--- End code ---
--- WebAssembly code ---
name: out
index: 23
kind: wasm function
compiler: Liftoff
Body (size = 128 = 128 + 0 padding)
Instructions (size = 116)
0x280b68189d40     0  55                   push rbp
0x280b68189d41     1  4889e5               REX.W movq rbp,rsp
0x280b68189d44     4  6a08                 push 0x8
0x280b68189d46     6  56                   push rsi
0x280b68189d47     7  4881ec38000000       REX.W subq rsp,0x38
0x280b68189d4e     e  488b5e27             REX.W movq rbx,[rsi+0x27]
0x280b68189d52    12  483b23               REX.W cmpq rsp,[rbx]
0x280b68189d55    15  0f8642000000         jna 0x280b68189d9d  <+0x5d>
0x280b68189d5b    1b  488b5e17             REX.W movq rbx,[rsi+0x17]
0x280b68189d5f    1f  0fb63c03             movzxbl rdi,[rbx+rax*1]
0x280b68189d63    23  83e720               andl rdi,0x20
0x280b68189d66    26  85ff                 testl rdi,rdi
0x280b68189d68    28  0f852a000000         jnz 0x280b68189d98  <+0x58>
0x280b68189d6e    2e  894dcc               movl [rbp-0x34],rcx
0x280b68189d71    31  8955d0               movl [rbp-0x30],rdx
0x280b68189d74    34  8945d4               movl [rbp-0x2c],rax
0x280b68189d77    37  8955bc               movl [rbp-0x44],rdx
0x280b68189d7a    3a  8bd1                 movl rdx,rcx
0x280b68189d7c    3c  8bc8                 movl rcx,rax
0x280b68189d7e    3e  8b45bc               movl rax,[rbp-0x44]
0x280b68189d81    41  488b75f0             REX.W movq rsi,[rbp-0x10]
0x280b68189d85    45  e8cac2ffff           call 0x280b68186054  (jump table)
0x280b68189d8a    4a  8b45d4               movl rax,[rbp-0x2c]
0x280b68189d8d    4d  8b4dcc               movl rcx,[rbp-0x34]
0x280b68189d90    50  8b55d0               movl rdx,[rbp-0x30]
0x280b68189d93    53  e900000000           jmp 0x280b68189d98  <+0x58>
0x280b68189d98    58  488be5               REX.W movq rsp,rbp
0x280b68189d9b    5b  5d                   pop rbp
0x280b68189d9c    5c  c3                   retl
0x280b68189d9d    5d  50                   push rax
0x280b68189d9e    5e  51                   push rcx
0x280b68189d9f    5f  52                   push rdx
0x280b68189da0    60  e8cbc5ffff           call 0x280b68186370  (jump table)
0x280b68189da5    65  5a                   pop rdx
0x280b68189da6    66  59                   pop rcx
0x280b68189da7    67  58                   pop rax
0x280b68189da8    68  488b75f0             REX.W movq rsi,[rbp-0x10]
0x280b68189dac    6c  ebad                 jmp 0x280b68189d5b  <+0x1b>
0x280b68189dae    6e  e85dc3ffff           call 0x280b68186110  (jump table)
0x280b68189db3    73  90                   nop

Protected instructions:
 pc offset  land pad
        1f        6e

Source positions:
 pc offset  position
        45        18  statement
        60         0  statement
        6e         3  statement

Safepoints (entries = 1, byte size = 11)
0x280b68189d8a     4a  slots (sp->fp): 0000000000000000

RelocInfo (size = 0)

--- End code ---
--- WebAssembly code ---
name: pop_arg
index: 25
kind: wasm function
compiler: Liftoff
Body (size = 1472 = 1428 + 44 padding)
Instructions (size = 1416)
0x280b6818a000     0  55                   push rbp
0x280b6818a001     1  4889e5               REX.W movq rbp,rsp
0x280b6818a004     4  6a08                 push 0x8
0x280b6818a006     6  56                   push rsi
0x280b6818a007     7  4881ec30000000       REX.W subq rsp,0x30
0x280b6818a00e     e  488b7e27             REX.W movq rdi,[rsi+0x27]
0x280b6818a012    12  483b27               REX.W cmpq rsp,[rdi]
0x280b6818a015    15  0f86f9030000         jna 0x280b6818a414  <+0x414>
0x280b6818a01b    1b  bf09000000           movl rdi,0x9
0x280b6818a020    20  f7df                 negl rdi
0x280b6818a022    22  03fa                 addl rdi,rdx
0x280b6818a024    24  41b912000000         movl r9,0x12
0x280b6818a02a    2a  413bf9               cmpl rdi,r9
0x280b6818a02d    2d  0f8359010000         jnc 0x280b6818a18c  <+0x18c>
0x280b6818a033    33  41b909000000         movl r9,0x9
0x280b6818a039    39  413bf9               cmpl rdi,r9
0x280b6818a03c    3c  0f83a5000000         jnc 0x280b6818a0e7  <+0xe7>
0x280b6818a042    42  41b904000000         movl r9,0x4
0x280b6818a048    48  413bf9               cmpl rdi,r9
0x280b6818a04b    4b  0f8341000000         jnc 0x280b6818a092  <+0x92>
0x280b6818a051    51  41b902000000         movl r9,0x2
0x280b6818a057    57  413bf9               cmpl rdi,r9
0x280b6818a05a    5a  0f8319000000         jnc 0x280b6818a079  <+0x79>
0x280b6818a060    60  41b901000000         movl r9,0x1
0x280b6818a066    66  413bf9               cmpl rdi,r9
0x280b6818a069    69  0f8305000000         jnc 0x280b6818a074  <+0x74>
0x280b6818a06f    6f  e91d010000           jmp 0x280b6818a191  <+0x191>
0x280b6818a074    74  e933010000           jmp 0x280b6818a1ac  <+0x1ac>
0x280b6818a079    79  41b903000000         movl r9,0x3
0x280b6818a07f    7f  413bf9               cmpl rdi,r9
0x280b6818a082    82  0f8305000000         jnc 0x280b6818a08d  <+0x8d>
0x280b6818a088    88  e93b010000           jmp 0x280b6818a1c8  <+0x1c8>
0x280b6818a08d    8d  e98a010000           jmp 0x280b6818a21c  <+0x21c>
0x280b6818a092    92  41b906000000         movl r9,0x6
0x280b6818a098    98  413bf9               cmpl rdi,r9
0x280b6818a09b    9b  0f8319000000         jnc 0x280b6818a0ba  <+0xba>
0x280b6818a0a1    a1  41b905000000         movl r9,0x5
0x280b6818a0a7    a7  413bf9               cmpl rdi,r9
0x280b6818a0aa    aa  0f8305000000         jnc 0x280b6818a0b5  <+0xb5>
0x280b6818a0b0    b0  e92f010000           jmp 0x280b6818a1e4  <+0x1e4>
0x280b6818a0b5    b5  e946010000           jmp 0x280b6818a200  <+0x200>
0x280b6818a0ba    ba  41b907000000         movl r9,0x7
0x280b6818a0c0    c0  413bf9               cmpl rdi,r9
0x280b6818a0c3    c3  0f8305000000         jnc 0x280b6818a0ce  <+0xce>
0x280b6818a0c9    c9  e972010000           jmp 0x280b6818a240  <+0x240>
0x280b6818a0ce    ce  41b908000000         movl r9,0x8
0x280b6818a0d4    d4  413bf9               cmpl rdi,r9
0x280b6818a0d7    d7  0f8305000000         jnc 0x280b6818a0e2  <+0xe2>
0x280b6818a0dd    dd  e97b010000           jmp 0x280b6818a25d  <+0x25d>
0x280b6818a0e2    e2  e993010000           jmp 0x280b6818a27a  <+0x27a>
0x280b6818a0e7    e7  41b90d000000         movl r9,0xd
0x280b6818a0ed    ed  413bf9               cmpl rdi,r9
0x280b6818a0f0    f0  0f8341000000         jnc 0x280b6818a137  <+0x137>
0x280b6818a0f6    f6  41b90b000000         movl r9,0xb
0x280b6818a0fc    fc  413bf9               cmpl rdi,r9
0x280b6818a0ff    ff  0f8319000000         jnc 0x280b6818a11e  <+0x11e>
0x280b6818a105   105  41b90a000000         movl r9,0xa
0x280b6818a10b   10b  413bf9               cmpl rdi,r9
0x280b6818a10e   10e  0f8305000000         jnc 0x280b6818a119  <+0x119>
0x280b6818a114   114  e97e010000           jmp 0x280b6818a297  <+0x297>
0x280b6818a119   119  e996010000           jmp 0x280b6818a2b4  <+0x2b4>
0x280b6818a11e   11e  41b90c000000         movl r9,0xc
0x280b6818a124   124  413bf9               cmpl rdi,r9
0x280b6818a127   127  0f8305000000         jnc 0x280b6818a132  <+0x132>
0x280b6818a12d   12d  e9a6010000           jmp 0x280b6818a2d8  <+0x2d8>
0x280b6818a132   132  e9bd010000           jmp 0x280b6818a2f4  <+0x2f4>
0x280b6818a137   137  41b90f000000         movl r9,0xf
0x280b6818a13d   13d  413bf9               cmpl rdi,r9
0x280b6818a140   140  0f8319000000         jnc 0x280b6818a15f  <+0x15f>
0x280b6818a146   146  41b90e000000         movl r9,0xe
0x280b6818a14c   14c  413bf9               cmpl rdi,r9
0x280b6818a14f   14f  0f8305000000         jnc 0x280b6818a15a  <+0x15a>
0x280b6818a155   155  e9be010000           jmp 0x280b6818a318  <+0x318>
0x280b6818a15a   15a  e9dd010000           jmp 0x280b6818a33c  <+0x33c>
0x280b6818a15f   15f  41b910000000         movl r9,0x10
0x280b6818a165   165  413bf9               cmpl rdi,r9
0x280b6818a168   168  0f8305000000         jnc 0x280b6818a173  <+0x173>
0x280b6818a16e   16e  e9e5010000           jmp 0x280b6818a358  <+0x358>
0x280b6818a173   173  41b911000000         movl r9,0x11
0x280b6818a179   179  413bf9               cmpl rdi,r9
0x280b6818a17c   17c  0f8305000000         jnc 0x280b6818a187  <+0x187>
0x280b6818a182   182  e9ed010000           jmp 0x280b6818a374  <+0x374>
0x280b6818a187   187  e90f020000           jmp 0x280b6818a39b  <+0x39b>
0x280b6818a18c   18c  e97e020000           jmp 0x280b6818a40f  <+0x40f>
0x280b6818a191   191  488b7e17             REX.W movq rdi,[rsi+0x17]
0x280b6818a195   195  448b0c0f             movl r9,[rdi+rcx*1]
0x280b6818a199   199  418d5104             leal rdx,[r9+0x4]
0x280b6818a19d   19d  89140f               movl [rdi+rcx*1],rdx
0x280b6818a1a0   1a0  428b140f             movl rdx,[rdi+r9*1]
0x280b6818a1a4   1a4  891407               movl [rdi+rax*1],rdx
0x280b6818a1a7   1a7  488be5               REX.W movq rsp,rbp
0x280b6818a1aa   1aa  5d                   pop rbp
0x280b6818a1ab   1ab  c3                   retl
0x280b6818a1ac   1ac  488b7e17             REX.W movq rdi,[rsi+0x17]
0x280b6818a1b0   1b0  448b0c0f             movl r9,[rdi+rcx*1]
0x280b6818a1b4   1b4  418d5104             leal rdx,[r9+0x4]
0x280b6818a1b8   1b8  89140f               movl [rdi+rcx*1],rdx
0x280b6818a1bb   1bb  4a63140f             REX.W movsxlq rdx,[rdi+r9*1]
0x280b6818a1bf   1bf  48891407             REX.W movq [rdi+rax*1],rdx
0x280b6818a1c3   1c3  488be5               REX.W movq rsp,rbp
0x280b6818a1c6   1c6  5d                   pop rbp
0x280b6818a1c7   1c7  c3                   retl
0x280b6818a1c8   1c8  488b7e17             REX.W movq rdi,[rsi+0x17]
0x280b6818a1cc   1cc  448b0c0f             movl r9,[rdi+rcx*1]
0x280b6818a1d0   1d0  418d5104             leal rdx,[r9+0x4]
0x280b6818a1d4   1d4  89140f               movl [rdi+rcx*1],rdx
0x280b6818a1d7   1d7  428b140f             movl rdx,[rdi+r9*1]
0x280b6818a1db   1db  48891407             REX.W movq [rdi+rax*1],rdx
0x280b6818a1df   1df  488be5               REX.W movq rsp,rbp
0x280b6818a1e2   1e2  5d                   pop rbp
0x280b6818a1e3   1e3  c3                   retl
0x280b6818a1e4   1e4  488b7e17             REX.W movq rdi,[rsi+0x17]
0x280b6818a1e8   1e8  448b0c0f             movl r9,[rdi+rcx*1]
0x280b6818a1ec   1ec  418d5104             leal rdx,[r9+0x4]
0x280b6818a1f0   1f0  89140f               movl [rdi+rcx*1],rdx
0x280b6818a1f3   1f3  4a63140f             REX.W movsxlq rdx,[rdi+r9*1]
0x280b6818a1f7   1f7  48891407             REX.W movq [rdi+rax*1],rdx
0x280b6818a1fb   1fb  488be5               REX.W movq rsp,rbp
0x280b6818a1fe   1fe  5d                   pop rbp
0x280b6818a1ff   1ff  c3                   retl
0x280b6818a200   200  488b7e17             REX.W movq rdi,[rsi+0x17]
0x280b6818a204   204  448b0c0f             movl r9,[rdi+rcx*1]
0x280b6818a208   208  418d5104             leal rdx,[r9+0x4]
0x280b6818a20c   20c  89140f               movl [rdi+rcx*1],rdx
0x280b6818a20f   20f  428b140f             movl rdx,[rdi+r9*1]
0x280b6818a213   213  48891407             REX.W movq [rdi+rax*1],rdx
0x280b6818a217   217  488be5               REX.W movq rsp,rbp
0x280b6818a21a   21a  5d                   pop rbp
0x280b6818a21b   21b  c3                   retl
0x280b6818a21c   21c  488b7e17             REX.W movq rdi,[rsi+0x17]
0x280b6818a220   220  448b0c0f             movl r9,[rdi+rcx*1]
0x280b6818a224   224  4183c107             addl r9,0x7
0x280b6818a228   228  4183e1f8             andl r9,0xf8
0x280b6818a22c   22c  418d5108             leal rdx,[r9+0x8]
0x280b6818a230   230  89140f               movl [rdi+rcx*1],rdx
0x280b6818a233   233  4a8b140f             REX.W movq rdx,[rdi+r9*1]
0x280b6818a237   237  48891407             REX.W movq [rdi+rax*1],rdx
0x280b6818a23b   23b  488be5               REX.W movq rsp,rbp
0x280b6818a23e   23e  5d                   pop rbp
0x280b6818a23f   23f  c3                   retl
0x280b6818a240   240  488b7e17             REX.W movq rdi,[rsi+0x17]
0x280b6818a244   244  448b0c0f             movl r9,[rdi+rcx*1]
0x280b6818a248   248  418d5104             leal rdx,[r9+0x4]
0x280b6818a24c   24c  89140f               movl [rdi+rcx*1],rdx
0x280b6818a24f   24f  4a0fbf140f           REX.W movsxwq rdx,[rdi+r9*1]
0x280b6818a254   254  48891407             REX.W movq [rdi+rax*1],rdx
0x280b6818a258   258  488be5               REX.W movq rsp,rbp
0x280b6818a25b   25b  5d                   pop rbp
0x280b6818a25c   25c  c3                   retl
0x280b6818a25d   25d  488b7e17             REX.W movq rdi,[rsi+0x17]
0x280b6818a261   261  448b0c0f             movl r9,[rdi+rcx*1]
0x280b6818a265   265  418d5104             leal rdx,[r9+0x4]
0x280b6818a269   269  89140f               movl [rdi+rcx*1],rdx
0x280b6818a26c   26c  420fb7140f           movzxwl rdx,[rdi+r9*1]
0x280b6818a271   271  48891407             REX.W movq [rdi+rax*1],rdx
0x280b6818a275   275  488be5               REX.W movq rsp,rbp
0x280b6818a278   278  5d                   pop rbp
0x280b6818a279   279  c3                   retl
0x280b6818a27a   27a  488b7e17             REX.W movq rdi,[rsi+0x17]
0x280b6818a27e   27e  448b0c0f             movl r9,[rdi+rcx*1]
0x280b6818a282   282  418d5104             leal rdx,[r9+0x4]
0x280b6818a286   286  89140f               movl [rdi+rcx*1],rdx
0x280b6818a289   289  4a0fbe140f           REX.W movsxbq rdx,[rdi+r9*1]
0x280b6818a28e   28e  48891407             REX.W movq [rdi+rax*1],rdx
0x280b6818a292   292  488be5               REX.W movq rsp,rbp
0x280b6818a295   295  5d                   pop rbp
0x280b6818a296   296  c3                   retl
0x280b6818a297   297  488b7e17             REX.W movq rdi,[rsi+0x17]
0x280b6818a29b   29b  448b0c0f             movl r9,[rdi+rcx*1]
0x280b6818a29f   29f  418d5104             leal rdx,[r9+0x4]
0x280b6818a2a3   2a3  89140f               movl [rdi+rcx*1],rdx
0x280b6818a2a6   2a6  420fb6140f           movzxbl rdx,[rdi+r9*1]
0x280b6818a2ab   2ab  48891407             REX.W movq [rdi+rax*1],rdx
0x280b6818a2af   2af  488be5               REX.W movq rsp,rbp
0x280b6818a2b2   2b2  5d                   pop rbp
0x280b6818a2b3   2b3  c3                   retl
0x280b6818a2b4   2b4  488b7e17             REX.W movq rdi,[rsi+0x17]
0x280b6818a2b8   2b8  448b0c0f             movl r9,[rdi+rcx*1]
0x280b6818a2bc   2bc  4183c107             addl r9,0x7
0x280b6818a2c0   2c0  4183e1f8             andl r9,0xf8
0x280b6818a2c4   2c4  418d5108             leal rdx,[r9+0x8]
0x280b6818a2c8   2c8  89140f               movl [rdi+rcx*1],rdx
0x280b6818a2cb   2cb  4a8b140f             REX.W movq rdx,[rdi+r9*1]
0x280b6818a2cf   2cf  48891407             REX.W movq [rdi+rax*1],rdx
0x280b6818a2d3   2d3  488be5               REX.W movq rsp,rbp
0x280b6818a2d6   2d6  5d                   pop rbp
0x280b6818a2d7   2d7  c3                   retl
0x280b6818a2d8   2d8  488b7e17             REX.W movq rdi,[rsi+0x17]
0x280b6818a2dc   2dc  448b0c0f             movl r9,[rdi+rcx*1]
0x280b6818a2e0   2e0  418d5104             leal rdx,[r9+0x4]
0x280b6818a2e4   2e4  89140f               movl [rdi+rcx*1],rdx
0x280b6818a2e7   2e7  428b140f             movl rdx,[rdi+r9*1]
0x280b6818a2eb   2eb  48891407             REX.W movq [rdi+rax*1],rdx
0x280b6818a2ef   2ef  488be5               REX.W movq rsp,rbp
0x280b6818a2f2   2f2  5d                   pop rbp
0x280b6818a2f3   2f3  c3                   retl
0x280b6818a2f4   2f4  488b7e17             REX.W movq rdi,[rsi+0x17]
0x280b6818a2f8   2f8  448b0c0f             movl r9,[rdi+rcx*1]
0x280b6818a2fc   2fc  4183c107             addl r9,0x7
0x280b6818a300   300  4183e1f8             andl r9,0xf8
0x280b6818a304   304  418d5108             leal rdx,[r9+0x8]
0x280b6818a308   308  89140f               movl [rdi+rcx*1],rdx
0x280b6818a30b   30b  4a8b140f             REX.W movq rdx,[rdi+r9*1]
0x280b6818a30f   30f  48891407             REX.W movq [rdi+rax*1],rdx
0x280b6818a313   313  488be5               REX.W movq rsp,rbp
0x280b6818a316   316  5d                   pop rbp
0x280b6818a317   317  c3                   retl
0x280b6818a318   318  488b7e17             REX.W movq rdi,[rsi+0x17]
0x280b6818a31c   31c  448b0c0f             movl r9,[rdi+rcx*1]
0x280b6818a320   320  4183c107             addl r9,0x7
0x280b6818a324   324  4183e1f8             andl r9,0xf8
0x280b6818a328   328  418d5108             leal rdx,[r9+0x8]
0x280b6818a32c   32c  89140f               movl [rdi+rcx*1],rdx
0x280b6818a32f   32f  4a8b140f             REX.W movq rdx,[rdi+r9*1]
0x280b6818a333   333  48891407             REX.W movq [rdi+rax*1],rdx
0x280b6818a337   337  488be5               REX.W movq rsp,rbp
0x280b6818a33a   33a  5d                   pop rbp
0x280b6818a33b   33b  c3                   retl
0x280b6818a33c   33c  488b7e17             REX.W movq rdi,[rsi+0x17]
0x280b6818a340   340  448b0c0f             movl r9,[rdi+rcx*1]
0x280b6818a344   344  418d5104             leal rdx,[r9+0x4]
0x280b6818a348   348  89140f               movl [rdi+rcx*1],rdx
0x280b6818a34b   34b  4a63140f             REX.W movsxlq rdx,[rdi+r9*1]
0x280b6818a34f   34f  48891407             REX.W movq [rdi+rax*1],rdx
0x280b6818a353   353  488be5               REX.W movq rsp,rbp
0x280b6818a356   356  5d                   pop rbp
0x280b6818a357   357  c3                   retl
0x280b6818a358   358  488b7e17             REX.W movq rdi,[rsi+0x17]
0x280b6818a35c   35c  448b0c0f             movl r9,[rdi+rcx*1]
0x280b6818a360   360  418d5104             leal rdx,[r9+0x4]
0x280b6818a364   364  89140f               movl [rdi+rcx*1],rdx
0x280b6818a367   367  428b140f             movl rdx,[rdi+r9*1]
0x280b6818a36b   36b  48891407             REX.W movq [rdi+rax*1],rdx
0x280b6818a36f   36f  488be5               REX.W movq rsp,rbp
0x280b6818a372   372  5d                   pop rbp
0x280b6818a373   373  c3                   retl
0x280b6818a374   374  488b7e17             REX.W movq rdi,[rsi+0x17]
0x280b6818a378   378  448b0c0f             movl r9,[rdi+rcx*1]
0x280b6818a37c   37c  4183c107             addl r9,0x7
0x280b6818a380   380  4183e1f8             andl r9,0xf8
0x280b6818a384   384  418d5108             leal rdx,[r9+0x8]
0x280b6818a388   388  89140f               movl [rdi+rcx*1],rdx
0x280b6818a38b   38b  c4a17b10040f         vmovsd xmm0,[rdi+r9*1]
0x280b6818a391   391  c5fb110407           vmovsd [rdi+rax*1],xmm0
0x280b6818a396   396  488be5               REX.W movq rsp,rbp
0x280b6818a399   399  5d                   pop rbp
0x280b6818a39a   39a  c3                   retl
0x280b6818a39b   39b  8bfb                 movl rdi,rbx
0x280b6818a39d   39d  8945c4               movl [rbp-0x3c],rax
0x280b6818a3a0   3a0  8945d4               movl [rbp-0x2c],rax
0x280b6818a3a3   3a3  488b75f0             REX.W movq rsi,[rbp-0x10]
0x280b6818a3a7   3a7  8b7613               movl rsi,[rsi+0x13]
0x280b6818a3aa   3aa  3bfe                 cmpl rdi,rsi
0x280b6818a3ac   3ac  0f83cc010000         jnc 0x280b6818a57e  <+0x57e>
0x280b6818a3b2   3b2  4c8b4df0             REX.W movq r9,[rbp-0x10]
0x280b6818a3b6   3b6  4d8b493f             REX.W movq r9,[r9+0x3f]
0x280b6818a3ba   3ba  c1e702               shll rdi, 2
0x280b6818a3bd   3bd  418b0439             movl rax,[r9+rdi*1]
0x280b6818a3c1   3c1  be0e000000           movl rsi,0xe
0x280b6818a3c6   3c6  483bc6               REX.W cmpq rax,rsi
0x280b6818a3c9   3c9  0f85b4010000         jnz 0x280b6818a583  <+0x583>
0x280b6818a3cf   3cf  4c8b4df0             REX.W movq r9,[rbp-0x10]
0x280b6818a3d3   3d3  458b490f             movl r9,[r9+0xf]
0x280b6818a3d7   3d7  4d03ce               REX.W addq r9,r14
0x280b6818a3da   3da  418b743907           movl rsi,[r9+rdi*1+0x7]
0x280b6818a3df   3df  4903f6               REX.W addq rsi,r14
0x280b6818a3e2   3e2  03ff                 addl rdi,rdi
0x280b6818a3e4   3e4  4c8b4df0             REX.W movq r9,[rbp-0x10]
0x280b6818a3e8   3e8  4d8b4937             REX.W movq r9,[r9+0x37]
0x280b6818a3ec   3ec  498b0439             REX.W movq rax,[r9+rdi*1]
0x280b6818a3f0   3f0  895dc8               movl [rbp-0x38],rbx
0x280b6818a3f3   3f3  894dcc               movl [rbp-0x34],rcx
0x280b6818a3f6   3f6  8955d0               movl [rbp-0x30],rdx
0x280b6818a3f9   3f9  8bd1                 movl rdx,rcx
0x280b6818a3fb   3fb  488bc8               REX.W movq rcx,rax
0x280b6818a3fe   3fe  8b45c4               movl rax,[rbp-0x3c]
0x280b6818a401   401  ffd1                 call rcx
0x280b6818a403   403  8b45d4               movl rax,[rbp-0x2c]
0x280b6818a406   406  8b4dcc               movl rcx,[rbp-0x34]
0x280b6818a409   409  8b55d0               movl rdx,[rbp-0x30]
0x280b6818a40c   40c  8b5dc8               movl rbx,[rbp-0x38]
0x280b6818a40f   40f  488be5               REX.W movq rsp,rbp
0x280b6818a412   412  5d                   pop rbp
0x280b6818a413   413  c3                   retl
0x280b6818a414   414  50                   push rax
0x280b6818a415   415  51                   push rcx
0x280b6818a416   416  52                   push rdx
0x280b6818a417   417  53                   push rbx
0x280b6818a418   418  e853bfffff           call 0x280b68186370  (jump table)
0x280b6818a41d   41d  5b                   pop rbx
0x280b6818a41e   41e  5a                   pop rdx
0x280b6818a41f   41f  59                   pop rcx
0x280b6818a420   420  58                   pop rax
0x280b6818a421   421  488b75f0             REX.W movq rsi,[rbp-0x10]
0x280b6818a425   425  e9f1fbffff           jmp 0x280b6818a01b  <+0x1b>
0x280b6818a42a   42a  e8e1bcffff           call 0x280b68186110  (jump table)
0x280b6818a42f   42f  e8dcbcffff           call 0x280b68186110  (jump table)
0x280b6818a434   434  e8d7bcffff           call 0x280b68186110  (jump table)
0x280b6818a439   439  e8d2bcffff           call 0x280b68186110  (jump table)
0x280b6818a43e   43e  e8cdbcffff           call 0x280b68186110  (jump table)
0x280b6818a443   443  e8c8bcffff           call 0x280b68186110  (jump table)
0x280b6818a448   448  e8c3bcffff           call 0x280b68186110  (jump table)
0x280b6818a44d   44d  e8bebcffff           call 0x280b68186110  (jump table)
0x280b6818a452   452  e8b9bcffff           call 0x280b68186110  (jump table)
0x280b6818a457   457  e8b4bcffff           call 0x280b68186110  (jump table)
0x280b6818a45c   45c  e8afbcffff           call 0x280b68186110  (jump table)
0x280b6818a461   461  e8aabcffff           call 0x280b68186110  (jump table)
0x280b6818a466   466  e8a5bcffff           call 0x280b68186110  (jump table)
0x280b6818a46b   46b  e8a0bcffff           call 0x280b68186110  (jump table)
0x280b6818a470   470  e89bbcffff           call 0x280b68186110  (jump table)
0x280b6818a475   475  e896bcffff           call 0x280b68186110  (jump table)
0x280b6818a47a   47a  e891bcffff           call 0x280b68186110  (jump table)
0x280b6818a47f   47f  e88cbcffff           call 0x280b68186110  (jump table)
0x280b6818a484   484  e887bcffff           call 0x280b68186110  (jump table)
0x280b6818a489   489  e882bcffff           call 0x280b68186110  (jump table)
0x280b6818a48e   48e  e87dbcffff           call 0x280b68186110  (jump table)
0x280b6818a493   493  e878bcffff           call 0x280b68186110  (jump table)
0x280b6818a498   498  e873bcffff           call 0x280b68186110  (jump table)
0x280b6818a49d   49d  e86ebcffff           call 0x280b68186110  (jump table)
0x280b6818a4a2   4a2  e869bcffff           call 0x280b68186110  (jump table)
0x280b6818a4a7   4a7  e864bcffff           call 0x280b68186110  (jump table)
0x280b6818a4ac   4ac  e85fbcffff           call 0x280b68186110  (jump table)
0x280b6818a4b1   4b1  e85abcffff           call 0x280b68186110  (jump table)
0x280b6818a4b6   4b6  e855bcffff           call 0x280b68186110  (jump table)
0x280b6818a4bb   4bb  e850bcffff           call 0x280b68186110  (jump table)
0x280b6818a4c0   4c0  e84bbcffff           call 0x280b68186110  (jump table)
0x280b6818a4c5   4c5  e846bcffff           call 0x280b68186110  (jump table)
0x280b6818a4ca   4ca  e841bcffff           call 0x280b68186110  (jump table)
0x280b6818a4cf   4cf  e83cbcffff           call 0x280b68186110  (jump table)
0x280b6818a4d4   4d4  e837bcffff           call 0x280b68186110  (jump table)
0x280b6818a4d9   4d9  e832bcffff           call 0x280b68186110  (jump table)
0x280b6818a4de   4de  e82dbcffff           call 0x280b68186110  (jump table)
0x280b6818a4e3   4e3  e828bcffff           call 0x280b68186110  (jump table)
0x280b6818a4e8   4e8  e823bcffff           call 0x280b68186110  (jump table)
0x280b6818a4ed   4ed  e81ebcffff           call 0x280b68186110  (jump table)
0x280b6818a4f2   4f2  e819bcffff           call 0x280b68186110  (jump table)
0x280b6818a4f7   4f7  e814bcffff           call 0x280b68186110  (jump table)
0x280b6818a4fc   4fc  e80fbcffff           call 0x280b68186110  (jump table)
0x280b6818a501   501  e80abcffff           call 0x280b68186110  (jump table)
0x280b6818a506   506  e805bcffff           call 0x280b68186110  (jump table)
0x280b6818a50b   50b  e800bcffff           call 0x280b68186110  (jump table)
0x280b6818a510   510  e8fbbbffff           call 0x280b68186110  (jump table)
0x280b6818a515   515  e8f6bbffff           call 0x280b68186110  (jump table)
0x280b6818a51a   51a  e8f1bbffff           call 0x280b68186110  (jump table)
0x280b6818a51f   51f  e8ecbbffff           call 0x280b68186110  (jump table)
0x280b6818a524   524  e8e7bbffff           call 0x280b68186110  (jump table)
0x280b6818a529   529  e8e2bbffff           call 0x280b68186110  (jump table)
0x280b6818a52e   52e  e8ddbbffff           call 0x280b68186110  (jump table)
0x280b6818a533   533  e8d8bbffff           call 0x280b68186110  (jump table)
0x280b6818a538   538  e8d3bbffff           call 0x280b68186110  (jump table)
0x280b6818a53d   53d  e8cebbffff           call 0x280b68186110  (jump table)
0x280b6818a542   542  e8c9bbffff           call 0x280b68186110  (jump table)
0x280b6818a547   547  e8c4bbffff           call 0x280b68186110  (jump table)
0x280b6818a54c   54c  e8bfbbffff           call 0x280b68186110  (jump table)
0x280b6818a551   551  e8babbffff           call 0x280b68186110  (jump table)
0x280b6818a556   556  e8b5bbffff           call 0x280b68186110  (jump table)
0x280b6818a55b   55b  e8b0bbffff           call 0x280b68186110  (jump table)
0x280b6818a560   560  e8abbbffff           call 0x280b68186110  (jump table)
0x280b6818a565   565  e8a6bbffff           call 0x280b68186110  (jump table)
0x280b6818a56a   56a  e8a1bbffff           call 0x280b68186110  (jump table)
0x280b6818a56f   56f  e89cbbffff           call 0x280b68186110  (jump table)
0x280b6818a574   574  e897bbffff           call 0x280b68186110  (jump table)
0x280b6818a579   579  e892bbffff           call 0x280b68186110  (jump table)
0x280b6818a57e   57e  e81dbcffff           call 0x280b681861a0  (jump table)
0x280b6818a583   583  e8e8bbffff           call 0x280b68186170  (jump table)

Protected instructions:
 pc offset  land pad
       195       42a
       19d       42f
       1a0       434
       1a4       439
       1b0       43e
       1b8       443
       1bb       448
       1bf       44d
       1cc       452
       1d4       457
       1d7       45c
       1db       461
       1e8       466
       1f0       46b
       1f3       470
       1f7       475
       204       47a
       20c       47f
       20f       484
       213       489
       220       48e
       230       493
       233       498
       237       49d
       244       4a2
       24c       4a7
       24f       4ac
       254       4b1
       261       4b6
       269       4bb
       26c       4c0
       271       4c5
       27e       4ca
       286       4cf
       289       4d4
       28e       4d9
       29b       4de
       2a3       4e3
       2a6       4e8
       2ab       4ed
       2b8       4f2
       2c8       4f7
       2cb       4fc
       2cf       501
       2dc       506
       2e4       50b
       2e7       510
       2eb       515
       2f8       51a
       308       51f
       30b       524
       30f       529
       31c       52e
       32c       533
       32f       538
       333       53d
       340       542
       348       547
       34b       54c
       34f       551
       35c       556
       364       55b
       367       560
       36b       565
       378       56a
       388       56f
       38b       574
       391       579

Source positions:
 pc offset  position
       401       561  statement
       418         0  statement
       42a        70  statement
       42f        78  statement
       434        85  statement
       439        88  statement
       43e        97  statement
       443       105  statement
       448       112  statement
       44d       115  statement
       452       124  statement
       457       132  statement
       45c       139  statement
       461       142  statement
       466       151  statement
       46b       159  statement
       470       166  statement
       475       169  statement
       47a       178  statement
       47f       186  statement
       484       193  statement
       489       196  statement
       48e       205  statement
       493       219  statement
       498       226  statement
       49d       229  statement
       4a2       238  statement
       4a7       246  statement
       4ac       253  statement
       4b1       256  statement
       4b6       265  statement
       4bb       273  statement
       4c0       280  statement
       4c5       283  statement
       4ca       292  statement
       4cf       300  statement
       4d4       307  statement
       4d9       310  statement
       4de       319  statement
       4e3       327  statement
       4e8       334  statement
       4ed       337  statement
       4f2       346  statement
       4f7       360  statement
       4fc       367  statement
       501       370  statement
       506       379  statement
       50b       387  statement
       510       394  statement
       515       397  statement
       51a       406  statement
       51f       420  statement
       524       427  statement
       529       430  statement
       52e       439  statement
       533       453  statement
       538       460  statement
       53d       463  statement
       542       472  statement
       547       480  statement
       54c       487  statement
       551       490  statement
       556       499  statement
       55b       507  statement
       560       514  statement
       565       517  statement
       56a       526  statement
       56f       540  statement
       574       547  statement
       579       550  statement
       57e       561  statement
       583       561  statement

Safepoints (entries = 1, byte size = 12)
0x280b6818a403    403  slots (sp->fp): 0000000000000000

RelocInfo (size = 0)

--- End code ---
--- WebAssembly code ---
name: __stdio_write
index: 8
kind: wasm function
compiler: TurboFan
Body (size = 960 = 904 + 56 padding)
Instructions (size = 884)
0x280b6818f500     0  55                   push rbp
0x280b6818f501     1  4889e5               REX.W movq rbp,rsp
0x280b6818f504     4  6a08                 push 0x8
0x280b6818f506     6  56                   push rsi
0x280b6818f507     7  4883ec70             REX.W subq rsp,0x70
0x280b6818f50b     b  488b7e27             REX.W movq rdi,[rsi+0x27]
0x280b6818f50f     f  48894dd8             REX.W movq [rbp-0x28],rcx
0x280b6818f513    13  48897d80             REX.W movq [rbp-0x80],rdi
0x280b6818f517    17  483b27               REX.W cmpq rsp,[rdi]
0x280b6818f51a    1a  0f8685020000         jna 0x280b6818f7a5  <+0x2a5>
0x280b6818f520    20  4c8b4617             REX.W movq r8,[rsi+0x17]
0x280b6818f524    24  448bc8               movl r9,rax
0x280b6818f527    27  4c8b5e47             REX.W movq r11,[rsi+0x47]
0x280b6818f52b    2b  458b23               movl r12,[r11]
0x280b6818f52e    2e  4183ec20             subl r12,0x20
0x280b6818f532    32  458923               movl [r11],r12
0x280b6818f535    35  478b7c011c           movl r15,[r9+r8*1+0x1c]
0x280b6818f53a    3a  47897c0410           movl [r12+r8*1+0x10],r15
0x280b6818f53f    3f  438b440114           movl rax,[r9+r8*1+0x14]
0x280b6818f544    44  412bc7               subl rax,r15
0x280b6818f547    47  448d3c08             leal r15,[rax+rcx*1]
0x280b6818f54b    4b  8b5e0b               movl rbx,[rsi+0xb]
0x280b6818f54e    4e  4903de               REX.W addq rbx,r14
0x280b6818f551    51  488b7e2f             REX.W movq rdi,[rsi+0x2f]
0x280b6818f555    55  4c895de8             REX.W movq [rbp-0x18],r11
0x280b6818f559    59  458d5c240c           leal r11,[r12+0xc]
0x280b6818f55e    5e  43894c041c           movl [r12+r8*1+0x1c],rcx
0x280b6818f563    63  4389540418           movl [r12+r8*1+0x18],rdx
0x280b6818f568    68  4389440414           movl [r12+r8*1+0x14],rax
0x280b6818f56d    6d  438b44013c           movl rax,[r9+r8*1+0x3c]
0x280b6818f572    72  8b530b               movl rdx,[rbx+0xb]
0x280b6818f575    75  4903d6               REX.W addq rdx,r14
0x280b6818f578    78  4c8945c8             REX.W movq [rbp-0x38],r8
0x280b6818f57c    7c  4c8b4708             REX.W movq r8,[rdi+0x8]
0x280b6818f580    80  48897d90             REX.W movq [rbp-0x70],rdi
0x280b6818f584    84  418d7c2410           leal rdi,[r12+0x10]
0x280b6818f589    89  4c894dd0             REX.W movq [rbp-0x30],r9
0x280b6818f58d    8d  4c8965e0             REX.W movq [rbp-0x20],r12
0x280b6818f591    91  4c897db0             REX.W movq [rbp-0x50],r15
0x280b6818f595    95  48895d88             REX.W movq [rbp-0x78],rbx
0x280b6818f599    99  4c895da0             REX.W movq [rbp-0x60],r11
0x280b6818f59d    9d  48897db8             REX.W movq [rbp-0x48],rdi
0x280b6818f5a1    a1  488bf2               REX.W movq rsi,rdx
0x280b6818f5a4    a4  488bd7               REX.W movq rdx,rdi
0x280b6818f5a7    a7  b902000000           movl rcx,0x2
0x280b6818f5ac    ac  498bdb               REX.W movq rbx,r11
0x280b6818f5af    af  41ffd0               call r8
0x280b6818f5b2    b2  488b75f0             REX.W movq rsi,[rbp-0x10]
0x280b6818f5b6    b6  e8d46affff           call 0x280b6818608f  (jump table)    ;; internal wasm call
0x280b6818f5bb    bb  83f800               cmpl rax,0x0
0x280b6818f5be    be  0f840b000000         jz 0x280b6818f5cf  <+0xcf>
0x280b6818f5c4    c4  41b802000000         movl r8,0x2
0x280b6818f5ca    ca  e92b010000           jmp 0x280b6818f6fa  <+0x1fa>
0x280b6818f5cf    cf  48c745c002000000     REX.W movq [rbp-0x40],0x2
0x280b6818f5d7    d7  660f1f840000000000   nop
0x280b6818f5e0    e0  660f1f840000000000   nop
0x280b6818f5e9    e9  660f1f840000000000   nop
0x280b6818f5f2    f2  660f1f840000000000   nop
0x280b6818f5fb    fb  0f1f440000           nop
0x280b6818f600   100  488b7db8             REX.W movq rdi,[rbp-0x48]
0x280b6818f604   104  4c8b7db0             REX.W movq r15,[rbp-0x50]
0x280b6818f608   108  4c8b5de0             REX.W movq r11,[rbp-0x20]
0x280b6818f60c   10c  488b55d0             REX.W movq rdx,[rbp-0x30]
0x280b6818f610   110  4c8b65c8             REX.W movq r12,[rbp-0x38]
0x280b6818f614   114  488b4d88             REX.W movq rcx,[rbp-0x78]
0x280b6818f618   118  bb0c000000           movl rbx,0xc
0x280b6818f61d   11d  4c8b4d80             REX.W movq r9,[rbp-0x80]
0x280b6818f621   121  493b21               REX.W cmpq rsp,[r9]
0x280b6818f624   124  0f869d010000         jna 0x280b6818f7c7  <+0x2c7>
0x280b6818f62a   12a  478b44230c           movl r8,[r11+r12*1+0xc]
0x280b6818f62f   12f  453bf8               cmpl r15,r8
0x280b6818f632   132  0f843a010000         jz 0x280b6818f772  <+0x272>
0x280b6818f638   138  4183f800             cmpl r8,0x0
0x280b6818f63c   13c  0f8ce0000000         jl 0x280b6818f722  <+0x222>
0x280b6818f642   142  452bf8               subl r15,r8
0x280b6818f645   145  448bcf               movl r9,rdi
0x280b6818f648   148  478b4c2104           movl r9,[r9+r12*1+0x4]
0x280b6818f64d   14d  453bc8               cmpl r9,r8
0x280b6818f650   150  410f92c3             setcl r11l
0x280b6818f654   154  450fb6db             movzxbl r11,r11
0x280b6818f658   158  4c897db0             REX.W movq [rbp-0x50],r15
0x280b6818f65c   15c  468d3cdf             leal r15,[rdi+r11*8]
0x280b6818f660   160  4c895d98             REX.W movq [rbp-0x68],r11
0x280b6818f664   164  4533db               xorl r11,r11
0x280b6818f667   167  453bc8               cmpl r9,r8
0x280b6818f66a   16a  450f42d9             cmovcl r11,r9
0x280b6818f66e   16e  438b043c             movl rax,[r12+r15*1]
0x280b6818f672   172  498bf0               REX.W movq rsi,r8
0x280b6818f675   175  412bf3               subl rsi,r11
0x280b6818f678   178  41bb04000000         movl r11,0x4
0x280b6818f67e   17e  453bc8               cmpl r9,r8
0x280b6818f681   181  440f42db             cmovcl r11,rbx
0x280b6818f685   185  03c6                 addl rax,rsi
0x280b6818f687   187  4403df               addl r11,rdi
0x280b6818f68a   18a  4389043c             movl [r12+r15*1],rax
0x280b6818f68e   18e  478b3c1c             movl r15,[r12+r11*1]
0x280b6818f692   192  442bfe               subl r15,rsi
0x280b6818f695   195  47893c1c             movl [r12+r11*1],r15
0x280b6818f699   199  428b44223c           movl rax,[rdx+r12*1+0x3c]
0x280b6818f69e   19e  8b710b               movl rsi,[rcx+0xb]
0x280b6818f6a1   1a1  4903f6               REX.W addq rsi,r14
0x280b6818f6a4   1a4  448d5f08             leal r11,[rdi+0x8]
0x280b6818f6a8   1a8  48897db8             REX.W movq [rbp-0x48],rdi
0x280b6818f6ac   1ac  4c8b7d90             REX.W movq r15,[rbp-0x70]
0x280b6818f6b0   1b0  498b7f08             REX.W movq rdi,[r15+0x8]
0x280b6818f6b4   1b4  48897da8             REX.W movq [rbp-0x58],rdi
0x280b6818f6b8   1b8  488b7dc0             REX.W movq rdi,[rbp-0x40]
0x280b6818f6bc   1bc  2b7d98               subl rdi,[rbp-0x68]
0x280b6818f6bf   1bf  48897dc0             REX.W movq [rbp-0x40],rdi
0x280b6818f6c3   1c3  488b7db8             REX.W movq rdi,[rbp-0x48]
0x280b6818f6c7   1c7  453bc8               cmpl r9,r8
0x280b6818f6ca   1ca  410f42fb             cmovcl rdi,r11
0x280b6818f6ce   1ce  48897db8             REX.W movq [rbp-0x48],rdi
0x280b6818f6d2   1d2  488bd7               REX.W movq rdx,rdi
0x280b6818f6d5   1d5  488b4dc0             REX.W movq rcx,[rbp-0x40]
0x280b6818f6d9   1d9  488b5da0             REX.W movq rbx,[rbp-0x60]
0x280b6818f6dd   1dd  4c8b45a8             REX.W movq r8,[rbp-0x58]
0x280b6818f6e1   1e1  41ffd0               call r8
0x280b6818f6e4   1e4  488b75f0             REX.W movq rsi,[rbp-0x10]
0x280b6818f6e8   1e8  e8a269ffff           call 0x280b6818608f  (jump table)    ;; internal wasm call
0x280b6818f6ed   1ed  83f800               cmpl rax,0x0
0x280b6818f6f0   1f0  0f840affffff         jz 0x280b6818f600  <+0x100>
0x280b6818f6f6   1f6  4c8b45c0             REX.W movq r8,[rbp-0x40]
0x280b6818f6fa   1fa  4c8b7db0             REX.W movq r15,[rbp-0x50]
0x280b6818f6fe   1fe  4183ffff             cmpl r15,0xff
0x280b6818f702   202  0f8511000000         jnz 0x280b6818f719  <+0x219>
0x280b6818f708   208  4c8b5de0             REX.W movq r11,[rbp-0x20]
0x280b6818f70c   20c  488b55d0             REX.W movq rdx,[rbp-0x30]
0x280b6818f710   210  4c8b65c8             REX.W movq r12,[rbp-0x38]
0x280b6818f714   214  e959000000           jmp 0x280b6818f772  <+0x272>
0x280b6818f719   219  488b7db8             REX.W movq rdi,[rbp-0x48]
0x280b6818f71d   21d  e904000000           jmp 0x280b6818f726  <+0x226>
0x280b6818f722   222  4c8b45c0             REX.W movq r8,[rbp-0x40]
0x280b6818f726   226  4c8b4dd0             REX.W movq r9,[rbp-0x30]
0x280b6818f72a   22a  4c8b5dc8             REX.W movq r11,[rbp-0x38]
0x280b6818f72e   22e  43c744191c00000000   movl [r9+r11*1+0x1c],0x0
0x280b6818f737   237  4bc744191000000000   REX.W movq [r9+r11*1+0x10],0x0
0x280b6818f740   240  478b240b             movl r12,[r11+r9*1]
0x280b6818f744   244  4183cc20             orl r12,0x20
0x280b6818f748   248  4789240b             movl [r11+r9*1],r12
0x280b6818f74c   24c  4183f802             cmpl r8,0x2
0x280b6818f750   250  0f8415000000         jz 0x280b6818f76b  <+0x26b>
0x280b6818f756   256  8bff                 movl rdi,rdi
0x280b6818f758   258  428b7c1f04           movl rdi,[rdi+r11*1+0x4]
0x280b6818f75d   25d  488b4dd8             REX.W movq rcx,[rbp-0x28]
0x280b6818f761   261  2bcf                 subl rcx,rdi
0x280b6818f763   263  488bc1               REX.W movq rax,rcx
0x280b6818f766   266  e927000000           jmp 0x280b6818f792  <+0x292>
0x280b6818f76b   26b  33c0                 xorl rax,rax
0x280b6818f76d   26d  e920000000           jmp 0x280b6818f792  <+0x292>
0x280b6818f772   272  428b7c222c           movl rdi,[rdx+r12*1+0x2c]
0x280b6818f777   277  42897c221c           movl [rdx+r12*1+0x1c],rdi
0x280b6818f77c   27c  42897c2214           movl [rdx+r12*1+0x14],rdi
0x280b6818f781   281  468b442230           movl r8,[rdx+r12*1+0x30]
0x280b6818f786   286  4103f8               addl rdi,r8
0x280b6818f789   289  42897c2210           movl [rdx+r12*1+0x10],rdi
0x280b6818f78e   28e  488b45d8             REX.W movq rax,[rbp-0x28]
0x280b6818f792   292  488b7de0             REX.W movq rdi,[rbp-0x20]
0x280b6818f796   296  83c720               addl rdi,0x20
0x280b6818f799   299  4c8b45e8             REX.W movq r8,[rbp-0x18]
0x280b6818f79d   29d  418938               movl [r8],rdi
0x280b6818f7a0   2a0  488be5               REX.W movq rsp,rbp
0x280b6818f7a3   2a3  5d                   pop rbp
0x280b6818f7a4   2a4  c3                   retl
0x280b6818f7a5   2a5  488955c0             REX.W movq [rbp-0x40],rdx
0x280b6818f7a9   2a9  488945e8             REX.W movq [rbp-0x18],rax
0x280b6818f7ad   2ad  e8be6bffff           call 0x280b68186370  (jump table)    ;; wasm stub: WasmStackGuard
0x280b6818f7b2   2b2  488b4dd8             REX.W movq rcx,[rbp-0x28]
0x280b6818f7b6   2b6  488b75f0             REX.W movq rsi,[rbp-0x10]
0x280b6818f7ba   2ba  488b55c0             REX.W movq rdx,[rbp-0x40]
0x280b6818f7be   2be  488b45e8             REX.W movq rax,[rbp-0x18]
0x280b6818f7c2   2c2  e959fdffff           jmp 0x280b6818f520  <+0x20>
0x280b6818f7c7   2c7  4c897db0             REX.W movq [rbp-0x50],r15
0x280b6818f7cb   2cb  48897db8             REX.W movq [rbp-0x48],rdi
0x280b6818f7cf   2cf  e89c6bffff           call 0x280b68186370  (jump table)    ;; wasm stub: WasmStackGuard
0x280b6818f7d4   2d4  4c8b5de0             REX.W movq r11,[rbp-0x20]
0x280b6818f7d8   2d8  488b55d0             REX.W movq rdx,[rbp-0x30]
0x280b6818f7dc   2dc  4c8b65c8             REX.W movq r12,[rbp-0x38]
0x280b6818f7e0   2e0  488b7db8             REX.W movq rdi,[rbp-0x48]
0x280b6818f7e4   2e4  488b4d88             REX.W movq rcx,[rbp-0x78]
0x280b6818f7e8   2e8  bb0c000000           movl rbx,0xc
0x280b6818f7ed   2ed  4c8b7db0             REX.W movq r15,[rbp-0x50]
0x280b6818f7f1   2f1  4c8b4d80             REX.W movq r9,[rbp-0x80]
0x280b6818f7f5   2f5  e930feffff           jmp 0x280b6818f62a  <+0x12a>
0x280b6818f7fa   2fa  e81169ffff           call 0x280b68186110  (jump table)    ;; wasm stub: ThrowWasmTrapMemOutOfBounds
0x280b6818f7ff   2ff  e80c69ffff           call 0x280b68186110  (jump table)    ;; wasm stub: ThrowWasmTrapMemOutOfBounds
0x280b6818f804   304  e80769ffff           call 0x280b68186110  (jump table)    ;; wasm stub: ThrowWasmTrapMemOutOfBounds
0x280b6818f809   309  e80269ffff           call 0x280b68186110  (jump table)    ;; wasm stub: ThrowWasmTrapMemOutOfBounds
0x280b6818f80e   30e  e8fd68ffff           call 0x280b68186110  (jump table)    ;; wasm stub: ThrowWasmTrapMemOutOfBounds
0x280b6818f813   313  e8f868ffff           call 0x280b68186110  (jump table)    ;; wasm stub: ThrowWasmTrapMemOutOfBounds
0x280b6818f818   318  e8f368ffff           call 0x280b68186110  (jump table)    ;; wasm stub: ThrowWasmTrapMemOutOfBounds
0x280b6818f81d   31d  e8ee68ffff           call 0x280b68186110  (jump table)    ;; wasm stub: ThrowWasmTrapMemOutOfBounds
0x280b6818f822   322  e8e968ffff           call 0x280b68186110  (jump table)    ;; wasm stub: ThrowWasmTrapMemOutOfBounds
0x280b6818f827   327  e8e468ffff           call 0x280b68186110  (jump table)    ;; wasm stub: ThrowWasmTrapMemOutOfBounds
0x280b6818f82c   32c  e8df68ffff           call 0x280b68186110  (jump table)    ;; wasm stub: ThrowWasmTrapMemOutOfBounds
0x280b6818f831   331  e8da68ffff           call 0x280b68186110  (jump table)    ;; wasm stub: ThrowWasmTrapMemOutOfBounds
0x280b6818f836   336  e8d568ffff           call 0x280b68186110  (jump table)    ;; wasm stub: ThrowWasmTrapMemOutOfBounds
0x280b6818f83b   33b  e8d068ffff           call 0x280b68186110  (jump table)    ;; wasm stub: ThrowWasmTrapMemOutOfBounds
0x280b6818f840   340  e8cb68ffff           call 0x280b68186110  (jump table)    ;; wasm stub: ThrowWasmTrapMemOutOfBounds
0x280b6818f845   345  e8c668ffff           call 0x280b68186110  (jump table)    ;; wasm stub: ThrowWasmTrapMemOutOfBounds
0x280b6818f84a   34a  e8c168ffff           call 0x280b68186110  (jump table)    ;; wasm stub: ThrowWasmTrapMemOutOfBounds
0x280b6818f84f   34f  e8bc68ffff           call 0x280b68186110  (jump table)    ;; wasm stub: ThrowWasmTrapMemOutOfBounds
0x280b6818f854   354  e8b768ffff           call 0x280b68186110  (jump table)    ;; wasm stub: ThrowWasmTrapMemOutOfBounds
0x280b6818f859   359  e8b268ffff           call 0x280b68186110  (jump table)    ;; wasm stub: ThrowWasmTrapMemOutOfBounds
0x280b6818f85e   35e  e8ad68ffff           call 0x280b68186110  (jump table)    ;; wasm stub: ThrowWasmTrapMemOutOfBounds
0x280b6818f863   363  e8a868ffff           call 0x280b68186110  (jump table)    ;; wasm stub: ThrowWasmTrapMemOutOfBounds
0x280b6818f868   368  e8a368ffff           call 0x280b68186110  (jump table)    ;; wasm stub: ThrowWasmTrapMemOutOfBounds
0x280b6818f86d   36d  e89e68ffff           call 0x280b68186110  (jump table)    ;; wasm stub: ThrowWasmTrapMemOutOfBounds
0x280b6818f872   372  90                   nop
0x280b6818f873   373  90                   nop

Protected instructions:
 pc offset  land pad
       289       2fa
       281       2ff
       27c       304
       277       309
       272       30e
       258       313
       248       318
       240       31d
       237       322
       22e       327
       199       32c
       195       331
       18e       336
       18a       33b
       16e       340
       148       345
       12a       34a
        6d       34f
        68       354
        63       359
        5e       35e
        3f       363
        3a       368
        35       36d

Source positions:
 pc offset  position
        35        28
        3a        33
        3f        38
        5e        47
        63        54
        68        66
        6d        95
        89       110
        b2       112
       12a       123
       148       144
       16e       172
       18a       176
       18e       193
       195       199
       199       211
       1ce       238
       1e4       240
       226       296
       237       303
       240       310
       248       316
       258       335
       272       259
       277       264
       27c       271
       281       280
       289       284
       2a5         0
       2c7       117
       2fa       284
       2ff       280
       304       271
       309       264
       30e       259
       313       335
       318       316
       31d       310
       322       303
       327       296
       32c       211
       331       199
       336       193
       33b       176
       340       172
       345       144
       34a       123
       34f        95
       354        66
       359        54
       35e        47
       363        38
       368        33
       36d        28

Safepoints (entries = 4, byte size = 20)
0x280b6818f5b2     b2  slots (sp->fp): 01000000
0x280b6818f7b2    2b2  slots (sp->fp): 00000000
0x280b6818f7d4    2d4  slots (sp->fp): 01000000
0x280b6818f7ff    2ff  slots (sp->fp): 00000000

RelocInfo (size = 36)
0x280b6818f5b7  internal wasm call
0x280b6818f6e9  internal wasm call
0x280b6818f7ae  wasm stub call
0x280b6818f7d0  wasm stub call
0x280b6818f7fb  wasm stub call
0x280b6818f800  wasm stub call
0x280b6818f805  wasm stub call
0x280b6818f80a  wasm stub call
0x280b6818f80f  wasm stub call
0x280b6818f814  wasm stub call
0x280b6818f819  wasm stub call
0x280b6818f81e  wasm stub call
0x280b6818f823  wasm stub call
0x280b6818f828  wasm stub call
0x280b6818f82d  wasm stub call
0x280b6818f832  wasm stub call
0x280b6818f837  wasm stub call
0x280b6818f83c  wasm stub call
0x280b6818f841  wasm stub call
0x280b6818f846  wasm stub call
0x280b6818f84b  wasm stub call
0x280b6818f850  wasm stub call
0x280b6818f855  wasm stub call
0x280b6818f85a  wasm stub call
0x280b6818f85f  wasm stub call
0x280b6818f864  wasm stub call
0x280b6818f869  wasm stub call
0x280b6818f86e  wasm stub call

--- End code ---
--- WebAssembly code ---
name: __memcpy
index: 19
kind: wasm function
compiler: TurboFan
Body (size = 1600 = 1588 + 12 padding)
Instructions (size = 1576)
0x280b6818ed80     0  55                   push rbp
0x280b6818ed81     1  4889e5               REX.W movq rbp,rsp
0x280b6818ed84     4  6a08                 push 0x8
0x280b6818ed86     6  56                   push rsi
0x280b6818ed87     7  4883ec40             REX.W subq rsp,0x40
0x280b6818ed8b     b  488b5e27             REX.W movq rbx,[rsi+0x27]
0x280b6818ed8f     f  488945e8             REX.W movq [rbp-0x18],rax
0x280b6818ed93    13  483b23               REX.W cmpq rsp,[rbx]
0x280b6818ed96    16  0f8687030000         jna 0x280b6818f123  <+0x3a3>
0x280b6818ed9c    1c  488b7e17             REX.W movq rdi,[rsi+0x17]
0x280b6818eda0    20  81f900020000         cmpl rcx,0x200
0x280b6818eda6    26  0f8358030000         jnc 0x280b6818f104  <+0x384>
0x280b6818edac    2c  448d0408             leal r8,[rax+rcx*1]
0x280b6818edb0    30  4c8bc8               REX.W movq r9,rax
0x280b6818edb3    33  4433ca               xorl r9,rdx
0x280b6818edb6    36  41f6c103             testb r9,0x3
0x280b6818edba    3a  0f84dd000000         jz 0x280b6818ee9d  <+0x11d>
0x280b6818edc0    40  4183f804             cmpl r8,0x4
0x280b6818edc4    44  0f82cb000000         jc 0x280b6818ee95  <+0x115>
0x280b6818edca    4a  458d48fc             leal r9,[r8-0x4]
0x280b6818edce    4e  443bc8               cmpl r9,rax
0x280b6818edd1    51  0f82b6000000         jc 0x280b6818ee8d  <+0x10d>
0x280b6818edd7    57  4c8bd8               REX.W movq r11,rax
0x280b6818edda    5a  660f1f840000000000   nop
0x280b6818ede3    63  660f1f840000000000   nop
0x280b6818edec    6c  660f1f840000000000   nop
0x280b6818edf5    75  660f1f840000000000   nop
0x280b6818edfe    7e  6690                 nop
0x280b6818ee00    80  483b23               REX.W cmpq rsp,[rbx]
0x280b6818ee03    83  0f8644030000         jna 0x280b6818f14d  <+0x3cd>
0x280b6818ee09    89  448d6204             leal r12,[rdx+0x4]
0x280b6818ee0d    8d  448bfa               movl r15,rdx
0x280b6818ee10    90  420fb6143f           movzxbl rdx,[rdi+r15*1]
0x280b6818ee15    95  418bcb               movl rcx,r11
0x280b6818ee18    98  88140f               movb [rdi+rcx*1],dl
0x280b6818ee1b    9b  410fb6543f01         movzxbl rdx,[r15+rdi*1+0x1]
0x280b6818ee21    a1  88543901             movb [rcx+rdi*1+0x1],dl
0x280b6818ee25    a5  410fb6543f02         movzxbl rdx,[r15+rdi*1+0x2]
0x280b6818ee2b    ab  88543902             movb [rcx+rdi*1+0x2],dl
0x280b6818ee2f    af  450fb67c3f03         movzxbl r15,[r15+rdi*1+0x3]
0x280b6818ee35    b5  44887c3903           movb [rcx+rdi*1+0x3],r15l
0x280b6818ee3a    ba  4183c304             addl r11,0x4
0x280b6818ee3e    be  453bd9               cmpl r11,r9
0x280b6818ee41    c1  0f873b000000         ja 0x280b6818ee82  <+0x102>
0x280b6818ee47    c7  418d542404           leal rdx,[r12+0x4]
0x280b6818ee4c    cc  460fb63c27           movzxbl r15,[rdi+r12*1]
0x280b6818ee51    d1  46883c1f             movb [rdi+r11*1],r15l
0x280b6818ee55    d5  450fb67c3c01         movzxbl r15,[r12+rdi*1+0x1]
0x280b6818ee5b    db  45887c3b01           movb [r11+rdi*1+0x1],r15l
0x280b6818ee60    e0  450fb67c3c02         movzxbl r15,[r12+rdi*1+0x2]
0x280b6818ee66    e6  45887c3b02           movb [r11+rdi*1+0x2],r15l
0x280b6818ee6b    eb  450fb6643c03         movzxbl r12,[r12+rdi*1+0x3]
0x280b6818ee71    f1  4588643b03           movb [r11+rdi*1+0x3],r12l
0x280b6818ee76    f6  4183c304             addl r11,0x4
0x280b6818ee7a    fa  453bd9               cmpl r11,r9
0x280b6818ee7d    fd  7681                 jna 0x280b6818ee00  <+0x80>
0x280b6818ee7f    ff  4c8be2               REX.W movq r12,rdx
0x280b6818ee82   102  4c89e2               REX.W movq rdx,r12
0x280b6818ee85   105  4d8bcb               REX.W movq r9,r11
0x280b6818ee88   108  e9f7010000           jmp 0x280b6818f084  <+0x304>
0x280b6818ee8d   10d  4c8bc8               REX.W movq r9,rax
0x280b6818ee90   110  e9ef010000           jmp 0x280b6818f084  <+0x304>
0x280b6818ee95   115  4c8bc8               REX.W movq r9,rax
0x280b6818ee98   118  e9e7010000           jmp 0x280b6818f084  <+0x304>
0x280b6818ee9d   11d  a803                 test al,0x3
0x280b6818ee9f   11f  0f848c000000         jz 0x280b6818ef31  <+0x1b1>
0x280b6818eea5   125  83f900               cmpl rcx,0x0
0x280b6818eea8   128  0f847b000000         jz 0x280b6818ef29  <+0x1a9>
0x280b6818eeae   12e  4c8bc8               REX.W movq r9,rax
0x280b6818eeb1   131  660f1f840000000000   nop
0x280b6818eeba   13a  660f1f440000         nop
0x280b6818eec0   140  483b23               REX.W cmpq rsp,[rbx]
0x280b6818eec3   143  0f86c2020000         jna 0x280b6818f18b  <+0x40b>
0x280b6818eec9   149  448d5a01             leal r11,[rdx+0x1]
0x280b6818eecd   14d  448be2               movl r12,rdx
0x280b6818eed0   150  460fb62427           movzxbl r12,[rdi+r12*1]
0x280b6818eed5   155  458bf9               movl r15,r9
0x280b6818eed8   158  4688243f             movb [rdi+r15*1],r12l
0x280b6818eedc   15c  4183c101             addl r9,0x1
0x280b6818eee0   160  41f6c103             testb r9,0x3
0x280b6818eee4   164  0f8437000000         jz 0x280b6818ef21  <+0x1a1>
0x280b6818eeea   16a  453bc8               cmpl r9,r8
0x280b6818eeed   16d  0f8323000000         jnc 0x280b6818ef16  <+0x196>
0x280b6818eef3   173  418d5301             leal rdx,[r11+0x1]
0x280b6818eef7   177  460fb61c1f           movzxbl r11,[rdi+r11*1]
0x280b6818eefc   17c  46881c0f             movb [rdi+r9*1],r11l
0x280b6818ef00   180  4183c101             addl r9,0x1
0x280b6818ef04   184  41f6c103             testb r9,0x3
0x280b6818ef08   188  0f8410000000         jz 0x280b6818ef1e  <+0x19e>
0x280b6818ef0e   18e  453bc8               cmpl r9,r8
0x280b6818ef11   191  72ad                 jc 0x280b6818eec0  <+0x140>
0x280b6818ef13   193  4c8bda               REX.W movq r11,rdx
0x280b6818ef16   196  498bd3               REX.W movq rdx,r11
0x280b6818ef19   199  e916000000           jmp 0x280b6818ef34  <+0x1b4>
0x280b6818ef1e   19e  4c8bda               REX.W movq r11,rdx
0x280b6818ef21   1a1  498bd3               REX.W movq rdx,r11
0x280b6818ef24   1a4  e90b000000           jmp 0x280b6818ef34  <+0x1b4>
0x280b6818ef29   1a9  4c8bc8               REX.W movq r9,rax
0x280b6818ef2c   1ac  e903000000           jmp 0x280b6818ef34  <+0x1b4>
0x280b6818ef31   1b1  4c8bc8               REX.W movq r9,rax
0x280b6818ef34   1b4  4d8bd8               REX.W movq r11,r8
0x280b6818ef37   1b7  4183e3fc             andl r11,0xfc
0x280b6818ef3b   1bb  4183fb40             cmpl r11,0x40
0x280b6818ef3f   1bf  0f82de000000         jc 0x280b6818f023  <+0x2a3>
0x280b6818ef45   1c5  458d63c0             leal r12,[r11-0x40]
0x280b6818ef49   1c9  453be1               cmpl r12,r9
0x280b6818ef4c   1cc  0f82d1000000         jc 0x280b6818f023  <+0x2a3>
0x280b6818ef52   1d2  e92c000000           jmp 0x280b6818ef83  <+0x203>
0x280b6818ef57   1d7  660f1f840000000000   nop
0x280b6818ef60   1e0  660f1f840000000000   nop
0x280b6818ef69   1e9  660f1f840000000000   nop
0x280b6818ef72   1f2  660f1f840000000000   nop
0x280b6818ef7b   1fb  0f1f440000           nop
0x280b6818ef80   200  498bd7               REX.W movq rdx,r15
0x280b6818ef83   203  483b23               REX.W cmpq rsp,[rbx]
0x280b6818ef86   206  0f8635020000         jna 0x280b6818f1c1  <+0x441>
0x280b6818ef8c   20c  448d7a40             leal r15,[rdx+0x40]
0x280b6818ef90   210  8bd2                 movl rdx,rdx
0x280b6818ef92   212  8b0c17               movl rcx,[rdi+rdx*1]
0x280b6818ef95   215  418bf1               movl rsi,r9
0x280b6818ef98   218  890c37               movl [rdi+rsi*1],rcx
0x280b6818ef9b   21b  8b4c3a04             movl rcx,[rdx+rdi*1+0x4]
0x280b6818ef9f   21f  894c3e04             movl [rsi+rdi*1+0x4],rcx
0x280b6818efa3   223  8b4c3a08             movl rcx,[rdx+rdi*1+0x8]
0x280b6818efa7   227  894c3e08             movl [rsi+rdi*1+0x8],rcx
0x280b6818efab   22b  8b4c3a0c             movl rcx,[rdx+rdi*1+0xc]
0x280b6818efaf   22f  894c3e0c             movl [rsi+rdi*1+0xc],rcx
0x280b6818efb3   233  8b4c3a10             movl rcx,[rdx+rdi*1+0x10]
0x280b6818efb7   237  894c3e10             movl [rsi+rdi*1+0x10],rcx
0x280b6818efbb   23b  8b4c3a14             movl rcx,[rdx+rdi*1+0x14]
0x280b6818efbf   23f  894c3e14             movl [rsi+rdi*1+0x14],rcx
0x280b6818efc3   243  8b4c3a18             movl rcx,[rdx+rdi*1+0x18]
0x280b6818efc7   247  894c3e18             movl [rsi+rdi*1+0x18],rcx
0x280b6818efcb   24b  8b4c3a1c             movl rcx,[rdx+rdi*1+0x1c]
0x280b6818efcf   24f  894c3e1c             movl [rsi+rdi*1+0x1c],rcx
0x280b6818efd3   253  8b4c3a20             movl rcx,[rdx+rdi*1+0x20]
0x280b6818efd7   257  894c3e20             movl [rsi+rdi*1+0x20],rcx
0x280b6818efdb   25b  8b4c3a24             movl rcx,[rdx+rdi*1+0x24]
0x280b6818efdf   25f  894c3e24             movl [rsi+rdi*1+0x24],rcx
0x280b6818efe3   263  8b4c3a28             movl rcx,[rdx+rdi*1+0x28]
0x280b6818efe7   267  894c3e28             movl [rsi+rdi*1+0x28],rcx
0x280b6818efeb   26b  8b4c3a2c             movl rcx,[rdx+rdi*1+0x2c]
0x280b6818efef   26f  894c3e2c             movl [rsi+rdi*1+0x2c],rcx
0x280b6818eff3   273  8b4c3a30             movl rcx,[rdx+rdi*1+0x30]
0x280b6818eff7   277  894c3e30             movl [rsi+rdi*1+0x30],rcx
0x280b6818effb   27b  8b4c3a34             movl rcx,[rdx+rdi*1+0x34]
0x280b6818efff   27f  894c3e34             movl [rsi+rdi*1+0x34],rcx
0x280b6818f003   283  8b4c3a38             movl rcx,[rdx+rdi*1+0x38]
0x280b6818f007   287  894c3e38             movl [rsi+rdi*1+0x38],rcx
0x280b6818f00b   28b  8b543a3c             movl rdx,[rdx+rdi*1+0x3c]
0x280b6818f00f   28f  89543e3c             movl [rsi+rdi*1+0x3c],rdx
0x280b6818f013   293  4183c140             addl r9,0x40
0x280b6818f017   297  4539e1               cmpl r9,r12
0x280b6818f01a   29a  0f8660ffffff         jna 0x280b6818ef80  <+0x200>
0x280b6818f020   2a0  498bd7               REX.W movq rdx,r15
0x280b6818f023   2a3  453bd9               cmpl r11,r9
0x280b6818f026   2a6  0f8658000000         jna 0x280b6818f084  <+0x304>
0x280b6818f02c   2ac  660f1f840000000000   nop
0x280b6818f035   2b5  660f1f840000000000   nop
0x280b6818f03e   2be  6690                 nop
0x280b6818f040   2c0  483b23               REX.W cmpq rsp,[rbx]
0x280b6818f043   2c3  0f86be010000         jna 0x280b6818f207  <+0x487>
0x280b6818f049   2c9  448d6204             leal r12,[rdx+0x4]
0x280b6818f04d   2cd  448bfa               movl r15,rdx
0x280b6818f050   2d0  468b3c3f             movl r15,[rdi+r15*1]
0x280b6818f054   2d4  418bd1               movl rdx,r9
0x280b6818f057   2d7  44893c17             movl [rdi+rdx*1],r15
0x280b6818f05b   2db  4183c104             addl r9,0x4
0x280b6818f05f   2df  453bcb               cmpl r9,r11
0x280b6818f062   2e2  0f8319000000         jnc 0x280b6818f081  <+0x301>
0x280b6818f068   2e8  418d542404           leal rdx,[r12+0x4]
0x280b6818f06d   2ed  468b2427             movl r12,[rdi+r12*1]
0x280b6818f071   2f1  4689240f             movl [rdi+r9*1],r12
0x280b6818f075   2f5  4183c104             addl r9,0x4
0x280b6818f079   2f9  453bcb               cmpl r9,r11
0x280b6818f07c   2fc  72c2                 jc 0x280b6818f040  <+0x2c0>
0x280b6818f07e   2fe  4c8be2               REX.W movq r12,rdx
0x280b6818f081   301  4c89e2               REX.W movq rdx,r12
0x280b6818f084   304  453bc8               cmpl r9,r8
0x280b6818f087   307  0f8237000000         jc 0x280b6818f0c4  <+0x344>
0x280b6818f08d   30d  e96d000000           jmp 0x280b6818f0ff  <+0x37f>
0x280b6818f092   312  660f1f840000000000   nop
0x280b6818f09b   31b  660f1f840000000000   nop
0x280b6818f0a4   324  660f1f840000000000   nop
0x280b6818f0ad   32d  660f1f840000000000   nop
0x280b6818f0b6   336  660f1f840000000000   nop
0x280b6818f0bf   33f  90                   nop
0x280b6818f0c0   340  418d5301             leal rdx,[r11+0x1]
0x280b6818f0c4   344  483b23               REX.W cmpq rsp,[rbx]
0x280b6818f0c7   347  0f8678010000         jna 0x280b6818f245  <+0x4c5>
0x280b6818f0cd   34d  448bda               movl r11,rdx
0x280b6818f0d0   350  460fb61c1f           movzxbl r11,[rdi+r11*1]
0x280b6818f0d5   355  458be1               movl r12,r9
0x280b6818f0d8   358  46881c27             movb [rdi+r12*1],r11l
0x280b6818f0dc   35c  4183c101             addl r9,0x1
0x280b6818f0e0   360  453bc8               cmpl r9,r8
0x280b6818f0e3   363  0f8416000000         jz 0x280b6818f0ff  <+0x37f>
0x280b6818f0e9   369  448d5a01             leal r11,[rdx+0x1]
0x280b6818f0ed   36d  460fb6241f           movzxbl r12,[rdi+r11*1]
0x280b6818f0f2   372  4688240f             movb [rdi+r9*1],r12l
0x280b6818f0f6   376  4183c101             addl r9,0x1
0x280b6818f0fa   37a  453bc1               cmpl r8,r9
0x280b6818f0fd   37d  75c1                 jnz 0x280b6818f0c0  <+0x340>
0x280b6818f0ff   37f  488be5               REX.W movq rsp,rbp
0x280b6818f102   382  5d                   pop rbp
0x280b6818f103   383  c3                   retl
0x280b6818f104   384  8b5e0b               movl rbx,[rsi+0xb]
0x280b6818f107   387  4903de               REX.W addq rbx,r14
0x280b6818f10a   38a  8b5b0f               movl rbx,[rbx+0xf]
0x280b6818f10d   38d  4903de               REX.W addq rbx,r14
0x280b6818f110   390  488b7e2f             REX.W movq rdi,[rsi+0x2f]
0x280b6818f114   394  488b7f10             REX.W movq rdi,[rdi+0x10]
0x280b6818f118   398  488bf3               REX.W movq rsi,rbx
0x280b6818f11b   39b  ffd7                 call rdi
0x280b6818f11d   39d  488b45e8             REX.W movq rax,[rbp-0x18]
0x280b6818f121   3a1  ebdc                 jmp 0x280b6818f0ff  <+0x37f>
0x280b6818f123   3a3  488955e0             REX.W movq [rbp-0x20],rdx
0x280b6818f127   3a7  48894dd8             REX.W movq [rbp-0x28],rcx
0x280b6818f12b   3ab  48895dc0             REX.W movq [rbp-0x40],rbx
0x280b6818f12f   3af  e83c72ffff           call 0x280b68186370  (jump table)    ;; wasm stub: WasmStackGuard
0x280b6818f134   3b4  488b45e8             REX.W movq rax,[rbp-0x18]
0x280b6818f138   3b8  488b55e0             REX.W movq rdx,[rbp-0x20]
0x280b6818f13c   3bc  488b4dd8             REX.W movq rcx,[rbp-0x28]
0x280b6818f140   3c0  488b75f0             REX.W movq rsi,[rbp-0x10]
0x280b6818f144   3c4  488b5dc0             REX.W movq rbx,[rbp-0x40]
0x280b6818f148   3c8  e94ffcffff           jmp 0x280b6818ed9c  <+0x1c>
0x280b6818f14d   3cd  4c8945d0             REX.W movq [rbp-0x30],r8
0x280b6818f151   3d1  48897dc8             REX.W movq [rbp-0x38],rdi
0x280b6818f155   3d5  48895dc0             REX.W movq [rbp-0x40],rbx
0x280b6818f159   3d9  4c894dd8             REX.W movq [rbp-0x28],r9
0x280b6818f15d   3dd  4c895db0             REX.W movq [rbp-0x50],r11
0x280b6818f161   3e1  488955e0             REX.W movq [rbp-0x20],rdx
0x280b6818f165   3e5  e80672ffff           call 0x280b68186370  (jump table)    ;; wasm stub: WasmStackGuard
0x280b6818f16a   3ea  488b45e8             REX.W movq rax,[rbp-0x18]
0x280b6818f16e   3ee  4c8b45d0             REX.W movq r8,[rbp-0x30]
0x280b6818f172   3f2  488b7dc8             REX.W movq rdi,[rbp-0x38]
0x280b6818f176   3f6  488b5dc0             REX.W movq rbx,[rbp-0x40]
0x280b6818f17a   3fa  4c8b4dd8             REX.W movq r9,[rbp-0x28]
0x280b6818f17e   3fe  4c8b5db0             REX.W movq r11,[rbp-0x50]
0x280b6818f182   402  488b55e0             REX.W movq rdx,[rbp-0x20]
0x280b6818f186   406  e97efcffff           jmp 0x280b6818ee09  <+0x89>
0x280b6818f18b   40b  4c8945d0             REX.W movq [rbp-0x30],r8
0x280b6818f18f   40f  48897dc8             REX.W movq [rbp-0x38],rdi
0x280b6818f193   413  48895dc0             REX.W movq [rbp-0x40],rbx
0x280b6818f197   417  4c894db0             REX.W movq [rbp-0x50],r9
0x280b6818f19b   41b  488955e0             REX.W movq [rbp-0x20],rdx
0x280b6818f19f   41f  e8cc71ffff           call 0x280b68186370  (jump table)    ;; wasm stub: WasmStackGuard
0x280b6818f1a4   424  488b45e8             REX.W movq rax,[rbp-0x18]
0x280b6818f1a8   428  4c8b45d0             REX.W movq r8,[rbp-0x30]
0x280b6818f1ac   42c  488b7dc8             REX.W movq rdi,[rbp-0x38]
0x280b6818f1b0   430  488b5dc0             REX.W movq rbx,[rbp-0x40]
0x280b6818f1b4   434  4c8b4db0             REX.W movq r9,[rbp-0x50]
0x280b6818f1b8   438  488b55e0             REX.W movq rdx,[rbp-0x20]
0x280b6818f1bc   43c  e908fdffff           jmp 0x280b6818eec9  <+0x149>
0x280b6818f1c1   441  4c8945d0             REX.W movq [rbp-0x30],r8
0x280b6818f1c5   445  48897dc8             REX.W movq [rbp-0x38],rdi
0x280b6818f1c9   449  48895dc0             REX.W movq [rbp-0x40],rbx
0x280b6818f1cd   44d  4c895de0             REX.W movq [rbp-0x20],r11
0x280b6818f1d1   451  4c8965d8             REX.W movq [rbp-0x28],r12
0x280b6818f1d5   455  4c894db0             REX.W movq [rbp-0x50],r9
0x280b6818f1d9   459  488955b8             REX.W movq [rbp-0x48],rdx
0x280b6818f1dd   45d  e88e71ffff           call 0x280b68186370  (jump table)    ;; wasm stub: WasmStackGuard
0x280b6818f1e2   462  488b45e8             REX.W movq rax,[rbp-0x18]
0x280b6818f1e6   466  4c8b45d0             REX.W movq r8,[rbp-0x30]
0x280b6818f1ea   46a  488b7dc8             REX.W movq rdi,[rbp-0x38]
0x280b6818f1ee   46e  488b5dc0             REX.W movq rbx,[rbp-0x40]
0x280b6818f1f2   472  4c8b5de0             REX.W movq r11,[rbp-0x20]
0x280b6818f1f6   476  4c8b65d8             REX.W movq r12,[rbp-0x28]
0x280b6818f1fa   47a  4c8b4db0             REX.W movq r9,[rbp-0x50]
0x280b6818f1fe   47e  488b55b8             REX.W movq rdx,[rbp-0x48]
0x280b6818f202   482  e985fdffff           jmp 0x280b6818ef8c  <+0x20c>
0x280b6818f207   487  4c8945d0             REX.W movq [rbp-0x30],r8
0x280b6818f20b   48b  48897dc8             REX.W movq [rbp-0x38],rdi
0x280b6818f20f   48f  48895dc0             REX.W movq [rbp-0x40],rbx
0x280b6818f213   493  4c895de0             REX.W movq [rbp-0x20],r11
0x280b6818f217   497  4c894db0             REX.W movq [rbp-0x50],r9
0x280b6818f21b   49b  488955d8             REX.W movq [rbp-0x28],rdx
0x280b6818f21f   49f  e84c71ffff           call 0x280b68186370  (jump table)    ;; wasm stub: WasmStackGuard
0x280b6818f224   4a4  488b45e8             REX.W movq rax,[rbp-0x18]
0x280b6818f228   4a8  4c8b45d0             REX.W movq r8,[rbp-0x30]
0x280b6818f22c   4ac  488b7dc8             REX.W movq rdi,[rbp-0x38]
0x280b6818f230   4b0  488b5dc0             REX.W movq rbx,[rbp-0x40]
0x280b6818f234   4b4  4c8b5de0             REX.W movq r11,[rbp-0x20]
0x280b6818f238   4b8  4c8b4db0             REX.W movq r9,[rbp-0x50]
0x280b6818f23c   4bc  488b55d8             REX.W movq rdx,[rbp-0x28]
0x280b6818f240   4c0  e904feffff           jmp 0x280b6818f049  <+0x2c9>
0x280b6818f245   4c5  4c8945d0             REX.W movq [rbp-0x30],r8
0x280b6818f249   4c9  48897dc8             REX.W movq [rbp-0x38],rdi
0x280b6818f24d   4cd  488955e0             REX.W movq [rbp-0x20],rdx
0x280b6818f251   4d1  4c894db0             REX.W movq [rbp-0x50],r9
0x280b6818f255   4d5  48895dc0             REX.W movq [rbp-0x40],rbx
0x280b6818f259   4d9  e81271ffff           call 0x280b68186370  (jump table)    ;; wasm stub: WasmStackGuard
0x280b6818f25e   4de  488b45e8             REX.W movq rax,[rbp-0x18]
0x280b6818f262   4e2  4c8b45d0             REX.W movq r8,[rbp-0x30]
0x280b6818f266   4e6  488b7dc8             REX.W movq rdi,[rbp-0x38]
0x280b6818f26a   4ea  488b55e0             REX.W movq rdx,[rbp-0x20]
0x280b6818f26e   4ee  4c8b4db0             REX.W movq r9,[rbp-0x50]
0x280b6818f272   4f2  488b5dc0             REX.W movq rbx,[rbp-0x40]
0x280b6818f276   4f6  e952feffff           jmp 0x280b6818f0cd  <+0x34d>
0x280b6818f27b   4fb  e8906effff           call 0x280b68186110  (jump table)    ;; wasm stub: ThrowWasmTrapMemOutOfBounds
0x280b6818f280   500  e88b6effff           call 0x280b68186110  (jump table)    ;; wasm stub: ThrowWasmTrapMemOutOfBounds
0x280b6818f285   505  e8866effff           call 0x280b68186110  (jump table)    ;; wasm stub: ThrowWasmTrapMemOutOfBounds
0x280b6818f28a   50a  e8816effff           call 0x280b68186110  (jump table)    ;; wasm stub: ThrowWasmTrapMemOutOfBounds
0x280b6818f28f   50f  e87c6effff           call 0x280b68186110  (jump table)    ;; wasm stub: ThrowWasmTrapMemOutOfBounds
0x280b6818f294   514  e8776effff           call 0x280b68186110  (jump table)    ;; wasm stub: ThrowWasmTrapMemOutOfBounds
0x280b6818f299   519  e8726effff           call 0x280b68186110  (jump table)    ;; wasm stub: ThrowWasmTrapMemOutOfBounds
0x280b6818f29e   51e  e86d6effff           call 0x280b68186110  (jump table)    ;; wasm stub: ThrowWasmTrapMemOutOfBounds
0x280b6818f2a3   523  e8686effff           call 0x280b68186110  (jump table)    ;; wasm stub: ThrowWasmTrapMemOutOfBounds
0x280b6818f2a8   528  e8636effff           call 0x280b68186110  (jump table)    ;; wasm stub: ThrowWasmTrapMemOutOfBounds
0x280b6818f2ad   52d  e85e6effff           call 0x280b68186110  (jump table)    ;; wasm stub: ThrowWasmTrapMemOutOfBounds
0x280b6818f2b2   532  e8596effff           call 0x280b68186110  (jump table)    ;; wasm stub: ThrowWasmTrapMemOutOfBounds
0x280b6818f2b7   537  e8546effff           call 0x280b68186110  (jump table)    ;; wasm stub: ThrowWasmTrapMemOutOfBounds
0x280b6818f2bc   53c  e84f6effff           call 0x280b68186110  (jump table)    ;; wasm stub: ThrowWasmTrapMemOutOfBounds
0x280b6818f2c1   541  e84a6effff           call 0x280b68186110  (jump table)    ;; wasm stub: ThrowWasmTrapMemOutOfBounds
0x280b6818f2c6   546  e8456effff           call 0x280b68186110  (jump table)    ;; wasm stub: ThrowWasmTrapMemOutOfBounds
0x280b6818f2cb   54b  e8406effff           call 0x280b68186110  (jump table)    ;; wasm stub: ThrowWasmTrapMemOutOfBounds
0x280b6818f2d0   550  e83b6effff           call 0x280b68186110  (jump table)    ;; wasm stub: ThrowWasmTrapMemOutOfBounds
0x280b6818f2d5   555  e8366effff           call 0x280b68186110  (jump table)    ;; wasm stub: ThrowWasmTrapMemOutOfBounds
0x280b6818f2da   55a  e8316effff           call 0x280b68186110  (jump table)    ;; wasm stub: ThrowWasmTrapMemOutOfBounds
0x280b6818f2df   55f  e82c6effff           call 0x280b68186110  (jump table)    ;; wasm stub: ThrowWasmTrapMemOutOfBounds
0x280b6818f2e4   564  e8276effff           call 0x280b68186110  (jump table)    ;; wasm stub: ThrowWasmTrapMemOutOfBounds
0x280b6818f2e9   569  e8226effff           call 0x280b68186110  (jump table)    ;; wasm stub: ThrowWasmTrapMemOutOfBounds
0x280b6818f2ee   56e  e81d6effff           call 0x280b68186110  (jump table)    ;; wasm stub: ThrowWasmTrapMemOutOfBounds
0x280b6818f2f3   573  e8186effff           call 0x280b68186110  (jump table)    ;; wasm stub: ThrowWasmTrapMemOutOfBounds
0x280b6818f2f8   578  e8136effff           call 0x280b68186110  (jump table)    ;; wasm stub: ThrowWasmTrapMemOutOfBounds
0x280b6818f2fd   57d  e80e6effff           call 0x280b68186110  (jump table)    ;; wasm stub: ThrowWasmTrapMemOutOfBounds
0x280b6818f302   582  e8096effff           call 0x280b68186110  (jump table)    ;; wasm stub: ThrowWasmTrapMemOutOfBounds
0x280b6818f307   587  e8046effff           call 0x280b68186110  (jump table)    ;; wasm stub: ThrowWasmTrapMemOutOfBounds
0x280b6818f30c   58c  e8ff6dffff           call 0x280b68186110  (jump table)    ;; wasm stub: ThrowWasmTrapMemOutOfBounds
0x280b6818f311   591  e8fa6dffff           call 0x280b68186110  (jump table)    ;; wasm stub: ThrowWasmTrapMemOutOfBounds
0x280b6818f316   596  e8f56dffff           call 0x280b68186110  (jump table)    ;; wasm stub: ThrowWasmTrapMemOutOfBounds
0x280b6818f31b   59b  e8f06dffff           call 0x280b68186110  (jump table)    ;; wasm stub: ThrowWasmTrapMemOutOfBounds
0x280b6818f320   5a0  e8eb6dffff           call 0x280b68186110  (jump table)    ;; wasm stub: ThrowWasmTrapMemOutOfBounds
0x280b6818f325   5a5  e8e66dffff           call 0x280b68186110  (jump table)    ;; wasm stub: ThrowWasmTrapMemOutOfBounds
0x280b6818f32a   5aa  e8e16dffff           call 0x280b68186110  (jump table)    ;; wasm stub: ThrowWasmTrapMemOutOfBounds
0x280b6818f32f   5af  e8dc6dffff           call 0x280b68186110  (jump table)    ;; wasm stub: ThrowWasmTrapMemOutOfBounds
0x280b6818f334   5b4  e8d76dffff           call 0x280b68186110  (jump table)    ;; wasm stub: ThrowWasmTrapMemOutOfBounds
0x280b6818f339   5b9  e8d26dffff           call 0x280b68186110  (jump table)    ;; wasm stub: ThrowWasmTrapMemOutOfBounds
0x280b6818f33e   5be  e8cd6dffff           call 0x280b68186110  (jump table)    ;; wasm stub: ThrowWasmTrapMemOutOfBounds
0x280b6818f343   5c3  e8c86dffff           call 0x280b68186110  (jump table)    ;; wasm stub: ThrowWasmTrapMemOutOfBounds
0x280b6818f348   5c8  e8c36dffff           call 0x280b68186110  (jump table)    ;; wasm stub: ThrowWasmTrapMemOutOfBounds
0x280b6818f34d   5cd  e8be6dffff           call 0x280b68186110  (jump table)    ;; wasm stub: ThrowWasmTrapMemOutOfBounds
0x280b6818f352   5d2  e8b96dffff           call 0x280b68186110  (jump table)    ;; wasm stub: ThrowWasmTrapMemOutOfBounds
0x280b6818f357   5d7  e8b46dffff           call 0x280b68186110  (jump table)    ;; wasm stub: ThrowWasmTrapMemOutOfBounds
0x280b6818f35c   5dc  e8af6dffff           call 0x280b68186110  (jump table)    ;; wasm stub: ThrowWasmTrapMemOutOfBounds
0x280b6818f361   5e1  e8aa6dffff           call 0x280b68186110  (jump table)    ;; wasm stub: ThrowWasmTrapMemOutOfBounds
0x280b6818f366   5e6  e8a56dffff           call 0x280b68186110  (jump table)    ;; wasm stub: ThrowWasmTrapMemOutOfBounds
0x280b6818f36b   5eb  e8a06dffff           call 0x280b68186110  (jump table)    ;; wasm stub: ThrowWasmTrapMemOutOfBounds
0x280b6818f370   5f0  e89b6dffff           call 0x280b68186110  (jump table)    ;; wasm stub: ThrowWasmTrapMemOutOfBounds
0x280b6818f375   5f5  e8966dffff           call 0x280b68186110  (jump table)    ;; wasm stub: ThrowWasmTrapMemOutOfBounds
0x280b6818f37a   5fa  e8916dffff           call 0x280b68186110  (jump table)    ;; wasm stub: ThrowWasmTrapMemOutOfBounds
0x280b6818f37f   5ff  e88c6dffff           call 0x280b68186110  (jump table)    ;; wasm stub: ThrowWasmTrapMemOutOfBounds
0x280b6818f384   604  e8876dffff           call 0x280b68186110  (jump table)    ;; wasm stub: ThrowWasmTrapMemOutOfBounds
0x280b6818f389   609  e8826dffff           call 0x280b68186110  (jump table)    ;; wasm stub: ThrowWasmTrapMemOutOfBounds
0x280b6818f38e   60e  e87d6dffff           call 0x280b68186110  (jump table)    ;; wasm stub: ThrowWasmTrapMemOutOfBounds
0x280b6818f393   613  e8786dffff           call 0x280b68186110  (jump table)    ;; wasm stub: ThrowWasmTrapMemOutOfBounds
0x280b6818f398   618  e8736dffff           call 0x280b68186110  (jump table)    ;; wasm stub: ThrowWasmTrapMemOutOfBounds
0x280b6818f39d   61d  e86e6dffff           call 0x280b68186110  (jump table)    ;; wasm stub: ThrowWasmTrapMemOutOfBounds
0x280b6818f3a2   622  e8696dffff           call 0x280b68186110  (jump table)    ;; wasm stub: ThrowWasmTrapMemOutOfBounds
0x280b6818f3a7   627  90                   nop

Protected instructions:
 pc offset  land pad
       372       4fb
       36d       500
       358       505
       350       50a
       2f1       50f
       2ed       514
       2d7       519
       2d0       51e
       28f       523
       28b       528
       287       52d
       283       532
       27f       537
       27b       53c
       277       541
       273       546
       26f       54b
       26b       550
       267       555
       263       55a
       25f       55f
       25b       564
       257       569
       253       56e
       24f       573
       24b       578
       247       57d
       243       582
       23f       587
       23b       58c
       237       591
       233       596
       22f       59b
       22b       5a0
       227       5a5
       223       5aa
       21f       5af
       21b       5b4
       218       5b9
       212       5be
       17c       5c3
       177       5c8
       158       5cd
       150       5d2
        f1       5d7
        eb       5dc
        e6       5e1
        e0       5e6
        db       5eb
        d5       5f0
        d1       5f5
        cc       5fa
        b5       5ff
        af       604
        ab       609
        a5       60e
        a1       613
        9b       618
        98       61d
        90       622

Source positions:
 pc offset  position
        90       417
        98       420
        9b       427
        a1       430
        a5       437
        ab       440
        af       447
        b5       450
        cc       417
        d1       420
        d5       427
        db       430
        e0       437
        e6       440
        eb       447
        f1       450
       150        87
       158        90
       177        87
       17c        90
       212       155
       218       158
       21b       165
       21f       168
       223       175
       227       178
       22b       185
       22f       188
       233       195
       237       198
       23b       205
       23f       208
       243       215
       247       218
       24b       225
       24f       228
       253       235
       257       238
       25b       245
       25f       248
       263       255
       267       258
       26b       265
       26f       268
       273       275
       277       278
       27b       285
       27f       288
       283       295
       287       298
       28b       305
       28f       308
       2d0       345
       2d7       348
       2ed       345
       2f1       348
       350       487
       358       490
       36d       487
       372       490
       398        21
       3a3         0
       3cd       411
       40b        81
       441       149
       487       339
       4c5       481
       4fb       490
       500       487
       505       490
       50a       487
       50f       348
       514       345
       519       348
       51e       345
       523       308
       528       305
       52d       298
       532       295
       537       288
       53c       285
       541       278
       546       275
       54b       268
       550       265
       555       258
       55a       255
       55f       248
       564       245
       569       238
       56e       235
       573       228
       578       225
       57d       218
       582       215
       587       208
       58c       205
       591       198
       596       195
       59b       188
       5a0       185
       5a5       178
       5aa       175
       5af       168
       5b4       165
       5b9       158
       5be       155
       5c3        90
       5c8        87
       5cd        90
       5d2        87
       5d7       450
       5dc       447
       5e1       440
       5e6       437
       5eb       430
       5f0       427
       5f5       420
       5fa       417
       5ff       450
       604       447
       609       440
       60e       437
       613       430
       618       427
       61d       420
       622       417

Safepoints (entries = 1, byte size = 12)
0x280b6818f11d    39d  slots (sp->fp): 0000000000000000

RelocInfo (size = 70)
0x280b6818f130  wasm stub call
0x280b6818f166  wasm stub call
0x280b6818f1a0  wasm stub call
0x280b6818f1de  wasm stub call
0x280b6818f220  wasm stub call
0x280b6818f25a  wasm stub call
0x280b6818f27c  wasm stub call
0x280b6818f281  wasm stub call
0x280b6818f286  wasm stub call
0x280b6818f28b  wasm stub call
0x280b6818f290  wasm stub call
0x280b6818f295  wasm stub call
0x280b6818f29a  wasm stub call
0x280b6818f29f  wasm stub call
0x280b6818f2a4  wasm stub call
0x280b6818f2a9  wasm stub call
0x280b6818f2ae  wasm stub call
0x280b6818f2b3  wasm stub call
0x280b6818f2b8  wasm stub call
0x280b6818f2bd  wasm stub call
0x280b6818f2c2  wasm stub call
0x280b6818f2c7  wasm stub call
0x280b6818f2cc  wasm stub call
0x280b6818f2d1  wasm stub call
0x280b6818f2d6  wasm stub call
0x280b6818f2db  wasm stub call
0x280b6818f2e0  wasm stub call
0x280b6818f2e5  wasm stub call
0x280b6818f2ea  wasm stub call
0x280b6818f2ef  wasm stub call
0x280b6818f2f4  wasm stub call
0x280b6818f2f9  wasm stub call
0x280b6818f2fe  wasm stub call
0x280b6818f303  wasm stub call
0x280b6818f308  wasm stub call
0x280b6818f30d  wasm stub call
0x280b6818f312  wasm stub call
0x280b6818f317  wasm stub call
0x280b6818f31c  wasm stub call
0x280b6818f321  wasm stub call
0x280b6818f326  wasm stub call
0x280b6818f32b  wasm stub call
0x280b6818f330  wasm stub call
0x280b6818f335  wasm stub call
0x280b6818f33a  wasm stub call
0x280b6818f33f  wasm stub call
0x280b6818f344  wasm stub call
0x280b6818f349  wasm stub call
0x280b6818f34e  wasm stub call
0x280b6818f353  wasm stub call
0x280b6818f358  wasm stub call
0x280b6818f35d  wasm stub call
0x280b6818f362  wasm stub call
0x280b6818f367  wasm stub call
0x280b6818f36c  wasm stub call
0x280b6818f371  wasm stub call
0x280b6818f376  wasm stub call
0x280b6818f37b  wasm stub call
0x280b6818f380  wasm stub call
0x280b6818f385  wasm stub call
0x280b6818f38a  wasm stub call
0x280b6818f38f  wasm stub call
0x280b6818f394  wasm stub call
0x280b6818f399  wasm stub call
0x280b6818f39e  wasm stub call
0x280b6818f3a3  wasm stub call

--- End code ---
--- WebAssembly code ---
name: __towrite
index: 14
kind: wasm function
compiler: TurboFan
Body (size = 192 = 152 + 40 padding)
Instructions (size = 140)
0x280b681923c0     0  55                   push rbp
0x280b681923c1     1  4889e5               REX.W movq rbp,rsp
0x280b681923c4     4  6a08                 push 0x8
0x280b681923c6     6  56                   push rsi
0x280b681923c7     7  488b5e17             REX.W movq rbx,[rsi+0x17]
0x280b681923cb     b  8bd0                 movl rdx,rax
0x280b681923cd     d  8b4c1a48             movl rcx,[rdx+rbx*1+0x48]
0x280b681923d1    11  8d71ff               leal rsi,[rcx-0x1]
0x280b681923d4    14  0bf1                 orl rsi,rcx
0x280b681923d6    16  89741a48             movl [rdx+rbx*1+0x48],rsi
0x280b681923da    1a  8b0c13               movl rcx,[rbx+rdx*1]
0x280b681923dd    1d  f6c108               testb rcx,0x8
0x280b681923e0    20  0f8526000000         jnz 0x280b6819240c  <+0x4c>
0x280b681923e6    26  48c7441a0400000000   REX.W movq [rdx+rbx*1+0x4],0x0
0x280b681923ef    2f  8b4c1a2c             movl rcx,[rdx+rbx*1+0x2c]
0x280b681923f3    33  894c1a1c             movl [rdx+rbx*1+0x1c],rcx
0x280b681923f7    37  894c1a14             movl [rdx+rbx*1+0x14],rcx
0x280b681923fb    3b  8b741a30             movl rsi,[rdx+rbx*1+0x30]
0x280b681923ff    3f  03ce                 addl rcx,rsi
0x280b68192401    41  894c1a10             movl [rdx+rbx*1+0x10],rcx
0x280b68192405    45  33c0                 xorl rax,rax
0x280b68192407    47  488be5               REX.W movq rsp,rbp
0x280b6819240a    4a  5d                   pop rbp
0x280b6819240b    4b  c3                   retl
0x280b6819240c    4c  83c920               orl rcx,0x20
0x280b6819240f    4f  890c13               movl [rbx+rdx*1],rcx
0x280b68192412    52  b8ffffffff           movl rax,0xffffffff
0x280b68192417    57  ebee                 jmp 0x280b68192407  <+0x47>
0x280b68192419    59  e8f23cffff           call 0x280b68186110  (jump table)    ;; wasm stub: ThrowWasmTrapMemOutOfBounds
0x280b6819241e    5e  e8ed3cffff           call 0x280b68186110  (jump table)    ;; wasm stub: ThrowWasmTrapMemOutOfBounds
0x280b68192423    63  e8e83cffff           call 0x280b68186110  (jump table)    ;; wasm stub: ThrowWasmTrapMemOutOfBounds
0x280b68192428    68  e8e33cffff           call 0x280b68186110  (jump table)    ;; wasm stub: ThrowWasmTrapMemOutOfBounds
0x280b6819242d    6d  e8de3cffff           call 0x280b68186110  (jump table)    ;; wasm stub: ThrowWasmTrapMemOutOfBounds
0x280b68192432    72  e8d93cffff           call 0x280b68186110  (jump table)    ;; wasm stub: ThrowWasmTrapMemOutOfBounds
0x280b68192437    77  e8d43cffff           call 0x280b68186110  (jump table)    ;; wasm stub: ThrowWasmTrapMemOutOfBounds
0x280b6819243c    7c  e8cf3cffff           call 0x280b68186110  (jump table)    ;; wasm stub: ThrowWasmTrapMemOutOfBounds
0x280b68192441    81  e8ca3cffff           call 0x280b68186110  (jump table)    ;; wasm stub: ThrowWasmTrapMemOutOfBounds
0x280b68192446    86  e8c53cffff           call 0x280b68186110  (jump table)    ;; wasm stub: ThrowWasmTrapMemOutOfBounds
0x280b6819244b    8b  90                   nop

Protected instructions:
 pc offset  land pad
        4f        59
        41        5e
        3b        63
        37        68
        33        6d
        2f        72
        26        77
        1a        7c
        16        81
         d        86

Source positions:
 pc offset  position
         d         7
        16        18
        1a        23
        26        51
        2f        58
        33        63
        37        70
        3b        79
        41        83
        4f        40
        5e        83
        63        79
        68        70
        6d        63
        72        58
        77        51
        7c        23
        81        18
        86         7

Safepoints (entries = 1, byte size = 10)
0x280b6819241e     5e  slots (sp->fp): 00000000

RelocInfo (size = 12)
0x280b6819241a  wasm stub call
0x280b6819241f  wasm stub call
0x280b68192424  wasm stub call
0x280b68192429  wasm stub call
0x280b6819242e  wasm stub call
0x280b68192433  wasm stub call
0x280b68192438  wasm stub call
0x280b6819243d  wasm stub call
0x280b68192442  wasm stub call
0x280b68192447  wasm stub call

--- End code ---
--- WebAssembly code ---
name: init_pthread_self
index: 35
kind: wasm function
compiler: TurboFan
Body (size = 128 = 88 + 40 padding)
Instructions (size = 76)
0x280b68192480     0  55                   push rbp
0x280b68192481     1  4889e5               REX.W movq rbp,rsp
0x280b68192484     4  6a08                 push 0x8
0x280b68192486     6  56                   push rsi
0x280b68192487     7  4883ec08             REX.W subq rsp,0x8
0x280b6819248b     b  488b4627             REX.W movq rax,[rsi+0x27]
0x280b6819248f     f  483b20               REX.W cmpq rsp,[rax]
0x280b68192492    12  0f8626000000         jna 0x280b681924be  <+0x3e>
0x280b68192498    18  488b4617             REX.W movq rax,[rsi+0x17]
0x280b6819249c    1c  c7802c0b0000bc0a0000 movl [rax+0xb2c],0xabc
0x280b681924a6    26  488945e8             REX.W movq [rbp-0x18],rax
0x280b681924aa    2a  e8ea3bffff           call 0x280b68186099  (jump table)    ;; internal wasm call
0x280b681924af    2f  488b5de8             REX.W movq rbx,[rbp-0x18]
0x280b681924b3    33  8983e40a0000         movl [rbx+0xae4],rax
0x280b681924b9    39  488be5               REX.W movq rsp,rbp
0x280b681924bc    3c  5d                   pop rbp
0x280b681924bd    3d  c3                   retl
0x280b681924be    3e  e8ad3effff           call 0x280b68186370  (jump table)    ;; wasm stub: WasmStackGuard
0x280b681924c3    43  488b75f0             REX.W movq rsi,[rbp-0x10]
0x280b681924c7    47  ebcf                 jmp 0x280b68192498  <+0x18>
0x280b681924c9    49  90                   nop
0x280b681924ca    4a  6690                 nop

Source positions:
 pc offset  position
        26        13
        3e         0

Safepoints (entries = 1, byte size = 10)
0x280b681924af     2f  slots (sp->fp): 00000000

RelocInfo (size = 3)
0x280b681924ab  internal wasm call
0x280b681924bf  wasm stub call

--- End code ---
--- WebAssembly code ---
name: wcrtomb
index: 36
kind: wasm function
compiler: TurboFan
Body (size = 640 = 588 + 52 padding)
Instructions (size = 576)
0x280b68192500     0  55                   push rbp
0x280b68192501     1  4889e5               REX.W movq rbp,rsp
0x280b68192504     4  6a08                 push 0x8
0x280b68192506     6  56                   push rsi
0x280b68192507     7  4883ec18             REX.W subq rsp,0x18
0x280b6819250b     b  488b5e27             REX.W movq rbx,[rsi+0x27]
0x280b6819250f     f  488945d8             REX.W movq [rbp-0x28],rax
0x280b68192513    13  488955e0             REX.W movq [rbp-0x20],rdx
0x280b68192517    17  483b23               REX.W cmpq rsp,[rbx]
0x280b6819251a    1a  0f86c1010000         jna 0x280b681926e1  <+0x1e1>
0x280b68192520    20  488b5e17             REX.W movq rbx,[rsi+0x17]
0x280b68192524    24  48895de8             REX.W movq [rbp-0x18],rbx
0x280b68192528    28  83f800               cmpl rax,0x0
0x280b6819252b    2b  0f850a000000         jnz 0x280b6819253b  <+0x3b>
0x280b68192531    31  b801000000           movl rax,0x1
0x280b68192536    36  488be5               REX.W movq rsp,rbp
0x280b68192539    39  5d                   pop rbp
0x280b6819253a    3a  c3                   retl
0x280b6819253b    3b  83fa7f               cmpl rdx,0x7f
0x280b6819253e    3e  0f868e010000         jna 0x280b681926d2  <+0x1d2>
0x280b68192544    44  e8553bffff           call 0x280b6818609e  (jump table)    ;; internal wasm call
0x280b68192549    49  8bd8                 movl rbx,rax
0x280b6819254b    4b  488b55e8             REX.W movq rdx,[rbp-0x18]
0x280b6819254f    4f  8b5c1358             movl rbx,[rbx+rdx*1+0x58]
0x280b68192553    53  8b1c1a               movl rbx,[rdx+rbx*1]
0x280b68192556    56  83fb00               cmpl rbx,0x0
0x280b68192559    59  0f8435010000         jz 0x280b68192694  <+0x194>
0x280b6819255f    5f  817de0ff070000       cmpl [rbp-0x20],0x7ff
0x280b68192566    66  0f86f9000000         jna 0x280b68192665  <+0x165>
0x280b6819256c    6c  488b5de0             REX.W movq rbx,[rbp-0x20]
0x280b68192570    70  81e300e0ffff         andl rbx,0xffffe000
0x280b68192576    76  817de000d80000       cmpl [rbp-0x20],0xd800
0x280b6819257d    7d  0f93c1               setncl cl
0x280b68192580    80  0fb6c9               movzxbl rcx,rcx
0x280b68192583    83  81fb00e00000         cmpl rbx,0xe000
0x280b68192589    89  0f95c3               setnzl bl
0x280b6819258c    8c  0fb6db               movzxbl rbx,rbx
0x280b6819258f    8f  85cb                 testl rcx,rbx
0x280b68192591    91  0f8488000000         jz 0x280b6819261f  <+0x11f>
0x280b68192597    97  488b5de0             REX.W movq rbx,[rbp-0x20]
0x280b6819259b    9b  8d8b0000ffff         leal rcx,[rbx-0x10000]
0x280b681925a1    a1  81f9ffff0f00         cmpl rcx,0xfffff
0x280b681925a7    a7  0f861b000000         jna 0x280b681925c8  <+0xc8>
0x280b681925ad    ad  488b75f0             REX.W movq rsi,[rbp-0x10]
0x280b681925b1    b1  e8943affff           call 0x280b6818604a  (jump table)    ;; internal wasm call
0x280b681925b6    b6  8bd8                 movl rbx,rax
0x280b681925b8    b8  488b55e8             REX.W movq rdx,[rbp-0x18]
0x280b681925bc    bc  c7041a19000000       movl [rdx+rbx*1],0x19
0x280b681925c3    c3  e9f5000000           jmp 0x280b681926bd  <+0x1bd>
0x280b681925c8    c8  8b4dd8               movl rcx,[rbp-0x28]
0x280b681925cb    cb  488bfb               REX.W movq rdi,rbx
0x280b681925ce    ce  83e73f               andl rdi,0x3f
0x280b681925d1    d1  4c8bc3               REX.W movq r8,rbx
0x280b681925d4    d4  41c1e806             shrl r8, 6
0x280b681925d8    d8  4183e03f             andl r8,0x3f
0x280b681925dc    dc  81cf80000000         orl rdi,0x80
0x280b681925e2    e2  4c8bcb               REX.W movq r9,rbx
0x280b681925e5    e5  41c1e912             shrl r9, 18
0x280b681925e9    e9  40887c1103           movb [rcx+rdx*1+0x3],dil
0x280b681925ee    ee  4181c9f0000000       orl r9,0xf0
0x280b681925f5    f5  c1eb0c               shrl rbx, 12
0x280b681925f8    f8  44880c0a             movb [rdx+rcx*1],r9l
0x280b681925fc    fc  4181c880000000       orl r8,0x80
0x280b68192603   103  83e33f               andl rbx,0x3f
0x280b68192606   106  4488441102           movb [rcx+rdx*1+0x2],r8l
0x280b6819260b   10b  81cb80000000         orl rbx,0x80
0x280b68192611   111  885c1101             movb [rcx+rdx*1+0x1],bl
0x280b68192615   115  b804000000           movl rax,0x4
0x280b6819261a   11a  e917ffffff           jmp 0x280b68192536  <+0x36>
0x280b6819261f   11f  8b5dd8               movl rbx,[rbp-0x28]
0x280b68192622   122  488b4de0             REX.W movq rcx,[rbp-0x20]
0x280b68192626   126  83e13f               andl rcx,0x3f
0x280b68192629   129  488b7de0             REX.W movq rdi,[rbp-0x20]
0x280b6819262d   12d  c1ef06               shrl rdi, 6
0x280b68192630   130  81c980000000         orl rcx,0x80
0x280b68192636   136  83e73f               andl rdi,0x3f
0x280b68192639   139  4c8b45e0             REX.W movq r8,[rbp-0x20]
0x280b6819263d   13d  41c1e80c             shrl r8, 12
0x280b68192641   141  81cf80000000         orl rdi,0x80
0x280b68192647   147  884c1302             movb [rbx+rdx*1+0x2],cl
0x280b6819264b   14b  4181c8e0000000       orl r8,0xe0
0x280b68192652   152  4488041a             movb [rdx+rbx*1],r8l
0x280b68192656   156  40887c1301           movb [rbx+rdx*1+0x1],dil
0x280b6819265b   15b  b803000000           movl rax,0x3
0x280b68192660   160  e9d1feffff           jmp 0x280b68192536  <+0x36>
0x280b68192665   165  8b5dd8               movl rbx,[rbp-0x28]
0x280b68192668   168  488b4de0             REX.W movq rcx,[rbp-0x20]
0x280b6819266c   16c  c1e906               shrl rcx, 6
0x280b6819266f   16f  488b7de0             REX.W movq rdi,[rbp-0x20]
0x280b68192673   173  83e73f               andl rdi,0x3f
0x280b68192676   176  81cf80000000         orl rdi,0x80
0x280b6819267c   17c  40887c1301           movb [rbx+rdx*1+0x1],dil
0x280b68192681   181  81c9c0000000         orl rcx,0xc0
0x280b68192687   187  880c1a               movb [rdx+rbx*1],cl
0x280b6819268a   18a  b802000000           movl rax,0x2
0x280b6819268f   18f  e9a2feffff           jmp 0x280b68192536  <+0x36>
0x280b68192694   194  488b5de0             REX.W movq rbx,[rbp-0x20]
0x280b68192698   198  83e380               andl rbx,0x80
0x280b6819269b   19b  81fb80df0000         cmpl rbx,0xdf80
0x280b681926a1   1a1  0f8420000000         jz 0x280b681926c7  <+0x1c7>
0x280b681926a7   1a7  488b75f0             REX.W movq rsi,[rbp-0x10]
0x280b681926ab   1ab  e89a39ffff           call 0x280b6818604a  (jump table)    ;; internal wasm call
0x280b681926b0   1b0  8bd8                 movl rbx,rax
0x280b681926b2   1b2  488b55e8             REX.W movq rdx,[rbp-0x18]
0x280b681926b6   1b6  c7041a19000000       movl [rdx+rbx*1],0x19
0x280b681926bd   1bd  b8ffffffff           movl rax,0xffffffff
0x280b681926c2   1c2  e96ffeffff           jmp 0x280b68192536  <+0x36>
0x280b681926c7   1c7  488bda               REX.W movq rbx,rdx
0x280b681926ca   1ca  488b55e0             REX.W movq rdx,[rbp-0x20]
0x280b681926ce   1ce  488b45d8             REX.W movq rax,[rbp-0x28]
0x280b681926d2   1d2  8bc8                 movl rcx,rax
0x280b681926d4   1d4  88140b               movb [rbx+rcx*1],dl
0x280b681926d7   1d7  b801000000           movl rax,0x1
0x280b681926dc   1dc  e955feffff           jmp 0x280b68192536  <+0x36>
0x280b681926e1   1e1  e88a3cffff           call 0x280b68186370  (jump table)    ;; wasm stub: WasmStackGuard
0x280b681926e6   1e6  488b55e0             REX.W movq rdx,[rbp-0x20]
0x280b681926ea   1ea  488b45d8             REX.W movq rax,[rbp-0x28]
0x280b681926ee   1ee  488b75f0             REX.W movq rsi,[rbp-0x10]
0x280b681926f2   1f2  e929feffff           jmp 0x280b68192520  <+0x20>
0x280b681926f7   1f7  e8143affff           call 0x280b68186110  (jump table)    ;; wasm stub: ThrowWasmTrapMemOutOfBounds
0x280b681926fc   1fc  e80f3affff           call 0x280b68186110  (jump table)    ;; wasm stub: ThrowWasmTrapMemOutOfBounds
0x280b68192701   201  e80a3affff           call 0x280b68186110  (jump table)    ;; wasm stub: ThrowWasmTrapMemOutOfBounds
0x280b68192706   206  e8053affff           call 0x280b68186110  (jump table)    ;; wasm stub: ThrowWasmTrapMemOutOfBounds
0x280b6819270b   20b  e8003affff           call 0x280b68186110  (jump table)    ;; wasm stub: ThrowWasmTrapMemOutOfBounds
0x280b68192710   210  e8fb39ffff           call 0x280b68186110  (jump table)    ;; wasm stub: ThrowWasmTrapMemOutOfBounds
0x280b68192715   215  e8f639ffff           call 0x280b68186110  (jump table)    ;; wasm stub: ThrowWasmTrapMemOutOfBounds
0x280b6819271a   21a  e8f139ffff           call 0x280b68186110  (jump table)    ;; wasm stub: ThrowWasmTrapMemOutOfBounds
0x280b6819271f   21f  e8ec39ffff           call 0x280b68186110  (jump table)    ;; wasm stub: ThrowWasmTrapMemOutOfBounds
0x280b68192724   224  e8e739ffff           call 0x280b68186110  (jump table)    ;; wasm stub: ThrowWasmTrapMemOutOfBounds
0x280b68192729   229  e8e239ffff           call 0x280b68186110  (jump table)    ;; wasm stub: ThrowWasmTrapMemOutOfBounds
0x280b6819272e   22e  e8dd39ffff           call 0x280b68186110  (jump table)    ;; wasm stub: ThrowWasmTrapMemOutOfBounds
0x280b68192733   233  e8d839ffff           call 0x280b68186110  (jump table)    ;; wasm stub: ThrowWasmTrapMemOutOfBounds
0x280b68192738   238  e8d339ffff           call 0x280b68186110  (jump table)    ;; wasm stub: ThrowWasmTrapMemOutOfBounds
0x280b6819273d   23d  90                   nop
0x280b6819273e   23e  6690                 nop

Protected instructions:
 pc offset  land pad
       1d4       1f7
       1b6       1fc
       187       201
       17c       206
       156       20b
       152       210
       147       215
       111       21a
       106       21f
        f8       224
        e9       229
        bc       22e
        53       233
        4f       238

Source positions:
 pc offset  position
        44        23
        4b        25
        53        28
        ad       248
        b8       252
        e9       193
        f8       207
       106       224
       111       241
       147       130
       152       144
       156       161
       17c        76
       187        90
       1a7        47
       1b2        51
       1d4       269
       1e1         0
       1f7       269
       1fc        51
       201        90
       206        76
       20b       161
       210       144
       215       130
       21a       241
       21f       224
       224       207
       229       193
       22e       252
       233        28
       238        25

Safepoints (entries = 1, byte size = 10)
0x280b68192549     49  slots (sp->fp): 00000000

RelocInfo (size = 27)
0x280b68192545  internal wasm call
0x280b681925b2  internal wasm call
0x280b681926ac  internal wasm call
0x280b681926e2  wasm stub call
0x280b681926f8  wasm stub call
0x280b681926fd  wasm stub call
0x280b68192702  wasm stub call
0x280b68192707  wasm stub call
0x280b6819270c  wasm stub call
0x280b68192711  wasm stub call
0x280b68192716  wasm stub call
0x280b6819271b  wasm stub call
0x280b68192720  wasm stub call
0x280b68192725  wasm stub call
0x280b6819272a  wasm stub call
0x280b6819272f  wasm stub call
0x280b68192734  wasm stub call
0x280b68192739  wasm stub call

--- End code ---
--- WebAssembly code ---
name: printf_core
index: 22
kind: wasm function
compiler: TurboFan
Body (size = 9280 = 9224 + 56 padding)
Instructions (size = 9208)
0x280b6818ff80     0  55                   push rbp
0x280b6818ff81     1  4889e5               REX.W movq rbp,rsp
0x280b6818ff84     4  6a08                 push 0x8
0x280b6818ff86     6  56                   push rsi
0x280b6818ff87     7  4881ecb0000000       REX.W subq rsp,0xb0
0x280b6818ff8e     e  488b7e27             REX.W movq rdi,[rsi+0x27]
0x280b6818ff92    12  48894598             REX.W movq [rbp-0x68],rax
0x280b6818ff96    16  48894db0             REX.W movq [rbp-0x50],rcx
0x280b6818ff9a    1a  4c894dc0             REX.W movq [rbp-0x40],r9
0x280b6818ff9e    1e  48895da8             REX.W movq [rbp-0x58],rbx
0x280b6818ffa2    22  48897db8             REX.W movq [rbp-0x48],rdi
0x280b6818ffa6    26  483b27               REX.W cmpq rsp,[rdi]
0x280b6818ffa9    29  0f86d81d0000         jna 0x280b68191d87  <+0x1e07>
0x280b6818ffaf    2f  4c8b4617             REX.W movq r8,[rsi+0x17]
0x280b6818ffb3    33  4c8b5e47             REX.W movq r11,[rsi+0x47]
0x280b6818ffb7    37  458b23               movl r12,[r11]
0x280b6818ffba    3a  4183ec50             subl r12,0x50
0x280b6818ffbe    3e  458923               movl [r11],r12
0x280b6818ffc1    41  438954044c           movl [r12+r8*1+0x4c],rdx
0x280b6818ffc6    46  4c8945d8             REX.W movq [rbp-0x28],r8
0x280b6818ffca    4a  4c895de8             REX.W movq [rbp-0x18],r11
0x280b6818ffce    4e  4c8965e0             REX.W movq [rbp-0x20],r12
0x280b6818ffd2    52  33d2                 xorl rdx,rdx
0x280b6818ffd4    54  4c8bda               REX.W movq r11,rdx
0x280b6818ffd7    57  4c8bfa               REX.W movq r15,rdx
0x280b6818ffda    5a  488955a0             REX.W movq [rbp-0x60],rdx
0x280b6818ffde    5e  e927000000           jmp 0x280b6819000a  <+0x8a>
0x280b6818ffe3    63  660f1f840000000000   nop
0x280b6818ffec    6c  660f1f840000000000   nop
0x280b6818fff5    75  660f1f840000000000   nop
0x280b6818fffe    7e  6690                 nop
0x280b68190000    80  4403da               addl r11,rdx
0x280b68190003    83  488bd7               REX.W movq rdx,rdi
0x280b68190006    86  488b7db8             REX.W movq rdi,[rbp-0x48]
0x280b6819000a    8a  483b27               REX.W cmpq rsp,[rdi]
0x280b6819000d    8d  0f869e1d0000         jna 0x280b68191db1  <+0x1e31>
0x280b68190013    93  41bfffffff7f         movl r15,0x7fffffff
0x280b68190019    99  452bfb               subl r15,r11
0x280b6819001c    9c  443bfa               cmpl r15,rdx
0x280b6819001f    9f  0f8c201d0000         jl 0x280b68191d45  <+0x1dc5>
0x280b68190025    a5  478b7c044c           movl r15,[r12+r8*1+0x4c]
0x280b6819002a    aa  430fb61c38           movzxbl rbx,[r8+r15*1]
0x280b6819002f    af  4c89bd58ffffff       REX.W movq [rbp-0xa8],r15
0x280b68190036    b6  83fb00               cmpl rbx,0x0
0x280b68190039    b9  0f84471a0000         jz 0x280b68191a86  <+0x1b06>
0x280b6819003f    bf  48895d90             REX.W movq [rbp-0x70],rbx
0x280b68190043    c3  498bdf               REX.W movq rbx,r15
0x280b68190046    c6  e94a000000           jmp 0x280b68190095  <+0x115>
0x280b6819004b    cb  660f1f840000000000   nop
0x280b68190054    d4  660f1f840000000000   nop
0x280b6819005d    dd  660f1f840000000000   nop
0x280b68190066    e6  660f1f840000000000   nop
0x280b6819006f    ef  660f1f840000000000   nop
0x280b68190078    f8  0f1f840000000000     nop
0x280b68190080   100  8d4b01               leal rcx,[rbx+0x1]
0x280b68190083   103  43894c044c           movl [r12+r8*1+0x4c],rcx
0x280b68190088   108  420fb65c0301         movzxbl rbx,[rbx+r8*1+0x1]
0x280b6819008e   10e  48895d90             REX.W movq [rbp-0x70],rbx
0x280b68190092   112  488bd9               REX.W movq rbx,rcx
0x280b68190095   115  483b27               REX.W cmpq rsp,[rdi]
0x280b68190098   118  0f86411d0000         jna 0x280b68191ddf  <+0x1e5f>
0x280b6819009e   11e  488b4d90             REX.W movq rcx,[rbp-0x70]
0x280b681900a2   122  81e1ff000000         andl rcx,0xff
0x280b681900a8   128  0f84c3000000         jz 0x280b68190171  <+0x1f1>
0x280b681900ae   12e  80f925               cmpb cl,0x25
0x280b681900b1   131  75cd                 jnz 0x280b68190080  <+0x100>
0x280b681900b3   133  488bcb               REX.W movq rcx,rbx
0x280b681900b6   136  e909000000           jmp 0x280b681900c4  <+0x144>
0x280b681900bb   13b  0f1f440000           nop
0x280b681900c0   140  488b7db8             REX.W movq rdi,[rbp-0x48]
0x280b681900c4   144  483b27               REX.W cmpq rsp,[rdi]
0x280b681900c7   147  0f864f1d0000         jna 0x280b68191e1c  <+0x1e9c>
0x280b681900cd   14d  420fb67c0101         movzxbl rdi,[rcx+r8*1+0x1]
0x280b681900d3   153  83ff25               cmpl rdi,0x25
0x280b681900d6   156  0f8595000000         jnz 0x280b68190171  <+0x1f1>
0x280b681900dc   15c  83c301               addl rbx,0x1
0x280b681900df   15f  8d7902               leal rdi,[rcx+0x2]
0x280b681900e2   162  43897c044c           movl [r12+r8*1+0x4c],rdi
0x280b681900e7   167  420fb64c0102         movzxbl rcx,[rcx+r8*1+0x2]
0x280b681900ed   16d  83f925               cmpl rcx,0x25
0x280b681900f0   170  0f857b000000         jnz 0x280b68190171  <+0x1f1>
0x280b681900f6   176  420fb64c0701         movzxbl rcx,[rdi+r8*1+0x1]
0x280b681900fc   17c  83f925               cmpl rcx,0x25
0x280b681900ff   17f  0f856c000000         jnz 0x280b68190171  <+0x1f1>
0x280b68190105   185  83c301               addl rbx,0x1
0x280b68190108   188  8d4f02               leal rcx,[rdi+0x2]
0x280b6819010b   18b  43894c044c           movl [r12+r8*1+0x4c],rcx
0x280b68190110   190  420fb67c0702         movzxbl rdi,[rdi+r8*1+0x2]
0x280b68190116   196  83ff25               cmpl rdi,0x25
0x280b68190119   199  0f8552000000         jnz 0x280b68190171  <+0x1f1>
0x280b6819011f   19f  420fb67c0101         movzxbl rdi,[rcx+r8*1+0x1]
0x280b68190125   1a5  83ff25               cmpl rdi,0x25
0x280b68190128   1a8  0f8543000000         jnz 0x280b68190171  <+0x1f1>
0x280b6819012e   1ae  83c301               addl rbx,0x1
0x280b68190131   1b1  8d7902               leal rdi,[rcx+0x2]
0x280b68190134   1b4  43897c044c           movl [r12+r8*1+0x4c],rdi
0x280b68190139   1b9  420fb64c0102         movzxbl rcx,[rcx+r8*1+0x2]
0x280b6819013f   1bf  83f925               cmpl rcx,0x25
0x280b68190142   1c2  0f8529000000         jnz 0x280b68190171  <+0x1f1>
0x280b68190148   1c8  420fb64c0701         movzxbl rcx,[rdi+r8*1+0x1]
0x280b6819014e   1ce  83f925               cmpl rcx,0x25
0x280b68190151   1d1  0f851a000000         jnz 0x280b68190171  <+0x1f1>
0x280b68190157   1d7  83c301               addl rbx,0x1
0x280b6819015a   1da  8d4f02               leal rcx,[rdi+0x2]
0x280b6819015d   1dd  43894c044c           movl [r12+r8*1+0x4c],rcx
0x280b68190162   1e2  420fb67c0702         movzxbl rdi,[rdi+r8*1+0x2]
0x280b68190168   1e8  83ff25               cmpl rdi,0x25
0x280b6819016b   1eb  0f844fffffff         jz 0x280b681900c0  <+0x140>
0x280b68190171   1f1  428d3c1a             leal rdi,[rdx+r11*1]
0x280b68190175   1f5  b9ffffff7f           movl rcx,0x7fffffff
0x280b6819017a   1fa  2bcf                 subl rcx,rdi
0x280b6819017c   1fc  488bfb               REX.W movq rdi,rbx
0x280b6819017f   1ff  412bff               subl rdi,r15
0x280b68190182   202  48895d88             REX.W movq [rbp-0x78],rbx
0x280b68190186   206  48898d68ffffff       REX.W movq [rbp-0x98],rcx
0x280b6819018d   20d  48897d90             REX.W movq [rbp-0x70],rdi
0x280b68190191   211  3bcf                 cmpl rcx,rdi
0x280b68190193   213  0f8ca41b0000         jl 0x280b68191d3d  <+0x1dbd>
0x280b68190199   219  488955d0             REX.W movq [rbp-0x30],rdx
0x280b6819019d   21d  4c895dc8             REX.W movq [rbp-0x38],r11
0x280b681901a1   221  83f800               cmpl rax,0x0
0x280b681901a4   224  0f8439000000         jz 0x280b681901e3  <+0x263>
0x280b681901aa   22a  488bcf               REX.W movq rcx,rdi
0x280b681901ad   22d  498bd7               REX.W movq rdx,r15
0x280b681901b0   230  e8ae5effff           call 0x280b68186063  (jump table)    ;; internal wasm call
0x280b681901b5   235  4c8b65e0             REX.W movq r12,[rbp-0x20]
0x280b681901b9   239  4c8b45d8             REX.W movq r8,[rbp-0x28]
0x280b681901bd   23d  488b75f0             REX.W movq rsi,[rbp-0x10]
0x280b681901c1   241  488b55d0             REX.W movq rdx,[rbp-0x30]
0x280b681901c5   245  4c8b5dc8             REX.W movq r11,[rbp-0x38]
0x280b681901c9   249  488b4598             REX.W movq rax,[rbp-0x68]
0x280b681901cd   24d  488b8d68ffffff       REX.W movq rcx,[rbp-0x98]
0x280b681901d4   254  4c8bbd58ffffff       REX.W movq r15,[rbp-0xa8]
0x280b681901db   25b  488b5d88             REX.W movq rbx,[rbp-0x78]
0x280b681901df   25f  488b7d90             REX.W movq rdi,[rbp-0x70]
0x280b681901e3   263  413bdf               cmpl rbx,r15
0x280b681901e6   266  0f8514feffff         jnz 0x280b68190000  <+0x80>
0x280b681901ec   26c  4c89e7               REX.W movq rdi,r12
0x280b681901ef   26f  468b64074c           movl r12,[rdi+r8*1+0x4c]
0x280b681901f4   274  470fbe640401         movsxbl r12,[r12+r8*1+0x1]
0x280b681901fa   27a  4c89e0               REX.W movq rax,r12
0x280b681901fd   27d  e8355effff           call 0x280b68186037  (jump table)    ;; internal wasm call
0x280b68190202   282  488b7de0             REX.W movq rdi,[rbp-0x20]
0x280b68190206   286  4c8b45d8             REX.W movq r8,[rbp-0x28]
0x280b6819020a   28a  468b5c074c           movl r11,[rdi+r8*1+0x4c]
0x280b6819020f   28f  83f800               cmpl rax,0x0
0x280b68190212   292  0f8440000000         jz 0x280b68190258  <+0x2d8>
0x280b68190218   298  470fb6640302         movzxbl r12,[r11+r8*1+0x2]
0x280b6819021e   29e  4183fc24             cmpl r12,0x24
0x280b68190222   2a2  0f851f000000         jnz 0x280b68190247  <+0x2c7>
0x280b68190228   2a8  470fbe640301         movsxbl r12,[r11+r8*1+0x1]
0x280b6819022e   2ae  4183ec30             subl r12,0x30
0x280b68190232   2b2  48c745a001000000     REX.W movq [rbp-0x60],0x1
0x280b6819023a   2ba  b803000000           movl rax,0x3
0x280b6819023f   2bf  4c8bf8               REX.W movq r15,rax
0x280b68190242   2c2  e91d000000           jmp 0x280b68190264  <+0x2e4>
0x280b68190247   2c7  41bcffffffff         movl r12,0xffffffff
0x280b6819024d   2cd  41bf01000000         movl r15,0x1
0x280b68190253   2d3  e90c000000           jmp 0x280b68190264  <+0x2e4>
0x280b68190258   2d8  41bcffffffff         movl r12,0xffffffff
0x280b6819025e   2de  41bf01000000         movl r15,0x1
0x280b68190264   2e4  4503df               addl r11,r15
0x280b68190267   2e7  46895c074c           movl [rdi+r8*1+0x4c],r11
0x280b6819026c   2ec  470fbe3c18           movsxbl r15,[r8+r11*1]
0x280b68190271   2f1  418d4fe0             leal rcx,[r15-0x20]
0x280b68190275   2f5  4c896580             REX.W movq [rbp-0x80],r12
0x280b68190279   2f9  83f91f               cmpl rcx,0x1f
0x280b6819027c   2fc  0f876b010000         ja 0x280b681903ed  <+0x46d>
0x280b68190282   302  bb01000000           movl rbx,0x1
0x280b68190287   307  d3e3                 shll rbx, cl
0x280b68190289   309  b801000000           movl rax,0x1
0x280b6819028e   30e  f7c389280100         testl rbx,0x12889
0x280b68190294   314  0f8445010000         jz 0x280b681903df  <+0x45f>
0x280b6819029a   31a  4d8bfb               REX.W movq r15,r11
0x280b6819029d   31d  4533db               xorl r11,r11
0x280b681902a0   320  488b55b8             REX.W movq rdx,[rbp-0x48]
0x280b681902a4   324  e91d000000           jmp 0x280b681902c6  <+0x346>
0x280b681902a9   329  660f1f840000000000   nop
0x280b681902b2   332  660f1f840000000000   nop
0x280b681902bb   33b  0f1f440000           nop
0x280b681902c0   340  4c8bdb               REX.W movq r11,rbx
0x280b681902c3   343  488bde               REX.W movq rbx,rsi
0x280b681902c6   346  483b22               REX.W cmpq rsp,[rdx]
0x280b681902c9   349  0f868e1b0000         jna 0x280b68191e5d  <+0x1edd>
0x280b681902cf   34f  418d7701             leal rsi,[r15+0x1]
0x280b681902d3   353  428974074c           movl [rdi+r8*1+0x4c],rsi
0x280b681902d8   358  470fbe7c0701         movsxbl r15,[r15+r8*1+0x1]
0x280b681902de   35e  418d4fe0             leal rcx,[r15-0x20]
0x280b681902e2   362  440bdb               orl r11,rbx
0x280b681902e5   365  83f920               cmpl rcx,0x20
0x280b681902e8   368  0f83e6000000         jnc 0x280b681903d4  <+0x454>
0x280b681902ee   36e  488bd8               REX.W movq rbx,rax
0x280b681902f1   371  d3e3                 shll rbx, cl
0x280b681902f3   373  f7c389280100         testl rbx,0x12889
0x280b681902f9   379  0f84b0000000         jz 0x280b681903af  <+0x42f>
0x280b681902ff   37f  448d7e01             leal r15,[rsi+0x1]
0x280b68190303   383  46897c074c           movl [rdi+r8*1+0x4c],r15
0x280b68190308   388  420fbe740601         movsxbl rsi,[rsi+r8*1+0x1]
0x280b6819030e   38e  8d4ee0               leal rcx,[rsi-0x20]
0x280b68190311   391  410bdb               orl rbx,r11
0x280b68190314   394  83f920               cmpl rcx,0x20
0x280b68190317   397  0f83ab000000         jnc 0x280b681903c8  <+0x448>
0x280b6819031d   39d  4c8bd8               REX.W movq r11,rax
0x280b68190320   3a0  41d3e3               shll r11, cl
0x280b68190323   3a3  41f7c389280100       testl r11,0x12889
0x280b6819032a   3aa  0f8465000000         jz 0x280b68190395  <+0x415>
0x280b68190330   3b0  418d7701             leal rsi,[r15+0x1]
0x280b68190334   3b4  428974074c           movl [rdi+r8*1+0x4c],rsi
0x280b68190339   3b9  470fbe7c0701         movsxbl r15,[r15+r8*1+0x1]
0x280b6819033f   3bf  418d4fe0             leal rcx,[r15-0x20]
0x280b68190343   3c3  440bdb               orl r11,rbx
0x280b68190346   3c6  83f920               cmpl rcx,0x20
0x280b68190349   3c9  0f8385000000         jnc 0x280b681903d4  <+0x454>
0x280b6819034f   3cf  488bd8               REX.W movq rbx,rax
0x280b68190352   3d2  d3e3                 shll rbx, cl
0x280b68190354   3d4  f7c389280100         testl rbx,0x12889
0x280b6819035a   3da  0f844f000000         jz 0x280b681903af  <+0x42f>
0x280b68190360   3e0  410bdb               orl rbx,r11
0x280b68190363   3e3  448d7e01             leal r15,[rsi+0x1]
0x280b68190367   3e7  46897c074c           movl [rdi+r8*1+0x4c],r15
0x280b6819036c   3ec  460fbe5c0601         movsxbl r11,[rsi+r8*1+0x1]
0x280b68190372   3f2  418d4be0             leal rcx,[r11-0x20]
0x280b68190376   3f6  83f920               cmpl rcx,0x20
0x280b68190379   3f9  0f833b000000         jnc 0x280b681903ba  <+0x43a>
0x280b6819037f   3ff  488bf0               REX.W movq rsi,rax
0x280b68190382   402  d3e6                 shll rsi, cl
0x280b68190384   404  f7c689280100         testl rsi,0x12889
0x280b6819038a   40a  0f8530ffffff         jnz 0x280b681902c0  <+0x340>
0x280b68190390   410  e911000000           jmp 0x280b681903a6  <+0x426>
0x280b68190395   415  4d8bd7               REX.W movq r10,r15
0x280b68190398   418  4c8bfe               REX.W movq r15,rsi
0x280b6819039b   41b  498bf2               REX.W movq rsi,r10
0x280b6819039e   41e  4c8bdb               REX.W movq r11,rbx
0x280b681903a1   421  e909000000           jmp 0x280b681903af  <+0x42f>
0x280b681903a6   426  498bf7               REX.W movq rsi,r15
0x280b681903a9   429  4d8bfb               REX.W movq r15,r11
0x280b681903ac   42c  4c8bdb               REX.W movq r11,rbx
0x280b681903af   42f  498bc7               REX.W movq rax,r15
0x280b681903b2   432  4c8bfe               REX.W movq r15,rsi
0x280b681903b5   435  e93c000000           jmp 0x280b681903f6  <+0x476>
0x280b681903ba   43a  498bf7               REX.W movq rsi,r15
0x280b681903bd   43d  4d8bfb               REX.W movq r15,r11
0x280b681903c0   440  4c8bdb               REX.W movq r11,rbx
0x280b681903c3   443  e90c000000           jmp 0x280b681903d4  <+0x454>
0x280b681903c8   448  4d8bd7               REX.W movq r10,r15
0x280b681903cb   44b  4c8bfe               REX.W movq r15,rsi
0x280b681903ce   44e  498bf2               REX.W movq rsi,r10
0x280b681903d1   451  4c8bdb               REX.W movq r11,rbx
0x280b681903d4   454  498bc7               REX.W movq rax,r15
0x280b681903d7   457  4c8bfe               REX.W movq r15,rsi
0x280b681903da   45a  e917000000           jmp 0x280b681903f6  <+0x476>
0x280b681903df   45f  498bc7               REX.W movq rax,r15
0x280b681903e2   462  4d8bfb               REX.W movq r15,r11
0x280b681903e5   465  4533db               xorl r11,r11
0x280b681903e8   468  e909000000           jmp 0x280b681903f6  <+0x476>
0x280b681903ed   46d  498bc7               REX.W movq rax,r15
0x280b681903f0   470  4d8bfb               REX.W movq r15,r11
0x280b681903f3   473  4533db               xorl r11,r11
0x280b681903f6   476  4c899d40ffffff       REX.W movq [rbp-0xc0],r11
0x280b681903fd   47d  83f82a               cmpl rax,0x2a
0x280b68190400   480  0f842e000000         jz 0x280b68190434  <+0x4b4>
0x280b68190406   486  8d474c               leal rax,[rdi+0x4c]
0x280b68190409   489  488b75f0             REX.W movq rsi,[rbp-0x10]
0x280b6819040d   48d  e8565cffff           call 0x280b68186068  (jump table)    ;; internal wasm call
0x280b68190412   492  83f800               cmpl rax,0x0
0x280b68190415   495  0f8ca4180000         jl 0x280b68191cbf  <+0x1d3f>
0x280b6819041b   49b  488b7de0             REX.W movq rdi,[rbp-0x20]
0x280b6819041f   49f  4c8b45d8             REX.W movq r8,[rbp-0x28]
0x280b68190423   4a3  468b5c074c           movl r11,[rdi+r8*1+0x4c]
0x280b68190428   4a8  4c8be0               REX.W movq r12,rax
0x280b6819042b   4ab  488b5da0             REX.W movq rbx,[rbp-0x60]
0x280b6819042f   4af  e9e3000000           jmp 0x280b68190517  <+0x597>
0x280b68190434   4b4  430fbe440701         movsxbl rax,[r15+r8*1+0x1]
0x280b6819043a   4ba  488b75f0             REX.W movq rsi,[rbp-0x10]
0x280b6819043e   4be  e8f45bffff           call 0x280b68186037  (jump table)    ;; internal wasm call
0x280b68190443   4c3  83f800               cmpl rax,0x0
0x280b68190446   4c6  0f845b000000         jz 0x280b681904a7  <+0x527>
0x280b6819044c   4cc  488b7de0             REX.W movq rdi,[rbp-0x20]
0x280b68190450   4d0  4c8b45d8             REX.W movq r8,[rbp-0x28]
0x280b68190454   4d4  468b5c074c           movl r11,[rdi+r8*1+0x4c]
0x280b68190459   4d9  470fb6640302         movzxbl r12,[r11+r8*1+0x2]
0x280b6819045f   4df  4183fc24             cmpl r12,0x24
0x280b68190463   4e3  0f8546000000         jnz 0x280b681904af  <+0x52f>
0x280b68190469   4e9  470fbe640301         movsxbl r12,[r11+r8*1+0x1]
0x280b6819046f   4ef  4c8b7dc0             REX.W movq r15,[rbp-0x40]
0x280b68190473   4f3  478da4a740ffffff     leal r12,[r15+r12*4-0xc0]
0x280b6819047b   4fb  43c704200a000000     movl [r8+r12*1],0xa
0x280b68190483   503  470fbe640301         movsxbl r12,[r11+r8*1+0x1]
0x280b68190489   509  488b45a8             REX.W movq rax,[rbp-0x58]
0x280b6819048d   50d  468da4e080feffff     leal r12,[rax+r12*8-0x180]
0x280b68190495   515  478b2420             movl r12,[r8+r12*1]
0x280b68190499   519  4183c303             addl r11,0x3
0x280b6819049d   51d  bb01000000           movl rbx,0x1
0x280b681904a2   522  e949000000           jmp 0x280b681904f0  <+0x570>
0x280b681904a7   527  488b7de0             REX.W movq rdi,[rbp-0x20]
0x280b681904ab   52b  4c8b45d8             REX.W movq r8,[rbp-0x28]
0x280b681904af   52f  488b5da0             REX.W movq rbx,[rbp-0x60]
0x280b681904b3   533  83fb00               cmpl rbx,0x0
0x280b681904b6   536  0f8576180000         jnz 0x280b68191d32  <+0x1db2>
0x280b681904bc   53c  837d9800             cmpl [rbp-0x68],0x0
0x280b681904c0   540  0f8507000000         jnz 0x280b681904cd  <+0x54d>
0x280b681904c6   546  33c0                 xorl rax,rax
0x280b681904c8   548  e915000000           jmp 0x280b681904e2  <+0x562>
0x280b681904cd   54d  448b5db0             movl r11,[rbp-0x50]
0x280b681904d1   551  478b2418             movl r12,[r8+r11*1]
0x280b681904d5   555  458d7c2404           leal r15,[r12+0x4]
0x280b681904da   55a  47893c18             movl [r8+r11*1],r15
0x280b681904de   55e  438b0420             movl rax,[r8+r12*1]
0x280b681904e2   562  468b5c074c           movl r11,[rdi+r8*1+0x4c]
0x280b681904e7   567  4183c301             addl r11,0x1
0x280b681904eb   56b  4c8be0               REX.W movq r12,rax
0x280b681904ee   56e  33db                 xorl rbx,rbx
0x280b681904f0   570  46895c074c           movl [rdi+r8*1+0x4c],r11
0x280b681904f5   575  4183fc00             cmpl r12,0x0
0x280b681904f9   579  0f8d18000000         jge 0x280b68190517  <+0x597>
0x280b681904ff   57f  4c8bbd40ffffff       REX.W movq r15,[rbp-0xc0]
0x280b68190506   586  4181cf00200000       orl r15,0x2000
0x280b6819050d   58d  41f7dc               negl r12
0x280b68190510   590  4c89bd40ffffff       REX.W movq [rbp-0xc0],r15
0x280b68190517   597  470fb63c18           movzxbl r15,[r8+r11*1]
0x280b6819051c   59c  4c89a560ffffff       REX.W movq [rbp-0xa0],r12
0x280b68190523   5a3  48895da0             REX.W movq [rbp-0x60],rbx
0x280b68190527   5a7  4183ff2e             cmpl r15,0x2e
0x280b6819052b   5ab  0f850f010000         jnz 0x280b68190640  <+0x6c0>
0x280b68190531   5b1  470fb67c0301         movzxbl r15,[r11+r8*1+0x1]
0x280b68190537   5b7  4183ff2a             cmpl r15,0x2a
0x280b6819053b   5bb  0f842d000000         jz 0x280b6819056e  <+0x5ee>
0x280b68190541   5c1  4183c301             addl r11,0x1
0x280b68190545   5c5  46895c074c           movl [rdi+r8*1+0x4c],r11
0x280b6819054a   5ca  8d474c               leal rax,[rdi+0x4c]
0x280b6819054d   5cd  488b75f0             REX.W movq rsi,[rbp-0x10]
0x280b68190551   5d1  e8125bffff           call 0x280b68186068  (jump table)    ;; internal wasm call
0x280b68190556   5d6  488b7de0             REX.W movq rdi,[rbp-0x20]
0x280b6819055a   5da  4c8b45d8             REX.W movq r8,[rbp-0x28]
0x280b6819055e   5de  468b5c074c           movl r11,[rdi+r8*1+0x4c]
0x280b68190563   5e3  41bc01000000         movl r12,0x1
0x280b68190569   5e9  e9da000000           jmp 0x280b68190648  <+0x6c8>
0x280b6819056e   5ee  430fbe440302         movsxbl rax,[r11+r8*1+0x2]
0x280b68190574   5f4  488b75f0             REX.W movq rsi,[rbp-0x10]
0x280b68190578   5f8  e8ba5affff           call 0x280b68186037  (jump table)    ;; internal wasm call
0x280b6819057d   5fd  83f800               cmpl rax,0x0
0x280b68190580   600  0f8456000000         jz 0x280b681905dc  <+0x65c>
0x280b68190586   606  488b7de0             REX.W movq rdi,[rbp-0x20]
0x280b6819058a   60a  4c8b45d8             REX.W movq r8,[rbp-0x28]
0x280b6819058e   60e  468b5c074c           movl r11,[rdi+r8*1+0x4c]
0x280b68190593   613  470fb6640303         movzxbl r12,[r11+r8*1+0x3]
0x280b68190599   619  4183fc24             cmpl r12,0x24
0x280b6819059d   61d  0f8541000000         jnz 0x280b681905e4  <+0x664>
0x280b681905a3   623  458d6304             leal r12,[r11+0x4]
0x280b681905a7   627  470fbe7c0302         movsxbl r15,[r11+r8*1+0x2]
0x280b681905ad   62d  488b45c0             REX.W movq rax,[rbp-0x40]
0x280b681905b1   631  468dbcb840ffffff     leal r15,[rax+r15*4-0xc0]
0x280b681905b9   639  43c704380a000000     movl [r8+r15*1],0xa
0x280b681905c1   641  470fbe5c0302         movsxbl r11,[r11+r8*1+0x2]
0x280b681905c7   647  4c8b7da8             REX.W movq r15,[rbp-0x58]
0x280b681905cb   64b  478d9cdf80feffff     leal r11,[r15+r11*8-0x180]
0x280b681905d3   653  478b1c18             movl r11,[r8+r11*1]
0x280b681905d7   657  e947000000           jmp 0x280b68190623  <+0x6a3>
0x280b681905dc   65c  488b7de0             REX.W movq rdi,[rbp-0x20]
0x280b681905e0   660  4c8b45d8             REX.W movq r8,[rbp-0x28]
0x280b681905e4   664  837da000             cmpl [rbp-0x60],0x0
0x280b681905e8   668  0f8544170000         jnz 0x280b68191d32  <+0x1db2>
0x280b681905ee   66e  837d9800             cmpl [rbp-0x68],0x0
0x280b681905f2   672  0f8507000000         jnz 0x280b681905ff  <+0x67f>
0x280b681905f8   678  33c0                 xorl rax,rax
0x280b681905fa   67a  e915000000           jmp 0x280b68190614  <+0x694>
0x280b681905ff   67f  448b5db0             movl r11,[rbp-0x50]
0x280b68190603   683  478b2418             movl r12,[r8+r11*1]
0x280b68190607   687  458d7c2404           leal r15,[r12+0x4]
0x280b6819060c   68c  47893c18             movl [r8+r11*1],r15
0x280b68190610   690  438b0420             movl rax,[r8+r12*1]
0x280b68190614   694  468b5c074c           movl r11,[rdi+r8*1+0x4c]
0x280b68190619   699  4183c302             addl r11,0x2
0x280b6819061d   69d  4d8be3               REX.W movq r12,r11
0x280b68190620   6a0  4c8bd8               REX.W movq r11,rax
0x280b68190623   6a3  468964074c           movl [rdi+r8*1+0x4c],r12
0x280b68190628   6a8  4d8bfb               REX.W movq r15,r11
0x280b6819062b   6ab  41f7d7               notl r15
0x280b6819062e   6ae  41c1ef1f             shrl r15, 31
0x280b68190632   6b2  498bc3               REX.W movq rax,r11
0x280b68190635   6b5  4d89e3               REX.W movq r11,r12
0x280b68190638   6b8  4d8be7               REX.W movq r12,r15
0x280b6819063b   6bb  e908000000           jmp 0x280b68190648  <+0x6c8>
0x280b68190640   6c0  b8ffffffff           movl rax,0xffffffff
0x280b68190645   6c5  4531e4               xorl r12,r12
0x280b68190648   6c8  48894590             REX.W movq [rbp-0x70],rax
0x280b6819064c   6cc  4c896588             REX.W movq [rbp-0x78],r12
0x280b68190650   6d0  4d8bfb               REX.W movq r15,r11
0x280b68190653   6d3  4533db               xorl r11,r11
0x280b68190656   6d6  488b5db8             REX.W movq rbx,[rbp-0x48]
0x280b6819065a   6da  e927000000           jmp 0x280b68190686  <+0x706>
0x280b6819065f   6df  660f1f840000000000   nop
0x280b68190668   6e8  660f1f840000000000   nop
0x280b68190671   6f1  660f1f840000000000   nop
0x280b6819067a   6fa  660f1f440000         nop
0x280b68190680   700  4d8bdf               REX.W movq r11,r15
0x280b68190683   703  4c8bfa               REX.W movq r15,rdx
0x280b68190686   706  483b23               REX.W cmpq rsp,[rbx]
0x280b68190689   709  0f860b180000         jna 0x280b68191e9a  <+0x1f1a>
0x280b6819068f   70f  430fbe1438           movsxbl rdx,[r8+r15*1]
0x280b68190694   714  83ea7b               subl rdx,0x7b
0x280b68190697   717  83fac6               cmpl rdx,0xc6
0x280b6819069a   71a  0f8287160000         jc 0x280b68191d27  <+0x1da7>
0x280b681906a0   720  418d5701             leal rdx,[r15+0x1]
0x280b681906a4   724  428954074c           movl [rdi+r8*1+0x4c],rdx
0x280b681906a9   729  416bcb3a             imull rcx,r11,0x3a
0x280b681906ad   72d  470fbe3c38           movsxbl r15,[r8+r15*1]
0x280b681906b2   732  4403f9               addl r15,rcx
0x280b681906b5   735  470fb6bc07df030000   movzxbl r15,[r15+r8*1+0x3df]
0x280b681906be   73e  418d4fff             leal rcx,[r15-0x1]
0x280b681906c2   742  83f908               cmpl rcx,0x8
0x280b681906c5   745  0f83e3000000         jnc 0x280b681907ae  <+0x82e>
0x280b681906cb   74b  450fbe1c10           movsxbl r11,[r8+rdx*1]
0x280b681906d0   750  4183eb7b             subl r11,0x7b
0x280b681906d4   754  4183fbc6             cmpl r11,0xc6
0x280b681906d8   758  0f8249160000         jc 0x280b68191d27  <+0x1da7>
0x280b681906de   75e  448d5a01             leal r11,[rdx+0x1]
0x280b681906e2   762  46895c074c           movl [rdi+r8*1+0x4c],r11
0x280b681906e7   767  416bcf3a             imull rcx,r15,0x3a
0x280b681906eb   76b  410fbe1410           movsxbl rdx,[r8+rdx*1]
0x280b681906f0   770  03d1                 addl rdx,rcx
0x280b681906f2   772  420fb69402df030000   movzxbl rdx,[rdx+r8*1+0x3df]
0x280b681906fb   77b  8d4aff               leal rcx,[rdx-0x1]
0x280b681906fe   77e  83f908               cmpl rcx,0x8
0x280b68190701   781  0f837e000000         jnc 0x280b68190785  <+0x805>
0x280b68190707   787  470fbe3c18           movsxbl r15,[r8+r11*1]
0x280b6819070c   78c  4183ef7b             subl r15,0x7b
0x280b68190710   790  4183ffc6             cmpl r15,0xc6
0x280b68190714   794  0f820d160000         jc 0x280b68191d27  <+0x1da7>
0x280b6819071a   79a  458d7b01             leal r15,[r11+0x1]
0x280b6819071e   79e  46897c074c           movl [rdi+r8*1+0x4c],r15
0x280b68190723   7a3  6bca3a               imull rcx,rdx,0x3a
0x280b68190726   7a6  470fbe1c18           movsxbl r11,[r8+r11*1]
0x280b6819072b   7ab  4403d9               addl r11,rcx
0x280b6819072e   7ae  470fb69c03df030000   movzxbl r11,[r11+r8*1+0x3df]
0x280b68190737   7b7  418d4bff             leal rcx,[r11-0x1]
0x280b6819073b   7bb  83f908               cmpl rcx,0x8
0x280b6819073e   7be  0f8358000000         jnc 0x280b6819079c  <+0x81c>
0x280b68190744   7c4  430fbe1438           movsxbl rdx,[r8+r15*1]
0x280b68190749   7c9  83ea7b               subl rdx,0x7b
0x280b6819074c   7cc  83fac6               cmpl rdx,0xc6
0x280b6819074f   7cf  0f82d2150000         jc 0x280b68191d27  <+0x1da7>
0x280b68190755   7d5  418d5701             leal rdx,[r15+0x1]
0x280b68190759   7d9  428954074c           movl [rdi+r8*1+0x4c],rdx
0x280b6819075e   7de  416bcb3a             imull rcx,r11,0x3a
0x280b68190762   7e2  470fbe3c38           movsxbl r15,[r8+r15*1]
0x280b68190767   7e7  4403f9               addl r15,rcx
0x280b6819076a   7ea  470fb6bc07df030000   movzxbl r15,[r15+r8*1+0x3df]
0x280b68190773   7f3  418d4fff             leal rcx,[r15-0x1]
0x280b68190777   7f7  83f908               cmpl rcx,0x8
0x280b6819077a   7fa  0f8200ffffff         jc 0x280b68190680  <+0x700>
0x280b68190780   800  e929000000           jmp 0x280b681907ae  <+0x82e>
0x280b68190785   805  4d8bd7               REX.W movq r10,r15
0x280b68190788   808  4d8bfb               REX.W movq r15,r11
0x280b6819078b   80b  4d8bda               REX.W movq r11,r10
0x280b6819078e   80e  4c8bd2               REX.W movq r10,rdx
0x280b68190791   811  498bd7               REX.W movq rdx,r15
0x280b68190794   814  4d8bfa               REX.W movq r15,r10
0x280b68190797   817  e912000000           jmp 0x280b681907ae  <+0x82e>
0x280b6819079c   81c  4d8bd3               REX.W movq r10,r11
0x280b6819079f   81f  4d8bdf               REX.W movq r11,r15
0x280b681907a2   822  4d8bfa               REX.W movq r15,r10
0x280b681907a5   825  4c8bd2               REX.W movq r10,rdx
0x280b681907a8   828  498bd3               REX.W movq rdx,r11
0x280b681907ab   82b  4d8bda               REX.W movq r11,r10
0x280b681907ae   82e  4c899d70ffffff       REX.W movq [rbp-0x90],r11
0x280b681907b5   835  4183ff1b             cmpl r15,0x1b
0x280b681907b9   839  0f850f000000         jnz 0x280b681907ce  <+0x84e>
0x280b681907bf   83f  837d8000             cmpl [rbp-0x80],0x0
0x280b681907c3   843  0f8d03150000         jge 0x280b68191ccc  <+0x1d4c>
0x280b681907c9   849  e982000000           jmp 0x280b68190850  <+0x8d0>
0x280b681907ce   84e  4183ff00             cmpl r15,0x0
0x280b681907d2   852  0f8444150000         jz 0x280b68191d1c  <+0x1d9c>
0x280b681907d8   858  837d8000             cmpl [rbp-0x80],0x0
0x280b681907dc   85c  0f8d49000000         jge 0x280b6819082b  <+0x8ab>
0x280b681907e2   862  837d9800             cmpl [rbp-0x68],0x0
0x280b681907e6   866  0f84eb140000         jz 0x280b68191cd7  <+0x1d57>
0x280b681907ec   86c  8d5740               leal rdx,[rdi+0x40]
0x280b681907ef   86f  488b75f0             REX.W movq rsi,[rbp-0x10]
0x280b681907f3   873  488bc2               REX.W movq rax,rdx
0x280b681907f6   876  498bd7               REX.W movq rdx,r15
0x280b681907f9   879  488b4db0             REX.W movq rcx,[rbp-0x50]
0x280b681907fd   87d  488b5d18             REX.W movq rbx,[rbp+0x18]
0x280b68190801   881  e86758ffff           call 0x280b6818606d  (jump table)    ;; internal wasm call
0x280b68190806   886  488b7de0             REX.W movq rdi,[rbp-0x20]
0x280b6819080a   88a  4c8b45d8             REX.W movq r8,[rbp-0x28]
0x280b6819080e   88e  428b54074c           movl rdx,[rdi+r8*1+0x4c]
0x280b68190813   893  4c8b9d70ffffff       REX.W movq r11,[rbp-0x90]
0x280b6819081a   89a  488b5db8             REX.W movq rbx,[rbp-0x48]
0x280b6819081e   89e  488b4590             REX.W movq rax,[rbp-0x70]
0x280b68190822   8a2  4c8b6588             REX.W movq r12,[rbp-0x78]
0x280b68190826   8a6  e92f000000           jmp 0x280b6819085a  <+0x8da>
0x280b6819082b   8ab  488b4dc0             REX.W movq rcx,[rbp-0x40]
0x280b6819082f   8af  488b7580             REX.W movq rsi,[rbp-0x80]
0x280b68190833   8b3  448d0cb1             leal r9,[rcx+rsi*4]
0x280b68190837   8b7  4c8b65a8             REX.W movq r12,[rbp-0x58]
0x280b6819083b   8bb  418d34f4             leal rsi,[r12+rsi*8]
0x280b6819083f   8bf  47893c08             movl [r8+r9*1],r15
0x280b68190843   8c3  4d8b3c30             REX.W movq r15,[r8+rsi*1]
0x280b68190847   8c7  4e897c0740           REX.W movq [rdi+r8*1+0x40],r15
0x280b6819084c   8cc  4c8b6588             REX.W movq r12,[rbp-0x78]
0x280b68190850   8d0  837d9800             cmpl [rbp-0x68],0x0
0x280b68190854   8d4  0f840c120000         jz 0x280b68191a66  <+0x1ae6>
0x280b6819085a   8da  448d7aff             leal r15,[rdx-0x1]
0x280b6819085e   8de  470fbe3c38           movsxbl r15,[r8+r15*1]
0x280b68190863   8e3  498bd7               REX.W movq rdx,r15
0x280b68190866   8e6  83e20f               andl rdx,0xf
0x280b68190869   8e9  498bcf               REX.W movq rcx,r15
0x280b6819086c   8ec  83e1df               andl rcx,0xdf
0x280b6819086f   8ef  498bf7               REX.W movq rsi,r15
0x280b68190872   8f2  80fa03               cmpb dl,0x3
0x280b68190875   8f5  0f44f1               cmovzl rsi,rcx
0x280b68190878   8f8  4183fb00             cmpl r11,0x0
0x280b6819087c   8fc  440f45fe             cmovnzl r15,rsi
0x280b68190880   900  418d57a8             leal rdx,[r15-0x58]
0x280b68190884   904  4c89bd78ffffff       REX.W movq [rbp-0x88],r15
0x280b6819088b   90b  83fa21               cmpl rdx,0x21
0x280b6819088e   90e  0f830c000000         jnc 0x280b681908a0  <+0x920>
0x280b68190894   914  4c8d15d5190000       REX.W leaq r10,[rip+0x19d5]
0x280b6819089b   91b  41ff24d2             jmp [r10+rdx*8]
0x280b6819089f   91f  90                   nop
0x280b681908a0   920  458d5fbf             leal r11,[r15-0x41]
0x280b681908a4   924  4183fb07             cmpl r11,0x7
0x280b681908a8   928  0f8312000000         jnc 0x280b681908c0  <+0x940>
0x280b681908ae   92e  4c8d1583190000       REX.W leaq r10,[rip+0x1983]
0x280b681908b5   935  43ff24da             jmp [r10+r11*8]
0x280b681908b9   939  0f1f8000000000       nop
0x280b681908c0   940  4183ff53             cmpl r15,0x53
0x280b681908c4   944  0f843f000000         jz 0x280b68190909  <+0x989>
0x280b681908ca   94a  4c8b9d40ffffff       REX.W movq r11,[rbp-0xc0]
0x280b681908d1   951  4181e3fffffeff       andl r11,0xfffeffff
0x280b681908d8   958  4c8ba540ffffff       REX.W movq r12,[rbp-0xc0]
0x280b681908df   95f  4d89e7               REX.W movq r15,r12
0x280b681908e2   962  6641f7c70020         testw r15,0x2000
0x280b681908e8   968  450f45e3             cmovnzl r12,r11
0x280b681908ec   96c  41bb00040000         movl r11,0x400
0x280b681908f2   972  4c8bbd58ffffff       REX.W movq r15,[rbp-0xa8]
0x280b681908f9   979  33d2                 xorl rdx,rdx
0x280b681908fb   97b  4d8bd0               REX.W movq r10,r8
0x280b681908fe   97e  4d89e0               REX.W movq r8,r12
0x280b68190901   981  4d8be2               REX.W movq r12,r10
0x280b68190904   984  e9e50f0000           jmp 0x280b681918ee  <+0x196e>
0x280b68190909   989  83f800               cmpl rax,0x0
0x280b6819090c   98c  0f8547000000         jnz 0x280b68190959  <+0x9d9>
0x280b68190912   992  4c8bbd40ffffff       REX.W movq r15,[rbp-0xc0]
0x280b68190919   999  4181e7fffffeff       andl r15,0xfffeffff
0x280b68190920   9a0  4c8b9d40ffffff       REX.W movq r11,[rbp-0xc0]
0x280b68190927   9a7  66f78540ffffff0020   testw [rbp-0xc0],0x2000
0x280b68190930   9b0  450f45df             cmovnzl r11,r15
0x280b68190934   9b4  ba20000000           movl rdx,0x20
0x280b68190939   9b9  488b75f0             REX.W movq rsi,[rbp-0x10]
0x280b6819093d   9bd  488b4598             REX.W movq rax,[rbp-0x68]
0x280b68190941   9c1  488b8d60ffffff       REX.W movq rcx,[rbp-0xa0]
0x280b68190948   9c8  33db                 xorl rbx,rbx
0x280b6819094a   9ca  4d8bcb               REX.W movq r9,r11
0x280b6819094d   9cd  e83357ffff           call 0x280b68186085  (jump table)    ;; internal wasm call
0x280b68190952   9d2  33db                 xorl rbx,rbx
0x280b68190954   9d4  e94b030000           jmp 0x280b68190ca4  <+0xd24>
0x280b68190959   9d9  468b5c0740           movl r11,[rdi+r8*1+0x40]
0x280b6819095e   9de  e96e000000           jmp 0x280b681909d1  <+0xa51>
0x280b68190963   9e3  660f1f840000000000   nop
0x280b6819096c   9ec  0f1f4000             nop
0x280b68190970   9f0  448d5f38             leal r11,[rdi+0x38]
0x280b68190974   9f4  4c8ba540ffffff       REX.W movq r12,[rbp-0xc0]
0x280b6819097b   9fb  4181e4fffffeff       andl r12,0xfffeffff
0x280b68190982   a02  4c8bbd40ffffff       REX.W movq r15,[rbp-0xc0]
0x280b68190989   a09  66f78540ffffff0020   testw [rbp-0xc0],0x2000
0x280b68190992   a12  450f45fc             cmovnzl r15,r12
0x280b68190996   a16  41bc00040000         movl r12,0x400
0x280b6819099c   a1c  33c9                 xorl rcx,rcx
0x280b6819099e   a1e  488b9558ffffff       REX.W movq rdx,[rbp-0xa8]
0x280b681909a5   a25  e95d0f0000           jmp 0x280b68191907  <+0x1987>
0x280b681909aa   a2a  660f1f440000         nop
0x280b681909b0   a30  42c744070c00000000   movl [rdi+r8*1+0xc],0x0
0x280b681909b9   a39  4e8b5c0740           REX.W movq r11,[rdi+r8*1+0x40]
0x280b681909be   a3e  46895c0708           movl [rdi+r8*1+0x8],r11
0x280b681909c3   a43  448d5f08             leal r11,[rdi+0x8]
0x280b681909c7   a47  46895c0740           movl [rdi+r8*1+0x40],r11
0x280b681909cc   a4c  b8ffffffff           movl rax,0xffffffff
0x280b681909d1   a51  448d6704             leal r12,[rdi+0x4]
0x280b681909d5   a55  48894590             REX.W movq [rbp-0x70],rax
0x280b681909d9   a59  4c896588             REX.W movq [rbp-0x78],r12
0x280b681909dd   a5d  4d8bfb               REX.W movq r15,r11
0x280b681909e0   a60  4533db               xorl r11,r11
0x280b681909e3   a63  e930000000           jmp 0x280b68190a18  <+0xa98>
0x280b681909e8   a68  660f1f840000000000   nop
0x280b681909f1   a71  660f1f840000000000   nop
0x280b681909fa   a7a  660f1f440000         nop
0x280b68190a00   a80  488b7d80             REX.W movq rdi,[rbp-0x80]
0x280b68190a04   a84  448d7f04             leal r15,[rdi+0x4]
0x280b68190a08   a88  4c8b6588             REX.W movq r12,[rbp-0x78]
0x280b68190a0c   a8c  488b5db8             REX.W movq rbx,[rbp-0x48]
0x280b68190a10   a90  488b7de0             REX.W movq rdi,[rbp-0x20]
0x280b68190a14   a94  4c8b45d8             REX.W movq r8,[rbp-0x28]
0x280b68190a18   a98  483b23               REX.W cmpq rsp,[rbx]
0x280b68190a1b   a9b  0f86b3140000         jna 0x280b68191ed4  <+0x1f54>
0x280b68190a21   aa1  438b1438             movl rdx,[r8+r15*1]
0x280b68190a25   aa5  83fa00               cmpl rdx,0x0
0x280b68190a28   aa8  0f8440010000         jz 0x280b68190b6e  <+0xbee>
0x280b68190a2e   aae  4c899d78ffffff       REX.W movq [rbp-0x88],r11
0x280b68190a35   ab5  4c897d80             REX.W movq [rbp-0x80],r15
0x280b68190a39   ab9  488b75f0             REX.W movq rsi,[rbp-0x10]
0x280b68190a3d   abd  4c89e0               REX.W movq rax,r12
0x280b68190a40   ac0  e86856ffff           call 0x280b681860ad  (jump table)    ;; internal wasm call
0x280b68190a45   ac5  83f800               cmpl rax,0x0
0x280b68190a48   ac8  400f9cc7             setll dil
0x280b68190a4c   acc  400fb6ff             movzxbl rdi,rdi
0x280b68190a50   ad0  83f800               cmpl rax,0x0
0x280b68190a53   ad3  0f8c05010000         jl 0x280b68190b5e  <+0xbde>
0x280b68190a59   ad9  4c8b4590             REX.W movq r8,[rbp-0x70]
0x280b68190a5d   add  442b8578ffffff       subl r8,[rbp-0x88]
0x280b68190a64   ae4  443bc0               cmpl r8,rax
0x280b68190a67   ae7  0f82f1000000         jc 0x280b68190b5e  <+0xbde>
0x280b68190a6d   aed  4c8b9d78ffffff       REX.W movq r11,[rbp-0x88]
0x280b68190a74   af4  4403d8               addl r11,rax
0x280b68190a77   af7  4c899d78ffffff       REX.W movq [rbp-0x88],r11
0x280b68190a7e   afe  443b5d90             cmpl r11,[rbp-0x70]
0x280b68190a82   b02  0f83e6000000         jnc 0x280b68190b6e  <+0xbee>
0x280b68190a88   b08  488b7d80             REX.W movq rdi,[rbp-0x80]
0x280b68190a8c   b0c  83c704               addl rdi,0x4
0x280b68190a8f   b0f  4c8b45d8             REX.W movq r8,[rbp-0x28]
0x280b68190a93   b13  418b1438             movl rdx,[r8+rdi*1]
0x280b68190a97   b17  48897d80             REX.W movq [rbp-0x80],rdi
0x280b68190a9b   b1b  83fa00               cmpl rdx,0x0
0x280b68190a9e   b1e  0f84ca000000         jz 0x280b68190b6e  <+0xbee>
0x280b68190aa4   b24  488b75f0             REX.W movq rsi,[rbp-0x10]
0x280b68190aa8   b28  488b4588             REX.W movq rax,[rbp-0x78]
0x280b68190aac   b2c  e8fc55ffff           call 0x280b681860ad  (jump table)    ;; internal wasm call
0x280b68190ab1   b31  83f800               cmpl rax,0x0
0x280b68190ab4   b34  400f9cc7             setll dil
0x280b68190ab8   b38  400fb6ff             movzxbl rdi,rdi
0x280b68190abc   b3c  83f800               cmpl rax,0x0
0x280b68190abf   b3f  0f8c99000000         jl 0x280b68190b5e  <+0xbde>
0x280b68190ac5   b45  4c8b4590             REX.W movq r8,[rbp-0x70]
0x280b68190ac9   b49  442b8578ffffff       subl r8,[rbp-0x88]
0x280b68190ad0   b50  443bc0               cmpl r8,rax
0x280b68190ad3   b53  0f8285000000         jc 0x280b68190b5e  <+0xbde>
0x280b68190ad9   b59  4c8b9d78ffffff       REX.W movq r11,[rbp-0x88]
0x280b68190ae0   b60  4403d8               addl r11,rax
0x280b68190ae3   b63  4c899d78ffffff       REX.W movq [rbp-0x88],r11
0x280b68190aea   b6a  443b5d90             cmpl r11,[rbp-0x70]
0x280b68190aee   b6e  0f837a000000         jnc 0x280b68190b6e  <+0xbee>
0x280b68190af4   b74  488b7d80             REX.W movq rdi,[rbp-0x80]
0x280b68190af8   b78  83c704               addl rdi,0x4
0x280b68190afb   b7b  4c8b45d8             REX.W movq r8,[rbp-0x28]
0x280b68190aff   b7f  418b1438             movl rdx,[r8+rdi*1]
0x280b68190b03   b83  48897d80             REX.W movq [rbp-0x80],rdi
0x280b68190b07   b87  83fa00               cmpl rdx,0x0
0x280b68190b0a   b8a  0f845e000000         jz 0x280b68190b6e  <+0xbee>
0x280b68190b10   b90  488b75f0             REX.W movq rsi,[rbp-0x10]
0x280b68190b14   b94  488b4588             REX.W movq rax,[rbp-0x78]
0x280b68190b18   b98  e89055ffff           call 0x280b681860ad  (jump table)    ;; internal wasm call
0x280b68190b1d   b9d  83f800               cmpl rax,0x0
0x280b68190b20   ba0  400f9cc7             setll dil
0x280b68190b24   ba4  400fb6ff             movzxbl rdi,rdi
0x280b68190b28   ba8  83f800               cmpl rax,0x0
0x280b68190b2b   bab  0f8c2d000000         jl 0x280b68190b5e  <+0xbde>
0x280b68190b31   bb1  4c8b4590             REX.W movq r8,[rbp-0x70]
0x280b68190b35   bb5  442b8578ffffff       subl r8,[rbp-0x88]
0x280b68190b3c   bbc  443bc0               cmpl r8,rax
0x280b68190b3f   bbf  0f8219000000         jc 0x280b68190b5e  <+0xbde>
0x280b68190b45   bc5  4c8b9d78ffffff       REX.W movq r11,[rbp-0x88]
0x280b68190b4c   bcc  4403d8               addl r11,rax
0x280b68190b4f   bcf  443b5d90             cmpl r11,[rbp-0x70]
0x280b68190b53   bd3  0f82a7feffff         jc 0x280b68190a00  <+0xa80>
0x280b68190b59   bd9  e910000000           jmp 0x280b68190b6e  <+0xbee>
0x280b68190b5e   bde  83ff00               cmpl rdi,0x0
0x280b68190b61   be1  0f8502120000         jnz 0x280b68191d69  <+0x1de9>
0x280b68190b67   be7  4c8b9d78ffffff       REX.W movq r11,[rbp-0x88]
0x280b68190b6e   bee  4c899d78ffffff       REX.W movq [rbp-0x88],r11
0x280b68190b75   bf5  4183fb00             cmpl r11,0x0
0x280b68190b79   bf9  0f8c63110000         jl 0x280b68191ce2  <+0x1d62>
0x280b68190b7f   bff  488bbd40ffffff       REX.W movq rdi,[rbp-0xc0]
0x280b68190b86   c06  81e7fffffeff         andl rdi,0xfffeffff
0x280b68190b8c   c0c  4c8b8d40ffffff       REX.W movq r9,[rbp-0xc0]
0x280b68190b93   c13  66f78540ffffff0020   testw [rbp-0xc0],0x2000
0x280b68190b9c   c1c  440f45cf             cmovnzl r9,rdi
0x280b68190ba0   c20  ba20000000           movl rdx,0x20
0x280b68190ba5   c25  488b75f0             REX.W movq rsi,[rbp-0x10]
0x280b68190ba9   c29  488b4598             REX.W movq rax,[rbp-0x68]
0x280b68190bad   c2d  488b8d60ffffff       REX.W movq rcx,[rbp-0xa0]
0x280b68190bb4   c34  498bdb               REX.W movq rbx,r11
0x280b68190bb7   c37  e8c954ffff           call 0x280b68186085  (jump table)    ;; internal wasm call
0x280b68190bbc   c3c  83bd78ffffff00       cmpl [rbp-0x88],0x0
0x280b68190bc3   c43  0f84d9000000         jz 0x280b68190ca2  <+0xd22>
0x280b68190bc9   c49  488b7de0             REX.W movq rdi,[rbp-0x20]
0x280b68190bcd   c4d  4c8b45d8             REX.W movq r8,[rbp-0x28]
0x280b68190bd1   c51  468b5c0740           movl r11,[rdi+r8*1+0x40]
0x280b68190bd6   c56  4531e4               xorl r12,r12
0x280b68190bd9   c59  e932000000           jmp 0x280b68190c10  <+0xc90>
0x280b68190bde   c5e  660f1f840000000000   nop
0x280b68190be7   c67  660f1f840000000000   nop
0x280b68190bf0   c70  660f1f840000000000   nop
0x280b68190bf9   c79  0f1f8000000000       nop
0x280b68190c00   c80  4c8b5d90             REX.W movq r11,[rbp-0x70]
0x280b68190c04   c84  4183c304             addl r11,0x4
0x280b68190c08   c88  4c8b45d8             REX.W movq r8,[rbp-0x28]
0x280b68190c0c   c8c  488b7de0             REX.W movq rdi,[rbp-0x20]
0x280b68190c10   c90  4c8b7db8             REX.W movq r15,[rbp-0x48]
0x280b68190c14   c94  488b8578ffffff       REX.W movq rax,[rbp-0x88]
0x280b68190c1b   c9b  493b27               REX.W cmpq rsp,[r15]
0x280b68190c1e   c9e  0f86e0120000         jna 0x280b68191f04  <+0x1f84>
0x280b68190c24   ca4  438b1418             movl rdx,[r8+r11*1]
0x280b68190c28   ca8  83fa00               cmpl rdx,0x0
0x280b68190c2b   cab  0f8469000000         jz 0x280b68190c9a  <+0xd1a>
0x280b68190c31   cb1  4c895d90             REX.W movq [rbp-0x70],r11
0x280b68190c35   cb5  4c896580             REX.W movq [rbp-0x80],r12
0x280b68190c39   cb9  488b75f0             REX.W movq rsi,[rbp-0x10]
0x280b68190c3d   cbd  488b4588             REX.W movq rax,[rbp-0x78]
0x280b68190c41   cc1  e86754ffff           call 0x280b681860ad  (jump table)    ;; internal wasm call
0x280b68190c46   cc6  4c8b6580             REX.W movq r12,[rbp-0x80]
0x280b68190c4a   cca  4403e0               addl r12,rax
0x280b68190c4d   ccd  4c896580             REX.W movq [rbp-0x80],r12
0x280b68190c51   cd1  4c8b9d78ffffff       REX.W movq r11,[rbp-0x88]
0x280b68190c58   cd8  4539e3               cmpl r11,r12
0x280b68190c5b   cdb  0f8231000000         jc 0x280b68190c92  <+0xd12>
0x280b68190c61   ce1  488b75f0             REX.W movq rsi,[rbp-0x10]
0x280b68190c65   ce5  488bc8               REX.W movq rcx,rax
0x280b68190c68   ce8  488b4598             REX.W movq rax,[rbp-0x68]
0x280b68190c6c   cec  488b5588             REX.W movq rdx,[rbp-0x78]
0x280b68190c70   cf0  e8ee53ffff           call 0x280b68186063  (jump table)    ;; internal wasm call
0x280b68190c75   cf5  4c8b6580             REX.W movq r12,[rbp-0x80]
0x280b68190c79   cf9  443ba578ffffff       cmpl r12,[rbp-0x88]
0x280b68190c80   d00  0f827affffff         jc 0x280b68190c00  <+0xc80>
0x280b68190c86   d06  488b9d78ffffff       REX.W movq rbx,[rbp-0x88]
0x280b68190c8d   d0d  e912000000           jmp 0x280b68190ca4  <+0xd24>
0x280b68190c92   d12  498bdb               REX.W movq rbx,r11
0x280b68190c95   d15  e90a000000           jmp 0x280b68190ca4  <+0xd24>
0x280b68190c9a   d1a  488bd8               REX.W movq rbx,rax
0x280b68190c9d   d1d  e902000000           jmp 0x280b68190ca4  <+0xd24>
0x280b68190ca2   d22  33db                 xorl rbx,rbx
0x280b68190ca4   d24  488bbd40ffffff       REX.W movq rdi,[rbp-0xc0]
0x280b68190cab   d2b  81e7fffffeff         andl rdi,0xfffeffff
0x280b68190cb1   d31  4c8b8540ffffff       REX.W movq r8,[rbp-0xc0]
0x280b68190cb8   d38  66f78540ffffff0020   testw [rbp-0xc0],0x2000
0x280b68190cc1   d41  440f45c7             cmovnzl r8,rdi
0x280b68190cc5   d45  488b55d0             REX.W movq rdx,[rbp-0x30]
0x280b68190cc9   d49  4c8b5dc8             REX.W movq r11,[rbp-0x38]
0x280b68190ccd   d4d  4403da               addl r11,rdx
0x280b68190cd0   d50  488bfb               REX.W movq rdi,rbx
0x280b68190cd3   d53  3b9d60ffffff         cmpl rbx,[rbp-0xa0]
0x280b68190cd9   d59  0f4cbd60ffffff       cmovll rdi,[rbp-0xa0]
0x280b68190ce0   d60  4181f000200000       xorl r8,0x2000
0x280b68190ce7   d67  4c895dc8             REX.W movq [rbp-0x38],r11
0x280b68190ceb   d6b  48897dd0             REX.W movq [rbp-0x30],rdi
0x280b68190cef   d6f  ba20000000           movl rdx,0x20
0x280b68190cf4   d74  488b75f0             REX.W movq rsi,[rbp-0x10]
0x280b68190cf8   d78  488b4598             REX.W movq rax,[rbp-0x68]
0x280b68190cfc   d7c  488b8d60ffffff       REX.W movq rcx,[rbp-0xa0]
0x280b68190d03   d83  4d8bc8               REX.W movq r9,r8
0x280b68190d06   d86  e87a53ffff           call 0x280b68186085  (jump table)    ;; internal wasm call
0x280b68190d0b   d8b  488b4598             REX.W movq rax,[rbp-0x68]
0x280b68190d0f   d8f  4c8b5dc8             REX.W movq r11,[rbp-0x38]
0x280b68190d13   d93  488b55d0             REX.W movq rdx,[rbp-0x30]
0x280b68190d17   d97  4c8b65e0             REX.W movq r12,[rbp-0x20]
0x280b68190d1b   d9b  4c8b45d8             REX.W movq r8,[rbp-0x28]
0x280b68190d1f   d9f  488b75f0             REX.W movq rsi,[rbp-0x10]
0x280b68190d23   da3  488b7db8             REX.W movq rdi,[rbp-0x48]
0x280b68190d27   da7  e9def2ffff           jmp 0x280b6819000a  <+0x8a>
0x280b68190d2c   dac  0f1f4000             nop
0x280b68190d30   db0  448d5f38             leal r11,[rdi+0x38]
0x280b68190d34   db4  4c8ba540ffffff       REX.W movq r12,[rbp-0xc0]
0x280b68190d3b   dbb  4181e4fffffeff       andl r12,0xfffeffff
0x280b68190d42   dc2  4c8bbd40ffffff       REX.W movq r15,[rbp-0xc0]
0x280b68190d49   dc9  66f78540ffffff0020   testw [rbp-0xc0],0x2000
0x280b68190d52   dd2  450f45fc             cmovnzl r15,r12
0x280b68190d56   dd6  41bc00040000         movl r12,0x400
0x280b68190d5c   ddc  33c9                 xorl rcx,rcx
0x280b68190d5e   dde  488b9558ffffff       REX.W movq rdx,[rbp-0xa8]
0x280b68190d65   de5  e99d0b0000           jmp 0x280b68191907  <+0x1987>
0x280b68190d6a   dea  660f1f440000         nop
0x280b68190d70   df0  4c8b9d40ffffff       REX.W movq r11,[rbp-0xc0]
0x280b68190d77   df7  4181e3fffffeff       andl r11,0xfffeffff
0x280b68190d7e   dfe  488b9540ffffff       REX.W movq rdx,[rbp-0xc0]
0x280b68190d85   e05  66f78540ffffff0020   testw [rbp-0xc0],0x2000
0x280b68190d8e   e0e  410f45d3             cmovnzl rdx,r11
0x280b68190d92   e12  e93b0a0000           jmp 0x280b681917d2  <+0x1852>
0x280b68190d97   e17  660f1f840000000000   nop
0x280b68190da0   e20  448d5f38             leal r11,[rdi+0x38]
0x280b68190da4   e24  4c8ba540ffffff       REX.W movq r12,[rbp-0xc0]
0x280b68190dab   e2b  4181e4fffffeff       andl r12,0xfffeffff
0x280b68190db2   e32  4c8bbd40ffffff       REX.W movq r15,[rbp-0xc0]
0x280b68190db9   e39  66f78540ffffff0020   testw [rbp-0xc0],0x2000
0x280b68190dc2   e42  450f45fc             cmovnzl r15,r12
0x280b68190dc6   e46  41bc00040000         movl r12,0x400
0x280b68190dcc   e4c  33c9                 xorl rcx,rcx
0x280b68190dce   e4e  488b9558ffffff       REX.W movq rdx,[rbp-0xa8]
0x280b68190dd5   e55  e92d0b0000           jmp 0x280b68191907  <+0x1987>
0x280b68190dda   e5a  660f1f440000         nop
0x280b68190de0   e60  448d5f38             leal r11,[rdi+0x38]
0x280b68190de4   e64  4c8ba540ffffff       REX.W movq r12,[rbp-0xc0]
0x280b68190deb   e6b  4181e4fffffeff       andl r12,0xfffeffff
0x280b68190df2   e72  4c8bbd40ffffff       REX.W movq r15,[rbp-0xc0]
0x280b68190df9   e79  66f78540ffffff0020   testw [rbp-0xc0],0x2000
0x280b68190e02   e82  450f45fc             cmovnzl r15,r12
0x280b68190e06   e86  41bc00040000         movl r12,0x400
0x280b68190e0c   e8c  33c9                 xorl rcx,rcx
0x280b68190e0e   e8e  488b9558ffffff       REX.W movq rdx,[rbp-0xa8]
0x280b68190e15   e95  e9ed0a0000           jmp 0x280b68191907  <+0x1987>
0x280b68190e1a   e9a  660f1f440000         nop
0x280b68190e20   ea0  448d5f38             leal r11,[rdi+0x38]
0x280b68190e24   ea4  4c8ba540ffffff       REX.W movq r12,[rbp-0xc0]
0x280b68190e2b   eab  4181e4fffffeff       andl r12,0xfffeffff
0x280b68190e32   eb2  4c8bbd40ffffff       REX.W movq r15,[rbp-0xc0]
0x280b68190e39   eb9  66f78540ffffff0020   testw [rbp-0xc0],0x2000
0x280b68190e42   ec2  450f45fc             cmovnzl r15,r12
0x280b68190e46   ec6  41bc00040000         movl r12,0x400
0x280b68190e4c   ecc  33c9                 xorl rcx,rcx
0x280b68190e4e   ece  488b9558ffffff       REX.W movq rdx,[rbp-0xa8]
0x280b68190e55   ed5  e9ad0a0000           jmp 0x280b68191907  <+0x1987>
0x280b68190e5a   eda  660f1f440000         nop
0x280b68190e60   ee0  448d5f38             leal r11,[rdi+0x38]
0x280b68190e64   ee4  4c8ba540ffffff       REX.W movq r12,[rbp-0xc0]
0x280b68190e6b   eeb  4181e4fffffeff       andl r12,0xfffeffff
0x280b68190e72   ef2  4c8bbd40ffffff       REX.W movq r15,[rbp-0xc0]
0x280b68190e79   ef9  66f78540ffffff0020   testw [rbp-0xc0],0x2000
0x280b68190e82   f02  450f45fc             cmovnzl r15,r12
0x280b68190e86   f06  41bc00040000         movl r12,0x400
0x280b68190e8c   f0c  33c9                 xorl rcx,rcx
0x280b68190e8e   f0e  488b9558ffffff       REX.W movq rdx,[rbp-0xa8]
0x280b68190e95   f15  e96d0a0000           jmp 0x280b68191907  <+0x1987>
0x280b68190e9a   f1a  660f1f440000         nop
0x280b68190ea0   f20  448d5f38             leal r11,[rdi+0x38]
0x280b68190ea4   f24  4c8ba540ffffff       REX.W movq r12,[rbp-0xc0]
0x280b68190eab   f2b  4181e4fffffeff       andl r12,0xfffeffff
0x280b68190eb2   f32  4c8bbd40ffffff       REX.W movq r15,[rbp-0xc0]
0x280b68190eb9   f39  66f78540ffffff0020   testw [rbp-0xc0],0x2000
0x280b68190ec2   f42  450f45fc             cmovnzl r15,r12
0x280b68190ec6   f46  41bc00040000         movl r12,0x400
0x280b68190ecc   f4c  33c9                 xorl rcx,rcx
0x280b68190ece   f4e  488b9558ffffff       REX.W movq rdx,[rbp-0xa8]
0x280b68190ed5   f55  e92d0a0000           jmp 0x280b68191907  <+0x1987>
0x280b68190eda   f5a  660f1f440000         nop
0x280b68190ee0   f60  448d5f38             leal r11,[rdi+0x38]
0x280b68190ee4   f64  4c8ba540ffffff       REX.W movq r12,[rbp-0xc0]
0x280b68190eeb   f6b  4181e4fffffeff       andl r12,0xfffeffff
0x280b68190ef2   f72  4c8bbd40ffffff       REX.W movq r15,[rbp-0xc0]
0x280b68190ef9   f79  66f78540ffffff0020   testw [rbp-0xc0],0x2000
0x280b68190f02   f82  450f45fc             cmovnzl r15,r12
0x280b68190f06   f86  41bc00040000         movl r12,0x400
0x280b68190f0c   f8c  33c9                 xorl rcx,rcx
0x280b68190f0e   f8e  488b9558ffffff       REX.W movq rdx,[rbp-0xa8]
0x280b68190f15   f95  e9ed090000           jmp 0x280b68191907  <+0x1987>
0x280b68190f1a   f9a  660f1f440000         nop
0x280b68190f20   fa0  448d5f38             leal r11,[rdi+0x38]
0x280b68190f24   fa4  4c8ba540ffffff       REX.W movq r12,[rbp-0xc0]
0x280b68190f2b   fab  4181e4fffffeff       andl r12,0xfffeffff
0x280b68190f32   fb2  4c8bbd40ffffff       REX.W movq r15,[rbp-0xc0]
0x280b68190f39   fb9  66f78540ffffff0020   testw [rbp-0xc0],0x2000
0x280b68190f42   fc2  450f45fc             cmovnzl r15,r12
0x280b68190f46   fc6  41bc00040000         movl r12,0x400
0x280b68190f4c   fcc  33c9                 xorl rcx,rcx
0x280b68190f4e   fce  488b9558ffffff       REX.W movq rdx,[rbp-0xa8]
0x280b68190f55   fd5  e9ad090000           jmp 0x280b68191907  <+0x1987>
0x280b68190f5a   fda  660f1f440000         nop
0x280b68190f60   fe0  448d5f38             leal r11,[rdi+0x38]
0x280b68190f64   fe4  4c8ba540ffffff       REX.W movq r12,[rbp-0xc0]
0x280b68190f6b   feb  4181e4fffffeff       andl r12,0xfffeffff
0x280b68190f72   ff2  4c8bbd40ffffff       REX.W movq r15,[rbp-0xc0]
0x280b68190f79   ff9  66f78540ffffff0020   testw [rbp-0xc0],0x2000
0x280b68190f82  1002  450f45fc             cmovnzl r15,r12
0x280b68190f86  1006  41bc00040000         movl r12,0x400
0x280b68190f8c  100c  33c9                 xorl rcx,rcx
0x280b68190f8e  100e  488b9558ffffff       REX.W movq rdx,[rbp-0xa8]
0x280b68190f95  1015  e96d090000           jmp 0x280b68191907  <+0x1987>
0x280b68190f9a  101a  660f1f440000         nop
0x280b68190fa0  1020  448d5f38             leal r11,[rdi+0x38]
0x280b68190fa4  1024  4c8ba540ffffff       REX.W movq r12,[rbp-0xc0]
0x280b68190fab  102b  4181e4fffffeff       andl r12,0xfffeffff
0x280b68190fb2  1032  4c8bbd40ffffff       REX.W movq r15,[rbp-0xc0]
0x280b68190fb9  1039  66f78540ffffff0020   testw [rbp-0xc0],0x2000
0x280b68190fc2  1042  450f45fc             cmovnzl r15,r12
0x280b68190fc6  1046  41bc00040000         movl r12,0x400
0x280b68190fcc  104c  33c9                 xorl rcx,rcx
0x280b68190fce  104e  488b9558ffffff       REX.W movq rdx,[rbp-0xa8]
0x280b68190fd5  1055  e92d090000           jmp 0x280b68191907  <+0x1987>
0x280b68190fda  105a  660f1f440000         nop
0x280b68190fe0  1060  448d5f38             leal r11,[rdi+0x38]
0x280b68190fe4  1064  4c8ba540ffffff       REX.W movq r12,[rbp-0xc0]
0x280b68190feb  106b  4181e4fffffeff       andl r12,0xfffeffff
0x280b68190ff2  1072  4e8b7c0740           REX.W movq r15,[rdi+r8*1+0x40]
0x280b68190ff7  1077  46887c0737           movb [rdi+r8*1+0x37],r15l
0x280b68190ffc  107c  448d7f37             leal r15,[rdi+0x37]
0x280b68191000  1080  b801000000           movl rax,0x1
0x280b68191005  1085  498bd7               REX.W movq rdx,r15
0x280b68191008  1088  4d89e7               REX.W movq r15,r12
0x280b6819100b  108b  33c9                 xorl rcx,rcx
0x280b6819100d  108d  41bc00040000         movl r12,0x400
0x280b68191013  1093  e9ef080000           jmp 0x280b68191907  <+0x1987>
0x280b68191018  1098  0f1f840000000000     nop
0x280b68191020  10a0  4533db               xorl r11,r11
0x280b68191023  10a3  83f800               cmpl rax,0x0
0x280b68191026  10a6  450f4cdc             cmovll r11,r12
0x280b6819102a  10aa  4183fb00             cmpl r11,0x0
0x280b6819102e  10ae  0f85140d0000         jnz 0x280b68191d48  <+0x1dc8>
0x280b68191034  10b4  4c8b9d40ffffff       REX.W movq r11,[rbp-0xc0]
0x280b6819103b  10bb  4181e3fffffeff       andl r11,0xfffeffff
0x280b68191042  10c2  4c8ba540ffffff       REX.W movq r12,[rbp-0xc0]
0x280b68191049  10c9  66f78540ffffff0020   testw [rbp-0xc0],0x2000
0x280b68191052  10d2  450f45e3             cmovnzl r12,r11
0x280b68191056  10d6  c4a17b104c0740       vmovsd xmm1,[rdi+r8*1+0x40]
0x280b6819105d  10dd  488b75f0             REX.W movq rsi,[rbp-0x10]
0x280b68191061  10e1  4c8b5e3f             REX.W movq r11,[rsi+0x3f]
0x280b68191065  10e5  488b5637             REX.W movq rdx,[rsi+0x37]
0x280b68191069  10e9  8b4e0f               movl rcx,[rsi+0xf]
0x280b6819106c  10ec  4903ce               REX.W addq rcx,r14
0x280b6819106f  10ef  4c8b4d10             REX.W movq r9,[rbp+0x10]
0x280b68191073  10f3  468d3c8d00000000     leal r15,[r9*4+0x0]
0x280b6819107b  10fb  4183f904             cmpl r9,0x4
0x280b6819107f  10ff  0f83900f0000         jnc 0x280b68192015  <+0x2095>
0x280b68191085  1105  418bc1               movl rax,r9
0x280b68191088  1108  43833c3b0c           cmpl [r11+r15*1],0xc
0x280b6819108d  110d  0f857d0f0000         jnz 0x280b68192010  <+0x2090>
0x280b68191093  1113  448b5c8107           movl r11,[rcx+rax*4+0x7]
0x280b68191098  1118  4d03de               REX.W addq r11,r14
0x280b6819109b  111b  4c8b3cc2             REX.W movq r15,[rdx+rax*8]
0x280b6819109f  111f  498bf3               REX.W movq rsi,r11
0x280b681910a2  1122  488b4598             REX.W movq rax,[rbp-0x68]
0x280b681910a6  1126  4c8b8d78ffffff       REX.W movq r9,[rbp-0x88]
0x280b681910ad  112d  488b9560ffffff       REX.W movq rdx,[rbp-0xa0]
0x280b681910b4  1134  488b4d90             REX.W movq rcx,[rbp-0x70]
0x280b681910b8  1138  4c89e3               REX.W movq rbx,r12
0x280b681910bb  113b  41ffd7               call r15
0x280b681910be  113e  83f800               cmpl rax,0x0
0x280b681910c1  1141  0f8c260c0000         jl 0x280b68191ced  <+0x1d6d>
0x280b681910c7  1147  488b55d0             REX.W movq rdx,[rbp-0x30]
0x280b681910cb  114b  488b7dc8             REX.W movq rdi,[rbp-0x38]
0x280b681910cf  114f  448d1c3a             leal r11,[rdx+rdi*1]
0x280b681910d3  1153  488bd0               REX.W movq rdx,rax
0x280b681910d6  1156  488b4598             REX.W movq rax,[rbp-0x68]
0x280b681910da  115a  488b7db8             REX.W movq rdi,[rbp-0x48]
0x280b681910de  115e  4c8b65e0             REX.W movq r12,[rbp-0x20]
0x280b681910e2  1162  4c8b45d8             REX.W movq r8,[rbp-0x28]
0x280b681910e6  1166  488b75f0             REX.W movq rsi,[rbp-0x10]
0x280b681910ea  116a  e91befffff           jmp 0x280b6819000a  <+0x8a>
0x280b681910ef  116f  90                   nop
0x280b681910f0  1170  448d5f38             leal r11,[rdi+0x38]
0x280b681910f4  1174  4c8ba540ffffff       REX.W movq r12,[rbp-0xc0]
0x280b681910fb  117b  4181e4fffffeff       andl r12,0xfffeffff
0x280b68191102  1182  4c8bbd40ffffff       REX.W movq r15,[rbp-0xc0]
0x280b68191109  1189  66f78540ffffff0020   testw [rbp-0xc0],0x2000
0x280b68191112  1192  450f45fc             cmovnzl r15,r12
0x280b68191116  1196  41bc00040000         movl r12,0x400
0x280b6819111c  119c  33c9                 xorl rcx,rcx
0x280b6819111e  119e  488b9558ffffff       REX.W movq rdx,[rbp-0xa8]
0x280b68191125  11a5  e9dd070000           jmp 0x280b68191907  <+0x1987>
0x280b6819112a  11aa  660f1f440000         nop
0x280b68191130  11b0  4e8b5c0740           REX.W movq r11,[rdi+r8*1+0x40]
0x280b68191135  11b5  4983fb00             REX.W cmpq r11,0x0
0x280b68191139  11b9  0f8c57000000         jl 0x280b68191196  <+0x1216>
0x280b6819113f  11bf  4c8bbd40ffffff       REX.W movq r15,[rbp-0xc0]
0x280b68191146  11c6  4181e7fffffeff       andl r15,0xfffeffff
0x280b6819114d  11cd  488b9540ffffff       REX.W movq rdx,[rbp-0xc0]
0x280b68191154  11d4  66f78540ffffff0020   testw [rbp-0xc0],0x2000
0x280b6819115d  11dd  410f45d7             cmovnzl rdx,r15
0x280b68191161  11e1  66f7c20008           testw rdx,0x800
0x280b68191166  11e6  0f851a000000         jnz 0x280b68191186  <+0x1206>
0x280b6819116c  11ec  83e201               andl rdx,0x1
0x280b6819116f  11ef  41bf00040000         movl r15,0x400
0x280b68191175  11f5  b902040000           movl rcx,0x402
0x280b6819117a  11fa  83fa00               cmpl rdx,0x0
0x280b6819117d  11fd  440f45f9             cmovnzl r15,rcx
0x280b68191181  1201  e947050000           jmp 0x280b681916cd  <+0x174d>
0x280b68191186  1206  41bf01040000         movl r15,0x401
0x280b6819118c  120c  ba01000000           movl rdx,0x1
0x280b68191191  1211  e937050000           jmp 0x280b681916cd  <+0x174d>
0x280b68191196  1216  49f7db               REX.W negq r11
0x280b68191199  1219  4e895c0740           REX.W movq [rdi+r8*1+0x40],r11
0x280b6819119e  121e  41bf00040000         movl r15,0x400
0x280b681911a4  1224  ba01000000           movl rdx,0x1
0x280b681911a9  1229  e91f050000           jmp 0x280b681916cd  <+0x174d>
0x280b681911ae  122e  6690                 nop
0x280b681911b0  1230  448d5f38             leal r11,[rdi+0x38]
0x280b681911b4  1234  4c8ba540ffffff       REX.W movq r12,[rbp-0xc0]
0x280b681911bb  123b  4181e4fffffeff       andl r12,0xfffeffff
0x280b681911c2  1242  4c8bbd40ffffff       REX.W movq r15,[rbp-0xc0]
0x280b681911c9  1249  66f78540ffffff0020   testw [rbp-0xc0],0x2000
0x280b681911d2  1252  450f45fc             cmovnzl r15,r12
0x280b681911d6  1256  41bc00040000         movl r12,0x400
0x280b681911dc  125c  33c9                 xorl rcx,rcx
0x280b681911de  125e  488b9558ffffff       REX.W movq rdx,[rbp-0xa8]
0x280b681911e5  1265  e91d070000           jmp 0x280b68191907  <+0x1987>
0x280b681911ea  126a  660f1f440000         nop
0x280b681911f0  1270  448d5f38             leal r11,[rdi+0x38]
0x280b681911f4  1274  4c8ba540ffffff       REX.W movq r12,[rbp-0xc0]
0x280b681911fb  127b  4181e4fffffeff       andl r12,0xfffeffff
0x280b68191202  1282  4c8bbd40ffffff       REX.W movq r15,[rbp-0xc0]
0x280b68191209  1289  66f78540ffffff0020   testw [rbp-0xc0],0x2000
0x280b68191212  1292  450f45fc             cmovnzl r15,r12
0x280b68191216  1296  41bc00040000         movl r12,0x400
0x280b6819121c  129c  33c9                 xorl rcx,rcx
0x280b6819121e  129e  488b9558ffffff       REX.W movq rdx,[rbp-0xa8]
0x280b68191225  12a5  e9dd060000           jmp 0x280b68191907  <+0x1987>
0x280b6819122a  12aa  660f1f440000         nop
0x280b68191230  12b0  448d5f38             leal r11,[rdi+0x38]
0x280b68191234  12b4  4c8ba540ffffff       REX.W movq r12,[rbp-0xc0]
0x280b6819123b  12bb  4181e4fffffeff       andl r12,0xfffeffff
0x280b68191242  12c2  4c8bbd40ffffff       REX.W movq r15,[rbp-0xc0]
0x280b68191249  12c9  66f78540ffffff0020   testw [rbp-0xc0],0x2000
0x280b68191252  12d2  450f45fc             cmovnzl r15,r12
0x280b68191256  12d6  41bc00040000         movl r12,0x400
0x280b6819125c  12dc  33c9                 xorl rcx,rcx
0x280b6819125e  12de  488b9558ffffff       REX.W movq rdx,[rbp-0xa8]
0x280b68191265  12e5  e99d060000           jmp 0x280b68191907  <+0x1987>
0x280b6819126a  12ea  660f1f440000         nop
0x280b68191270  12f0  448d5f38             leal r11,[rdi+0x38]
0x280b68191274  12f4  4c8ba540ffffff       REX.W movq r12,[rbp-0xc0]
0x280b6819127b  12fb  4181e4fffffeff       andl r12,0xfffeffff
0x280b68191282  1302  4c8bbd40ffffff       REX.W movq r15,[rbp-0xc0]
0x280b68191289  1309  66f78540ffffff0020   testw [rbp-0xc0],0x2000
0x280b68191292  1312  450f45fc             cmovnzl r15,r12
0x280b68191296  1316  41bc00040000         movl r12,0x400
0x280b6819129c  131c  33c9                 xorl rcx,rcx
0x280b6819129e  131e  488b9558ffffff       REX.W movq rdx,[rbp-0xa8]
0x280b681912a5  1325  e95d060000           jmp 0x280b68191907  <+0x1987>
0x280b681912aa  132a  660f1f440000         nop
0x280b681912b0  1330  488b55d0             REX.W movq rdx,[rbp-0x30]
0x280b681912b4  1334  4c8b7dc8             REX.W movq r15,[rbp-0x38]
0x280b681912b8  1338  468d243a             leal r12,[rdx+r15*1]
0x280b681912bc  133c  450fb6db             movzxbl r11,r11
0x280b681912c0  1340  4183fb08             cmpl r11,0x8
0x280b681912c4  1344  0f8316000000         jnc 0x280b681912e0  <+0x1360>
0x280b681912ca  134a  4c8d15270f0000       REX.W leaq r10,[rip+0xf27]
0x280b681912d1  1351  43ff24da             jmp [r10+r11*8]
0x280b681912d5  1355  660f1f840000000000   nop
0x280b681912de  135e  6690                 nop
0x280b681912e0  1360  488b4598             REX.W movq rax,[rbp-0x68]
0x280b681912e4  1364  4d89e3               REX.W movq r11,r12
0x280b681912e7  1367  33d2                 xorl rdx,rdx
0x280b681912e9  1369  4c8be7               REX.W movq r12,rdi
0x280b681912ec  136c  488b75f0             REX.W movq rsi,[rbp-0x10]
0x280b681912f0  1370  488bfb               REX.W movq rdi,rbx
0x280b681912f3  1373  e912edffff           jmp 0x280b6819000a  <+0x8a>
0x280b681912f8  1378  0f1f840000000000     nop
0x280b68191300  1380  468b5c0740           movl r11,[rdi+r8*1+0x40]
0x280b68191305  1385  47892418             movl [r8+r11*1],r12
0x280b68191309  1389  488b4598             REX.W movq rax,[rbp-0x68]
0x280b6819130d  138d  4d89e3               REX.W movq r11,r12
0x280b68191310  1390  33d2                 xorl rdx,rdx
0x280b68191312  1392  4c8be7               REX.W movq r12,rdi
0x280b68191315  1395  488b75f0             REX.W movq rsi,[rbp-0x10]
0x280b68191319  1399  488bfb               REX.W movq rdi,rbx
0x280b6819131c  139c  e9e9ecffff           jmp 0x280b6819000a  <+0x8a>
0x280b68191321  13a1  660f1f840000000000   nop
0x280b6819132a  13aa  660f1f440000         nop
0x280b68191330  13b0  468b5c0740           movl r11,[rdi+r8*1+0x40]
0x280b68191335  13b5  47892418             movl [r8+r11*1],r12
0x280b68191339  13b9  488b4598             REX.W movq rax,[rbp-0x68]
0x280b6819133d  13bd  4d89e3               REX.W movq r11,r12
0x280b68191340  13c0  33d2                 xorl rdx,rdx
0x280b68191342  13c2  4c8be7               REX.W movq r12,rdi
0x280b68191345  13c5  488b75f0             REX.W movq rsi,[rbp-0x10]
0x280b68191349  13c9  488bfb               REX.W movq rdi,rbx
0x280b6819134c  13cc  e9b9ecffff           jmp 0x280b6819000a  <+0x8a>
0x280b68191351  13d1  660f1f840000000000   nop
0x280b6819135a  13da  660f1f440000         nop
0x280b68191360  13e0  4d63dc               REX.W movsxlq r11,r12
0x280b68191363  13e3  468b7c0740           movl r15,[rdi+r8*1+0x40]
0x280b68191368  13e8  4f891c38             REX.W movq [r8+r15*1],r11
0x280b6819136c  13ec  488b4598             REX.W movq rax,[rbp-0x68]
0x280b68191370  13f0  4d89e3               REX.W movq r11,r12
0x280b68191373  13f3  33d2                 xorl rdx,rdx
0x280b68191375  13f5  4c8be7               REX.W movq r12,rdi
0x280b68191378  13f8  488b75f0             REX.W movq rsi,[rbp-0x10]
0x280b6819137c  13fc  488bfb               REX.W movq rdi,rbx
0x280b6819137f  13ff  e986ecffff           jmp 0x280b6819000a  <+0x8a>
0x280b68191384  1404  660f1f840000000000   nop
0x280b6819138d  140d  0f1f00               nop
0x280b68191390  1410  468b5c0740           movl r11,[rdi+r8*1+0x40]
0x280b68191395  1415  6647892418           movw [r8+r11*1],r12
0x280b6819139a  141a  488b4598             REX.W movq rax,[rbp-0x68]
0x280b6819139e  141e  4d89e3               REX.W movq r11,r12
0x280b681913a1  1421  33d2                 xorl rdx,rdx
0x280b681913a3  1423  4c8be7               REX.W movq r12,rdi
0x280b681913a6  1426  488b75f0             REX.W movq rsi,[rbp-0x10]
0x280b681913aa  142a  488bfb               REX.W movq rdi,rbx
0x280b681913ad  142d  e958ecffff           jmp 0x280b6819000a  <+0x8a>
0x280b681913b2  1432  660f1f840000000000   nop
0x280b681913bb  143b  0f1f440000           nop
0x280b681913c0  1440  468b5c0740           movl r11,[rdi+r8*1+0x40]
0x280b681913c5  1445  47882418             movb [r8+r11*1],r12l
0x280b681913c9  1449  488b4598             REX.W movq rax,[rbp-0x68]
0x280b681913cd  144d  4d89e3               REX.W movq r11,r12
0x280b681913d0  1450  33d2                 xorl rdx,rdx
0x280b681913d2  1452  4c8be7               REX.W movq r12,rdi
0x280b681913d5  1455  488b75f0             REX.W movq rsi,[rbp-0x10]
0x280b681913d9  1459  488bfb               REX.W movq rdi,rbx
0x280b681913dc  145c  e929ecffff           jmp 0x280b6819000a  <+0x8a>
0x280b681913e1  1461  660f1f840000000000   nop
0x280b681913ea  146a  660f1f440000         nop
0x280b681913f0  1470  488b4598             REX.W movq rax,[rbp-0x68]
0x280b681913f4  1474  4d89e3               REX.W movq r11,r12
0x280b681913f7  1477  33d2                 xorl rdx,rdx
0x280b681913f9  1479  4c8be7               REX.W movq r12,rdi
0x280b681913fc  147c  488b75f0             REX.W movq rsi,[rbp-0x10]
0x280b68191400  1480  488bfb               REX.W movq rdi,rbx
0x280b68191403  1483  e902ecffff           jmp 0x280b6819000a  <+0x8a>
0x280b68191408  1488  0f1f840000000000     nop
0x280b68191410  1490  468b5c0740           movl r11,[rdi+r8*1+0x40]
0x280b68191415  1495  47892418             movl [r8+r11*1],r12
0x280b68191419  1499  488b4598             REX.W movq rax,[rbp-0x68]
0x280b6819141d  149d  4d89e3               REX.W movq r11,r12
0x280b68191420  14a0  33d2                 xorl rdx,rdx
0x280b68191422  14a2  4c8be7               REX.W movq r12,rdi
0x280b68191425  14a5  488b75f0             REX.W movq rsi,[rbp-0x10]
0x280b68191429  14a9  488bfb               REX.W movq rdi,rbx
0x280b6819142c  14ac  e9d9ebffff           jmp 0x280b6819000a  <+0x8a>
0x280b68191431  14b1  660f1f840000000000   nop
0x280b6819143a  14ba  660f1f440000         nop
0x280b68191440  14c0  468b5c0740           movl r11,[rdi+r8*1+0x40]
0x280b68191445  14c5  4d63fc               REX.W movsxlq r15,r12
0x280b68191448  14c8  4f893c18             REX.W movq [r8+r11*1],r15
0x280b6819144c  14cc  488b4598             REX.W movq rax,[rbp-0x68]
0x280b68191450  14d0  4d89e3               REX.W movq r11,r12
0x280b68191453  14d3  33d2                 xorl rdx,rdx
0x280b68191455  14d5  4c8be7               REX.W movq r12,rdi
0x280b68191458  14d8  488b75f0             REX.W movq rsi,[rbp-0x10]
0x280b6819145c  14dc  488bfb               REX.W movq rdi,rbx
0x280b6819145f  14df  e9a6ebffff           jmp 0x280b6819000a  <+0x8a>
0x280b68191464  14e4  660f1f840000000000   nop
0x280b6819146d  14ed  0f1f00               nop
0x280b68191470  14f0  8d5738               leal rdx,[rdi+0x38]
0x280b68191473  14f3  4c8b9d40ffffff       REX.W movq r11,[rbp-0xc0]
0x280b6819147a  14fa  4181e3fffffeff       andl r11,0xfffeffff
0x280b68191481  1501  4c8bbd40ffffff       REX.W movq r15,[rbp-0xc0]
0x280b68191488  1508  66f78540ffffff0020   testw [rbp-0xc0],0x2000
0x280b68191491  1511  450f45fb             cmovnzl r15,r11
0x280b68191495  1515  4e8b5c0740           REX.W movq r11,[rdi+r8*1+0x40]
0x280b6819149a  151a  48899578ffffff       REX.W movq [rbp-0x88],rdx
0x280b681914a1  1521  4c897d80             REX.W movq [rbp-0x80],r15
0x280b681914a5  1525  488b75f0             REX.W movq rsi,[rbp-0x10]
0x280b681914a9  1529  498bc3               REX.W movq rax,r11
0x280b681914ac  152c  e8c64bffff           call 0x280b68186077  (jump table)    ;; internal wasm call
0x280b681914b1  1531  f6458008             testb [rbp-0x80],0x8
0x280b681914b5  1535  0f8422000000         jz 0x280b681914dd  <+0x155d>
0x280b681914bb  153b  488bbd78ffffff       REX.W movq rdi,[rbp-0x88]
0x280b681914c2  1542  2bf8                 subl rdi,rax
0x280b681914c4  1544  448d4701             leal r8,[rdi+0x1]
0x280b681914c8  1548  3b7d90               cmpl rdi,[rbp-0x70]
0x280b681914cb  154b  440f4c4590           cmovll r8,[rbp-0x70]
0x280b681914d0  1550  41bb00040000         movl r11,0x400
0x280b681914d6  1556  33d2                 xorl rdx,rdx
0x280b681914d8  1558  e983030000           jmp 0x280b68191860  <+0x18e0>
0x280b681914dd  155d  4c8b4590             REX.W movq r8,[rbp-0x70]
0x280b681914e1  1561  41bb00040000         movl r11,0x400
0x280b681914e7  1567  33d2                 xorl rdx,rdx
0x280b681914e9  1569  e972030000           jmp 0x280b68191860  <+0x18e0>
0x280b681914ee  156e  6690                 nop
0x280b681914f0  1570  41bb08000000         movl r11,0x8
0x280b681914f6  1576  83f808               cmpl rax,0x8
0x280b681914f9  1579  440f47d8             cmoval r11,rax
0x280b681914fd  157d  4c8bbd40ffffff       REX.W movq r15,[rbp-0xc0]
0x280b68191504  1584  4181e7fffffeff       andl r15,0xfffeffff
0x280b6819150b  158b  488b8540ffffff       REX.W movq rax,[rbp-0xc0]
0x280b68191512  1592  66f78540ffffff0020   testw [rbp-0xc0],0x2000
0x280b6819151b  159b  410f45c7             cmovnzl rax,r15
0x280b6819151f  159f  83c808               orl rax,0x8
0x280b68191522  15a2  41bf78000000         movl r15,0x78
0x280b68191528  15a8  488bd0               REX.W movq rdx,rax
0x280b6819152b  15ab  498bc3               REX.W movq rax,r11
0x280b6819152e  15ae  e99f020000           jmp 0x280b681917d2  <+0x1852>
0x280b68191533  15b3  660f1f840000000000   nop
0x280b6819153c  15bc  0f1f4000             nop
0x280b68191540  15c0  448d5f38             leal r11,[rdi+0x38]
0x280b68191544  15c4  4c8ba540ffffff       REX.W movq r12,[rbp-0xc0]
0x280b6819154b  15cb  4181e4fffffeff       andl r12,0xfffeffff
0x280b68191552  15d2  4c8bbd40ffffff       REX.W movq r15,[rbp-0xc0]
0x280b68191559  15d9  66f78540ffffff0020   testw [rbp-0xc0],0x2000
0x280b68191562  15e2  450f45fc             cmovnzl r15,r12
0x280b68191566  15e6  41bc00040000         movl r12,0x400
0x280b6819156c  15ec  33c9                 xorl rcx,rcx
0x280b6819156e  15ee  488b9558ffffff       REX.W movq rdx,[rbp-0xa8]
0x280b68191575  15f5  e98d030000           jmp 0x280b68191907  <+0x1987>
0x280b6819157a  15fa  660f1f440000         nop
0x280b68191580  1600  448d5f38             leal r11,[rdi+0x38]
0x280b68191584  1604  4c8ba540ffffff       REX.W movq r12,[rbp-0xc0]
0x280b6819158b  160b  4181e4fffffeff       andl r12,0xfffeffff
0x280b68191592  1612  4c8bbd40ffffff       REX.W movq r15,[rbp-0xc0]
0x280b68191599  1619  66f78540ffffff0020   testw [rbp-0xc0],0x2000
0x280b681915a2  1622  450f45fc             cmovnzl r15,r12
0x280b681915a6  1626  41bc00040000         movl r12,0x400
0x280b681915ac  162c  33c9                 xorl rcx,rcx
0x280b681915ae  162e  488b9558ffffff       REX.W movq rdx,[rbp-0xa8]
0x280b681915b5  1635  e94d030000           jmp 0x280b68191907  <+0x1987>
0x280b681915ba  163a  660f1f440000         nop
0x280b681915c0  1640  468b5c0740           movl r11,[rdi+r8*1+0x40]
0x280b681915c5  1645  4c8be0               REX.W movq r12,rax
0x280b681915c8  1648  41bfffffff7f         movl r15,0x7fffffff
0x280b681915ce  164e  83f800               cmpl rax,0x0
0x280b681915d1  1651  450f4ce7             cmovll r12,r15
0x280b681915d5  1655  ba0a040000           movl rdx,0x40a
0x280b681915da  165a  4183fb00             cmpl r11,0x0
0x280b681915de  165e  410f45d3             cmovnzl rdx,r11
0x280b681915e2  1662  48899558ffffff       REX.W movq [rbp-0xa8],rdx
0x280b681915e9  1669  488b75f0             REX.W movq rsi,[rbp-0x10]
0x280b681915ed  166d  488bc2               REX.W movq rax,rdx
0x280b681915f0  1670  4c89e2               REX.W movq rdx,r12
0x280b681915f3  1673  e84d4affff           call 0x280b68186045  (jump table)    ;; internal wasm call
0x280b681915f8  1678  4c8bbd58ffffff       REX.W movq r15,[rbp-0xa8]
0x280b681915ff  167f  468d1c38             leal r11,[rax+r15*1]
0x280b68191603  1683  837d9000             cmpl [rbp-0x70],0x0
0x280b68191607  1687  0f8d3f000000         jge 0x280b6819164c  <+0x16cc>
0x280b6819160d  168d  488b7dd8             REX.W movq rdi,[rbp-0x28]
0x280b68191611  1691  460fb6041f           movzxbl r8,[rdi+r11*1]
0x280b68191616  1696  4183f800             cmpl r8,0x0
0x280b6819161a  169a  0f85d8060000         jnz 0x280b68191cf8  <+0x1d78>
0x280b68191620  16a0  4c8ba540ffffff       REX.W movq r12,[rbp-0xc0]
0x280b68191627  16a7  4181e4fffffeff       andl r12,0xfffeffff
0x280b6819162e  16ae  488b5db8             REX.W movq rbx,[rbp-0x48]
0x280b68191632  16b2  498bd7               REX.W movq rdx,r15
0x280b68191635  16b5  4d89e7               REX.W movq r15,r12
0x280b68191638  16b8  33c9                 xorl rcx,rcx
0x280b6819163a  16ba  41bc00040000         movl r12,0x400
0x280b68191640  16c0  4c8bc7               REX.W movq r8,rdi
0x280b68191643  16c3  488b7de0             REX.W movq rdi,[rbp-0x20]
0x280b68191647  16c7  e9bb020000           jmp 0x280b68191907  <+0x1987>
0x280b6819164c  16cc  4c8ba540ffffff       REX.W movq r12,[rbp-0xc0]
0x280b68191653  16d3  4181e4fffffeff       andl r12,0xfffeffff
0x280b6819165a  16da  488b5db8             REX.W movq rbx,[rbp-0x48]
0x280b6819165e  16de  498bd7               REX.W movq rdx,r15
0x280b68191661  16e1  4d89e7               REX.W movq r15,r12
0x280b68191664  16e4  33c9                 xorl rcx,rcx
0x280b68191666  16e6  41bc00040000         movl r12,0x400
0x280b6819166c  16ec  488b7de0             REX.W movq rdi,[rbp-0x20]
0x280b68191670  16f0  4c8b45d8             REX.W movq r8,[rbp-0x28]
0x280b68191674  16f4  e98e020000           jmp 0x280b68191907  <+0x1987>
0x280b68191679  16f9  0f1f8000000000       nop
0x280b68191680  1700  448d5f38             leal r11,[rdi+0x38]
0x280b68191684  1704  4c8ba540ffffff       REX.W movq r12,[rbp-0xc0]
0x280b6819168b  170b  4181e4fffffeff       andl r12,0xfffeffff
0x280b68191692  1712  4c8bbd40ffffff       REX.W movq r15,[rbp-0xc0]
0x280b68191699  1719  66f78540ffffff0020   testw [rbp-0xc0],0x2000
0x280b681916a2  1722  450f45fc             cmovnzl r15,r12
0x280b681916a6  1726  41bc00040000         movl r12,0x400
0x280b681916ac  172c  33c9                 xorl rcx,rcx
0x280b681916ae  172e  488b9558ffffff       REX.W movq rdx,[rbp-0xa8]
0x280b681916b5  1735  e94d020000           jmp 0x280b68191907  <+0x1987>
0x280b681916ba  173a  660f1f440000         nop
0x280b681916c0  1740  4e8b5c0740           REX.W movq r11,[rdi+r8*1+0x40]
0x280b681916c5  1745  41bf00040000         movl r15,0x400
0x280b681916cb  174b  33d2                 xorl rdx,rdx
0x280b681916cd  174d  8d4f38               leal rcx,[rdi+0x38]
0x280b681916d0  1750  488bb540ffffff       REX.W movq rsi,[rbp-0xc0]
0x280b681916d7  1757  81e6fffffeff         andl rsi,0xfffeffff
0x280b681916dd  175d  4c8b8d40ffffff       REX.W movq r9,[rbp-0xc0]
0x280b681916e4  1764  66f78540ffffff0020   testw [rbp-0xc0],0x2000
0x280b681916ed  176d  440f45ce             cmovnzl r9,rsi
0x280b681916f1  1771  4c89bd50ffffff       REX.W movq [rbp-0xb0],r15
0x280b681916f8  1778  48899548ffffff       REX.W movq [rbp-0xb8],rdx
0x280b681916ff  177f  4c894d80             REX.W movq [rbp-0x80],r9
0x280b68191703  1783  488b75f0             REX.W movq rsi,[rbp-0x10]
0x280b68191707  1787  498bc3               REX.W movq rax,r11
0x280b6819170a  178a  488bd1               REX.W movq rdx,rcx
0x280b6819170d  178d  e86e49ffff           call 0x280b68186080  (jump table)    ;; internal wasm call
0x280b68191712  1792  4c8b4590             REX.W movq r8,[rbp-0x70]
0x280b68191716  1796  4c8b9d50ffffff       REX.W movq r11,[rbp-0xb0]
0x280b6819171d  179d  488b9548ffffff       REX.W movq rdx,[rbp-0xb8]
0x280b68191724  17a4  e937010000           jmp 0x280b68191860  <+0x18e0>
0x280b68191729  17a9  0f1f8000000000       nop
0x280b68191730  17b0  448d5f38             leal r11,[rdi+0x38]
0x280b68191734  17b4  4c8ba540ffffff       REX.W movq r12,[rbp-0xc0]
0x280b6819173b  17bb  4181e4fffffeff       andl r12,0xfffeffff
0x280b68191742  17c2  4c8bbd40ffffff       REX.W movq r15,[rbp-0xc0]
0x280b68191749  17c9  66f78540ffffff0020   testw [rbp-0xc0],0x2000
0x280b68191752  17d2  450f45fc             cmovnzl r15,r12
0x280b68191756  17d6  41bc00040000         movl r12,0x400
0x280b6819175c  17dc  33c9                 xorl rcx,rcx
0x280b6819175e  17de  488b9558ffffff       REX.W movq rdx,[rbp-0xa8]
0x280b68191765  17e5  e99d010000           jmp 0x280b68191907  <+0x1987>
0x280b6819176a  17ea  660f1f440000         nop
0x280b68191770  17f0  448d5f38             leal r11,[rdi+0x38]
0x280b68191774  17f4  4c8ba540ffffff       REX.W movq r12,[rbp-0xc0]
0x280b6819177b  17fb  4181e4fffffeff       andl r12,0xfffeffff
0x280b68191782  1802  4c8bbd40ffffff       REX.W movq r15,[rbp-0xc0]
0x280b68191789  1809  66f78540ffffff0020   testw [rbp-0xc0],0x2000
0x280b68191792  1812  450f45fc             cmovnzl r15,r12
0x280b68191796  1816  41bc00040000         movl r12,0x400
0x280b6819179c  181c  33c9                 xorl rcx,rcx
0x280b6819179e  181e  488b9558ffffff       REX.W movq rdx,[rbp-0xa8]
0x280b681917a5  1825  e95d010000           jmp 0x280b68191907  <+0x1987>
0x280b681917aa  182a  660f1f440000         nop
0x280b681917b0  1830  4c8b9d40ffffff       REX.W movq r11,[rbp-0xc0]
0x280b681917b7  1837  4181e3fffffeff       andl r11,0xfffeffff
0x280b681917be  183e  488b9540ffffff       REX.W movq rdx,[rbp-0xc0]
0x280b681917c5  1845  66f78540ffffff0020   testw [rbp-0xc0],0x2000
0x280b681917ce  184e  410f45d3             cmovnzl rdx,r11
0x280b681917d2  1852  448d5f38             leal r11,[rdi+0x38]
0x280b681917d6  1856  4a8b4c0740           REX.W movq rcx,[rdi+r8*1+0x40]
0x280b681917db  185b  498bf7               REX.W movq rsi,r15
0x280b681917de  185e  83e620               andl rsi,0x20
0x280b681917e1  1861  48895580             REX.W movq [rbp-0x80],rdx
0x280b681917e5  1865  48894590             REX.W movq [rbp-0x70],rax
0x280b681917e9  1869  4c89bd78ffffff       REX.W movq [rbp-0x88],r15
0x280b681917f0  1870  488bc1               REX.W movq rax,rcx
0x280b681917f3  1873  488bce               REX.W movq rcx,rsi
0x280b681917f6  1876  488b75f0             REX.W movq rsi,[rbp-0x10]
0x280b681917fa  187a  498bd3               REX.W movq rdx,r11
0x280b681917fd  187d  e87048ffff           call 0x280b68186072  (jump table)    ;; internal wasm call
0x280b68191802  1882  488b7de0             REX.W movq rdi,[rbp-0x20]
0x280b68191806  1886  4c8b45d8             REX.W movq r8,[rbp-0x28]
0x280b6819180a  188a  4e8b5c0740           REX.W movq r11,[rdi+r8*1+0x40]
0x280b6819180f  188f  4983fb00             REX.W cmpq r11,0x0
0x280b68191813  1893  0f843b000000         jz 0x280b68191854  <+0x18d4>
0x280b68191819  1899  f6458008             testb [rbp-0x80],0x8
0x280b6819181d  189d  0f8420000000         jz 0x280b68191843  <+0x18c3>
0x280b68191823  18a3  4c8b9d78ffffff       REX.W movq r11,[rbp-0x88]
0x280b6819182a  18aa  41c1eb04             shrl r11, 4
0x280b6819182e  18ae  4181c300040000       addl r11,0x400
0x280b68191835  18b5  ba02000000           movl rdx,0x2
0x280b6819183a  18ba  4c8b4590             REX.W movq r8,[rbp-0x70]
0x280b6819183e  18be  e91d000000           jmp 0x280b68191860  <+0x18e0>
0x280b68191843  18c3  41bb00040000         movl r11,0x400
0x280b68191849  18c9  33d2                 xorl rdx,rdx
0x280b6819184b  18cb  4c8b4590             REX.W movq r8,[rbp-0x70]
0x280b6819184f  18cf  e90c000000           jmp 0x280b68191860  <+0x18e0>
0x280b68191854  18d4  4c8b4590             REX.W movq r8,[rbp-0x70]
0x280b68191858  18d8  41bb00040000         movl r11,0x400
0x280b6819185e  18de  33d2                 xorl rdx,rdx
0x280b68191860  18e0  33ff                 xorl rdi,rdi
0x280b68191862  18e2  4183f800             cmpl r8,0x0
0x280b68191866  18e6  0f4c7d88             cmovll rdi,[rbp-0x78]
0x280b6819186a  18ea  83ff00               cmpl rdi,0x0
0x280b6819186d  18ed  0f859c040000         jnz 0x280b68191d0f  <+0x1d8f>
0x280b68191873  18f3  488b7de0             REX.W movq rdi,[rbp-0x20]
0x280b68191877  18f7  448d7f38             leal r15,[rdi+0x38]
0x280b6819187b  18fb  4c8b65d8             REX.W movq r12,[rbp-0x28]
0x280b6819187f  18ff  4a8b5c2740           REX.W movq rbx,[rdi+r12*1+0x40]
0x280b68191884  1904  4883fb00             REX.W cmpq rbx,0x0
0x280b68191888  1908  0f94c1               setzl cl
0x280b6819188b  190b  0fb6c9               movzxbl rcx,rcx
0x280b6819188e  190e  488b7580             REX.W movq rsi,[rbp-0x80]
0x280b68191892  1912  81e6fffffeff         andl rsi,0xfffeffff
0x280b68191898  1918  4c8b4d80             REX.W movq r9,[rbp-0x80]
0x280b6819189c  191c  837d8800             cmpl [rbp-0x78],0x0
0x280b681918a0  1920  440f45ce             cmovnzl r9,rsi
0x280b681918a4  1924  4883fb00             REX.W cmpq rbx,0x0
0x280b681918a8  1928  0f8527000000         jnz 0x280b681918d5  <+0x1955>
0x280b681918ae  192e  4183f800             cmpl r8,0x0
0x280b681918b2  1932  0f851d000000         jnz 0x280b681918d5  <+0x1955>
0x280b681918b8  1938  4d89e0               REX.W movq r8,r12
0x280b681918bb  193b  4d8be3               REX.W movq r12,r11
0x280b681918be  193e  4d8bdf               REX.W movq r11,r15
0x280b681918c1  1941  33c0                 xorl rax,rax
0x280b681918c3  1943  488bca               REX.W movq rcx,rdx
0x280b681918c6  1946  498bd7               REX.W movq rdx,r15
0x280b681918c9  1949  4d8bf9               REX.W movq r15,r9
0x280b681918cc  194c  488b5db8             REX.W movq rbx,[rbp-0x48]
0x280b681918d0  1950  e932000000           jmp 0x280b68191907  <+0x1987>
0x280b681918d5  1955  442bf8               subl r15,rax
0x280b681918d8  1958  4403f9               addl r15,rcx
0x280b681918db  195b  498bdf               REX.W movq rbx,r15
0x280b681918de  195e  453bf8               cmpl r15,r8
0x280b681918e1  1961  410f4cd8             cmovll rbx,r8
0x280b681918e5  1965  4c8bf8               REX.W movq r15,rax
0x280b681918e8  1968  488bc3               REX.W movq rax,rbx
0x280b681918eb  196b  4d8bc1               REX.W movq r8,r9
0x280b681918ee  196e  8d5f38               leal rbx,[rdi+0x38]
0x280b681918f1  1971  488bca               REX.W movq rcx,rdx
0x280b681918f4  1974  498bd7               REX.W movq rdx,r15
0x280b681918f7  1977  4d8bf8               REX.W movq r15,r8
0x280b681918fa  197a  4d89e0               REX.W movq r8,r12
0x280b681918fd  197d  4d8be3               REX.W movq r12,r11
0x280b68191900  1980  4c8bdb               REX.W movq r11,rbx
0x280b68191903  1983  488b5db8             REX.W movq rbx,[rbp-0x48]
0x280b68191907  1987  442bda               subl r11,rdx
0x280b6819190a  198a  488bf0               REX.W movq rsi,rax
0x280b6819190d  198d  413bc3               cmpl rax,r11
0x280b68191910  1990  410f4cf3             cmovll rsi,r11
0x280b68191914  1994  b8ffffff7f           movl rax,0x7fffffff
0x280b68191919  1999  2bc1                 subl rax,rcx
0x280b6819191b  199b  4c897d80             REX.W movq [rbp-0x80],r15
0x280b6819191f  199f  48899558ffffff       REX.W movq [rbp-0xa8],rdx
0x280b68191926  19a6  4c89a550ffffff       REX.W movq [rbp-0xb0],r12
0x280b6819192d  19ad  48898d48ffffff       REX.W movq [rbp-0xb8],rcx
0x280b68191934  19b4  4c899d78ffffff       REX.W movq [rbp-0x88],r11
0x280b6819193b  19bb  4889b570ffffff       REX.W movq [rbp-0x90],rsi
0x280b68191942  19c2  3bc6                 cmpl rax,rsi
0x280b68191944  19c4  0f8cfe030000         jl 0x280b68191d48  <+0x1dc8>
0x280b6819194a  19ca  8d040e               leal rax,[rsi+rcx*1]
0x280b6819194d  19cd  488bbd60ffffff       REX.W movq rdi,[rbp-0xa0]
0x280b68191954  19d4  4c8bcf               REX.W movq r9,rdi
0x280b68191957  19d7  3bf8                 cmpl rdi,rax
0x280b68191959  19d9  440f4cc8             cmovll r9,rax
0x280b6819195d  19dd  48894588             REX.W movq [rbp-0x78],rax
0x280b68191961  19e1  4c894d90             REX.W movq [rbp-0x70],r9
0x280b68191965  19e5  488bbd68ffffff       REX.W movq rdi,[rbp-0x98]
0x280b6819196c  19ec  413bf9               cmpl rdi,r9
0x280b6819196f  19ef  0f8c8f030000         jl 0x280b68191d04  <+0x1d84>
0x280b68191975  19f5  488b7dd0             REX.W movq rdi,[rbp-0x30]
0x280b68191979  19f9  4c8b5dc8             REX.W movq r11,[rbp-0x38]
0x280b6819197d  19fd  4403df               addl r11,rdi
0x280b68191980  1a00  498bc9               REX.W movq rcx,r9
0x280b68191983  1a03  4d8bcf               REX.W movq r9,r15
0x280b68191986  1a06  4c895dc8             REX.W movq [rbp-0x38],r11
0x280b6819198a  1a0a  488b75f0             REX.W movq rsi,[rbp-0x10]
0x280b6819198e  1a0e  488bd8               REX.W movq rbx,rax
0x280b68191991  1a11  488b4598             REX.W movq rax,[rbp-0x68]
0x280b68191995  1a15  ba20000000           movl rdx,0x20
0x280b6819199a  1a1a  488bfa               REX.W movq rdi,rdx
0x280b6819199d  1a1d  e8e346ffff           call 0x280b68186085  (jump table)    ;; internal wasm call
0x280b681919a2  1a22  488b75f0             REX.W movq rsi,[rbp-0x10]
0x280b681919a6  1a26  488b4598             REX.W movq rax,[rbp-0x68]
0x280b681919aa  1a2a  488b9550ffffff       REX.W movq rdx,[rbp-0xb0]
0x280b681919b1  1a31  488b8d48ffffff       REX.W movq rcx,[rbp-0xb8]
0x280b681919b8  1a38  e8a646ffff           call 0x280b68186063  (jump table)    ;; internal wasm call
0x280b681919bd  1a3d  4c8b4d80             REX.W movq r9,[rbp-0x80]
0x280b681919c1  1a41  4181f100000100       xorl r9,0x10000
0x280b681919c8  1a48  ba30000000           movl rdx,0x30
0x280b681919cd  1a4d  488b75f0             REX.W movq rsi,[rbp-0x10]
0x280b681919d1  1a51  488b4598             REX.W movq rax,[rbp-0x68]
0x280b681919d5  1a55  488b4d90             REX.W movq rcx,[rbp-0x70]
0x280b681919d9  1a59  488b5d88             REX.W movq rbx,[rbp-0x78]
0x280b681919dd  1a5d  e8a346ffff           call 0x280b68186085  (jump table)    ;; internal wasm call
0x280b681919e2  1a62  488b75f0             REX.W movq rsi,[rbp-0x10]
0x280b681919e6  1a66  488b4598             REX.W movq rax,[rbp-0x68]
0x280b681919ea  1a6a  ba30000000           movl rdx,0x30
0x280b681919ef  1a6f  488b8d70ffffff       REX.W movq rcx,[rbp-0x90]
0x280b681919f6  1a76  488b9d78ffffff       REX.W movq rbx,[rbp-0x88]
0x280b681919fd  1a7d  4533c9               xorl r9,r9
0x280b68191a00  1a80  e88046ffff           call 0x280b68186085  (jump table)    ;; internal wasm call
0x280b68191a05  1a85  488b75f0             REX.W movq rsi,[rbp-0x10]
0x280b68191a09  1a89  488b4598             REX.W movq rax,[rbp-0x68]
0x280b68191a0d  1a8d  488b9558ffffff       REX.W movq rdx,[rbp-0xa8]
0x280b68191a14  1a94  488b8d78ffffff       REX.W movq rcx,[rbp-0x88]
0x280b68191a1b  1a9b  e84346ffff           call 0x280b68186063  (jump table)    ;; internal wasm call
0x280b68191a20  1aa0  4c8b4d80             REX.W movq r9,[rbp-0x80]
0x280b68191a24  1aa4  4181f100200000       xorl r9,0x2000
0x280b68191a2b  1aab  488b75f0             REX.W movq rsi,[rbp-0x10]
0x280b68191a2f  1aaf  488b4598             REX.W movq rax,[rbp-0x68]
0x280b68191a33  1ab3  ba20000000           movl rdx,0x20
0x280b68191a38  1ab8  488b4d90             REX.W movq rcx,[rbp-0x70]
0x280b68191a3c  1abc  488b5d88             REX.W movq rbx,[rbp-0x78]
0x280b68191a40  1ac0  e84046ffff           call 0x280b68186085  (jump table)    ;; internal wasm call
0x280b68191a45  1ac5  488b4598             REX.W movq rax,[rbp-0x68]
0x280b68191a49  1ac9  4c8b5dc8             REX.W movq r11,[rbp-0x38]
0x280b68191a4d  1acd  488b5590             REX.W movq rdx,[rbp-0x70]
0x280b68191a51  1ad1  4c8b65e0             REX.W movq r12,[rbp-0x20]
0x280b68191a55  1ad5  4c8b45d8             REX.W movq r8,[rbp-0x28]
0x280b68191a59  1ad9  488b75f0             REX.W movq rsi,[rbp-0x10]
0x280b68191a5d  1add  488b7db8             REX.W movq rdi,[rbp-0x48]
0x280b68191a61  1ae1  e9a4e5ffff           jmp 0x280b6819000a  <+0x8a>
0x280b68191a66  1ae6  488b55d0             REX.W movq rdx,[rbp-0x30]
0x280b68191a6a  1aea  4c8b5dc8             REX.W movq r11,[rbp-0x38]
0x280b68191a6e  1aee  4403da               addl r11,rdx
0x280b68191a71  1af1  488b4598             REX.W movq rax,[rbp-0x68]
0x280b68191a75  1af5  4c8be7               REX.W movq r12,rdi
0x280b68191a78  1af8  488bfb               REX.W movq rdi,rbx
0x280b68191a7b  1afb  33d2                 xorl rdx,rdx
0x280b68191a7d  1afd  488b75f0             REX.W movq rsi,[rbp-0x10]
0x280b68191a81  1b01  e984e5ffff           jmp 0x280b6819000a  <+0x8a>
0x280b68191a86  1b06  83f800               cmpl rax,0x0
0x280b68191a89  1b09  0f8527020000         jnz 0x280b68191cb6  <+0x1d36>
0x280b68191a8f  1b0f  837da000             cmpl [rbp-0x60],0x0
0x280b68191a93  1b13  0f8441020000         jz 0x280b68191cda  <+0x1d5a>
0x280b68191a99  1b19  41bb01000000         movl r11,0x1
0x280b68191a9f  1b1f  4d8bf8               REX.W movq r15,r8
0x280b68191aa2  1b22  e925000000           jmp 0x280b68191acc  <+0x1b4c>
0x280b68191aa7  1b27  660f1f840000000000   nop
0x280b68191ab0  1b30  660f1f840000000000   nop
0x280b68191ab9  1b39  0f1f8000000000       nop
0x280b68191ac0  1b40  488b7db8             REX.W movq rdi,[rbp-0x48]
0x280b68191ac4  1b44  4c8b7dd8             REX.W movq r15,[rbp-0x28]
0x280b68191ac8  1b48  488b75f0             REX.W movq rsi,[rbp-0x10]
0x280b68191acc  1b4c  4c8b45c0             REX.W movq r8,[rbp-0x40]
0x280b68191ad0  1b50  488b45a8             REX.W movq rax,[rbp-0x58]
0x280b68191ad4  1b54  483b27               REX.W cmpq rsp,[rdi]
0x280b68191ad7  1b57  0f8654040000         jna 0x280b68191f31  <+0x1fb1>
0x280b68191add  1b5d  438d1c98             leal rbx,[r8+r11*4]
0x280b68191ae1  1b61  418b141f             movl rdx,[r15+rbx*1]
0x280b68191ae5  1b65  83fa00               cmpl rdx,0x0
0x280b68191ae8  1b68  0f84bb000000         jz 0x280b68191ba9  <+0x1c29>
0x280b68191aee  1b6e  418d5b01             leal rbx,[r11+0x1]
0x280b68191af2  1b72  468d1cd8             leal r11,[rax+r11*8]
0x280b68191af6  1b76  48895dc8             REX.W movq [rbp-0x38],rbx
0x280b68191afa  1b7a  498bc3               REX.W movq rax,r11
0x280b68191afd  1b7d  488b4db0             REX.W movq rcx,[rbp-0x50]
0x280b68191b01  1b81  488b5d18             REX.W movq rbx,[rbp+0x18]
0x280b68191b05  1b85  e86345ffff           call 0x280b6818606d  (jump table)    ;; internal wasm call
0x280b68191b0a  1b8a  837dc80a             cmpl [rbp-0x38],0xa
0x280b68191b0e  1b8e  0f8497010000         jz 0x280b68191cab  <+0x1d2b>
0x280b68191b14  1b94  488b7dc0             REX.W movq rdi,[rbp-0x40]
0x280b68191b18  1b98  4c8b45c8             REX.W movq r8,[rbp-0x38]
0x280b68191b1c  1b9c  468d1c87             leal r11,[rdi+r8*4]
0x280b68191b20  1ba0  4c8b65d8             REX.W movq r12,[rbp-0x28]
0x280b68191b24  1ba4  438b141c             movl rdx,[r12+r11*1]
0x280b68191b28  1ba8  83fa00               cmpl rdx,0x0
0x280b68191b2b  1bab  0f8483000000         jz 0x280b68191bb4  <+0x1c34>
0x280b68191b31  1bb1  458d5801             leal r11,[r8+0x1]
0x280b68191b35  1bb5  4c8b7da8             REX.W movq r15,[rbp-0x58]
0x280b68191b39  1bb9  438d04c7             leal rax,[r15+r8*8]
0x280b68191b3d  1bbd  4c895dd0             REX.W movq [rbp-0x30],r11
0x280b68191b41  1bc1  488b75f0             REX.W movq rsi,[rbp-0x10]
0x280b68191b45  1bc5  488b4db0             REX.W movq rcx,[rbp-0x50]
0x280b68191b49  1bc9  488b5d18             REX.W movq rbx,[rbp+0x18]
0x280b68191b4d  1bcd  e81b45ffff           call 0x280b6818606d  (jump table)    ;; internal wasm call
0x280b68191b52  1bd2  837dd00a             cmpl [rbp-0x30],0xa
0x280b68191b56  1bd6  0f844f010000         jz 0x280b68191cab  <+0x1d2b>
0x280b68191b5c  1bdc  488b7dc0             REX.W movq rdi,[rbp-0x40]
0x280b68191b60  1be0  4c8b5dd0             REX.W movq r11,[rbp-0x30]
0x280b68191b64  1be4  468d049f             leal r8,[rdi+r11*4]
0x280b68191b68  1be8  4c8b65d8             REX.W movq r12,[rbp-0x28]
0x280b68191b6c  1bec  438b1404             movl rdx,[r12+r8*1]
0x280b68191b70  1bf0  83fa00               cmpl rdx,0x0
0x280b68191b73  1bf3  0f843e000000         jz 0x280b68191bb7  <+0x1c37>
0x280b68191b79  1bf9  4c8b45a8             REX.W movq r8,[rbp-0x58]
0x280b68191b7d  1bfd  438d04d8             leal rax,[r8+r11*8]
0x280b68191b81  1c01  488b75f0             REX.W movq rsi,[rbp-0x10]
0x280b68191b85  1c05  488b5d18             REX.W movq rbx,[rbp+0x18]
0x280b68191b89  1c09  488b4db0             REX.W movq rcx,[rbp-0x50]
0x280b68191b8d  1c0d  e8db44ffff           call 0x280b6818606d  (jump table)    ;; internal wasm call
0x280b68191b92  1c12  4c8b5dd0             REX.W movq r11,[rbp-0x30]
0x280b68191b96  1c16  4183c301             addl r11,0x1
0x280b68191b9a  1c1a  4183fb0a             cmpl r11,0xa
0x280b68191b9e  1c1e  0f851cffffff         jnz 0x280b68191ac0  <+0x1b40>
0x280b68191ba4  1c24  e902010000           jmp 0x280b68191cab  <+0x1d2b>
0x280b68191ba9  1c29  498bf8               REX.W movq rdi,r8
0x280b68191bac  1c2c  4d8be7               REX.W movq r12,r15
0x280b68191baf  1c2f  e903000000           jmp 0x280b68191bb7  <+0x1c37>
0x280b68191bb4  1c34  4d8bd8               REX.W movq r11,r8
0x280b68191bb7  1c37  4183fb0a             cmpl r11,0xa
0x280b68191bbb  1c3b  0f83df000000         jnc 0x280b68191ca0  <+0x1d20>
0x280b68191bc1  1c41  4c8bc7               REX.W movq r8,rdi
0x280b68191bc4  1c44  488b7db8             REX.W movq rdi,[rbp-0x48]
0x280b68191bc8  1c48  660f1f840000000000   nop
0x280b68191bd1  1c51  660f1f840000000000   nop
0x280b68191bda  1c5a  660f1f840000000000   nop
0x280b68191be3  1c63  660f1f840000000000   nop
0x280b68191bec  1c6c  660f1f840000000000   nop
0x280b68191bf5  1c75  660f1f840000000000   nop
0x280b68191bfe  1c7e  6690                 nop
0x280b68191c00  1c80  483b27               REX.W cmpq rsp,[rdi]
0x280b68191c03  1c83  0f864e030000         jna 0x280b68191f57  <+0x1fd7>
0x280b68191c09  1c89  478d3c98             leal r15,[r8+r11*4]
0x280b68191c0d  1c8d  478b3c3c             movl r15,[r12+r15*1]
0x280b68191c11  1c91  4183ff00             cmpl r15,0x0
0x280b68191c15  1c95  0f8579000000         jnz 0x280b68191c94  <+0x1d14>
0x280b68191c1b  1c9b  4183c301             addl r11,0x1
0x280b68191c1f  1c9f  4183fb0a             cmpl r11,0xa
0x280b68191c23  1ca3  0f8460000000         jz 0x280b68191c89  <+0x1d09>
0x280b68191c29  1ca9  478d3c98             leal r15,[r8+r11*4]
0x280b68191c2d  1cad  478b3c3c             movl r15,[r12+r15*1]
0x280b68191c31  1cb1  4183ff00             cmpl r15,0x0
0x280b68191c35  1cb5  0f8559000000         jnz 0x280b68191c94  <+0x1d14>
0x280b68191c3b  1cbb  4183c301             addl r11,0x1
0x280b68191c3f  1cbf  4183fb0a             cmpl r11,0xa
0x280b68191c43  1cc3  0f8440000000         jz 0x280b68191c89  <+0x1d09>
0x280b68191c49  1cc9  478d3c98             leal r15,[r8+r11*4]
0x280b68191c4d  1ccd  478b3c3c             movl r15,[r12+r15*1]
0x280b68191c51  1cd1  4183ff00             cmpl r15,0x0
0x280b68191c55  1cd5  0f8539000000         jnz 0x280b68191c94  <+0x1d14>
0x280b68191c5b  1cdb  4183c301             addl r11,0x1
0x280b68191c5f  1cdf  4183fb0a             cmpl r11,0xa
0x280b68191c63  1ce3  0f8420000000         jz 0x280b68191c89  <+0x1d09>
0x280b68191c69  1ce9  478d3c98             leal r15,[r8+r11*4]
0x280b68191c6d  1ced  478b3c3c             movl r15,[r12+r15*1]
0x280b68191c71  1cf1  4183ff00             cmpl r15,0x0
0x280b68191c75  1cf5  0f8519000000         jnz 0x280b68191c94  <+0x1d14>
0x280b68191c7b  1cfb  4183c301             addl r11,0x1
0x280b68191c7f  1cff  4183fb0a             cmpl r11,0xa
0x280b68191c83  1d03  0f8577ffffff         jnz 0x280b68191c00  <+0x1c80>
0x280b68191c89  1d09  41bf01000000         movl r15,0x1
0x280b68191c8f  1d0f  e9db000000           jmp 0x280b68191d6f  <+0x1def>
0x280b68191c94  1d14  488b7de0             REX.W movq rdi,[rbp-0x20]
0x280b68191c98  1d18  4d89e0               REX.W movq r8,r12
0x280b68191c9b  1d1b  e992000000           jmp 0x280b68191d32  <+0x1db2>
0x280b68191ca0  1d20  41bf01000000         movl r15,0x1
0x280b68191ca6  1d26  e9c4000000           jmp 0x280b68191d6f  <+0x1def>
0x280b68191cab  1d2b  41bf01000000         movl r15,0x1
0x280b68191cb1  1d31  e9b9000000           jmp 0x280b68191d6f  <+0x1def>
0x280b68191cb6  1d36  468d3c1a             leal r15,[rdx+r11*1]
0x280b68191cba  1d3a  e9b0000000           jmp 0x280b68191d6f  <+0x1def>
0x280b68191cbf  1d3f  488b7de0             REX.W movq rdi,[rbp-0x20]
0x280b68191cc3  1d43  4c8b45d8             REX.W movq r8,[rbp-0x28]
0x280b68191cc7  1d47  e97c000000           jmp 0x280b68191d48  <+0x1dc8>
0x280b68191ccc  1d4c  41bb1c000000         movl r11,0x1c
0x280b68191cd2  1d52  e977000000           jmp 0x280b68191d4e  <+0x1dce>
0x280b68191cd7  1d57  4c8be7               REX.W movq r12,rdi
0x280b68191cda  1d5a  4533ff               xorl r15,r15
0x280b68191cdd  1d5d  e98d000000           jmp 0x280b68191d6f  <+0x1def>
0x280b68191ce2  1d62  41bb3d000000         movl r11,0x3d
0x280b68191ce8  1d68  e961000000           jmp 0x280b68191d4e  <+0x1dce>
0x280b68191ced  1d6d  41bb3d000000         movl r11,0x3d
0x280b68191cf3  1d73  e956000000           jmp 0x280b68191d4e  <+0x1dce>
0x280b68191cf8  1d78  4c8bc7               REX.W movq r8,rdi
0x280b68191cfb  1d7b  488b7de0             REX.W movq rdi,[rbp-0x20]
0x280b68191cff  1d7f  e944000000           jmp 0x280b68191d48  <+0x1dc8>
0x280b68191d04  1d84  41bb3d000000         movl r11,0x3d
0x280b68191d0a  1d8a  e93f000000           jmp 0x280b68191d4e  <+0x1dce>
0x280b68191d0f  1d8f  488b7de0             REX.W movq rdi,[rbp-0x20]
0x280b68191d13  1d93  4c8b45d8             REX.W movq r8,[rbp-0x28]
0x280b68191d17  1d97  e92c000000           jmp 0x280b68191d48  <+0x1dc8>
0x280b68191d1c  1d9c  41bb1c000000         movl r11,0x1c
0x280b68191d22  1da2  e927000000           jmp 0x280b68191d4e  <+0x1dce>
0x280b68191d27  1da7  41bb1c000000         movl r11,0x1c
0x280b68191d2d  1dad  e91c000000           jmp 0x280b68191d4e  <+0x1dce>
0x280b68191d32  1db2  41bb1c000000         movl r11,0x1c
0x280b68191d38  1db8  e911000000           jmp 0x280b68191d4e  <+0x1dce>
0x280b68191d3d  1dbd  4c89e7               REX.W movq rdi,r12
0x280b68191d40  1dc0  e903000000           jmp 0x280b68191d48  <+0x1dc8>
0x280b68191d45  1dc5  4c89e7               REX.W movq rdi,r12
0x280b68191d48  1dc8  41bb3d000000         movl r11,0x3d
0x280b68191d4e  1dce  4c895dd0             REX.W movq [rbp-0x30],r11
0x280b68191d52  1dd2  488b75f0             REX.W movq rsi,[rbp-0x10]
0x280b68191d56  1dd6  e8ef42ffff           call 0x280b6818604a  (jump table)    ;; internal wasm call
0x280b68191d5b  1ddb  8bf8                 movl rdi,rax
0x280b68191d5d  1ddd  4c8b45d8             REX.W movq r8,[rbp-0x28]
0x280b68191d61  1de1  4c8b5dd0             REX.W movq r11,[rbp-0x30]
0x280b68191d65  1de5  45891c38             movl [r8+rdi*1],r11
0x280b68191d69  1de9  41bfffffffff         movl r15,0xffffffff
0x280b68191d6f  1def  488b7de0             REX.W movq rdi,[rbp-0x20]
0x280b68191d73  1df3  83c750               addl rdi,0x50
0x280b68191d76  1df6  4c8b45e8             REX.W movq r8,[rbp-0x18]
0x280b68191d7a  1dfa  418938               movl [r8],rdi
0x280b68191d7d  1dfd  498bc7               REX.W movq rax,r15
0x280b68191d80  1e00  488be5               REX.W movq rsp,rbp
0x280b68191d83  1e03  5d                   pop rbp
0x280b68191d84  1e04  c21000               ret 0x10
0x280b68191d87  1e07  488955d0             REX.W movq [rbp-0x30],rdx
0x280b68191d8b  1e0b  e8e045ffff           call 0x280b68186370  (jump table)    ;; wasm stub: WasmStackGuard
0x280b68191d90  1e10  488b75f0             REX.W movq rsi,[rbp-0x10]
0x280b68191d94  1e14  4c8b4dc0             REX.W movq r9,[rbp-0x40]
0x280b68191d98  1e18  488b7db8             REX.W movq rdi,[rbp-0x48]
0x280b68191d9c  1e1c  488b4db0             REX.W movq rcx,[rbp-0x50]
0x280b68191da0  1e20  488b5da8             REX.W movq rbx,[rbp-0x58]
0x280b68191da4  1e24  488b4598             REX.W movq rax,[rbp-0x68]
0x280b68191da8  1e28  488b55d0             REX.W movq rdx,[rbp-0x30]
0x280b68191dac  1e2c  e9fee1ffff           jmp 0x280b6818ffaf  <+0x2f>
0x280b68191db1  1e31  488955d0             REX.W movq [rbp-0x30],rdx
0x280b68191db5  1e35  4c895dc8             REX.W movq [rbp-0x38],r11
0x280b68191db9  1e39  e8b245ffff           call 0x280b68186370  (jump table)    ;; wasm stub: WasmStackGuard
0x280b68191dbe  1e3e  4c8b65e0             REX.W movq r12,[rbp-0x20]
0x280b68191dc2  1e42  4c8b45d8             REX.W movq r8,[rbp-0x28]
0x280b68191dc6  1e46  488b75f0             REX.W movq rsi,[rbp-0x10]
0x280b68191dca  1e4a  488b55d0             REX.W movq rdx,[rbp-0x30]
0x280b68191dce  1e4e  4c8b5dc8             REX.W movq r11,[rbp-0x38]
0x280b68191dd2  1e52  488b7db8             REX.W movq rdi,[rbp-0x48]
0x280b68191dd6  1e56  488b4598             REX.W movq rax,[rbp-0x68]
0x280b68191dda  1e5a  e934e2ffff           jmp 0x280b68190013  <+0x93>
0x280b68191ddf  1e5f  48895d88             REX.W movq [rbp-0x78],rbx
0x280b68191de3  1e63  488955d0             REX.W movq [rbp-0x30],rdx
0x280b68191de7  1e67  4c895dc8             REX.W movq [rbp-0x38],r11
0x280b68191deb  1e6b  e88045ffff           call 0x280b68186370  (jump table)    ;; wasm stub: WasmStackGuard
0x280b68191df0  1e70  4c8b65e0             REX.W movq r12,[rbp-0x20]
0x280b68191df4  1e74  4c8b45d8             REX.W movq r8,[rbp-0x28]
0x280b68191df8  1e78  488b75f0             REX.W movq rsi,[rbp-0x10]
0x280b68191dfc  1e7c  488b55d0             REX.W movq rdx,[rbp-0x30]
0x280b68191e00  1e80  4c8b5dc8             REX.W movq r11,[rbp-0x38]
0x280b68191e04  1e84  488b7db8             REX.W movq rdi,[rbp-0x48]
0x280b68191e08  1e88  488b4598             REX.W movq rax,[rbp-0x68]
0x280b68191e0c  1e8c  4c8bbd58ffffff       REX.W movq r15,[rbp-0xa8]
0x280b68191e13  1e93  488b5d88             REX.W movq rbx,[rbp-0x78]
0x280b68191e17  1e97  e982e2ffff           jmp 0x280b6819009e  <+0x11e>
0x280b68191e1c  1e9c  48895d88             REX.W movq [rbp-0x78],rbx
0x280b68191e20  1ea0  48894d90             REX.W movq [rbp-0x70],rcx
0x280b68191e24  1ea4  488955d0             REX.W movq [rbp-0x30],rdx
0x280b68191e28  1ea8  4c895dc8             REX.W movq [rbp-0x38],r11
0x280b68191e2c  1eac  e83f45ffff           call 0x280b68186370  (jump table)    ;; wasm stub: WasmStackGuard
0x280b68191e31  1eb1  4c8b65e0             REX.W movq r12,[rbp-0x20]
0x280b68191e35  1eb5  4c8b45d8             REX.W movq r8,[rbp-0x28]
0x280b68191e39  1eb9  488b75f0             REX.W movq rsi,[rbp-0x10]
0x280b68191e3d  1ebd  488b55d0             REX.W movq rdx,[rbp-0x30]
0x280b68191e41  1ec1  4c8b5dc8             REX.W movq r11,[rbp-0x38]
0x280b68191e45  1ec5  488b4598             REX.W movq rax,[rbp-0x68]
0x280b68191e49  1ec9  4c8bbd58ffffff       REX.W movq r15,[rbp-0xa8]
0x280b68191e50  1ed0  488b5d88             REX.W movq rbx,[rbp-0x78]
0x280b68191e54  1ed4  488b4d90             REX.W movq rcx,[rbp-0x70]
0x280b68191e58  1ed8  e970e2ffff           jmp 0x280b681900cd  <+0x14d>
0x280b68191e5d  1edd  4c895d90             REX.W movq [rbp-0x70],r11
0x280b68191e61  1ee1  48895d88             REX.W movq [rbp-0x78],rbx
0x280b68191e65  1ee5  4c89bd78ffffff       REX.W movq [rbp-0x88],r15
0x280b68191e6c  1eec  e8ff44ffff           call 0x280b68186370  (jump table)    ;; wasm stub: WasmStackGuard
0x280b68191e71  1ef1  488b7de0             REX.W movq rdi,[rbp-0x20]
0x280b68191e75  1ef5  4c8b45d8             REX.W movq r8,[rbp-0x28]
0x280b68191e79  1ef9  488b55b8             REX.W movq rdx,[rbp-0x48]
0x280b68191e7d  1efd  4c8b6580             REX.W movq r12,[rbp-0x80]
0x280b68191e81  1f01  b801000000           movl rax,0x1
0x280b68191e86  1f06  4c8b5d90             REX.W movq r11,[rbp-0x70]
0x280b68191e8a  1f0a  488b5d88             REX.W movq rbx,[rbp-0x78]
0x280b68191e8e  1f0e  4c8bbd78ffffff       REX.W movq r15,[rbp-0x88]
0x280b68191e95  1f15  e935e4ffff           jmp 0x280b681902cf  <+0x34f>
0x280b68191e9a  1f1a  4c899d70ffffff       REX.W movq [rbp-0x90],r11
0x280b68191ea1  1f21  4c89bd78ffffff       REX.W movq [rbp-0x88],r15
0x280b68191ea8  1f28  e8c344ffff           call 0x280b68186370  (jump table)    ;; wasm stub: WasmStackGuard
0x280b68191ead  1f2d  488b7de0             REX.W movq rdi,[rbp-0x20]
0x280b68191eb1  1f31  4c8b45d8             REX.W movq r8,[rbp-0x28]
0x280b68191eb5  1f35  488b5db8             REX.W movq rbx,[rbp-0x48]
0x280b68191eb9  1f39  488b4590             REX.W movq rax,[rbp-0x70]
0x280b68191ebd  1f3d  4c8b6588             REX.W movq r12,[rbp-0x78]
0x280b68191ec1  1f41  4c8b9d70ffffff       REX.W movq r11,[rbp-0x90]
0x280b68191ec8  1f48  4c8bbd78ffffff       REX.W movq r15,[rbp-0x88]
0x280b68191ecf  1f4f  e9bbe7ffff           jmp 0x280b6819068f  <+0x70f>
0x280b68191ed4  1f54  4c899d78ffffff       REX.W movq [rbp-0x88],r11
0x280b68191edb  1f5b  4c897d80             REX.W movq [rbp-0x80],r15
0x280b68191edf  1f5f  e88c44ffff           call 0x280b68186370  (jump table)    ;; wasm stub: WasmStackGuard
0x280b68191ee4  1f64  488b7de0             REX.W movq rdi,[rbp-0x20]
0x280b68191ee8  1f68  4c8b45d8             REX.W movq r8,[rbp-0x28]
0x280b68191eec  1f6c  488b5db8             REX.W movq rbx,[rbp-0x48]
0x280b68191ef0  1f70  4c8b6588             REX.W movq r12,[rbp-0x78]
0x280b68191ef4  1f74  4c8b9d78ffffff       REX.W movq r11,[rbp-0x88]
0x280b68191efb  1f7b  4c8b7d80             REX.W movq r15,[rbp-0x80]
0x280b68191eff  1f7f  e91debffff           jmp 0x280b68190a21  <+0xaa1>
0x280b68191f04  1f84  4c895d90             REX.W movq [rbp-0x70],r11
0x280b68191f08  1f88  4c896580             REX.W movq [rbp-0x80],r12
0x280b68191f0c  1f8c  e85f44ffff           call 0x280b68186370  (jump table)    ;; wasm stub: WasmStackGuard
0x280b68191f11  1f91  488b7de0             REX.W movq rdi,[rbp-0x20]
0x280b68191f15  1f95  4c8b45d8             REX.W movq r8,[rbp-0x28]
0x280b68191f19  1f99  4c8b7db8             REX.W movq r15,[rbp-0x48]
0x280b68191f1d  1f9d  488b8578ffffff       REX.W movq rax,[rbp-0x88]
0x280b68191f24  1fa4  4c8b5d90             REX.W movq r11,[rbp-0x70]
0x280b68191f28  1fa8  4c8b6580             REX.W movq r12,[rbp-0x80]
0x280b68191f2c  1fac  e9f3ecffff           jmp 0x280b68190c24  <+0xca4>
0x280b68191f31  1fb1  4c895dd0             REX.W movq [rbp-0x30],r11
0x280b68191f35  1fb5  e83644ffff           call 0x280b68186370  (jump table)    ;; wasm stub: WasmStackGuard
0x280b68191f3a  1fba  4c8b7dd8             REX.W movq r15,[rbp-0x28]
0x280b68191f3e  1fbe  488b75f0             REX.W movq rsi,[rbp-0x10]
0x280b68191f42  1fc2  4c8b45c0             REX.W movq r8,[rbp-0x40]
0x280b68191f46  1fc6  488b7db8             REX.W movq rdi,[rbp-0x48]
0x280b68191f4a  1fca  4c8b5dd0             REX.W movq r11,[rbp-0x30]
0x280b68191f4e  1fce  488b45a8             REX.W movq rax,[rbp-0x58]
0x280b68191f52  1fd2  e986fbffff           jmp 0x280b68191add  <+0x1b5d>
0x280b68191f57  1fd7  4c895dd0             REX.W movq [rbp-0x30],r11
0x280b68191f5b  1fdb  e81044ffff           call 0x280b68186370  (jump table)    ;; wasm stub: WasmStackGuard
0x280b68191f60  1fe0  4c8b65d8             REX.W movq r12,[rbp-0x28]
0x280b68191f64  1fe4  4c8b45c0             REX.W movq r8,[rbp-0x40]
0x280b68191f68  1fe8  4c8b5dd0             REX.W movq r11,[rbp-0x30]
0x280b68191f6c  1fec  488b7db8             REX.W movq rdi,[rbp-0x48]
0x280b68191f70  1ff0  e994fcffff           jmp 0x280b68191c09  <+0x1c89>
0x280b68191f75  1ff5  e89641ffff           call 0x280b68186110  (jump table)    ;; wasm stub: ThrowWasmTrapMemOutOfBounds
0x280b68191f7a  1ffa  e89141ffff           call 0x280b68186110  (jump table)    ;; wasm stub: ThrowWasmTrapMemOutOfBounds
0x280b68191f7f  1fff  e88c41ffff           call 0x280b68186110  (jump table)    ;; wasm stub: ThrowWasmTrapMemOutOfBounds
0x280b68191f84  2004  e88741ffff           call 0x280b68186110  (jump table)    ;; wasm stub: ThrowWasmTrapMemOutOfBounds
0x280b68191f89  2009  e88241ffff           call 0x280b68186110  (jump table)    ;; wasm stub: ThrowWasmTrapMemOutOfBounds
0x280b68191f8e  200e  e87d41ffff           call 0x280b68186110  (jump table)    ;; wasm stub: ThrowWasmTrapMemOutOfBounds
0x280b68191f93  2013  e87841ffff           call 0x280b68186110  (jump table)    ;; wasm stub: ThrowWasmTrapMemOutOfBounds
0x280b68191f98  2018  e87341ffff           call 0x280b68186110  (jump table)    ;; wasm stub: ThrowWasmTrapMemOutOfBounds
0x280b68191f9d  201d  e86e41ffff           call 0x280b68186110  (jump table)    ;; wasm stub: ThrowWasmTrapMemOutOfBounds
0x280b68191fa2  2022  e86941ffff           call 0x280b68186110  (jump table)    ;; wasm stub: ThrowWasmTrapMemOutOfBounds
0x280b68191fa7  2027  e86441ffff           call 0x280b68186110  (jump table)    ;; wasm stub: ThrowWasmTrapMemOutOfBounds
0x280b68191fac  202c  e85f41ffff           call 0x280b68186110  (jump table)    ;; wasm stub: ThrowWasmTrapMemOutOfBounds
0x280b68191fb1  2031  e85a41ffff           call 0x280b68186110  (jump table)    ;; wasm stub: ThrowWasmTrapMemOutOfBounds
0x280b68191fb6  2036  e85541ffff           call 0x280b68186110  (jump table)    ;; wasm stub: ThrowWasmTrapMemOutOfBounds
0x280b68191fbb  203b  e85041ffff           call 0x280b68186110  (jump table)    ;; wasm stub: ThrowWasmTrapMemOutOfBounds
0x280b68191fc0  2040  e84b41ffff           call 0x280b68186110  (jump table)    ;; wasm stub: ThrowWasmTrapMemOutOfBounds
0x280b68191fc5  2045  e84641ffff           call 0x280b68186110  (jump table)    ;; wasm stub: ThrowWasmTrapMemOutOfBounds
0x280b68191fca  204a  e84141ffff           call 0x280b68186110  (jump table)    ;; wasm stub: ThrowWasmTrapMemOutOfBounds
0x280b68191fcf  204f  e83c41ffff           call 0x280b68186110  (jump table)    ;; wasm stub: ThrowWasmTrapMemOutOfBounds
0x280b68191fd4  2054  e83741ffff           call 0x280b68186110  (jump table)    ;; wasm stub: ThrowWasmTrapMemOutOfBounds
0x280b68191fd9  2059  e83241ffff           call 0x280b68186110  (jump table)    ;; wasm stub: ThrowWasmTrapMemOutOfBounds
0x280b68191fde  205e  e82d41ffff           call 0x280b68186110  (jump table)    ;; wasm stub: ThrowWasmTrapMemOutOfBounds
0x280b68191fe3  2063  e82841ffff           call 0x280b68186110  (jump table)    ;; wasm stub: ThrowWasmTrapMemOutOfBounds
0x280b68191fe8  2068  e82341ffff           call 0x280b68186110  (jump table)    ;; wasm stub: ThrowWasmTrapMemOutOfBounds
0x280b68191fed  206d  e81e41ffff           call 0x280b68186110  (jump table)    ;; wasm stub: ThrowWasmTrapMemOutOfBounds
0x280b68191ff2  2072  e81941ffff           call 0x280b68186110  (jump table)    ;; wasm stub: ThrowWasmTrapMemOutOfBounds
0x280b68191ff7  2077  e81441ffff           call 0x280b68186110  (jump table)    ;; wasm stub: ThrowWasmTrapMemOutOfBounds
0x280b68191ffc  207c  e80f41ffff           call 0x280b68186110  (jump table)    ;; wasm stub: ThrowWasmTrapMemOutOfBounds
0x280b68192001  2081  e80a41ffff           call 0x280b68186110  (jump table)    ;; wasm stub: ThrowWasmTrapMemOutOfBounds
0x280b68192006  2086  e80541ffff           call 0x280b68186110  (jump table)    ;; wasm stub: ThrowWasmTrapMemOutOfBounds
0x280b6819200b  208b  e80041ffff           call 0x280b68186110  (jump table)    ;; wasm stub: ThrowWasmTrapMemOutOfBounds
0x280b68192010  2090  e85b41ffff           call 0x280b68186170  (jump table)    ;; wasm stub: ThrowWasmTrapFuncSigMismatch
0x280b68192015  2095  e88641ffff           call 0x280b681861a0  (jump table)    ;; wasm stub: ThrowWasmTrapTableOutOfBounds
0x280b6819201a  209a  e8f140ffff           call 0x280b68186110  (jump table)    ;; wasm stub: ThrowWasmTrapMemOutOfBounds
0x280b6819201f  209f  e8ec40ffff           call 0x280b68186110  (jump table)    ;; wasm stub: ThrowWasmTrapMemOutOfBounds
0x280b68192024  20a4  e8e740ffff           call 0x280b68186110  (jump table)    ;; wasm stub: ThrowWasmTrapMemOutOfBounds
0x280b68192029  20a9  e8e240ffff           call 0x280b68186110  (jump table)    ;; wasm stub: ThrowWasmTrapMemOutOfBounds
0x280b6819202e  20ae  e8dd40ffff           call 0x280b68186110  (jump table)    ;; wasm stub: ThrowWasmTrapMemOutOfBounds
0x280b68192033  20b3  e8d840ffff           call 0x280b68186110  (jump table)    ;; wasm stub: ThrowWasmTrapMemOutOfBounds
0x280b68192038  20b8  e8d340ffff           call 0x280b68186110  (jump table)    ;; wasm stub: ThrowWasmTrapMemOutOfBounds
0x280b6819203d  20bd  e8ce40ffff           call 0x280b68186110  (jump table)    ;; wasm stub: ThrowWasmTrapMemOutOfBounds
0x280b68192042  20c2  e8c940ffff           call 0x280b68186110  (jump table)    ;; wasm stub: ThrowWasmTrapMemOutOfBounds
0x280b68192047  20c7  e8c440ffff           call 0x280b68186110  (jump table)    ;; wasm stub: ThrowWasmTrapMemOutOfBounds
0x280b6819204c  20cc  e8bf40ffff           call 0x280b68186110  (jump table)    ;; wasm stub: ThrowWasmTrapMemOutOfBounds
0x280b68192051  20d1  e8ba40ffff           call 0x280b68186110  (jump table)    ;; wasm stub: ThrowWasmTrapMemOutOfBounds
0x280b68192056  20d6  e8b540ffff           call 0x280b68186110  (jump table)    ;; wasm stub: ThrowWasmTrapMemOutOfBounds
0x280b6819205b  20db  e8b040ffff           call 0x280b68186110  (jump table)    ;; wasm stub: ThrowWasmTrapMemOutOfBounds
0x280b68192060  20e0  e8ab40ffff           call 0x280b68186110  (jump table)    ;; wasm stub: ThrowWasmTrapMemOutOfBounds
0x280b68192065  20e5  e8a640ffff           call 0x280b68186110  (jump table)    ;; wasm stub: ThrowWasmTrapMemOutOfBounds
0x280b6819206a  20ea  e8a140ffff           call 0x280b68186110  (jump table)    ;; wasm stub: ThrowWasmTrapMemOutOfBounds
0x280b6819206f  20ef  e89c40ffff           call 0x280b68186110  (jump table)    ;; wasm stub: ThrowWasmTrapMemOutOfBounds
0x280b68192074  20f4  e89740ffff           call 0x280b68186110  (jump table)    ;; wasm stub: ThrowWasmTrapMemOutOfBounds
0x280b68192079  20f9  e89240ffff           call 0x280b68186110  (jump table)    ;; wasm stub: ThrowWasmTrapMemOutOfBounds
0x280b6819207e  20fe  e88d40ffff           call 0x280b68186110  (jump table)    ;; wasm stub: ThrowWasmTrapMemOutOfBounds
0x280b68192083  2103  e88840ffff           call 0x280b68186110  (jump table)    ;; wasm stub: ThrowWasmTrapMemOutOfBounds
0x280b68192088  2108  e88340ffff           call 0x280b68186110  (jump table)    ;; wasm stub: ThrowWasmTrapMemOutOfBounds
0x280b6819208d  210d  e87e40ffff           call 0x280b68186110  (jump table)    ;; wasm stub: ThrowWasmTrapMemOutOfBounds
0x280b68192092  2112  e87940ffff           call 0x280b68186110  (jump table)    ;; wasm stub: ThrowWasmTrapMemOutOfBounds
0x280b68192097  2117  e87440ffff           call 0x280b68186110  (jump table)    ;; wasm stub: ThrowWasmTrapMemOutOfBounds
0x280b6819209c  211c  e86f40ffff           call 0x280b68186110  (jump table)    ;; wasm stub: ThrowWasmTrapMemOutOfBounds
0x280b681920a1  2121  e86a40ffff           call 0x280b68186110  (jump table)    ;; wasm stub: ThrowWasmTrapMemOutOfBounds
0x280b681920a6  2126  e86540ffff           call 0x280b68186110  (jump table)    ;; wasm stub: ThrowWasmTrapMemOutOfBounds
0x280b681920ab  212b  e86040ffff           call 0x280b68186110  (jump table)    ;; wasm stub: ThrowWasmTrapMemOutOfBounds
0x280b681920b0  2130  e85b40ffff           call 0x280b68186110  (jump table)    ;; wasm stub: ThrowWasmTrapMemOutOfBounds
0x280b681920b5  2135  e85640ffff           call 0x280b68186110  (jump table)    ;; wasm stub: ThrowWasmTrapMemOutOfBounds
0x280b681920ba  213a  e85140ffff           call 0x280b68186110  (jump table)    ;; wasm stub: ThrowWasmTrapMemOutOfBounds
0x280b681920bf  213f  e84c40ffff           call 0x280b68186110  (jump table)    ;; wasm stub: ThrowWasmTrapMemOutOfBounds
0x280b681920c4  2144  e84740ffff           call 0x280b68186110  (jump table)    ;; wasm stub: ThrowWasmTrapMemOutOfBounds
0x280b681920c9  2149  e84240ffff           call 0x280b68186110  (jump table)    ;; wasm stub: ThrowWasmTrapMemOutOfBounds
0x280b681920ce  214e  e83d40ffff           call 0x280b68186110  (jump table)    ;; wasm stub: ThrowWasmTrapMemOutOfBounds
0x280b681920d3  2153  e83840ffff           call 0x280b68186110  (jump table)    ;; wasm stub: ThrowWasmTrapMemOutOfBounds
0x280b681920d8  2158  e83340ffff           call 0x280b68186110  (jump table)    ;; wasm stub: ThrowWasmTrapMemOutOfBounds
0x280b681920dd  215d  e82e40ffff           call 0x280b68186110  (jump table)    ;; wasm stub: ThrowWasmTrapMemOutOfBounds
0x280b681920e2  2162  e82940ffff           call 0x280b68186110  (jump table)    ;; wasm stub: ThrowWasmTrapMemOutOfBounds
0x280b681920e7  2167  e82440ffff           call 0x280b68186110  (jump table)    ;; wasm stub: ThrowWasmTrapMemOutOfBounds
0x280b681920ec  216c  e81f40ffff           call 0x280b68186110  (jump table)    ;; wasm stub: ThrowWasmTrapMemOutOfBounds
0x280b681920f1  2171  e81a40ffff           call 0x280b68186110  (jump table)    ;; wasm stub: ThrowWasmTrapMemOutOfBounds
0x280b681920f6  2176  e81540ffff           call 0x280b68186110  (jump table)    ;; wasm stub: ThrowWasmTrapMemOutOfBounds
0x280b681920fb  217b  e81040ffff           call 0x280b68186110  (jump table)    ;; wasm stub: ThrowWasmTrapMemOutOfBounds
0x280b68192100  2180  e80b40ffff           call 0x280b68186110  (jump table)    ;; wasm stub: ThrowWasmTrapMemOutOfBounds
0x280b68192105  2185  e80640ffff           call 0x280b68186110  (jump table)    ;; wasm stub: ThrowWasmTrapMemOutOfBounds
0x280b6819210a  218a  e80140ffff           call 0x280b68186110  (jump table)    ;; wasm stub: ThrowWasmTrapMemOutOfBounds
0x280b6819210f  218f  e8fc3fffff           call 0x280b68186110  (jump table)    ;; wasm stub: ThrowWasmTrapMemOutOfBounds
0x280b68192114  2194  e8f73fffff           call 0x280b68186110  (jump table)    ;; wasm stub: ThrowWasmTrapMemOutOfBounds
0x280b68192119  2199  e8f23fffff           call 0x280b68186110  (jump table)    ;; wasm stub: ThrowWasmTrapMemOutOfBounds
0x280b6819211e  219e  e8ed3fffff           call 0x280b68186110  (jump table)    ;; wasm stub: ThrowWasmTrapMemOutOfBounds
0x280b68192123  21a3  e8e83fffff           call 0x280b68186110  (jump table)    ;; wasm stub: ThrowWasmTrapMemOutOfBounds
0x280b68192128  21a8  e8e33fffff           call 0x280b68186110  (jump table)    ;; wasm stub: ThrowWasmTrapMemOutOfBounds
0x280b6819212d  21ad  e8de3fffff           call 0x280b68186110  (jump table)    ;; wasm stub: ThrowWasmTrapMemOutOfBounds
0x280b68192132  21b2  e8d93fffff           call 0x280b68186110  (jump table)    ;; wasm stub: ThrowWasmTrapMemOutOfBounds
0x280b68192137  21b7  e8d43fffff           call 0x280b68186110  (jump table)    ;; wasm stub: ThrowWasmTrapMemOutOfBounds
0x280b6819213c  21bc  e8cf3fffff           call 0x280b68186110  (jump table)    ;; wasm stub: ThrowWasmTrapMemOutOfBounds
0x280b68192141  21c1  e8ca3fffff           call 0x280b68186110  (jump table)    ;; wasm stub: ThrowWasmTrapMemOutOfBounds
0x280b68192146  21c6  e8c53fffff           call 0x280b68186110  (jump table)    ;; wasm stub: ThrowWasmTrapMemOutOfBounds
0x280b6819214b  21cb  e8c03fffff           call 0x280b68186110  (jump table)    ;; wasm stub: ThrowWasmTrapMemOutOfBounds
0x280b68192150  21d0  e8bb3fffff           call 0x280b68186110  (jump table)    ;; wasm stub: ThrowWasmTrapMemOutOfBounds
0x280b68192155  21d5  e8b63fffff           call 0x280b68186110  (jump table)    ;; wasm stub: ThrowWasmTrapMemOutOfBounds
0x280b6819215a  21da  e8b13fffff           call 0x280b68186110  (jump table)    ;; wasm stub: ThrowWasmTrapMemOutOfBounds
0x280b6819215f  21df  e8ac3fffff           call 0x280b68186110  (jump table)    ;; wasm stub: ThrowWasmTrapMemOutOfBounds
0x280b68192164  21e4  e8a73fffff           call 0x280b68186110  (jump table)    ;; wasm stub: ThrowWasmTrapMemOutOfBounds
0x280b68192169  21e9  e8a23fffff           call 0x280b68186110  (jump table)    ;; wasm stub: ThrowWasmTrapMemOutOfBounds
0x280b6819216e  21ee  e89d3fffff           call 0x280b68186110  (jump table)    ;; wasm stub: ThrowWasmTrapMemOutOfBounds
0x280b68192173  21f3  e8983fffff           call 0x280b68186110  (jump table)    ;; wasm stub: ThrowWasmTrapMemOutOfBounds
0x280b68192178  21f8  e8933fffff           call 0x280b68186110  (jump table)    ;; wasm stub: ThrowWasmTrapMemOutOfBounds
0x280b6819217d  21fd  e88e3fffff           call 0x280b68186110  (jump table)    ;; wasm stub: ThrowWasmTrapMemOutOfBounds
0x280b68192182  2202  e8893fffff           call 0x280b68186110  (jump table)    ;; wasm stub: ThrowWasmTrapMemOutOfBounds
0x280b68192187  2207  e8843fffff           call 0x280b68186110  (jump table)    ;; wasm stub: ThrowWasmTrapMemOutOfBounds
0x280b6819218c  220c  e87f3fffff           call 0x280b68186110  (jump table)    ;; wasm stub: ThrowWasmTrapMemOutOfBounds
0x280b68192191  2211  e87a3fffff           call 0x280b68186110  (jump table)    ;; wasm stub: ThrowWasmTrapMemOutOfBounds
0x280b68192196  2216  e8753fffff           call 0x280b68186110  (jump table)    ;; wasm stub: ThrowWasmTrapMemOutOfBounds
0x280b6819219b  221b  e8703fffff           call 0x280b68186110  (jump table)    ;; wasm stub: ThrowWasmTrapMemOutOfBounds
0x280b681921a0  2220  e86b3fffff           call 0x280b68186110  (jump table)    ;; wasm stub: ThrowWasmTrapMemOutOfBounds
0x280b681921a5  2225  e8663fffff           call 0x280b68186110  (jump table)    ;; wasm stub: ThrowWasmTrapMemOutOfBounds
0x280b681921aa  222a  e8613fffff           call 0x280b68186110  (jump table)    ;; wasm stub: ThrowWasmTrapMemOutOfBounds
0x280b681921af  222f  e85c3fffff           call 0x280b68186110  (jump table)    ;; wasm stub: ThrowWasmTrapMemOutOfBounds
0x280b681921b4  2234  e8573fffff           call 0x280b68186110  (jump table)    ;; wasm stub: ThrowWasmTrapMemOutOfBounds
0x280b681921b9  2239  e8523fffff           call 0x280b68186110  (jump table)    ;; wasm stub: ThrowWasmTrapMemOutOfBounds
0x280b681921be  223e  e84d3fffff           call 0x280b68186110  (jump table)    ;; wasm stub: ThrowWasmTrapMemOutOfBounds
0x280b681921c3  2243  e8483fffff           call 0x280b68186110  (jump table)    ;; wasm stub: ThrowWasmTrapMemOutOfBounds
0x280b681921c8  2248  e8433fffff           call 0x280b68186110  (jump table)    ;; wasm stub: ThrowWasmTrapMemOutOfBounds
0x280b681921cd  224d  e83e3fffff           call 0x280b68186110  (jump table)    ;; wasm stub: ThrowWasmTrapMemOutOfBounds
0x280b681921d2  2252  e8393fffff           call 0x280b68186110  (jump table)    ;; wasm stub: ThrowWasmTrapMemOutOfBounds
0x280b681921d7  2257  e8343fffff           call 0x280b68186110  (jump table)    ;; wasm stub: ThrowWasmTrapMemOutOfBounds
0x280b681921dc  225c  e82f3fffff           call 0x280b68186110  (jump table)    ;; wasm stub: ThrowWasmTrapMemOutOfBounds
0x280b681921e1  2261  e82a3fffff           call 0x280b68186110  (jump table)    ;; wasm stub: ThrowWasmTrapMemOutOfBounds
0x280b681921e6  2266  e8253fffff           call 0x280b68186110  (jump table)    ;; wasm stub: ThrowWasmTrapMemOutOfBounds
0x280b681921eb  226b  e8203fffff           call 0x280b68186110  (jump table)    ;; wasm stub: ThrowWasmTrapMemOutOfBounds
0x280b681921f0  2270  e81b3fffff           call 0x280b68186110  (jump table)    ;; wasm stub: ThrowWasmTrapMemOutOfBounds
0x280b681921f5  2275  90                   nop
0x280b681921f6  2276  6690                 nop
0x280b681921f8  2278  280b68191300       jump table entry 4992    ;; internal reference
0x280b68192200  2280  280b68191330       jump table entry 5040    ;; internal reference
0x280b68192208  2288  280b68191360       jump table entry 5088    ;; internal reference
0x280b68192210  2290  280b68191390       jump table entry 5136    ;; internal reference
0x280b68192218  2298  280b681913c0       jump table entry 5184    ;; internal reference
0x280b68192220  22a0  280b681913f0       jump table entry 5232    ;; internal reference
0x280b68192228  22a8  280b68191410       jump table entry 5264    ;; internal reference
0x280b68192230  22b0  280b68191440       jump table entry 5312    ;; internal reference
0x280b68192238  22b8  280b68191020       jump table entry 4256    ;; internal reference
0x280b68192240  22c0  280b68190970       jump table entry 2544    ;; internal reference
0x280b68192248  22c8  280b681909b0       jump table entry 2608    ;; internal reference
0x280b68192250  22d0  280b68190d30       jump table entry 3504    ;; internal reference
0x280b68192258  22d8  280b68191020       jump table entry 4256    ;; internal reference
0x280b68192260  22e0  280b68191020       jump table entry 4256    ;; internal reference
0x280b68192268  22e8  280b68191020       jump table entry 4256    ;; internal reference
0x280b68192270  22f0  280b68190d70       jump table entry 3568    ;; internal reference
0x280b68192278  22f8  280b68190da0       jump table entry 3616    ;; internal reference
0x280b68192280  2300  280b68190de0       jump table entry 3680    ;; internal reference
0x280b68192288  2308  280b68190e20       jump table entry 3744    ;; internal reference
0x280b68192290  2310  280b68190e60       jump table entry 3808    ;; internal reference
0x280b68192298  2318  280b68190ea0       jump table entry 3872    ;; internal reference
0x280b681922a0  2320  280b68190ee0       jump table entry 3936    ;; internal reference
0x280b681922a8  2328  280b68190f20       jump table entry 4000    ;; internal reference
0x280b681922b0  2330  280b68190f60       jump table entry 4064    ;; internal reference
0x280b681922b8  2338  280b68191020       jump table entry 4256    ;; internal reference
0x280b681922c0  2340  280b68190fa0       jump table entry 4128    ;; internal reference
0x280b681922c8  2348  280b68190fe0       jump table entry 4192    ;; internal reference
0x280b681922d0  2350  280b68191130       jump table entry 4528    ;; internal reference
0x280b681922d8  2358  280b68191020       jump table entry 4256    ;; internal reference
0x280b681922e0  2360  280b68191020       jump table entry 4256    ;; internal reference
0x280b681922e8  2368  280b68191020       jump table entry 4256    ;; internal reference
0x280b681922f0  2370  280b681910f0       jump table entry 4464    ;; internal reference
0x280b681922f8  2378  280b68191130       jump table entry 4528    ;; internal reference
0x280b68192300  2380  280b681911b0       jump table entry 4656    ;; internal reference
0x280b68192308  2388  280b681911f0       jump table entry 4720    ;; internal reference
0x280b68192310  2390  280b68191230       jump table entry 4784    ;; internal reference
0x280b68192318  2398  280b68191270       jump table entry 4848    ;; internal reference
0x280b68192320  23a0  280b681912b0       jump table entry 4912    ;; internal reference
0x280b68192328  23a8  280b68191470       jump table entry 5360    ;; internal reference
0x280b68192330  23b0  280b681914f0       jump table entry 5488    ;; internal reference
0x280b68192338  23b8  280b68191540       jump table entry 5568    ;; internal reference
0x280b68192340  23c0  280b68191580       jump table entry 5632    ;; internal reference
0x280b68192348  23c8  280b681915c0       jump table entry 5696    ;; internal reference
0x280b68192350  23d0  280b68191680       jump table entry 5888    ;; internal reference
0x280b68192358  23d8  280b681916c0       jump table entry 5952    ;; internal reference
0x280b68192360  23e0  280b68191730       jump table entry 6064    ;; internal reference
0x280b68192368  23e8  280b68191770       jump table entry 6128    ;; internal reference
0x280b68192370  23f0  280b681917b0       jump table entry 6192    ;; internal reference

Protected instructions:
 pc offset  land pad
      1de5      1ff5
      1ced      1ffa
      1ccd      1fff
      1cad      2004
      1c8d      2009
      1bec      200e
      1ba4      2013
      1b61      2018
      18ff      201d
      188a      2022
      1856      2027
      1740      202c
      1691      2031
      1640      2036
      1515      203b
      14c8      2040
      14c0      2045
      1495      204a
      1490      204f
      1445      2054
      1440      2059
      1415      205e
      1410      2063
      13e8      2068
      13e3      206d
      13b5      2072
      13b0      2077
      1385      207c
      1380      2081
      1219      2086
      11b0      208b
      10d6      209a
      1077      209f
      1072      20a4
       ca4      20a9
       c51      20ae
       b7f      20b3
       b13      20b8
       aa1      20bd
       a47      20c2
       a3e      20c7
       a39      20cc
       a30      20d1
       9d9      20d6
       8de      20db
       8c7      20e0
       8c3      20e5
       8bf      20ea
       88e      20ef
       7ea      20f4
       7e2      20f9
       7d9      20fe
       7c4      2103
       7ae      2108
       7a6      210d
       79e      2112
       787      2117
       772      211c
       76b      2121
       762      2126
       74b      212b
       735      2130
       72d      2135
       724      213a
       70f      213f
       6a3      2144
       694      2149
       690      214e
       68c      2153
       683      2158
       653      215d
       641      2162
       639      2167
       627      216c
       613      2171
       60e      2176
       5ee      217b
       5de      2180
       5c5      2185
       5b1      218a
       597      218f
       570      2194
       562      2199
       55e      219e
       55a      21a3
       551      21a8
       515      21ad
       503      21b2
       4fb      21b7
       4e9      21bc
       4d9      21c1
       4d4      21c6
       4b4      21cb
       4a3      21d0
       3ec      21d5
       3e7      21da
       3b9      21df
       3b4      21e4
       388      21e9
       383      21ee
       358      21f3
       353      21f8
       2ec      21fd
       2e7      2202
       2a8      2207
       298      220c
       28a      2211
       274      2216
       26f      221b
       1e2      2220
       1dd      2225
       1c8      222a
       1b9      222f
       1b4      2234
       19f      2239
       190      223e
       18b      2243
       176      2248
       167      224d
       162      2252
       14d      2257
       108      225c
       103      2261
        aa      2266
        a5      226b
        41      2270

Source positions:
 pc offset  position
        41        51
        a5       105
        aa       122
       103      2030
       108      2035
       14d       168
       162       185
       167       197
       176       168
       18b       185
       190       197
       19f       168
       1b4       185
       1b9       197
       1c8       168
       1dd       185
       1e2       197
       22a       246
       26c       266
       274       269
       27a       272
       282       278
       298       292
       2a8       302
       2e7       328
       2ec       339
       353       391
       358       403
       383       391
       388       403
       3b4       391
       3b9       403
       3e7       391
       3ec       403
       489       615
       49b       626
       4b4       455
       4ba       458
       4cc       465
       4d9       470
       4e9       480
       4fb       495
       503       500
       515       513
       551       550
       55a       558
       55e       563
       562       571
       570       580
       597       646
       5b1       657
       5c5       810
       5cd       819
       5d6       825
       5ee       673
       5f4       676
       606       683
       613       688
       627       698
       639       713
       641       718
       653       731
       683       756
       68c       764
       690       769
       694       780
       6a3       789
       70f       847
       724       868
       72d       873
       735       890
       74b       847
       762       868
       76b       873
       772       890
       787       847
       79e       868
       7a6       873
       7ae       890
       7c4       847
       7d9       868
       7e2       873
       7ea       890
       86f       976
       886       980
       8bf       938
       8c3       951
       8c7       954
       8de      1077
       9b4      1692
       9d9      1672
       a30      1701
       a39      1708
       a3e      1711
       a47      1721
       aa1      1746
       aae      1763
       b0f      1746
       b24      1763
       b7b      1746
       b90      1763
       c20      1833
       c49      1853
       ca4      1862
       cb1      1877
       ce1      1900
       d67      1933
      1072      2000
      1077      2003
      10d6      1970
      111f      1983
      11b0      1435
      1219      1454
      1380      1225
      1385      1230
      13b0      1238
      13b5      1243
      13e3      1251
      13e8      1257
      1410      1265
      1415      1270
      1440      1278
      1445      1283
      1490      1291
      1495      1296
      14c0      1304
      14c8      1310
      1515      1393
      151a      1398
      1640      1594
      1662      1621
      168d      1658
      1740      1176
      1771      1506
      1856      1343
      1861      1353
      1882      1359
      18fb      1541
      1a00      2230
      1a22      2238
      1a48      2255
      1a62      2267
      1a85      2275
      1aab      2292
      1b61      2072
      1b76      2093
      1ba0      2072
      1bbd      2093
      1be8      2072
      1c01      2093
      1c8d      2136
      1dce      2310
      1ddd      2314
      1e07         0
      1e31        80
      1e5f       129
      1e9c       164
      1edd       380
      1f1a       835
      1f54      1742
      1f84      1858
      1fb1      2062
      1fd7      2126
      1ff5      2314
      1ffa      2136
      200e      2072
      201d      1541
      2022      1359
      2027      1343
      202c      1176
      2031      1658
      2036      1594
      203b      1393
      2040      1310
      2045      1304
      204a      1296
      204f      1291
      2054      1283
      2059      1278
      205e      1270
      2063      1265
      2068      1257
      206d      1251
      2072      1243
      2077      1238
      207c      1230
      2081      1225
      2086      1454
      208b      1435
      2090      1983
      209a      1970
      209f      2003
      20a4      2000
      20a9      1862
      20ae      1853
      20b3      1746
      20c2      1721
      20c7      1711
      20cc      1708
      20d1      1701
      20d6      1672
      20db      1077
      20e0       954
      20e5       951
      20ea       938
      20ef       980
      20f4       890
      20f9       873
      20fe       868
      2103       847
      2108       890
      210d       873
      2112       868
      2117       847
      211c       890
      2121       873
      2126       868
      212b       847
      2130       890
      2135       873
      213a       868
      213f       847
      2144       789
      2149       780
      214e       769
      2153       764
      2158       756
      215d       731
      2162       718
      2167       713
      216c       698
      2171       688
      2176       683
      217b       673
      2180       825
      2185       810
      218a       657
      218f       646
      2194       580
      2199       571
      219e       563
      21a3       558
      21a8       550
      21ad       513
      21b2       500
      21b7       495
      21bc       480
      21c1       470
      21c6       465
      21cb       455
      21d0       626
      21d5       403
      21da       391
      21df       403
      21e4       391
      21e9       403
      21ee       391
      21f3       403
      21f8       391
      21fd       339
      2202       328
      2207       302
      220c       292
      2211       278
      2216       269
      221b       266
      2220       197
      2225       185
      222a       168
      222f       197
      2234       185
      2239       168
      223e       197
      2243       185
      2248       168
      224d       197
      2252       185
      2257       168
      225c      2035
      2261      2030
      2266       122
      226b       105
      2270        51

Safepoints (entries = 1, byte size = 14)
0x280b681901b5    235  slots (sp->fp): 00000000000000000000000000000000

RelocInfo (size = 338)
0x280b681901b1  internal wasm call
0x280b681901fe  internal wasm call
0x280b6819040e  internal wasm call
0x280b6819043f  internal wasm call
0x280b68190552  internal wasm call
0x280b68190579  internal wasm call
0x280b68190802  internal wasm call
0x280b6819094e  internal wasm call
0x280b68190a41  internal wasm call
0x280b68190aad  internal wasm call
0x280b68190b19  internal wasm call
0x280b68190bb8  internal wasm call
0x280b68190c42  internal wasm call
0x280b68190c71  internal wasm call
0x280b68190d07  internal wasm call
0x280b681914ad  internal wasm call
0x280b681915f4  internal wasm call
0x280b6819170e  internal wasm call
0x280b681917fe  internal wasm call
0x280b6819199e  internal wasm call
0x280b681919b9  internal wasm call
0x280b681919de  internal wasm call
0x280b68191a01  internal wasm call
0x280b68191a1c  internal wasm call
0x280b68191a41  internal wasm call
0x280b68191b06  internal wasm call
0x280b68191b4e  internal wasm call
0x280b68191b8e  internal wasm call
0x280b68191d57  internal wasm call
0x280b68191d8c  wasm stub call
0x280b68191dba  wasm stub call
0x280b68191dec  wasm stub call
0x280b68191e2d  wasm stub call
0x280b68191e6d  wasm stub call
0x280b68191ea9  wasm stub call
0x280b68191ee0  wasm stub call
0x280b68191f0d  wasm stub call
0x280b68191f36  wasm stub call
0x280b68191f5c  wasm stub call
0x280b68191f76  wasm stub call
0x280b68191f7b  wasm stub call
0x280b68191f80  wasm stub call
0x280b68191f85  wasm stub call
0x280b68191f8a  wasm stub call
0x280b68191f8f  wasm stub call
0x280b68191f94  wasm stub call
0x280b68191f99  wasm stub call
0x280b68191f9e  wasm stub call
0x280b68191fa3  wasm stub call
0x280b68191fa8  wasm stub call
0x280b68191fad  wasm stub call
0x280b68191fb2  wasm stub call
0x280b68191fb7  wasm stub call
0x280b68191fbc  wasm stub call
0x280b68191fc1  wasm stub call
0x280b68191fc6  wasm stub call
0x280b68191fcb  wasm stub call
0x280b68191fd0  wasm stub call
0x280b68191fd5  wasm stub call
0x280b68191fda  wasm stub call
0x280b68191fdf  wasm stub call
0x280b68191fe4  wasm stub call
0x280b68191fe9  wasm stub call
0x280b68191fee  wasm stub call
0x280b68191ff3  wasm stub call
0x280b68191ff8  wasm stub call
0x280b68191ffd  wasm stub call
0x280b68192002  wasm stub call
0x280b68192007  wasm stub call
0x280b6819200c  wasm stub call
0x280b68192011  wasm stub call
0x280b68192016  wasm stub call
0x280b6819201b  wasm stub call
0x280b68192020  wasm stub call
0x280b68192025  wasm stub call
0x280b6819202a  wasm stub call
0x280b6819202f  wasm stub call
0x280b68192034  wasm stub call
0x280b68192039  wasm stub call
0x280b6819203e  wasm stub call
0x280b68192043  wasm stub call
0x280b68192048  wasm stub call
0x280b6819204d  wasm stub call
0x280b68192052  wasm stub call
0x280b68192057  wasm stub call
0x280b6819205c  wasm stub call
0x280b68192061  wasm stub call
0x280b68192066  wasm stub call
0x280b6819206b  wasm stub call
0x280b68192070  wasm stub call
0x280b68192075  wasm stub call
0x280b6819207a  wasm stub call
0x280b6819207f  wasm stub call
0x280b68192084  wasm stub call
0x280b68192089  wasm stub call
0x280b6819208e  wasm stub call
0x280b68192093  wasm stub call
0x280b68192098  wasm stub call
0x280b6819209d  wasm stub call
0x280b681920a2  wasm stub call
0x280b681920a7  wasm stub call
0x280b681920ac  wasm stub call
0x280b681920b1  wasm stub call
0x280b681920b6  wasm stub call
0x280b681920bb  wasm stub call
0x280b681920c0  wasm stub call
0x280b681920c5  wasm stub call
0x280b681920ca  wasm stub call
0x280b681920cf  wasm stub call
0x280b681920d4  wasm stub call
0x280b681920d9  wasm stub call
0x280b681920de  wasm stub call
0x280b681920e3  wasm stub call
0x280b681920e8  wasm stub call
0x280b681920ed  wasm stub call
0x280b681920f2  wasm stub call
0x280b681920f7  wasm stub call
0x280b681920fc  wasm stub call
0x280b68192101  wasm stub call
0x280b68192106  wasm stub call
0x280b6819210b  wasm stub call
0x280b68192110  wasm stub call
0x280b68192115  wasm stub call
0x280b6819211a  wasm stub call
0x280b6819211f  wasm stub call
0x280b68192124  wasm stub call
0x280b68192129  wasm stub call
0x280b6819212e  wasm stub call
0x280b68192133  wasm stub call
0x280b68192138  wasm stub call
0x280b6819213d  wasm stub call
0x280b68192142  wasm stub call
0x280b68192147  wasm stub call
0x280b6819214c  wasm stub call
0x280b68192151  wasm stub call
0x280b68192156  wasm stub call
0x280b6819215b  wasm stub call
0x280b68192160  wasm stub call
0x280b68192165  wasm stub call
0x280b6819216a  wasm stub call
0x280b6819216f  wasm stub call
0x280b68192174  wasm stub call
0x280b68192179  wasm stub call
0x280b6819217e  wasm stub call
0x280b68192183  wasm stub call
0x280b68192188  wasm stub call
0x280b6819218d  wasm stub call
0x280b68192192  wasm stub call
0x280b68192197  wasm stub call
0x280b6819219c  wasm stub call
0x280b681921a1  wasm stub call
0x280b681921a6  wasm stub call
0x280b681921ab  wasm stub call
0x280b681921b0  wasm stub call
0x280b681921b5  wasm stub call
0x280b681921ba  wasm stub call
0x280b681921bf  wasm stub call
0x280b681921c4  wasm stub call
0x280b681921c9  wasm stub call
0x280b681921ce  wasm stub call
0x280b681921d3  wasm stub call
0x280b681921d8  wasm stub call
0x280b681921dd  wasm stub call
0x280b681921e2  wasm stub call
0x280b681921e7  wasm stub call
0x280b681921ec  wasm stub call
0x280b681921f1  wasm stub call
0x280b681921f8  internal reference
0x280b68192200  internal reference
0x280b68192208  internal reference
0x280b68192210  internal reference
0x280b68192218  internal reference
0x280b68192220  internal reference
0x280b68192228  internal reference
0x280b68192230  internal reference
0x280b68192238  internal reference
0x280b68192240  internal reference
0x280b68192248  internal reference
0x280b68192250  internal reference
0x280b68192258  internal reference
0x280b68192260  internal reference
0x280b68192268  internal reference
0x280b68192270  internal reference
0x280b68192278  internal reference
0x280b68192280  internal reference
0x280b68192288  internal reference
0x280b68192290  internal reference
0x280b68192298  internal reference
0x280b681922a0  internal reference
0x280b681922a8  internal reference
0x280b681922b0  internal reference
0x280b681922b8  internal reference
0x280b681922c0  internal reference
0x280b681922c8  internal reference
0x280b681922d0  internal reference
0x280b681922d8  internal reference
0x280b681922e0  internal reference
0x280b681922e8  internal reference
0x280b681922f0  internal reference
0x280b681922f8  internal reference
0x280b68192300  internal reference
0x280b68192308  internal reference
0x280b68192310  internal reference
0x280b68192318  internal reference
0x280b68192320  internal reference
0x280b68192328  internal reference
0x280b68192330  internal reference
0x280b68192338  internal reference
0x280b68192340  internal reference
0x280b68192348  internal reference
0x280b68192350  internal reference
0x280b68192358  internal reference
0x280b68192360  internal reference
0x280b68192368  internal reference
0x280b68192370  internal reference

--- End code ---
--- WebAssembly code ---
name: __wasm_call_ctors
index: 4
kind: wasm function
compiler: TurboFan
Body (size = 64 = 56 + 8 padding)
Instructions (size = 44)
0x280b6818e1c0     0  55                   push rbp
0x280b6818e1c1     1  4889e5               REX.W movq rbp,rsp
0x280b6818e1c4     4  6a08                 push 0x8
0x280b6818e1c6     6  56                   push rsi
0x280b6818e1c7     7  488b4627             REX.W movq rax,[rsi+0x27]
0x280b6818e1cb     b  483b20               REX.W cmpq rsp,[rax]
0x280b6818e1ce     e  0f860a000000         jna 0x280b6818e1de  <+0x1e>
0x280b6818e1d4    14  e8ca7effff           call 0x280b681860a3  (jump table)    ;; internal wasm call
0x280b6818e1d9    19  488be5               REX.W movq rsp,rbp
0x280b6818e1dc    1c  5d                   pop rbp
0x280b6818e1dd    1d  c3                   retl
0x280b6818e1de    1e  e88d81ffff           call 0x280b68186370  (jump table)    ;; wasm stub: WasmStackGuard
0x280b6818e1e3    23  488b75f0             REX.W movq rsi,[rbp-0x10]
0x280b6818e1e7    27  ebeb                 jmp 0x280b6818e1d4  <+0x14>
0x280b6818e1e9    29  90                   nop
0x280b6818e1ea    2a  6690                 nop

Source positions:
 pc offset  position
        14         1
        1e         0

Safepoints (entries = 1, byte size = 10)
0x280b6818e1d9     19  slots (sp->fp): 00000000

RelocInfo (size = 3)
0x280b6818e1d5  internal wasm call
0x280b6818e1df  wasm stub call

--- End code ---
--- WebAssembly code ---
name: isdigit
index: 15
kind: wasm function
compiler: TurboFan
Body (size = 64 = 36 + 28 padding)
Instructions (size = 28)
0x280b6818e200     0  55                   push rbp
0x280b6818e201     1  4889e5               REX.W movq rbp,rsp
0x280b6818e204     4  6a08                 push 0x8
0x280b6818e206     6  56                   push rsi
0x280b6818e207     7  8d58d0               leal rbx,[rax-0x30]
0x280b6818e20a     a  83fb0a               cmpl rbx,0xa
0x280b6818e20d     d  0f92c0               setcl al
0x280b6818e210    10  0fb6c0               movzxbl rax,rax
0x280b6818e213    13  488be5               REX.W movq rsp,rbp
0x280b6818e216    16  5d                   pop rbp
0x280b6818e217    17  c3                   retl
0x280b6818e218    18  90                   nop
0x280b6818e219    19  0f1f00               nop

Safepoints (entries = 0, byte size = 8)

RelocInfo (size = 0)

--- End code ---
--- WebAssembly code ---
name: stackSave
index: 38
kind: wasm function
compiler: TurboFan
Body (size = 64 = 28 + 36 padding)
Instructions (size = 20)
0x280b6818e240     0  55                   push rbp
0x280b6818e241     1  4889e5               REX.W movq rbp,rsp
0x280b6818e244     4  6a08                 push 0x8
0x280b6818e246     6  56                   push rsi
0x280b6818e247     7  488b5e47             REX.W movq rbx,[rsi+0x47]
0x280b6818e24b     b  8b03                 movl rax,[rbx]
0x280b6818e24d     d  488be5               REX.W movq rsp,rbp
0x280b6818e250    10  5d                   pop rbp
0x280b6818e251    11  c3                   retl
0x280b6818e252    12  90                   nop
0x280b6818e253    13  90                   nop

Safepoints (entries = 0, byte size = 8)

RelocInfo (size = 0)

--- End code ---
--- WebAssembly code ---
name: legalstub$dynCall_jiji
index: 42
kind: wasm function
compiler: TurboFan
Body (size = 192 = 160 + 32 padding)
Instructions (size = 148)
0x280b6818e280     0  55                   push rbp
0x280b6818e281     1  4889e5               REX.W movq rbp,rsp
0x280b6818e284     4  6a08                 push 0x8
0x280b6818e286     6  56                   push rsi
0x280b6818e287     7  4883ec28             REX.W subq rsp,0x28
0x280b6818e28b     b  488b7e27             REX.W movq rdi,[rsi+0x27]
0x280b6818e28f     f  483b27               REX.W cmpq rsp,[rdi]
0x280b6818e292    12  0f8646000000         jna 0x280b6818e2de  <+0x5e>
0x280b6818e298    18  48c1e320             REX.W shlq rbx, 32
0x280b6818e29c    1c  8bf9                 movl rdi,rcx
0x280b6818e29e    1e  480bdf               REX.W orq rbx,rdi
0x280b6818e2a1    21  488bcb               REX.W movq rcx,rbx
0x280b6818e2a4    24  498bd9               REX.W movq rbx,r9
0x280b6818e2a7    27  e8197effff           call 0x280b681860c5  (jump table)    ;; internal wasm call
0x280b6818e2ac    2c  488b7df0             REX.W movq rdi,[rbp-0x10]
0x280b6818e2b0    30  448b470b             movl r8,[rdi+0xb]
0x280b6818e2b4    34  4d03c6               REX.W addq r8,r14
0x280b6818e2b7    37  418b7013             movl rsi,[r8+0x13]
0x280b6818e2bb    3b  4903f6               REX.W addq rsi,r14
0x280b6818e2be    3e  488b7f2f             REX.W movq rdi,[rdi+0x2f]
0x280b6818e2c2    42  488b7f18             REX.W movq rdi,[rdi+0x18]
0x280b6818e2c6    46  4c8bc0               REX.W movq r8,rax
0x280b6818e2c9    49  49c1e820             REX.W shrq r8, 32
0x280b6818e2cd    4d  488945e8             REX.W movq [rbp-0x18],rax
0x280b6818e2d1    51  498bc0               REX.W movq rax,r8
0x280b6818e2d4    54  ffd7                 call rdi
0x280b6818e2d6    56  8b45e8               movl rax,[rbp-0x18]
0x280b6818e2d9    59  488be5               REX.W movq rsp,rbp
0x280b6818e2dc    5c  5d                   pop rbp
0x280b6818e2dd    5d  c3                   retl
0x280b6818e2de    5e  488945e8             REX.W movq [rbp-0x18],rax
0x280b6818e2e2    62  488955e0             REX.W movq [rbp-0x20],rdx
0x280b6818e2e6    66  4c894dd8             REX.W movq [rbp-0x28],r9
0x280b6818e2ea    6a  48894dd0             REX.W movq [rbp-0x30],rcx
0x280b6818e2ee    6e  48895dc8             REX.W movq [rbp-0x38],rbx
0x280b6818e2f2    72  e87980ffff           call 0x280b68186370  (jump table)    ;; wasm stub: WasmStackGuard
0x280b6818e2f7    77  488b75f0             REX.W movq rsi,[rbp-0x10]
0x280b6818e2fb    7b  488b45e8             REX.W movq rax,[rbp-0x18]
0x280b6818e2ff    7f  488b55e0             REX.W movq rdx,[rbp-0x20]
0x280b6818e303    83  4c8b4dd8             REX.W movq r9,[rbp-0x28]
0x280b6818e307    87  488b4dd0             REX.W movq rcx,[rbp-0x30]
0x280b6818e30b    8b  488b5dc8             REX.W movq rbx,[rbp-0x38]
0x280b6818e30f    8f  eb87                 jmp 0x280b6818e298  <+0x18>
0x280b6818e311    91  90                   nop
0x280b6818e312    92  6690                 nop

Source positions:
 pc offset  position
        21        19
        4d        27
        5e         0

Safepoints (entries = 1, byte size = 11)
0x280b6818e2ac     2c  slots (sp->fp): 0000000000000000

RelocInfo (size = 5)
0x280b6818e2a8  internal wasm call
0x280b6818e2f3  wasm stub call

--- End code ---
--- WebAssembly code ---
name: dynCall_jiji
index: 41
kind: wasm function
compiler: TurboFan
Body (size = 192 = 164 + 28 padding)
Instructions (size = 152)
0x280b6818e340     0  55                   push rbp
0x280b6818e341     1  4889e5               REX.W movq rbp,rsp
0x280b6818e344     4  6a08                 push 0x8
0x280b6818e346     6  56                   push rsi
0x280b6818e347     7  4883ec20             REX.W subq rsp,0x20
0x280b6818e34b     b  488b7e27             REX.W movq rdi,[rsi+0x27]
0x280b6818e34f     f  483b27               REX.W cmpq rsp,[rdi]
0x280b6818e352    12  0f864a000000         jna 0x280b6818e3a2  <+0x62>
0x280b6818e358    18  488b7e3f             REX.W movq rdi,[rsi+0x3f]
0x280b6818e35c    1c  4c8b4637             REX.W movq r8,[rsi+0x37]
0x280b6818e360    20  448b4e0f             movl r9,[rsi+0xf]
0x280b6818e364    24  4d03ce               REX.W addq r9,r14
0x280b6818e367    27  448d1c8500000000     leal r11,[rax*4+0x0]
0x280b6818e36f    2f  83f804               cmpl rax,0x4
0x280b6818e372    32  0f835a000000         jnc 0x280b6818e3d2  <+0x92>
0x280b6818e378    38  448be0               movl r12,rax
0x280b6818e37b    3b  42833c1f07           cmpl [rdi+r11*1],0x7
0x280b6818e380    40  0f8547000000         jnz 0x280b6818e3cd  <+0x8d>
0x280b6818e386    46  438b74a107           movl rsi,[r9+r12*4+0x7]
0x280b6818e38b    4b  4903f6               REX.W addq rsi,r14
0x280b6818e38e    4e  4b8b3ce0             REX.W movq rdi,[r8+r12*8]
0x280b6818e392    52  488bc2               REX.W movq rax,rdx
0x280b6818e395    55  488bd1               REX.W movq rdx,rcx
0x280b6818e398    58  488bcb               REX.W movq rcx,rbx
0x280b6818e39b    5b  ffd7                 call rdi
0x280b6818e39d    5d  488be5               REX.W movq rsp,rbp
0x280b6818e3a0    60  5d                   pop rbp
0x280b6818e3a1    61  c3                   retl
0x280b6818e3a2    62  488955e8             REX.W movq [rbp-0x18],rdx
0x280b6818e3a6    66  48894de0             REX.W movq [rbp-0x20],rcx
0x280b6818e3aa    6a  48895dd8             REX.W movq [rbp-0x28],rbx
0x280b6818e3ae    6e  488945d0             REX.W movq [rbp-0x30],rax
0x280b6818e3b2    72  e8b97fffff           call 0x280b68186370  (jump table)    ;; wasm stub: WasmStackGuard
0x280b6818e3b7    77  488b55e8             REX.W movq rdx,[rbp-0x18]
0x280b6818e3bb    7b  488b4de0             REX.W movq rcx,[rbp-0x20]
0x280b6818e3bf    7f  488b5dd8             REX.W movq rbx,[rbp-0x28]
0x280b6818e3c3    83  488b45d0             REX.W movq rax,[rbp-0x30]
0x280b6818e3c7    87  488b75f0             REX.W movq rsi,[rbp-0x10]
0x280b6818e3cb    8b  eb8b                 jmp 0x280b6818e358  <+0x18>
0x280b6818e3cd    8d  e89e7dffff           call 0x280b68186170  (jump table)    ;; wasm stub: ThrowWasmTrapFuncSigMismatch
0x280b6818e3d2    92  e8c97dffff           call 0x280b681861a0  (jump table)    ;; wasm stub: ThrowWasmTrapTableOutOfBounds
0x280b6818e3d7    97  90                   nop

Source positions:
 pc offset  position
        52         9
        62         0
        8d         9

Safepoints (entries = 1, byte size = 10)
0x280b6818e39d     5d  slots (sp->fp): 00000000

RelocInfo (size = 5)
0x280b6818e3b3  wasm stub call
0x280b6818e3ce  wasm stub call
0x280b6818e3d3  wasm stub call

--- End code ---
--- WebAssembly code ---
name: stackAlloc
index: 40
kind: wasm function
compiler: TurboFan
Body (size = 64 = 40 + 24 padding)
Instructions (size = 32)
0x280b6818e400     0  55                   push rbp
0x280b6818e401     1  4889e5               REX.W movq rbp,rsp
0x280b6818e404     4  6a08                 push 0x8
0x280b6818e406     6  56                   push rsi
0x280b6818e407     7  488b5e47             REX.W movq rbx,[rsi+0x47]
0x280b6818e40b     b  8b13                 movl rdx,[rbx]
0x280b6818e40d     d  2bd0                 subl rdx,rax
0x280b6818e40f     f  83e2f0               andl rdx,0xf0
0x280b6818e412    12  8913                 movl [rbx],rdx
0x280b6818e414    14  488bc2               REX.W movq rax,rdx
0x280b6818e417    17  488be5               REX.W movq rsp,rbp
0x280b6818e41a    1a  5d                   pop rbp
0x280b6818e41b    1b  c3                   retl
0x280b6818e41c    1c  90                   nop
0x280b6818e41d    1d  0f1f00               nop

Safepoints (entries = 0, byte size = 8)

RelocInfo (size = 0)

--- End code ---
--- WebAssembly code ---
name: stackRestore
index: 39
kind: wasm function
compiler: TurboFan
Body (size = 64 = 28 + 36 padding)
Instructions (size = 20)
0x280b6818e440     0  55                   push rbp
0x280b6818e441     1  4889e5               REX.W movq rbp,rsp
0x280b6818e444     4  6a08                 push 0x8
0x280b6818e446     6  56                   push rsi
0x280b6818e447     7  488b5e47             REX.W movq rbx,[rsi+0x47]
0x280b6818e44b     b  8903                 movl [rbx],rax
0x280b6818e44d     d  488be5               REX.W movq rsp,rbp
0x280b6818e450    10  5d                   pop rbp
0x280b6818e451    11  c3                   retl
0x280b6818e452    12  90                   nop
0x280b6818e453    13  90                   nop

Safepoints (entries = 0, byte size = 8)

RelocInfo (size = 0)

--- End code ---
--- WebAssembly code ---
name: strnlen
index: 17
kind: wasm function
compiler: TurboFan
Body (size = 128 = 104 + 24 padding)
Instructions (size = 92)
0x280b6818e480     0  55                   push rbp
0x280b6818e481     1  4889e5               REX.W movq rbp,rsp
0x280b6818e484     4  6a08                 push 0x8
0x280b6818e486     6  56                   push rsi
0x280b6818e487     7  4883ec10             REX.W subq rsp,0x10
0x280b6818e48b     b  488b5e27             REX.W movq rbx,[rsi+0x27]
0x280b6818e48f     f  488945e0             REX.W movq [rbp-0x20],rax
0x280b6818e493    13  488955e8             REX.W movq [rbp-0x18],rdx
0x280b6818e497    17  483b23               REX.W cmpq rsp,[rbx]
0x280b6818e49a    1a  0f8625000000         jna 0x280b6818e4c5  <+0x45>
0x280b6818e4a0    20  488bca               REX.W movq rcx,rdx
0x280b6818e4a3    23  33d2                 xorl rdx,rdx
0x280b6818e4a5    25  488bda               REX.W movq rbx,rdx
0x280b6818e4a8    28  e8937bffff           call 0x280b68186040  (jump table)    ;; internal wasm call
0x280b6818e4ad    2d  488bd8               REX.W movq rbx,rax
0x280b6818e4b0    30  2b5de0               subl rbx,[rbp-0x20]
0x280b6818e4b3    33  488b7de8             REX.W movq rdi,[rbp-0x18]
0x280b6818e4b7    37  83f800               cmpl rax,0x0
0x280b6818e4ba    3a  0f45fb               cmovnzl rdi,rbx
0x280b6818e4bd    3d  488bc7               REX.W movq rax,rdi
0x280b6818e4c0    40  488be5               REX.W movq rsp,rbp
0x280b6818e4c3    43  5d                   pop rbp
0x280b6818e4c4    44  c3                   retl
0x280b6818e4c5    45  e8a67effff           call 0x280b68186370  (jump table)    ;; wasm stub: WasmStackGuard
0x280b6818e4ca    4a  488b55e8             REX.W movq rdx,[rbp-0x18]
0x280b6818e4ce    4e  488b45e0             REX.W movq rax,[rbp-0x20]
0x280b6818e4d2    52  488b75f0             REX.W movq rsi,[rbp-0x10]
0x280b6818e4d6    56  ebc8                 jmp 0x280b6818e4a0  <+0x20>
0x280b6818e4d8    58  90                   nop
0x280b6818e4d9    59  0f1f00               nop

Source positions:
 pc offset  position
        20         9
        45         0

Safepoints (entries = 1, byte size = 10)
0x280b6818e4ad     2d  slots (sp->fp): 00000000

RelocInfo (size = 3)
0x280b6818e4a9  internal wasm call
0x280b6818e4c6  wasm stub call

--- End code ---
--- WebAssembly code ---
name: fmt_x
index: 26
kind: wasm function
compiler: TurboFan
Body (size = 256 = 256 + 0 padding)
Instructions (size = 244)
0x280b6818e500     0  55                   push rbp
0x280b6818e501     1  4889e5               REX.W movq rbp,rsp
0x280b6818e504     4  6a08                 push 0x8
0x280b6818e506     6  56                   push rsi
0x280b6818e507     7  4883ec28             REX.W subq rsp,0x28
0x280b6818e50b     b  488b5e17             REX.W movq rbx,[rsi+0x17]
0x280b6818e50f     f  4883f800             REX.W cmpq rax,0x0
0x280b6818e513    13  0f8508000000         jnz 0x280b6818e521  <+0x21>
0x280b6818e519    19  488bc2               REX.W movq rax,rdx
0x280b6818e51c    1c  488be5               REX.W movq rsp,rbp
0x280b6818e51f    1f  5d                   pop rbp
0x280b6818e520    20  c3                   retl
0x280b6818e521    21  488b7627             REX.W movq rsi,[rsi+0x27]
0x280b6818e525    25  e91a000000           jmp 0x280b6818e544  <+0x44>
0x280b6818e52a    2a  660f1f840000000000   nop
0x280b6818e533    33  660f1f840000000000   nop
0x280b6818e53c    3c  0f1f4000             nop
0x280b6818e540    40  48c1e804             REX.W shrq rax, 4
0x280b6818e544    44  483b26               REX.W cmpq rsp,[rsi]
0x280b6818e547    47  0f865d000000         jna 0x280b6818e5aa  <+0xaa>
0x280b6818e54d    4d  8bf8                 movl rdi,rax
0x280b6818e54f    4f  83e70f               andl rdi,0xf
0x280b6818e552    52  81c7f0050000         addl rdi,0x5f0
0x280b6818e558    58  0fb63c3b             movzxbl rdi,[rbx+rdi*1]
0x280b6818e55c    5c  83ea01               subl rdx,0x1
0x280b6818e55f    5f  0bf9                 orl rdi,rcx
0x280b6818e561    61  40883c13             movb [rbx+rdx*1],dil
0x280b6818e565    65  4883f80f             REX.W cmpq rax,0xf
0x280b6818e569    69  0f862b000000         jna 0x280b6818e59a  <+0x9a>
0x280b6818e56f    6f  48c1e804             REX.W shrq rax, 4
0x280b6818e573    73  8bf8                 movl rdi,rax
0x280b6818e575    75  83e70f               andl rdi,0xf
0x280b6818e578    78  81c7f0050000         addl rdi,0x5f0
0x280b6818e57e    7e  0fb63c3b             movzxbl rdi,[rbx+rdi*1]
0x280b6818e582    82  83ea01               subl rdx,0x1
0x280b6818e585    85  4c8bc1               REX.W movq r8,rcx
0x280b6818e588    88  440bc7               orl r8,rdi
0x280b6818e58b    8b  44880413             movb [rbx+rdx*1],r8l
0x280b6818e58f    8f  4883f80f             REX.W cmpq rax,0xf
0x280b6818e593    93  77ab                 ja 0x280b6818e540  <+0x40>
0x280b6818e595    95  e908000000           jmp 0x280b6818e5a2  <+0xa2>
0x280b6818e59a    9a  488bc2               REX.W movq rax,rdx
0x280b6818e59d    9d  e97affffff           jmp 0x280b6818e51c  <+0x1c>
0x280b6818e5a2    a2  488bc2               REX.W movq rax,rdx
0x280b6818e5a5    a5  e972ffffff           jmp 0x280b6818e51c  <+0x1c>
0x280b6818e5aa    aa  48895de8             REX.W movq [rbp-0x18],rbx
0x280b6818e5ae    ae  48894de0             REX.W movq [rbp-0x20],rcx
0x280b6818e5b2    b2  488945d8             REX.W movq [rbp-0x28],rax
0x280b6818e5b6    b6  488955d0             REX.W movq [rbp-0x30],rdx
0x280b6818e5ba    ba  488975c8             REX.W movq [rbp-0x38],rsi
0x280b6818e5be    be  e8ad7dffff           call 0x280b68186370  (jump table)    ;; wasm stub: WasmStackGuard
0x280b6818e5c3    c3  488b5de8             REX.W movq rbx,[rbp-0x18]
0x280b6818e5c7    c7  488b4de0             REX.W movq rcx,[rbp-0x20]
0x280b6818e5cb    cb  488b45d8             REX.W movq rax,[rbp-0x28]
0x280b6818e5cf    cf  488b55d0             REX.W movq rdx,[rbp-0x30]
0x280b6818e5d3    d3  488b75c8             REX.W movq rsi,[rbp-0x38]
0x280b6818e5d7    d7  e971ffffff           jmp 0x280b6818e54d  <+0x4d>
0x280b6818e5dc    dc  e82f7bffff           call 0x280b68186110  (jump table)    ;; wasm stub: ThrowWasmTrapMemOutOfBounds
0x280b6818e5e1    e1  e82a7bffff           call 0x280b68186110  (jump table)    ;; wasm stub: ThrowWasmTrapMemOutOfBounds
0x280b6818e5e6    e6  e8257bffff           call 0x280b68186110  (jump table)    ;; wasm stub: ThrowWasmTrapMemOutOfBounds
0x280b6818e5eb    eb  e8207bffff           call 0x280b68186110  (jump table)    ;; wasm stub: ThrowWasmTrapMemOutOfBounds
0x280b6818e5f0    f0  90                   nop
0x280b6818e5f1    f1  0f1f00               nop

Protected instructions:
 pc offset  land pad
        8b        dc
        7e        e1
        61        e6
        58        eb

Source positions:
 pc offset  position
        58        28
        61        34
        7e        28
        8b        34
        aa         9
        dc        34
        e1        28
        e6        34
        eb        28

Safepoints (entries = 1, byte size = 11)
0x280b6818e5c3     c3  slots (sp->fp): 0000000000000000

RelocInfo (size = 7)
0x280b6818e5bf  wasm stub call
0x280b6818e5dd  wasm stub call
0x280b6818e5e2  wasm stub call
0x280b6818e5e7  wasm stub call
0x280b6818e5ec  wasm stub call

--- End code ---
--- WebAssembly code ---
name: memset
index: 11
kind: wasm function
compiler: TurboFan
Body (size = 640 = 620 + 20 padding)
Instructions (size = 608)
0x280b6818e600     0  55                   push rbp
0x280b6818e601     1  4889e5               REX.W movq rbp,rsp
0x280b6818e604     4  6a08                 push 0x8
0x280b6818e606     6  56                   push rsi
0x280b6818e607     7  4883ec30             REX.W subq rsp,0x30
0x280b6818e60b     b  488b5e17             REX.W movq rbx,[rsi+0x17]
0x280b6818e60f     f  83f900               cmpl rcx,0x0
0x280b6818e612    12  0f8474010000         jz 0x280b6818e78c  <+0x18c>
0x280b6818e618    18  8d3c08               leal rdi,[rax+rcx*1]
0x280b6818e61b    1b  448bc0               movl r8,rax
0x280b6818e61e    1e  448d4fff             leal r9,[rdi-0x1]
0x280b6818e622    22  42881403             movb [rbx+r8*1],dl
0x280b6818e626    26  4288140b             movb [rbx+r9*1],dl
0x280b6818e62a    2a  83f903               cmpl rcx,0x3
0x280b6818e62d    2d  0f8259010000         jc 0x280b6818e78c  <+0x18c>
0x280b6818e633    33  4188541802           movb [r8+rbx*1+0x2],dl
0x280b6818e638    38  448d4ffd             leal r9,[rdi-0x3]
0x280b6818e63c    3c  4188541801           movb [r8+rbx*1+0x1],dl
0x280b6818e641    41  448d5ffe             leal r11,[rdi-0x2]
0x280b6818e645    45  4288140b             movb [rbx+r9*1],dl
0x280b6818e649    49  4288141b             movb [rbx+r11*1],dl
0x280b6818e64d    4d  83f907               cmpl rcx,0x7
0x280b6818e650    50  0f8236010000         jc 0x280b6818e78c  <+0x18c>
0x280b6818e656    56  83ef04               subl rdi,0x4
0x280b6818e659    59  4188541803           movb [r8+rbx*1+0x3],dl
0x280b6818e65e    5e  88143b               movb [rbx+rdi*1],dl
0x280b6818e661    61  83f909               cmpl rcx,0x9
0x280b6818e664    64  0f8222010000         jc 0x280b6818e78c  <+0x18c>
0x280b6818e66a    6a  488bf8               REX.W movq rdi,rax
0x280b6818e66d    6d  f7df                 negl rdi
0x280b6818e66f    6f  83e703               andl rdi,0x3
0x280b6818e672    72  448d0438             leal r8,[rax+rdi*1]
0x280b6818e676    76  0fb6d2               movzxbl rdx,rdx
0x280b6818e679    79  69d201010101         imull rdx,rdx,0x1010101
0x280b6818e67f    7f  2bcf                 subl rcx,rdi
0x280b6818e681    81  83e1fc               andl rcx,0xfc
0x280b6818e684    84  418d3c08             leal rdi,[r8+rcx*1]
0x280b6818e688    88  448d4ffc             leal r9,[rdi-0x4]
0x280b6818e68c    8c  42891403             movl [rbx+r8*1],rdx
0x280b6818e690    90  4289140b             movl [rbx+r9*1],rdx
0x280b6818e694    94  83f909               cmpl rcx,0x9
0x280b6818e697    97  0f82ef000000         jc 0x280b6818e78c  <+0x18c>
0x280b6818e69d    9d  4189541808           movl [r8+rbx*1+0x8],rdx
0x280b6818e6a2    a2  448d4ff8             leal r9,[rdi-0x8]
0x280b6818e6a6    a6  4189541804           movl [r8+rbx*1+0x4],rdx
0x280b6818e6ab    ab  448d5ff4             leal r11,[rdi-0xc]
0x280b6818e6af    af  4289140b             movl [rbx+r9*1],rdx
0x280b6818e6b3    b3  4289141b             movl [rbx+r11*1],rdx
0x280b6818e6b7    b7  83f919               cmpl rcx,0x19
0x280b6818e6ba    ba  0f82cc000000         jc 0x280b6818e78c  <+0x18c>
0x280b6818e6c0    c0  4d8bc8               REX.W movq r9,r8
0x280b6818e6c3    c3  4183e104             andl r9,0x4
0x280b6818e6c7    c7  4183c918             orl r9,0x18
0x280b6818e6cb    cb  412bc9               subl rcx,r9
0x280b6818e6ce    ce  4189541818           movl [r8+rbx*1+0x18],rdx
0x280b6818e6d3    d3  4189541814           movl [r8+rbx*1+0x14],rdx
0x280b6818e6d8    d8  4189541810           movl [r8+rbx*1+0x10],rdx
0x280b6818e6dd    dd  448d5ff0             leal r11,[rdi-0x10]
0x280b6818e6e1    e1  418954180c           movl [r8+rbx*1+0xc],rdx
0x280b6818e6e6    e6  448d67ec             leal r12,[rdi-0x14]
0x280b6818e6ea    ea  4289141b             movl [rbx+r11*1],rdx
0x280b6818e6ee    ee  448d5fe8             leal r11,[rdi-0x18]
0x280b6818e6f2    f2  42891423             movl [rbx+r12*1],rdx
0x280b6818e6f6    f6  83ef1c               subl rdi,0x1c
0x280b6818e6f9    f9  4289141b             movl [rbx+r11*1],rdx
0x280b6818e6fd    fd  89143b               movl [rbx+rdi*1],rdx
0x280b6818e700   100  83f920               cmpl rcx,0x20
0x280b6818e703   103  0f8283000000         jc 0x280b6818e78c  <+0x18c>
0x280b6818e709   109  438d3c08             leal rdi,[r8+r9*1]
0x280b6818e70d   10d  488b7627             REX.W movq rsi,[rsi+0x27]
0x280b6818e711   111  49b80100000001000000 REX.W movq r8,0x100000001
0x280b6818e71b   11b  4c0fafc2             REX.W imulq r8,rdx
0x280b6818e71f   11f  e922000000           jmp 0x280b6818e746  <+0x146>
0x280b6818e724   124  660f1f840000000000   nop
0x280b6818e72d   12d  660f1f840000000000   nop
0x280b6818e736   136  660f1f840000000000   nop
0x280b6818e73f   13f  90                   nop
0x280b6818e740   140  8d7920               leal rdi,[rcx+0x20]
0x280b6818e743   143  488bca               REX.W movq rcx,rdx
0x280b6818e746   146  483b26               REX.W cmpq rsp,[rsi]
0x280b6818e749   149  0f8642000000         jna 0x280b6818e791  <+0x191>
0x280b6818e74f   14f  4c89441f18           REX.W movq [rdi+rbx*1+0x18],r8
0x280b6818e754   154  4c89441f10           REX.W movq [rdi+rbx*1+0x10],r8
0x280b6818e759   159  4c89441f08           REX.W movq [rdi+rbx*1+0x8],r8
0x280b6818e75e   15e  4c89043b             REX.W movq [rbx+rdi*1],r8
0x280b6818e762   162  8d51e0               leal rdx,[rcx-0x20]
0x280b6818e765   165  83fa1f               cmpl rdx,0x1f
0x280b6818e768   168  0f861e000000         jna 0x280b6818e78c  <+0x18c>
0x280b6818e76e   16e  8d4f20               leal rcx,[rdi+0x20]
0x280b6818e771   171  4c89441918           REX.W movq [rcx+rbx*1+0x18],r8
0x280b6818e776   176  4c89441910           REX.W movq [rcx+rbx*1+0x10],r8
0x280b6818e77b   17b  4c89441908           REX.W movq [rcx+rbx*1+0x8],r8
0x280b6818e780   180  4c89040b             REX.W movq [rbx+rcx*1],r8
0x280b6818e784   184  83ea20               subl rdx,0x20
0x280b6818e787   187  83fa1f               cmpl rdx,0x1f
0x280b6818e78a   18a  77b4                 ja 0x280b6818e740  <+0x140>
0x280b6818e78c   18c  488be5               REX.W movq rsp,rbp
0x280b6818e78f   18f  5d                   pop rbp
0x280b6818e790   190  c3                   retl
0x280b6818e791   191  488945e8             REX.W movq [rbp-0x18],rax
0x280b6818e795   195  48895de0             REX.W movq [rbp-0x20],rbx
0x280b6818e799   199  4c8945d8             REX.W movq [rbp-0x28],r8
0x280b6818e79d   19d  48897dd0             REX.W movq [rbp-0x30],rdi
0x280b6818e7a1   1a1  48894dc8             REX.W movq [rbp-0x38],rcx
0x280b6818e7a5   1a5  488975c0             REX.W movq [rbp-0x40],rsi
0x280b6818e7a9   1a9  e8c27bffff           call 0x280b68186370  (jump table)    ;; wasm stub: WasmStackGuard
0x280b6818e7ae   1ae  488b45e8             REX.W movq rax,[rbp-0x18]
0x280b6818e7b2   1b2  488b5de0             REX.W movq rbx,[rbp-0x20]
0x280b6818e7b6   1b6  4c8b45d8             REX.W movq r8,[rbp-0x28]
0x280b6818e7ba   1ba  488b7dd0             REX.W movq rdi,[rbp-0x30]
0x280b6818e7be   1be  488b4dc8             REX.W movq rcx,[rbp-0x38]
0x280b6818e7c2   1c2  488b75c0             REX.W movq rsi,[rbp-0x40]
0x280b6818e7c6   1c6  eb87                 jmp 0x280b6818e74f  <+0x14f>
0x280b6818e7c8   1c8  e84379ffff           call 0x280b68186110  (jump table)    ;; wasm stub: ThrowWasmTrapMemOutOfBounds
0x280b6818e7cd   1cd  e83e79ffff           call 0x280b68186110  (jump table)    ;; wasm stub: ThrowWasmTrapMemOutOfBounds
0x280b6818e7d2   1d2  e83979ffff           call 0x280b68186110  (jump table)    ;; wasm stub: ThrowWasmTrapMemOutOfBounds
0x280b6818e7d7   1d7  e83479ffff           call 0x280b68186110  (jump table)    ;; wasm stub: ThrowWasmTrapMemOutOfBounds
0x280b6818e7dc   1dc  e82f79ffff           call 0x280b68186110  (jump table)    ;; wasm stub: ThrowWasmTrapMemOutOfBounds
0x280b6818e7e1   1e1  e82a79ffff           call 0x280b68186110  (jump table)    ;; wasm stub: ThrowWasmTrapMemOutOfBounds
0x280b6818e7e6   1e6  e82579ffff           call 0x280b68186110  (jump table)    ;; wasm stub: ThrowWasmTrapMemOutOfBounds
0x280b6818e7eb   1eb  e82079ffff           call 0x280b68186110  (jump table)    ;; wasm stub: ThrowWasmTrapMemOutOfBounds
0x280b6818e7f0   1f0  e81b79ffff           call 0x280b68186110  (jump table)    ;; wasm stub: ThrowWasmTrapMemOutOfBounds
0x280b6818e7f5   1f5  e81679ffff           call 0x280b68186110  (jump table)    ;; wasm stub: ThrowWasmTrapMemOutOfBounds
0x280b6818e7fa   1fa  e81179ffff           call 0x280b68186110  (jump table)    ;; wasm stub: ThrowWasmTrapMemOutOfBounds
0x280b6818e7ff   1ff  e80c79ffff           call 0x280b68186110  (jump table)    ;; wasm stub: ThrowWasmTrapMemOutOfBounds
0x280b6818e804   204  e80779ffff           call 0x280b68186110  (jump table)    ;; wasm stub: ThrowWasmTrapMemOutOfBounds
0x280b6818e809   209  e80279ffff           call 0x280b68186110  (jump table)    ;; wasm stub: ThrowWasmTrapMemOutOfBounds
0x280b6818e80e   20e  e8fd78ffff           call 0x280b68186110  (jump table)    ;; wasm stub: ThrowWasmTrapMemOutOfBounds
0x280b6818e813   213  e8f878ffff           call 0x280b68186110  (jump table)    ;; wasm stub: ThrowWasmTrapMemOutOfBounds
0x280b6818e818   218  e8f378ffff           call 0x280b68186110  (jump table)    ;; wasm stub: ThrowWasmTrapMemOutOfBounds
0x280b6818e81d   21d  e8ee78ffff           call 0x280b68186110  (jump table)    ;; wasm stub: ThrowWasmTrapMemOutOfBounds
0x280b6818e822   222  e8e978ffff           call 0x280b68186110  (jump table)    ;; wasm stub: ThrowWasmTrapMemOutOfBounds
0x280b6818e827   227  e8e478ffff           call 0x280b68186110  (jump table)    ;; wasm stub: ThrowWasmTrapMemOutOfBounds
0x280b6818e82c   22c  e8df78ffff           call 0x280b68186110  (jump table)    ;; wasm stub: ThrowWasmTrapMemOutOfBounds
0x280b6818e831   231  e8da78ffff           call 0x280b68186110  (jump table)    ;; wasm stub: ThrowWasmTrapMemOutOfBounds
0x280b6818e836   236  e8d578ffff           call 0x280b68186110  (jump table)    ;; wasm stub: ThrowWasmTrapMemOutOfBounds
0x280b6818e83b   23b  e8d078ffff           call 0x280b68186110  (jump table)    ;; wasm stub: ThrowWasmTrapMemOutOfBounds
0x280b6818e840   240  e8cb78ffff           call 0x280b68186110  (jump table)    ;; wasm stub: ThrowWasmTrapMemOutOfBounds
0x280b6818e845   245  e8c678ffff           call 0x280b68186110  (jump table)    ;; wasm stub: ThrowWasmTrapMemOutOfBounds
0x280b6818e84a   24a  e8c178ffff           call 0x280b68186110  (jump table)    ;; wasm stub: ThrowWasmTrapMemOutOfBounds
0x280b6818e84f   24f  e8bc78ffff           call 0x280b68186110  (jump table)    ;; wasm stub: ThrowWasmTrapMemOutOfBounds
0x280b6818e854   254  e8b778ffff           call 0x280b68186110  (jump table)    ;; wasm stub: ThrowWasmTrapMemOutOfBounds
0x280b6818e859   259  e8b278ffff           call 0x280b68186110  (jump table)    ;; wasm stub: ThrowWasmTrapMemOutOfBounds
0x280b6818e85e   25e  90                   nop
0x280b6818e85f   25f  90                   nop

Protected instructions:
 pc offset  land pad
       180       1c8
       17b       1cd
       176       1d2
       171       1d7
       15e       1dc
       159       1e1
       154       1e6
       14f       1eb
        fd       1f0
        f9       1f5
        f2       1fa
        ea       1ff
        e1       204
        d8       209
        d3       20e
        ce       213
        b3       218
        af       21d
        a6       222
        9d       227
        90       22c
        8c       231
        5e       236
        59       23b
        49       240
        45       245
        3c       24a
        33       24f
        26       254
        22       259

Source positions:
 pc offset  position
        22        20
        26        35
        33        49
        3c        56
        45        66
        49        76
        59        90
        5e       100
        8c       139
        90       162
        9d       176
        a6       183
        af       193
        b3       203
        ce       217
        d3       224
        d8       231
        e1       238
        ea       248
        f2       258
        f9       268
        fd       278
       14f       326
       154       333
       159       340
       15e       347
       171       326
       176       333
       17b       340
       180       347
       191       320
       1c8       347
       1cd       340
       1d2       333
       1d7       326
       1dc       347
       1e1       340
       1e6       333
       1eb       326
       1f0       278
       1f5       268
       1fa       258
       1ff       248
       204       238
       209       231
       20e       224
       213       217
       218       203
       21d       193
       222       183
       227       176
       22c       162
       231       139
       236       100
       23b        90
       240        76
       245        66
       24a        56
       24f        49
       254        35
       259        20

Safepoints (entries = 1, byte size = 12)
0x280b6818e7ae    1ae  slots (sp->fp): 0000000000000000

RelocInfo (size = 33)
0x280b6818e7aa  wasm stub call
0x280b6818e7c9  wasm stub call
0x280b6818e7ce  wasm stub call
0x280b6818e7d3  wasm stub call
0x280b6818e7d8  wasm stub call
0x280b6818e7dd  wasm stub call
0x280b6818e7e2  wasm stub call
0x280b6818e7e7  wasm stub call
0x280b6818e7ec  wasm stub call
0x280b6818e7f1  wasm stub call
0x280b6818e7f6  wasm stub call
0x280b6818e7fb  wasm stub call
0x280b6818e800  wasm stub call
0x280b6818e805  wasm stub call
0x280b6818e80a  wasm stub call
0x280b6818e80f  wasm stub call
0x280b6818e814  wasm stub call
0x280b6818e819  wasm stub call
0x280b6818e81e  wasm stub call
0x280b6818e823  wasm stub call
0x280b6818e828  wasm stub call
0x280b6818e82d  wasm stub call
0x280b6818e832  wasm stub call
0x280b6818e837  wasm stub call
0x280b6818e83c  wasm stub call
0x280b6818e841  wasm stub call
0x280b6818e846  wasm stub call
0x280b6818e84b  wasm stub call
0x280b6818e850  wasm stub call
0x280b6818e855  wasm stub call
0x280b6818e85a  wasm stub call

--- End code ---
--- WebAssembly code ---
name: memchr
index: 16
kind: wasm function
compiler: TurboFan
Body (size = 768 = 756 + 12 padding)
Instructions (size = 744)
0x280b681927c0     0  55                   push rbp
0x280b681927c1     1  4889e5               REX.W movq rbp,rsp
0x280b681927c4     4  6a08                 push 0x8
0x280b681927c6     6  56                   push rsi
0x280b681927c7     7  4883ec30             REX.W subq rsp,0x30
0x280b681927cb     b  488b5e17             REX.W movq rbx,[rsi+0x17]
0x280b681927cf     f  a803                 test al,0x3
0x280b681927d1    11  0f84d4000000         jz 0x280b681928ab  <+0xeb>
0x280b681927d7    17  83f900               cmpl rcx,0x0
0x280b681927da    1a  0f84bb000000         jz 0x280b6819289b  <+0xdb>
0x280b681927e0    20  488b7e27             REX.W movq rdi,[rsi+0x27]
0x280b681927e4    24  440fb6c2             movzxbl r8,rdx
0x280b681927e8    28  660f1f840000000000   nop
0x280b681927f1    31  660f1f840000000000   nop
0x280b681927fa    3a  660f1f440000         nop
0x280b68192800    40  483b27               REX.W cmpq rsp,[rdi]
0x280b68192803    43  0f86c5010000         jna 0x280b681929ce  <+0x20e>
0x280b68192809    49  448bc8               movl r9,rax
0x280b6819280c    4c  460fb60c0b           movzxbl r9,[rbx+r9*1]
0x280b68192811    51  453bc1               cmpl r8,r9
0x280b68192814    54  0f84a5000000         jz 0x280b681928bf  <+0xff>
0x280b6819281a    5a  83e901               subl rcx,0x1
0x280b6819281d    5d  83c001               addl rax,0x1
0x280b68192820    60  a803                 test al,0x3
0x280b68192822    62  0f8463000000         jz 0x280b6819288b  <+0xcb>
0x280b68192828    68  83f900               cmpl rcx,0x0
0x280b6819282b    6b  0f842a000000         jz 0x280b6819285b  <+0x9b>
0x280b68192831    71  440fb6ca             movzxbl r9,rdx
0x280b68192835    75  440fb61c03           movzxbl r11,[rbx+rax*1]
0x280b6819283a    7a  453bcb               cmpl r9,r11
0x280b6819283d    7d  0f847c000000         jz 0x280b681928bf  <+0xff>
0x280b68192843    83  83e901               subl rcx,0x1
0x280b68192846    86  83c001               addl rax,0x1
0x280b68192849    89  a803                 test al,0x3
0x280b6819284b    8b  0f842a000000         jz 0x280b6819287b  <+0xbb>
0x280b68192851    91  83f900               cmpl rcx,0x0
0x280b68192854    94  75aa                 jnz 0x280b68192800  <+0x40>
0x280b68192856    96  e910000000           jmp 0x280b6819286b  <+0xab>
0x280b6819285b    9b  83f900               cmpl rcx,0x0
0x280b6819285e    9e  400f95c7             setnzl dil
0x280b68192862    a2  400fb6ff             movzxbl rdi,rdi
0x280b68192866    a6  e94b000000           jmp 0x280b681928b6  <+0xf6>
0x280b6819286b    ab  83f900               cmpl rcx,0x0
0x280b6819286e    ae  400f95c7             setnzl dil
0x280b68192872    b2  400fb6ff             movzxbl rdi,rdi
0x280b68192876    b6  e93b000000           jmp 0x280b681928b6  <+0xf6>
0x280b6819287b    bb  83f900               cmpl rcx,0x0
0x280b6819287e    be  400f95c7             setnzl dil
0x280b68192882    c2  400fb6ff             movzxbl rdi,rdi
0x280b68192886    c6  e92b000000           jmp 0x280b681928b6  <+0xf6>
0x280b6819288b    cb  83f900               cmpl rcx,0x0
0x280b6819288e    ce  400f95c7             setnzl dil
0x280b68192892    d2  400fb6ff             movzxbl rdi,rdi
0x280b68192896    d6  e91b000000           jmp 0x280b681928b6  <+0xf6>
0x280b6819289b    db  83f900               cmpl rcx,0x0
0x280b6819289e    de  400f95c7             setnzl dil
0x280b681928a2    e2  400fb6ff             movzxbl rdi,rdi
0x280b681928a6    e6  e90b000000           jmp 0x280b681928b6  <+0xf6>
0x280b681928ab    eb  83f900               cmpl rcx,0x0
0x280b681928ae    ee  400f95c7             setnzl dil
0x280b681928b2    f2  400fb6ff             movzxbl rdi,rdi
0x280b681928b6    f6  83ff00               cmpl rdi,0x0
0x280b681928b9    f9  0f840b010000         jz 0x280b681929ca  <+0x20a>
0x280b681928bf    ff  0fb6fa               movzxbl rdi,rdx
0x280b681928c2   102  448bc0               movl r8,rax
0x280b681928c5   105  460fb60403           movzxbl r8,[rbx+r8*1]
0x280b681928ca   10a  413bf8               cmpl rdi,r8
0x280b681928cd   10d  0f8498000000         jz 0x280b6819296b  <+0x1ab>
0x280b681928d3   113  83f904               cmpl rcx,0x4
0x280b681928d6   116  0f828f000000         jc 0x280b6819296b  <+0x1ab>
0x280b681928dc   11c  488b7e27             REX.W movq rdi,[rsi+0x27]
0x280b681928e0   120  440fb6c2             movzxbl r8,rdx
0x280b681928e4   124  4569c001010101       imull r8,r8,0x1010101
0x280b681928eb   12b  660f1f840000000000   nop
0x280b681928f4   134  660f1f840000000000   nop
0x280b681928fd   13d  0f1f00               nop
0x280b68192900   140  483b27               REX.W cmpq rsp,[rdi]
0x280b68192903   143  0f8603010000         jna 0x280b68192a0c  <+0x24c>
0x280b68192909   149  448bc8               movl r9,rax
0x280b6819290c   14c  468b0c0b             movl r9,[rbx+r9*1]
0x280b68192910   150  4533c8               xorl r9,r8
0x280b68192913   153  458d99fffefefe       leal r11,[r9-0x1010101]
0x280b6819291a   15a  41f7d1               notl r9
0x280b6819291d   15d  4523d9               andl r11,r9
0x280b68192920   160  41f7c380808080       testl r11,0x80808080
0x280b68192927   167  0f853e000000         jnz 0x280b6819296b  <+0x1ab>
0x280b6819292d   16d  83c004               addl rax,0x4
0x280b68192930   170  83e904               subl rcx,0x4
0x280b68192933   173  83f903               cmpl rcx,0x3
0x280b68192936   176  0f862f000000         jna 0x280b6819296b  <+0x1ab>
0x280b6819293c   17c  448b0c03             movl r9,[rbx+rax*1]
0x280b68192940   180  4d8bd8               REX.W movq r11,r8
0x280b68192943   183  4533d9               xorl r11,r9
0x280b68192946   186  458d8bfffefefe       leal r9,[r11-0x1010101]
0x280b6819294d   18d  41f7d3               notl r11
0x280b68192950   190  4523cb               andl r9,r11
0x280b68192953   193  41f7c180808080       testl r9,0x80808080
0x280b6819295a   19a  0f850b000000         jnz 0x280b6819296b  <+0x1ab>
0x280b68192960   1a0  83c004               addl rax,0x4
0x280b68192963   1a3  83e904               subl rcx,0x4
0x280b68192966   1a6  83f903               cmpl rcx,0x3
0x280b68192969   1a9  7795                 ja 0x280b68192900  <+0x140>
0x280b6819296b   1ab  83f900               cmpl rcx,0x0
0x280b6819296e   1ae  0f8456000000         jz 0x280b681929ca  <+0x20a>
0x280b68192974   1b4  488b7627             REX.W movq rsi,[rsi+0x27]
0x280b68192978   1b8  0fb6fa               movzxbl rdi,rdx
0x280b6819297b   1bb  e903000000           jmp 0x280b68192983  <+0x1c3>
0x280b68192980   1c0  83c001               addl rax,0x1
0x280b68192983   1c3  483b26               REX.W cmpq rsp,[rsi]
0x280b68192986   1c6  0f86be000000         jna 0x280b68192a4a  <+0x28a>
0x280b6819298c   1cc  448bc0               movl r8,rax
0x280b6819298f   1cf  460fb60403           movzxbl r8,[rbx+r8*1]
0x280b68192994   1d4  413bf8               cmpl rdi,r8
0x280b68192997   1d7  0f8428000000         jz 0x280b681929c5  <+0x205>
0x280b6819299d   1dd  83c1ff               addl rcx,0xff
0x280b681929a0   1e0  0f8424000000         jz 0x280b681929ca  <+0x20a>
0x280b681929a6   1e6  83c001               addl rax,0x1
0x280b681929a9   1e9  440fb6c2             movzxbl r8,rdx
0x280b681929ad   1ed  440fb60c03           movzxbl r9,[rbx+rax*1]
0x280b681929b2   1f2  453bc1               cmpl r8,r9
0x280b681929b5   1f5  0f840a000000         jz 0x280b681929c5  <+0x205>
0x280b681929bb   1fb  83c1ff               addl rcx,0xff
0x280b681929be   1fe  75c0                 jnz 0x280b68192980  <+0x1c0>
0x280b681929c0   200  e905000000           jmp 0x280b681929ca  <+0x20a>
0x280b681929c5   205  488be5               REX.W movq rsp,rbp
0x280b681929c8   208  5d                   pop rbp
0x280b681929c9   209  c3                   retl
0x280b681929ca   20a  33c0                 xorl rax,rax
0x280b681929cc   20c  ebf7                 jmp 0x280b681929c5  <+0x205>
0x280b681929ce   20e  48895de8             REX.W movq [rbp-0x18],rbx
0x280b681929d2   212  488955e0             REX.W movq [rbp-0x20],rdx
0x280b681929d6   216  48894dc8             REX.W movq [rbp-0x38],rcx
0x280b681929da   21a  488945c0             REX.W movq [rbp-0x40],rax
0x280b681929de   21e  4c8945d8             REX.W movq [rbp-0x28],r8
0x280b681929e2   222  48897dd0             REX.W movq [rbp-0x30],rdi
0x280b681929e6   226  e88539ffff           call 0x280b68186370  (jump table)    ;; wasm stub: WasmStackGuard
0x280b681929eb   22b  488b5de8             REX.W movq rbx,[rbp-0x18]
0x280b681929ef   22f  488b55e0             REX.W movq rdx,[rbp-0x20]
0x280b681929f3   233  488b75f0             REX.W movq rsi,[rbp-0x10]
0x280b681929f7   237  488b4dc8             REX.W movq rcx,[rbp-0x38]
0x280b681929fb   23b  488b45c0             REX.W movq rax,[rbp-0x40]
0x280b681929ff   23f  4c8b45d8             REX.W movq r8,[rbp-0x28]
0x280b68192a03   243  488b7dd0             REX.W movq rdi,[rbp-0x30]
0x280b68192a07   247  e9fdfdffff           jmp 0x280b68192809  <+0x49>
0x280b68192a0c   24c  48895de8             REX.W movq [rbp-0x18],rbx
0x280b68192a10   250  488955e0             REX.W movq [rbp-0x20],rdx
0x280b68192a14   254  488945c0             REX.W movq [rbp-0x40],rax
0x280b68192a18   258  48894dc8             REX.W movq [rbp-0x38],rcx
0x280b68192a1c   25c  4c8945d8             REX.W movq [rbp-0x28],r8
0x280b68192a20   260  48897dd0             REX.W movq [rbp-0x30],rdi
0x280b68192a24   264  e84739ffff           call 0x280b68186370  (jump table)    ;; wasm stub: WasmStackGuard
0x280b68192a29   269  488b5de8             REX.W movq rbx,[rbp-0x18]
0x280b68192a2d   26d  488b55e0             REX.W movq rdx,[rbp-0x20]
0x280b68192a31   271  488b75f0             REX.W movq rsi,[rbp-0x10]
0x280b68192a35   275  488b45c0             REX.W movq rax,[rbp-0x40]
0x280b68192a39   279  488b4dc8             REX.W movq rcx,[rbp-0x38]
0x280b68192a3d   27d  4c8b45d8             REX.W movq r8,[rbp-0x28]
0x280b68192a41   281  488b7dd0             REX.W movq rdi,[rbp-0x30]
0x280b68192a45   285  e9bffeffff           jmp 0x280b68192909  <+0x149>
0x280b68192a4a   28a  488945c0             REX.W movq [rbp-0x40],rax
0x280b68192a4e   28e  48895de8             REX.W movq [rbp-0x18],rbx
0x280b68192a52   292  488955e0             REX.W movq [rbp-0x20],rdx
0x280b68192a56   296  48894dc8             REX.W movq [rbp-0x38],rcx
0x280b68192a5a   29a  48897dd8             REX.W movq [rbp-0x28],rdi
0x280b68192a5e   29e  488975d0             REX.W movq [rbp-0x30],rsi
0x280b68192a62   2a2  e80939ffff           call 0x280b68186370  (jump table)    ;; wasm stub: WasmStackGuard
0x280b68192a67   2a7  488b45c0             REX.W movq rax,[rbp-0x40]
0x280b68192a6b   2ab  488b5de8             REX.W movq rbx,[rbp-0x18]
0x280b68192a6f   2af  488b55e0             REX.W movq rdx,[rbp-0x20]
0x280b68192a73   2b3  488b4dc8             REX.W movq rcx,[rbp-0x38]
0x280b68192a77   2b7  488b7dd8             REX.W movq rdi,[rbp-0x28]
0x280b68192a7b   2bb  488b75d0             REX.W movq rsi,[rbp-0x30]
0x280b68192a7f   2bf  e908ffffff           jmp 0x280b6819298c  <+0x1cc>
0x280b68192a84   2c4  e88736ffff           call 0x280b68186110  (jump table)    ;; wasm stub: ThrowWasmTrapMemOutOfBounds
0x280b68192a89   2c9  e88236ffff           call 0x280b68186110  (jump table)    ;; wasm stub: ThrowWasmTrapMemOutOfBounds
0x280b68192a8e   2ce  e87d36ffff           call 0x280b68186110  (jump table)    ;; wasm stub: ThrowWasmTrapMemOutOfBounds
0x280b68192a93   2d3  e87836ffff           call 0x280b68186110  (jump table)    ;; wasm stub: ThrowWasmTrapMemOutOfBounds
0x280b68192a98   2d8  e87336ffff           call 0x280b68186110  (jump table)    ;; wasm stub: ThrowWasmTrapMemOutOfBounds
0x280b68192a9d   2dd  e86e36ffff           call 0x280b68186110  (jump table)    ;; wasm stub: ThrowWasmTrapMemOutOfBounds
0x280b68192aa2   2e2  e86936ffff           call 0x280b68186110  (jump table)    ;; wasm stub: ThrowWasmTrapMemOutOfBounds
0x280b68192aa7   2e7  90                   nop

Protected instructions:
 pc offset  land pad
       1ed       2c4
       1cf       2c9
       17c       2ce
       14c       2d3
       105       2d8
        75       2dd
        4c       2e2

Source positions:
 pc offset  position
        4c        43
       105        92
       14c       129
       1cf       198
       20e        39
       24c       125
       28a       192
       2c4       198
       2ce       129
       2d8        92
       2dd        43

Safepoints (entries = 1, byte size = 12)
0x280b681929eb    22b  slots (sp->fp): 0000000000000000

RelocInfo (size = 12)
0x280b681929e7  wasm stub call
0x280b68192a25  wasm stub call
0x280b68192a63  wasm stub call
0x280b68192a85  wasm stub call
0x280b68192a8a  wasm stub call
0x280b68192a8f  wasm stub call
0x280b68192a94  wasm stub call
0x280b68192a99  wasm stub call
0x280b68192a9e  wasm stub call
0x280b68192aa3  wasm stub call

--- End code ---
--- WebAssembly code ---
name: __stdio_write
index: 8
kind: wasm function
compiler: Liftoff
Body (size = 896 = 880 + 16 padding)
Instructions (size = 868)
0x280b68189940     0  55                   push rbp
0x280b68189941     1  4889e5               REX.W movq rbp,rsp
0x280b68189944     4  6a08                 push 0x8
0x280b68189946     6  56                   push rsi
0x280b68189947     7  4881ec50000000       REX.W subq rsp,0x50
0x280b6818994e     e  50                   push rax
0x280b6818994f     f  51                   push rcx
0x280b68189950    10  57                   push rdi
0x280b68189951    11  488d7db0             REX.W leaq rdi,[rbp-0x50]
0x280b68189955    15  33c0                 xorl rax,rax
0x280b68189957    17  b907000000           movl rcx,0x7
0x280b6818995c    1c  f3ab                 rep stosl
0x280b6818995e    1e  5f                   pop rdi
0x280b6818995f    1f  59                   pop rcx
0x280b68189960    20  58                   pop rax
0x280b68189961    21  488b5e27             REX.W movq rbx,[rsi+0x27]
0x280b68189965    25  483b23               REX.W cmpq rsp,[rbx]
0x280b68189968    28  0f869b020000         jna 0x280b68189c09  <+0x2c9>
0x280b6818996e    2e  488b5e47             REX.W movq rbx,[rsi+0x47]
0x280b68189972    32  8b3b                 movl rdi,[rbx]
0x280b68189974    34  bb20000000           movl rbx,0x20
0x280b68189979    39  2bfb                 subl rdi,rbx
0x280b6818997b    3b  488b5e47             REX.W movq rbx,[rsi+0x47]
0x280b6818997f    3f  893b                 movl [rbx],rdi
0x280b68189981    41  488b5e17             REX.W movq rbx,[rsi+0x17]
0x280b68189985    45  448b4c031c           movl r9,[rbx+rax*1+0x1c]
0x280b6818998a    4a  44894c3b10           movl [rbx+rdi*1+0x10],r9
0x280b6818998f    4f  8b740314             movl rsi,[rbx+rax*1+0x14]
0x280b68189993    53  894c3b1c             movl [rbx+rdi*1+0x1c],rcx
0x280b68189997    57  89543b18             movl [rbx+rdi*1+0x18],rdx
0x280b6818999b    5b  8bde                 movl rbx,rsi
0x280b6818999d    5d  412bd9               subl rbx,r9
0x280b681899a0    60  488b55f0             REX.W movq rdx,[rbp-0x10]
0x280b681899a4    64  488b5217             REX.W movq rdx,[rdx+0x17]
0x280b681899a8    68  895c3a14             movl [rdx+rdi*1+0x14],rbx
0x280b681899ac    6c  8d140b               leal rdx,[rbx+rcx*1]
0x280b681899af    6f  8945d4               movl [rbp-0x2c],rax
0x280b681899b2    72  8d4710               leal rax,[rdi+0x10]
0x280b681899b5    75  8b5dd4               movl rbx,[rbp-0x2c]
0x280b681899b8    78  894dcc               movl [rbp-0x34],rcx
0x280b681899bb    7b  488b4df0             REX.W movq rcx,[rbp-0x10]
0x280b681899bf    7f  488b4917             REX.W movq rcx,[rcx+0x17]
0x280b681899c3    83  8955bc               movl [rbp-0x44],rdx
0x280b681899c6    86  8b54193c             movl rdx,[rcx+rbx*1+0x3c]
0x280b681899ca    8a  8d5f10               leal rbx,[rdi+0x10]
0x280b681899cd    8d  8d4f0c               leal rcx,[rdi+0xc]
0x280b681899d0    90  895da8               movl [rbp-0x58],rbx
0x280b681899d3    93  8975c0               movl [rbp-0x40],rsi
0x280b681899d6    96  488b5df0             REX.W movq rbx,[rbp-0x10]
0x280b681899da    9a  488b5b2f             REX.W movq rbx,[rbx+0x2f]
0x280b681899de    9e  488b7308             REX.W movq rsi,[rbx+0x8]
0x280b681899e2    a2  488b5df0             REX.W movq rbx,[rbp-0x10]
0x280b681899e6    a6  8b5b0b               movl rbx,[rbx+0xb]
0x280b681899e9    a9  4903de               REX.W addq rbx,r14
0x280b681899ec    ac  8b5b0b               movl rbx,[rbx+0xb]
0x280b681899ef    af  4903de               REX.W addq rbx,r14
0x280b681899f2    b2  44894dc4             movl [rbp-0x3c],r9
0x280b681899f6    b6  897dc8               movl [rbp-0x38],rdi
0x280b681899f9    b9  8945d0               movl [rbp-0x30],rax
0x280b681899fc    bc  8bc2                 movl rax,rdx
0x280b681899fe    be  488bfe               REX.W movq rdi,rsi
0x280b68189a01    c1  488bf3               REX.W movq rsi,rbx
0x280b68189a04    c4  8bd9                 movl rbx,rcx
0x280b68189a06    c6  b902000000           movl rcx,0x2
0x280b68189a0b    cb  8b55a8               movl rdx,[rbp-0x58]
0x280b68189a0e    ce  ffd7                 call rdi
0x280b68189a10    d0  488b75f0             REX.W movq rsi,[rbp-0x10]
0x280b68189a14    d4  e876c6ffff           call 0x280b6818608f  (jump table)
0x280b68189a19    d9  85c0                 testl rax,rax
0x280b68189a1b    db  0f8527010000         jnz 0x280b68189b48  <+0x208>
0x280b68189a21    e1  c745b802000000       movl [rbp-0x48],0x2
0x280b68189a28    e8  488b75f0             REX.W movq rsi,[rbp-0x10]
0x280b68189a2c    ec  488b4627             REX.W movq rax,[rsi+0x27]
0x280b68189a30    f0  483b20               REX.W cmpq rsp,[rax]
0x280b68189a33    f3  0f8607020000         jna 0x280b68189c40  <+0x300>
0x280b68189a39    f9  8b45bc               movl rax,[rbp-0x44]
0x280b68189a3c    fc  8b4dc8               movl rcx,[rbp-0x38]
0x280b68189a3f    ff  488b5617             REX.W movq rdx,[rsi+0x17]
0x280b68189a43   103  8b5c0a0c             movl rbx,[rdx+rcx*1+0xc]
0x280b68189a47   107  3bc3                 cmpl rax,rbx
0x280b68189a49   109  0f8505000000         jnz 0x280b68189a54  <+0x114>
0x280b68189a4f   10f  e916010000           jmp 0x280b68189b6a  <+0x22a>
0x280b68189a54   114  83fb00               cmpl rbx,0x0
0x280b68189a57   117  0f8d05000000         jge 0x280b68189a62  <+0x122>
0x280b68189a5d   11d  e941010000           jmp 0x280b68189ba3  <+0x263>
0x280b68189a62   122  8b45d0               movl rax,[rbp-0x30]
0x280b68189a65   125  8b4dd0               movl rcx,[rbp-0x30]
0x280b68189a68   128  8b7c0a04             movl rdi,[rdx+rcx*1+0x4]
0x280b68189a6c   12c  3bdf                 cmpl rbx,rdi
0x280b68189a6e   12e  0f97c1               setal cl
0x280b68189a71   131  0fb6c9               movzxbl rcx,rcx
0x280b68189a74   134  448bc9               movl r9,rcx
0x280b68189a77   137  41c1e103             shll r9, 3
0x280b68189a7b   13b  4103c1               addl rax,r9
0x280b68189a7e   13e  4533c9               xorl r9,r9
0x280b68189a81   141  85c9                 testl rcx,rcx
0x280b68189a83   143  440f45cf             cmovnzl r9,rdi
0x280b68189a87   147  41f7d9               negl r9
0x280b68189a8a   14a  4403cb               addl r9,rbx
0x280b68189a8d   14d  8b3c02               movl rdi,[rdx+rax*1]
0x280b68189a90   150  418d3c39             leal rdi,[r9+rdi*1]
0x280b68189a94   154  893c02               movl [rdx+rax*1],rdi
0x280b68189a97   157  8b7dd0               movl rdi,[rbp-0x30]
0x280b68189a9a   15a  be04000000           movl rsi,0x4
0x280b68189a9f   15f  ba0c000000           movl rdx,0xc
0x280b68189aa4   164  85c9                 testl rcx,rcx
0x280b68189aa6   166  0f44d6               cmovzl rdx,rsi
0x280b68189aa9   169  03fa                 addl rdi,rdx
0x280b68189aab   16b  488b75f0             REX.W movq rsi,[rbp-0x10]
0x280b68189aaf   16f  488b4617             REX.W movq rax,[rsi+0x17]
0x280b68189ab3   173  8b1438               movl rdx,[rax+rdi*1]
0x280b68189ab6   176  412bd1               subl rdx,r9
0x280b68189ab9   179  891438               movl [rax+rdi*1],rdx
0x280b68189abc   17c  8b55bc               movl rdx,[rbp-0x44]
0x280b68189abf   17f  2bd3                 subl rdx,rbx
0x280b68189ac1   181  8b75d4               movl rsi,[rbp-0x2c]
0x280b68189ac4   184  897db0               movl [rbp-0x50],rdi
0x280b68189ac7   187  8b7c303c             movl rdi,[rax+rsi*1+0x3c]
0x280b68189acb   18b  8b75d0               movl rsi,[rbp-0x30]
0x280b68189ace   18e  83c608               addl rsi,0x8
0x280b68189ad1   191  8b45d0               movl rax,[rbp-0x30]
0x280b68189ad4   194  85c9                 testl rcx,rcx
0x280b68189ad6   196  0f44f0               cmovzl rsi,rax
0x280b68189ad9   199  8b45b8               movl rax,[rbp-0x48]
0x280b68189adc   19c  2bc1                 subl rax,rcx
0x280b68189ade   19e  44894db4             movl [rbp-0x4c],r9
0x280b68189ae2   1a2  448b4dc8             movl r9,[rbp-0x38]
0x280b68189ae6   1a6  4183c10c             addl r9,0xc
0x280b68189aea   1aa  8945a4               movl [rbp-0x5c],rax
0x280b68189aed   1ad  8945b8               movl [rbp-0x48],rax
0x280b68189af0   1b0  894dc0               movl [rbp-0x40],rcx
0x280b68189af3   1b3  488b45f0             REX.W movq rax,[rbp-0x10]
0x280b68189af7   1b7  488b402f             REX.W movq rax,[rax+0x2f]
0x280b68189afb   1bb  488b4808             REX.W movq rcx,[rax+0x8]
0x280b68189aff   1bf  488b45f0             REX.W movq rax,[rbp-0x10]
0x280b68189b03   1c3  8b400b               movl rax,[rax+0xb]
0x280b68189b06   1c6  4903c6               REX.W addq rax,r14
0x280b68189b09   1c9  8b400b               movl rax,[rax+0xb]
0x280b68189b0c   1cc  4903c6               REX.W addq rax,r14
0x280b68189b0f   1cf  8955bc               movl [rbp-0x44],rdx
0x280b68189b12   1d2  895dc4               movl [rbp-0x3c],rbx
0x280b68189b15   1d5  8975d0               movl [rbp-0x30],rsi
0x280b68189b18   1d8  8bd6                 movl rdx,rsi
0x280b68189b1a   1da  488bf0               REX.W movq rsi,rax
0x280b68189b1d   1dd  8bc7                 movl rax,rdi
0x280b68189b1f   1df  488bf9               REX.W movq rdi,rcx
0x280b68189b22   1e2  418bd9               movl rbx,r9
0x280b68189b25   1e5  8b4da4               movl rcx,[rbp-0x5c]
0x280b68189b28   1e8  ffd7                 call rdi
0x280b68189b2a   1ea  488b75f0             REX.W movq rsi,[rbp-0x10]
0x280b68189b2e   1ee  e85cc5ffff           call 0x280b6818608f  (jump table)
0x280b68189b33   1f3  85c0                 testl rax,rax
0x280b68189b35   1f5  0f8505000000         jnz 0x280b68189b40  <+0x200>
0x280b68189b3b   1fb  e9e8feffff           jmp 0x280b68189a28  <+0xe8>
0x280b68189b40   200  8b45b8               movl rax,[rbp-0x48]
0x280b68189b43   203  e905000000           jmp 0x280b68189b4d  <+0x20d>
0x280b68189b48   208  b802000000           movl rax,0x2
0x280b68189b4d   20d  8b4dbc               movl rcx,[rbp-0x44]
0x280b68189b50   210  83f9ff               cmpl rcx,0xff
0x280b68189b53   213  0f840b000000         jz 0x280b68189b64  <+0x224>
0x280b68189b59   219  8945b8               movl [rbp-0x48],rax
0x280b68189b5c   21c  8b5dc4               movl rbx,[rbp-0x3c]
0x280b68189b5f   21f  e93f000000           jmp 0x280b68189ba3  <+0x263>
0x280b68189b64   224  8945b8               movl [rbp-0x48],rax
0x280b68189b67   227  8b5dc4               movl rbx,[rbp-0x3c]
0x280b68189b6a   22a  8b45d4               movl rax,[rbp-0x2c]
0x280b68189b6d   22d  8b4dd4               movl rcx,[rbp-0x2c]
0x280b68189b70   230  488b75f0             REX.W movq rsi,[rbp-0x10]
0x280b68189b74   234  488b5617             REX.W movq rdx,[rsi+0x17]
0x280b68189b78   238  8b7c0a2c             movl rdi,[rdx+rcx*1+0x2c]
0x280b68189b7c   23c  897c021c             movl [rdx+rax*1+0x1c],rdi
0x280b68189b80   240  8b45d4               movl rax,[rbp-0x2c]
0x280b68189b83   243  897c0214             movl [rdx+rax*1+0x14],rdi
0x280b68189b87   247  8b45d4               movl rax,[rbp-0x2c]
0x280b68189b8a   24a  8b4dd4               movl rcx,[rbp-0x2c]
0x280b68189b8d   24d  448b4c0a30           movl r9,[rdx+rcx*1+0x30]
0x280b68189b92   252  468d0c0f             leal r9,[rdi+r9*1]
0x280b68189b96   256  44894c0210           movl [rdx+rax*1+0x10],r9
0x280b68189b9b   25b  8b45cc               movl rax,[rbp-0x34]
0x280b68189b9e   25e  e955000000           jmp 0x280b68189bf8  <+0x2b8>
0x280b68189ba3   263  8b45d4               movl rax,[rbp-0x2c]
0x280b68189ba6   266  33c9                 xorl rcx,rcx
0x280b68189ba8   268  488b75f0             REX.W movq rsi,[rbp-0x10]
0x280b68189bac   26c  488b5617             REX.W movq rdx,[rsi+0x17]
0x280b68189bb0   270  894c021c             movl [rdx+rax*1+0x1c],rcx
0x280b68189bb4   274  8b45d4               movl rax,[rbp-0x2c]
0x280b68189bb7   277  33c9                 xorl rcx,rcx
0x280b68189bb9   279  48894c0210           REX.W movq [rdx+rax*1+0x10],rcx
0x280b68189bbe   27e  8b45d4               movl rax,[rbp-0x2c]
0x280b68189bc1   281  8b4dd4               movl rcx,[rbp-0x2c]
0x280b68189bc4   284  8b3c0a               movl rdi,[rdx+rcx*1]
0x280b68189bc7   287  83cf20               orl rdi,0x20
0x280b68189bca   28a  893c02               movl [rdx+rax*1],rdi
0x280b68189bcd   28d  8b45b8               movl rax,[rbp-0x48]
0x280b68189bd0   290  b902000000           movl rcx,0x2
0x280b68189bd5   295  33db                 xorl rbx,rbx
0x280b68189bd7   297  3bc1                 cmpl rax,rcx
0x280b68189bd9   299  0f850a000000         jnz 0x280b68189be9  <+0x2a9>
0x280b68189bdf   29f  33c0                 xorl rax,rax
0x280b68189be1   2a1  8b7dd0               movl rdi,[rbp-0x30]
0x280b68189be4   2a4  e90f000000           jmp 0x280b68189bf8  <+0x2b8>
0x280b68189be9   2a9  8b45cc               movl rax,[rbp-0x34]
0x280b68189bec   2ac  8b4dd0               movl rcx,[rbp-0x30]
0x280b68189bef   2af  8b7c0a04             movl rdi,[rdx+rcx*1+0x4]
0x280b68189bf3   2b3  2bc7                 subl rax,rdi
0x280b68189bf5   2b5  8b7dd0               movl rdi,[rbp-0x30]
0x280b68189bf8   2b8  8b4dc8               movl rcx,[rbp-0x38]
0x280b68189bfb   2bb  83c120               addl rcx,0x20
0x280b68189bfe   2be  488b5e47             REX.W movq rbx,[rsi+0x47]
0x280b68189c02   2c2  890b                 movl [rbx],rcx
0x280b68189c04   2c4  488be5               REX.W movq rsp,rbp
0x280b68189c07   2c7  5d                   pop rbp
0x280b68189c08   2c8  c3                   retl
0x280b68189c09   2c9  50                   push rax
0x280b68189c0a   2ca  51                   push rcx
0x280b68189c0b   2cb  52                   push rdx
0x280b68189c0c   2cc  e85fc7ffff           call 0x280b68186370  (jump table)
0x280b68189c11   2d1  5a                   pop rdx
0x280b68189c12   2d2  59                   pop rcx
0x280b68189c13   2d3  58                   pop rax
0x280b68189c14   2d4  488b75f0             REX.W movq rsi,[rbp-0x10]
0x280b68189c18   2d8  e951fdffff           jmp 0x280b6818996e  <+0x2e>
0x280b68189c1d   2dd  e8eec4ffff           call 0x280b68186110  (jump table)
0x280b68189c22   2e2  e8e9c4ffff           call 0x280b68186110  (jump table)
0x280b68189c27   2e7  e8e4c4ffff           call 0x280b68186110  (jump table)
0x280b68189c2c   2ec  e8dfc4ffff           call 0x280b68186110  (jump table)
0x280b68189c31   2f1  e8dac4ffff           call 0x280b68186110  (jump table)
0x280b68189c36   2f6  e8d5c4ffff           call 0x280b68186110  (jump table)
0x280b68189c3b   2fb  e8d0c4ffff           call 0x280b68186110  (jump table)
0x280b68189c40   300  e82bc7ffff           call 0x280b68186370  (jump table)
0x280b68189c45   305  488b75f0             REX.W movq rsi,[rbp-0x10]
0x280b68189c49   309  e9ebfdffff           jmp 0x280b68189a39  <+0xf9>
0x280b68189c4e   30e  e8bdc4ffff           call 0x280b68186110  (jump table)
0x280b68189c53   313  e8b8c4ffff           call 0x280b68186110  (jump table)
0x280b68189c58   318  e8b3c4ffff           call 0x280b68186110  (jump table)
0x280b68189c5d   31d  e8aec4ffff           call 0x280b68186110  (jump table)
0x280b68189c62   322  e8a9c4ffff           call 0x280b68186110  (jump table)
0x280b68189c67   327  e8a4c4ffff           call 0x280b68186110  (jump table)
0x280b68189c6c   32c  e89fc4ffff           call 0x280b68186110  (jump table)
0x280b68189c71   331  e89ac4ffff           call 0x280b68186110  (jump table)
0x280b68189c76   336  e895c4ffff           call 0x280b68186110  (jump table)
0x280b68189c7b   33b  e890c4ffff           call 0x280b68186110  (jump table)
0x280b68189c80   340  e88bc4ffff           call 0x280b68186110  (jump table)
0x280b68189c85   345  e886c4ffff           call 0x280b68186110  (jump table)
0x280b68189c8a   34a  e881c4ffff           call 0x280b68186110  (jump table)
0x280b68189c8f   34f  e87cc4ffff           call 0x280b68186110  (jump table)
0x280b68189c94   354  e877c4ffff           call 0x280b68186110  (jump table)
0x280b68189c99   359  e872c4ffff           call 0x280b68186110  (jump table)
0x280b68189c9e   35e  e86dc4ffff           call 0x280b68186110  (jump table)
0x280b68189ca3   363  90                   nop

Protected instructions:
 pc offset  land pad
        45       2dd
        4a       2e2
        4f       2e7
        53       2ec
        57       2f1
        68       2f6
        86       2fb
       103       30e
       128       313
       14d       318
       154       31d
       173       322
       179       327
       187       32c
       238       331
       23c       336
       243       33b
       24d       340
       256       345
       270       34a
       279       34f
       284       354
       28a       359
       2af       35e

Source positions:
 pc offset  position
        ce       110  statement
        d4       112  statement
       1e8       238  statement
       1ee       240  statement
       2cc         0  statement
       2dd        28  statement
       2e2        33  statement
       2e7        38  statement
       2ec        47  statement
       2f1        54  statement
       2f6        66  statement
       2fb        95  statement
       300       117  statement
       30e       123  statement
       313       144  statement
       318       172  statement
       31d       176  statement
       322       193  statement
       327       199  statement
       32c       211  statement
       331       259  statement
       336       264  statement
       33b       271  statement
       340       280  statement
       345       284  statement
       34a       296  statement
       34f       303  statement
       354       310  statement
       359       316  statement
       35e       335  statement

Safepoints (entries = 1, byte size = 12)
0x280b68189a10     d0  slots (sp->fp): 000000000000000000000000

RelocInfo (size = 0)

--- End code ---
--- WebAssembly code ---
name: __emscripten_stdout_close
index: 9
kind: wasm function
compiler: Liftoff
Body (size = 64 = 60 + 4 padding)
Instructions (size = 48)
0x280b68189cc0     0  55                   push rbp
0x280b68189cc1     1  4889e5               REX.W movq rbp,rsp
0x280b68189cc4     4  6a08                 push 0x8
0x280b68189cc6     6  56                   push rsi
0x280b68189cc7     7  4881ec18000000       REX.W subq rsp,0x18
0x280b68189cce     e  488b4e27             REX.W movq rcx,[rsi+0x27]
0x280b68189cd2    12  483b21               REX.W cmpq rsp,[rcx]
0x280b68189cd5    15  0f8607000000         jna 0x280b68189ce2  <+0x22>
0x280b68189cdb    1b  33c0                 xorl rax,rax
0x280b68189cdd    1d  488be5               REX.W movq rsp,rbp
0x280b68189ce0    20  5d                   pop rbp
0x280b68189ce1    21  c3                   retl
0x280b68189ce2    22  50                   push rax
0x280b68189ce3    23  e888c6ffff           call 0x280b68186370  (jump table)
0x280b68189ce8    28  58                   pop rax
0x280b68189ce9    29  488b75f0             REX.W movq rsi,[rbp-0x10]
0x280b68189ced    2d  ebec                 jmp 0x280b68189cdb  <+0x1b>
0x280b68189cef    2f  90                   nop

Source positions:
 pc offset  position
        23         0  statement

Safepoints (entries = 1, byte size = 10)
0x280b68189ce8     28  slots (sp->fp): 00000000

RelocInfo (size = 0)

--- End code ---
--- WebAssembly code ---
name: main
index: 6
kind: wasm function
compiler: Liftoff
Body (size = 704 = 652 + 52 padding)
Instructions (size = 640)
0x280b6818c180     0  55                   push rbp
0x280b6818c181     1  4889e5               REX.W movq rbp,rsp
0x280b6818c184     4  6a08                 push 0x8
0x280b6818c186     6  56                   push rsi
0x280b6818c187     7  4881ec40000000       REX.W subq rsp,0x40
0x280b6818c18e     e  488b4e27             REX.W movq rcx,[rsi+0x27]
0x280b6818c192    12  483b21               REX.W cmpq rsp,[rcx]
0x280b6818c195    15  0f86f4010000         jna 0x280b6818c38f  <+0x20f>
0x280b6818c19b    1b  488b4e47             REX.W movq rcx,[rsi+0x47]
0x280b6818c19f    1f  8b19                 movl rbx,[rcx]
0x280b6818c1a1    21  b940270000           movl rcx,0x2740
0x280b6818c1a6    26  2bd9                 subl rbx,rcx
0x280b6818c1a8    28  488b4e47             REX.W movq rcx,[rsi+0x47]
0x280b6818c1ac    2c  8919                 movl [rcx],rbx
0x280b6818c1ae    2e  8945d4               movl [rbp-0x2c],rax
0x280b6818c1b1    31  8955d0               movl [rbp-0x30],rdx
0x280b6818c1b4    34  895dcc               movl [rbp-0x34],rbx
0x280b6818c1b7    37  c745c800000000       movl [rbp-0x38],0x0
0x280b6818c1be    3e  c745c400000000       movl [rbp-0x3c],0x0
0x280b6818c1c5    45  488b4627             REX.W movq rax,[rsi+0x27]
0x280b6818c1c9    49  483b20               REX.W cmpq rsp,[rax]
0x280b6818c1cc    4c  0f86cf010000         jna 0x280b6818c3a1  <+0x221>
0x280b6818c1d2    52  8b45cc               movl rax,[rbp-0x34]
0x280b6818c1d5    55  05b0130000           add rax,0x13b0
0x280b6818c1da    5a  8b4dc8               movl rcx,[rbp-0x38]
0x280b6818c1dd    5d  03c1                 addl rax,rcx
0x280b6818c1df    5f  8b4dc8               movl rcx,[rbp-0x38]
0x280b6818c1e2    62  83c901               orl rcx,0x1
0x280b6818c1e5    65  488b5617             REX.W movq rdx,[rsi+0x17]
0x280b6818c1e9    69  880c02               movb [rdx+rax*1],cl
0x280b6818c1ec    6c  8b45cc               movl rax,[rbp-0x34]
0x280b6818c1ef    6f  05b0130000           add rax,0x13b0
0x280b6818c1f4    74  03c1                 addl rax,rcx
0x280b6818c1f6    76  8b5dc8               movl rbx,[rbp-0x38]
0x280b6818c1f9    79  83cb02               orl rbx,0x2
0x280b6818c1fc    7c  881c02               movb [rdx+rax*1],bl
0x280b6818c1ff    7f  8b45cc               movl rax,[rbp-0x34]
0x280b6818c202    82  05b0130000           add rax,0x13b0
0x280b6818c207    87  03c3                 addl rax,rbx
0x280b6818c209    89  8b4dc8               movl rcx,[rbp-0x38]
0x280b6818c20c    8c  83c903               orl rcx,0x3
0x280b6818c20f    8f  880c02               movb [rdx+rax*1],cl
0x280b6818c212    92  8b45cc               movl rax,[rbp-0x34]
0x280b6818c215    95  05b0130000           add rax,0x13b0
0x280b6818c21a    9a  03c1                 addl rax,rcx
0x280b6818c21c    9c  8b5dc8               movl rbx,[rbp-0x38]
0x280b6818c21f    9f  83cb04               orl rbx,0x4
0x280b6818c222    a2  881c02               movb [rdx+rax*1],bl
0x280b6818c225    a5  8b45cc               movl rax,[rbp-0x34]
0x280b6818c228    a8  05b0130000           add rax,0x13b0
0x280b6818c22d    ad  03c3                 addl rax,rbx
0x280b6818c22f    af  8b4dc8               movl rcx,[rbp-0x38]
0x280b6818c232    b2  83c905               orl rcx,0x5
0x280b6818c235    b5  880c02               movb [rdx+rax*1],cl
0x280b6818c238    b8  8b45cc               movl rax,[rbp-0x34]
0x280b6818c23b    bb  05b0130000           add rax,0x13b0
0x280b6818c240    c0  03c1                 addl rax,rcx
0x280b6818c242    c2  8b5dc8               movl rbx,[rbp-0x38]
0x280b6818c245    c5  83cb06               orl rbx,0x6
0x280b6818c248    c8  881c02               movb [rdx+rax*1],bl
0x280b6818c24b    cb  8b45cc               movl rax,[rbp-0x34]
0x280b6818c24e    ce  05b0130000           add rax,0x13b0
0x280b6818c253    d3  03c3                 addl rax,rbx
0x280b6818c255    d5  8b4dc8               movl rcx,[rbp-0x38]
0x280b6818c258    d8  83c907               orl rcx,0x7
0x280b6818c25b    db  880c02               movb [rdx+rax*1],cl
0x280b6818c25e    de  8b45cc               movl rax,[rbp-0x34]
0x280b6818c261    e1  05b0130000           add rax,0x13b0
0x280b6818c266    e6  03c1                 addl rax,rcx
0x280b6818c268    e8  8b5dc8               movl rbx,[rbp-0x38]
0x280b6818c26b    eb  83c308               addl rbx,0x8
0x280b6818c26e    ee  881c02               movb [rdx+rax*1],bl
0x280b6818c271    f1  81fb88130000         cmpl rbx,0x1388
0x280b6818c277    f7  0f840b000000         jz 0x280b6818c288  <+0x108>
0x280b6818c27d    fd  895dc8               movl [rbp-0x38],rbx
0x280b6818c280   100  894dc4               movl [rbp-0x3c],rcx
0x280b6818c283   103  e93dffffff           jmp 0x280b6818c1c5  <+0x45>
0x280b6818c288   108  8b45cc               movl rax,[rbp-0x34]
0x280b6818c28b   10b  83c018               addl rax,0x18
0x280b6818c28e   10e  488b5e2f             REX.W movq rbx,[rsi+0x2f]
0x280b6818c292   112  488b3b               REX.W movq rdi,[rbx]
0x280b6818c295   115  8b5e0b               movl rbx,[rsi+0xb]
0x280b6818c298   118  4903de               REX.W addq rbx,r14
0x280b6818c29b   11b  8b5b07               movl rbx,[rbx+0x7]
0x280b6818c29e   11e  4903de               REX.W addq rbx,r14
0x280b6818c2a1   121  894dc4               movl [rbp-0x3c],rcx
0x280b6818c2a4   124  488bf3               REX.W movq rsi,rbx
0x280b6818c2a7   127  33d2                 xorl rdx,rdx
0x280b6818c2a9   129  ffd7                 call rdi
0x280b6818c2ab   12b  c745c800000000       movl [rbp-0x38],0x0
0x280b6818c2b2   132  488b75f0             REX.W movq rsi,[rbp-0x10]
0x280b6818c2b6   136  488b4627             REX.W movq rax,[rsi+0x27]
0x280b6818c2ba   13a  483b20               REX.W cmpq rsp,[rax]
0x280b6818c2bd   13d  0f8614010000         jna 0x280b6818c3d7  <+0x257>
0x280b6818c2c3   143  8b45cc               movl rax,[rbp-0x34]
0x280b6818c2c6   146  05b0130000           add rax,0x13b0
0x280b6818c2cb   14b  8b4dcc               movl rcx,[rbp-0x34]
0x280b6818c2ce   14e  83c120               addl rcx,0x20
0x280b6818c2d1   151  8b55c8               movl rdx,[rbp-0x38]
0x280b6818c2d4   154  8955b0               movl [rbp-0x50],rdx
0x280b6818c2d7   157  8bd1                 movl rdx,rcx
0x280b6818c2d9   159  8b4db0               movl rcx,[rbp-0x50]
0x280b6818c2dc   15c  bb88130000           movl rbx,0x1388
0x280b6818c2e1   161  488b75f0             REX.W movq rsi,[rbp-0x10]
0x280b6818c2e5   165  e81b9dffff           call 0x280b68186005  (jump table)
0x280b6818c2ea   16a  8b45c8               movl rax,[rbp-0x38]
0x280b6818c2ed   16d  83c001               addl rax,0x1
0x280b6818c2f0   170  3d10270000           cmp rax,0x2710
0x280b6818c2f5   175  0f8405000000         jz 0x280b6818c300  <+0x180>
0x280b6818c2fb   17b  8945c8               movl [rbp-0x38],rax
0x280b6818c2fe   17e  ebb2                 jmp 0x280b6818c2b2  <+0x132>
0x280b6818c300   180  8b4dcc               movl rcx,[rbp-0x34]
0x280b6818c303   183  83c110               addl rcx,0x10
0x280b6818c306   186  488b75f0             REX.W movq rsi,[rbp-0x10]
0x280b6818c30a   18a  488b562f             REX.W movq rdx,[rsi+0x2f]
0x280b6818c30e   18e  488b1a               REX.W movq rbx,[rdx]
0x280b6818c311   191  8b560b               movl rdx,[rsi+0xb]
0x280b6818c314   194  4903d6               REX.W addq rdx,r14
0x280b6818c317   197  8b5207               movl rdx,[rdx+0x7]
0x280b6818c31a   19a  4903d6               REX.W addq rdx,r14
0x280b6818c31d   19d  8945c8               movl [rbp-0x38],rax
0x280b6818c320   1a0  8bc1                 movl rax,rcx
0x280b6818c322   1a2  488bf2               REX.W movq rsi,rdx
0x280b6818c325   1a5  33d2                 xorl rdx,rdx
0x280b6818c327   1a7  ffd3                 call rbx
0x280b6818c329   1a9  8b45cc               movl rax,[rbp-0x34]
0x280b6818c32c   1ac  8b4dcc               movl rcx,[rbp-0x34]
0x280b6818c32f   1af  488b75f0             REX.W movq rsi,[rbp-0x10]
0x280b6818c333   1b3  488b5617             REX.W movq rdx,[rsi+0x17]
0x280b6818c337   1b7  8b5c0a14             movl rbx,[rdx+rcx*1+0x14]
0x280b6818c33b   1bb  8b4dcc               movl rcx,[rbp-0x34]
0x280b6818c33e   1be  8b7c0a1c             movl rdi,[rdx+rcx*1+0x1c]
0x280b6818c342   1c2  2bdf                 subl rbx,rdi
0x280b6818c344   1c4  8b4dcc               movl rcx,[rbp-0x34]
0x280b6818c347   1c7  8b7c0a10             movl rdi,[rdx+rcx*1+0x10]
0x280b6818c34b   1cb  8b4dcc               movl rcx,[rbp-0x34]
0x280b6818c34e   1ce  448b4c0a18           movl r9,[rdx+rcx*1+0x18]
0x280b6818c353   1d3  412bf9               subl rdi,r9
0x280b6818c356   1d6  b940420f00           movl rcx,0xf4240
0x280b6818c35b   1db  0faff9               imull rdi,rcx
0x280b6818c35e   1de  03df                 addl rbx,rdi
0x280b6818c360   1e0  891c02               movl [rdx+rax*1],rbx
0x280b6818c363   1e3  8b45cc               movl rax,[rbp-0x34]
0x280b6818c366   1e6  8bd0                 movl rdx,rax
0x280b6818c368   1e8  b811040000           movl rax,0x411
0x280b6818c36d   1ed  488b75f0             REX.W movq rsi,[rbp-0x10]
0x280b6818c371   1f1  e8999cffff           call 0x280b6818600f  (jump table)
0x280b6818c376   1f6  8b45cc               movl rax,[rbp-0x34]
0x280b6818c379   1f9  0540270000           add rax,0x2740
0x280b6818c37e   1fe  488b75f0             REX.W movq rsi,[rbp-0x10]
0x280b6818c382   202  488b4e47             REX.W movq rcx,[rsi+0x47]
0x280b6818c386   206  8901                 movl [rcx],rax
0x280b6818c388   208  33c0                 xorl rax,rax
0x280b6818c38a   20a  488be5               REX.W movq rsp,rbp
0x280b6818c38d   20d  5d                   pop rbp
0x280b6818c38e   20e  c3                   retl
0x280b6818c38f   20f  50                   push rax
0x280b6818c390   210  52                   push rdx
0x280b6818c391   211  e8da9fffff           call 0x280b68186370  (jump table)
0x280b6818c396   216  5a                   pop rdx
0x280b6818c397   217  58                   pop rax
0x280b6818c398   218  488b75f0             REX.W movq rsi,[rbp-0x10]
0x280b6818c39c   21c  e9fafdffff           jmp 0x280b6818c19b  <+0x1b>
0x280b6818c3a1   221  e8ca9fffff           call 0x280b68186370  (jump table)
0x280b6818c3a6   226  488b75f0             REX.W movq rsi,[rbp-0x10]
0x280b6818c3aa   22a  e923feffff           jmp 0x280b6818c1d2  <+0x52>
0x280b6818c3af   22f  e85c9dffff           call 0x280b68186110  (jump table)
0x280b6818c3b4   234  e8579dffff           call 0x280b68186110  (jump table)
0x280b6818c3b9   239  e8529dffff           call 0x280b68186110  (jump table)
0x280b6818c3be   23e  e84d9dffff           call 0x280b68186110  (jump table)
0x280b6818c3c3   243  e8489dffff           call 0x280b68186110  (jump table)
0x280b6818c3c8   248  e8439dffff           call 0x280b68186110  (jump table)
0x280b6818c3cd   24d  e83e9dffff           call 0x280b68186110  (jump table)
0x280b6818c3d2   252  e8399dffff           call 0x280b68186110  (jump table)
0x280b6818c3d7   257  e8949fffff           call 0x280b68186370  (jump table)
0x280b6818c3dc   25c  488b75f0             REX.W movq rsi,[rbp-0x10]
0x280b6818c3e0   260  e9defeffff           jmp 0x280b6818c2c3  <+0x143>
0x280b6818c3e5   265  e8269dffff           call 0x280b68186110  (jump table)
0x280b6818c3ea   26a  e8219dffff           call 0x280b68186110  (jump table)
0x280b6818c3ef   26f  e81c9dffff           call 0x280b68186110  (jump table)
0x280b6818c3f4   274  e8179dffff           call 0x280b68186110  (jump table)
0x280b6818c3f9   279  e8129dffff           call 0x280b68186110  (jump table)
0x280b6818c3fe   27e  6690                 nop

Protected instructions:
 pc offset  land pad
        69       22f
        7c       234
        8f       239
        a2       23e
        b5       243
        c8       248
        db       24d
        ee       252
       1b7       265
       1be       26a
       1c7       26f
       1ce       274
       1e0       279

Source positions:
 pc offset  position
       129       192  statement
       165       213  statement
       1a7       237  statement
       1f1       278  statement
       211         0  statement
       221        18  statement
       22f        36  statement
       234        55  statement
       239        74  statement
       23e        93  statement
       243       112  statement
       248       131  statement
       24d       150  statement
       252       169  statement
       257       195  statement
       265       244  statement
       26a       249  statement
       26f       255  statement
       274       260  statement
       279       270  statement

Safepoints (entries = 1, byte size = 12)
0x280b6818c2ab    12b  slots (sp->fp): 0000000000000000

RelocInfo (size = 0)

--- End code ---
--- WebAssembly code ---
name: wasm-to-js:i:-setTempRet0
index: 3
kind: wasm-to-js
Body (size = 256 = 212 + 44 padding)
Instructions (size = 200)
0x280b6818c440     0  55                   push rbp
0x280b6818c441     1  4889e5               REX.W movq rbp,rsp
0x280b6818c444     4  6a0a                 push 0xa
0x280b6818c446     6  56                   push rsi
0x280b6818c447     7  4883ec28             REX.W subq rsp,0x28
0x280b6818c44b     b  8b5e0b               movl rbx,[rsi+0xb]
0x280b6818c44e     e  4903de               REX.W addq rbx,r14
0x280b6818c451    11  8b7e0f               movl rdi,[rsi+0xf]
0x280b6818c454    14  4903fe               REX.W addq rdi,r14
0x280b6818c457    17  488b4e03             REX.W movq rcx,[rsi+0x3]
0x280b6818c45b    1b  4c8b4603             REX.W movq r8,[rsi+0x3]
0x280b6818c45f    1f  4d8b8048450000       REX.W movq r8,[r8+0x4548]
0x280b6818c466    26  41c70000000000       movl [r8],0x0
0x280b6818c46d    2d  448b470f             movl r8,[rdi+0xf]
0x280b6818c471    31  4d03c6               REX.W addq r8,r14
0x280b6818c474    34  448b4f0b             movl r9,[rdi+0xb]
0x280b6818c478    38  4d03ce               REX.W addq r9,r14
0x280b6818c47b    3b  488b9170010000       REX.W movq rdx,[rcx+0x170]
0x280b6818c482    42  488975e8             REX.W movq [rbp-0x18],rsi
0x280b6818c486    46  41f6411b60           testb [r9+0x1b],0x60
0x280b6818c48b    4b  0f850b000000         jnz 0x280b6818c49c  <+0x5c>
0x280b6818c491    51  8b5b13               movl rbx,[rbx+0x13]
0x280b6818c494    54  4903de               REX.W addq rbx,r14
0x280b6818c497    57  e903000000           jmp 0x280b6818c49f  <+0x5f>
0x280b6818c49c    5c  488bda               REX.W movq rbx,rdx
0x280b6818c49f    5f  488bc8               REX.W movq rcx,rax
0x280b6818c4a2    62  03c8                 addl rcx,rax
0x280b6818c4a4    64  0f8033000000         jo 0x280b6818c4dd  <+0x9d>
0x280b6818c4aa    6a  4863c9               REX.W movsxlq rcx,rcx
0x280b6818c4ad    6d  51                   push rcx
0x280b6818c4ae    6e  53                   push rbx
0x280b6818c4af    6f  b802000000           movl rax,0x2
0x280b6818c4b4    74  498bf0               REX.W movq rsi,r8
0x280b6818c4b7    77  8b4f17               movl rcx,[rdi+0x17]
0x280b6818c4ba    7a  4903ce               REX.W addq rcx,r14
0x280b6818c4bd    7d  488b490f             REX.W movq rcx,[rcx+0xf]
0x280b6818c4c1    81  ffd1                 call rcx
0x280b6818c4c3    83  488b5de8             REX.W movq rbx,[rbp-0x18]
0x280b6818c4c7    87  488b5b03             REX.W movq rbx,[rbx+0x3]
0x280b6818c4cb    8b  488b9b48450000       REX.W movq rbx,[rbx+0x4548]
0x280b6818c4d2    92  c70301000000         movl [rbx],0x1
0x280b6818c4d8    98  488be5               REX.W movq rsp,rbp
0x280b6818c4db    9b  5d                   pop rbp
0x280b6818c4dc    9c  c3                   retl
0x280b6818c4dd    9d  48897de0             REX.W movq [rbp-0x20],rdi
0x280b6818c4e1    a1  48895dd8             REX.W movq [rbp-0x28],rbx
0x280b6818c4e5    a5  488955d0             REX.W movq [rbp-0x30],rdx
0x280b6818c4e9    a9  4c8945c8             REX.W movq [rbp-0x38],r8
0x280b6818c4ed    ad  e83e9dffff           call 0x280b68186230  (jump table)    ;; wasm stub: WasmInt32ToHeapNumber
0x280b6818c4f2    b2  488bc8               REX.W movq rcx,rax
0x280b6818c4f5    b5  488b7de0             REX.W movq rdi,[rbp-0x20]
0x280b6818c4f9    b9  488b5dd8             REX.W movq rbx,[rbp-0x28]
0x280b6818c4fd    bd  488b55d0             REX.W movq rdx,[rbp-0x30]
0x280b6818c501    c1  4c8b45c8             REX.W movq r8,[rbp-0x38]
0x280b6818c505    c5  eba6                 jmp 0x280b6818c4ad  <+0x6d>
0x280b6818c507    c7  90                   nop

Safepoints (entries = 2, byte size = 12)
0x280b6818c4c3     83  slots (sp->fp): 00001000
0x280b6818c4f2     b2  slots (sp->fp): 10111000

RelocInfo (size = 3)
0x280b6818c4ee  wasm stub call

--- End code ---
--- WebAssembly code ---
name: __fwritex
index: 20
kind: wasm function
compiler: Liftoff
Body (size = 832 = 788 + 44 padding)
Instructions (size = 776)
0x280b68187300     0  55                   push rbp
0x280b68187301     1  4889e5               REX.W movq rbp,rsp
0x280b68187304     4  6a08                 push 0x8
0x280b68187306     6  56                   push rsi
0x280b68187307     7  4881ec40000000       REX.W subq rsp,0x40
0x280b6818730e     e  488b5e27             REX.W movq rbx,[rsi+0x27]
0x280b68187312    12  483b23               REX.W cmpq rsp,[rbx]
0x280b68187315    15  0f8681020000         jna 0x280b6818759c  <+0x29c>
0x280b6818731b    1b  488b5e17             REX.W movq rbx,[rsi+0x17]
0x280b6818731f    1f  8b7c0b10             movl rdi,[rbx+rcx*1+0x10]
0x280b68187323    23  85ff                 testl rdi,rdi
0x280b68187325    25  0f854b000000         jnz 0x280b68187376  <+0x76>
0x280b6818732b    2b  897dc8               movl [rbp-0x38],rdi
0x280b6818732e    2e  894dcc               movl [rbp-0x34],rcx
0x280b68187331    31  8955d0               movl [rbp-0x30],rdx
0x280b68187334    34  8945d4               movl [rbp-0x2c],rax
0x280b68187337    37  8bc1                 movl rax,rcx
0x280b68187339    39  488b75f0             REX.W movq rsi,[rbp-0x10]
0x280b6818733d    3d  e8f0ecffff           call 0x280b68186032  (jump table)
0x280b68187342    42  33c9                 xorl rcx,rcx
0x280b68187344    44  33d2                 xorl rdx,rdx
0x280b68187346    46  85c0                 testl rax,rax
0x280b68187348    48  0f8405000000         jz 0x280b68187353  <+0x53>
0x280b6818734e    4e  e942020000           jmp 0x280b68187595  <+0x295>
0x280b68187353    53  8b45cc               movl rax,[rbp-0x34]
0x280b68187356    56  488b75f0             REX.W movq rsi,[rbp-0x10]
0x280b6818735a    5a  488b5e17             REX.W movq rbx,[rsi+0x17]
0x280b6818735e    5e  8b7c0310             movl rdi,[rbx+rax*1+0x10]
0x280b68187362    62  8955c0               movl [rbp-0x40],rdx
0x280b68187365    65  448bc9               movl r9,rcx
0x280b68187368    68  8b45d4               movl rax,[rbp-0x2c]
0x280b6818736b    6b  8b4dcc               movl rcx,[rbp-0x34]
0x280b6818736e    6e  8b55d0               movl rdx,[rbp-0x30]
0x280b68187371    71  e90a000000           jmp 0x280b68187380  <+0x80>
0x280b68187376    76  c745c000000000       movl [rbp-0x40],0x0
0x280b6818737d    7d  4533c9               xorl r9,r9
0x280b68187380    80  8b740b14             movl rsi,[rbx+rcx*1+0x14]
0x280b68187384    84  8bdf                 movl rbx,rdi
0x280b68187386    86  2bde                 subl rbx,rsi
0x280b68187388    88  3bd3                 cmpl rdx,rbx
0x280b6818738a    8a  0f8685000000         jna 0x280b68187415  <+0x115>
0x280b68187390    90  488b5df0             REX.W movq rbx,[rbp-0x10]
0x280b68187394    94  488b5b17             REX.W movq rbx,[rbx+0x17]
0x280b68187398    98  8945b8               movl [rbp-0x48],rax
0x280b6818739b    9b  8945d4               movl [rbp-0x2c],rax
0x280b6818739e    9e  8b440b24             movl rax,[rbx+rcx*1+0x24]
0x280b681873a2    a2  894dbc               movl [rbp-0x44],rcx
0x280b681873a5    a5  894dcc               movl [rbp-0x34],rcx
0x280b681873a8    a8  8955b4               movl [rbp-0x4c],rdx
0x280b681873ab    ab  8955d0               movl [rbp-0x30],rdx
0x280b681873ae    ae  488b4df0             REX.W movq rcx,[rbp-0x10]
0x280b681873b2    b2  8b4913               movl rcx,[rcx+0x13]
0x280b681873b5    b5  3bc1                 cmpl rax,rcx
0x280b681873b7    b7  0f8307020000         jnc 0x280b681875c4  <+0x2c4>
0x280b681873bd    bd  488b5df0             REX.W movq rbx,[rbp-0x10]
0x280b681873c1    c1  488b5b3f             REX.W movq rbx,[rbx+0x3f]
0x280b681873c5    c5  c1e002               shll rax, 2
0x280b681873c8    c8  8b1403               movl rdx,[rbx+rax*1]
0x280b681873cb    cb  33c9                 xorl rcx,rcx
0x280b681873cd    cd  483bd1               REX.W cmpq rdx,rcx
0x280b681873d0    d0  0f85f3010000         jnz 0x280b681875c9  <+0x2c9>
0x280b681873d6    d6  488b5df0             REX.W movq rbx,[rbp-0x10]
0x280b681873da    da  8b5b0f               movl rbx,[rbx+0xf]
0x280b681873dd    dd  4903de               REX.W addq rbx,r14
0x280b681873e0    e0  8b4c0307             movl rcx,[rbx+rax*1+0x7]
0x280b681873e4    e4  4903ce               REX.W addq rcx,r14
0x280b681873e7    e7  03c0                 addl rax,rax
0x280b681873e9    e9  488b5df0             REX.W movq rbx,[rbp-0x10]
0x280b681873ed    ed  488b5b37             REX.W movq rbx,[rbx+0x37]
0x280b681873f1    f1  488b1403             REX.W movq rdx,[rbx+rax*1]
0x280b681873f5    f5  8975c0               movl [rbp-0x40],rsi
0x280b681873f8    f8  44894dc4             movl [rbp-0x3c],r9
0x280b681873fc    fc  897dc8               movl [rbp-0x38],rdi
0x280b681873ff    ff  488bda               REX.W movq rbx,rdx
0x280b68187402   102  488bf1               REX.W movq rsi,rcx
0x280b68187405   105  8b45bc               movl rax,[rbp-0x44]
0x280b68187408   108  8b4db4               movl rcx,[rbp-0x4c]
0x280b6818740b   10b  8b55b8               movl rdx,[rbp-0x48]
0x280b6818740e   10e  ffd3                 call rbx
0x280b68187410   110  488be5               REX.W movq rsp,rbp
0x280b68187413   113  5d                   pop rbp
0x280b68187414   114  c3                   retl
0x280b68187415   115  488b5df0             REX.W movq rbx,[rbp-0x10]
0x280b68187419   119  488b5b17             REX.W movq rbx,[rbx+0x17]
0x280b6818741d   11d  8945d4               movl [rbp-0x2c],rax
0x280b68187420   120  8b440b50             movl rax,[rbx+rcx*1+0x50]
0x280b68187424   124  83f800               cmpl rax,0x0
0x280b68187427   127  0f8d07000000         jge 0x280b68187434  <+0x134>
0x280b6818742d   12d  33c0                 xorl rax,rax
0x280b6818742f   12f  e917010000           jmp 0x280b6818754b  <+0x24b>
0x280b68187434   134  8955d0               movl [rbp-0x30],rdx
0x280b68187437   137  894dcc               movl [rbp-0x34],rcx
0x280b6818743a   13a  897dc8               movl [rbp-0x38],rdi
0x280b6818743d   13d  8955c4               movl [rbp-0x3c],rdx
0x280b68187440   140  8975c0               movl [rbp-0x40],rsi
0x280b68187443   143  488b75f0             REX.W movq rsi,[rbp-0x10]
0x280b68187447   147  488b4627             REX.W movq rax,[rsi+0x27]
0x280b6818744b   14b  483b20               REX.W cmpq rsp,[rax]
0x280b6818744e   14e  0f867f010000         jna 0x280b681875d3  <+0x2d3>
0x280b68187454   154  8b45c4               movl rax,[rbp-0x3c]
0x280b68187457   157  85c0                 testl rax,rax
0x280b68187459   159  0f8514000000         jnz 0x280b68187473  <+0x173>
0x280b6818745f   15f  33c0                 xorl rax,rax
0x280b68187461   161  8b4dcc               movl rcx,[rbp-0x34]
0x280b68187464   164  8b55d0               movl rdx,[rbp-0x30]
0x280b68187467   167  8b75c0               movl rsi,[rbp-0x40]
0x280b6818746a   16a  448b4dc4             movl r9,[rbp-0x3c]
0x280b6818746e   16e  e9d8000000           jmp 0x280b6818754b  <+0x24b>
0x280b68187473   173  8b4dd4               movl rcx,[rbp-0x2c]
0x280b68187476   176  ba01000000           movl rdx,0x1
0x280b6818747b   17b  f7da                 negl rdx
0x280b6818747d   17d  03d0                 addl rdx,rax
0x280b6818747f   17f  03ca                 addl rcx,rdx
0x280b68187481   181  0fb63c0b             movzxbl rdi,[rbx+rcx*1]
0x280b68187485   185  83ff0a               cmpl rdi,0xa
0x280b68187488   188  0f8408000000         jz 0x280b68187496  <+0x196>
0x280b6818748e   18e  8945c8               movl [rbp-0x38],rax
0x280b68187491   191  8955c4               movl [rbp-0x3c],rdx
0x280b68187494   194  ebad                 jmp 0x280b68187443  <+0x143>
0x280b68187496   196  8b4dcc               movl rcx,[rbp-0x34]
0x280b68187499   199  8b7dd4               movl rdi,[rbp-0x2c]
0x280b6818749c   19c  448b4dcc             movl r9,[rbp-0x34]
0x280b681874a0   1a0  428b740b24           movl rsi,[rbx+r9*1+0x24]
0x280b681874a5   1a5  894dbc               movl [rbp-0x44],rcx
0x280b681874a8   1a8  488b5df0             REX.W movq rbx,[rbp-0x10]
0x280b681874ac   1ac  8b5b13               movl rbx,[rbx+0x13]
0x280b681874af   1af  3bf3                 cmpl rsi,rbx
0x280b681874b1   1b1  0f8336010000         jnc 0x280b681875ed  <+0x2ed>
0x280b681874b7   1b7  4c8b4df0             REX.W movq r9,[rbp-0x10]
0x280b681874bb   1bb  4d8b493f             REX.W movq r9,[r9+0x3f]
0x280b681874bf   1bf  c1e602               shll rsi, 2
0x280b681874c2   1c2  418b0c31             movl rcx,[r9+rsi*1]
0x280b681874c6   1c6  33db                 xorl rbx,rbx
0x280b681874c8   1c8  483bcb               REX.W cmpq rcx,rbx
0x280b681874cb   1cb  0f8521010000         jnz 0x280b681875f2  <+0x2f2>
0x280b681874d1   1d1  4c8b4df0             REX.W movq r9,[rbp-0x10]
0x280b681874d5   1d5  458b490f             movl r9,[r9+0xf]
0x280b681874d9   1d9  4d03ce               REX.W addq r9,r14
0x280b681874dc   1dc  418b5c3107           movl rbx,[r9+rsi*1+0x7]
0x280b681874e1   1e1  4903de               REX.W addq rbx,r14
0x280b681874e4   1e4  03f6                 addl rsi,rsi
0x280b681874e6   1e6  4c8b4df0             REX.W movq r9,[rbp-0x10]
0x280b681874ea   1ea  4d8b4937             REX.W movq r9,[r9+0x37]
0x280b681874ee   1ee  498b0c31             REX.W movq rcx,[r9+rsi*1]
0x280b681874f2   1f2  8955c4               movl [rbp-0x3c],rdx
0x280b681874f5   1f5  8945c8               movl [rbp-0x38],rax
0x280b681874f8   1f8  8bd7                 movl rdx,rdi
0x280b681874fa   1fa  488bf3               REX.W movq rsi,rbx
0x280b681874fd   1fd  488bd9               REX.W movq rbx,rcx
0x280b68187500   200  8bc8                 movl rcx,rax
0x280b68187502   202  8b45bc               movl rax,[rbp-0x44]
0x280b68187505   205  ffd3                 call rbx
0x280b68187507   207  8b4dc8               movl rcx,[rbp-0x38]
0x280b6818750a   20a  3bc1                 cmpl rax,rcx
0x280b6818750c   20c  0f830a000000         jnc 0x280b6818751c  <+0x21c>
0x280b68187512   212  8bc8                 movl rcx,rax
0x280b68187514   214  8b55c0               movl rdx,[rbp-0x40]
0x280b68187517   217  e979000000           jmp 0x280b68187595  <+0x295>
0x280b6818751c   21c  8b4dd4               movl rcx,[rbp-0x2c]
0x280b6818751f   21f  8b55c8               movl rdx,[rbp-0x38]
0x280b68187522   222  03ca                 addl rcx,rdx
0x280b68187524   224  8b55d0               movl rdx,[rbp-0x30]
0x280b68187527   227  8b5dc8               movl rbx,[rbp-0x38]
0x280b6818752a   22a  2bd3                 subl rdx,rbx
0x280b6818752c   22c  8b5dcc               movl rbx,[rbp-0x34]
0x280b6818752f   22f  488b7df0             REX.W movq rdi,[rbp-0x10]
0x280b68187533   233  488b7717             REX.W movq rsi,[rdi+0x17]
0x280b68187537   237  448b4c1e14           movl r9,[rsi+rbx*1+0x14]
0x280b6818753c   23c  894dd4               movl [rbp-0x2c],rcx
0x280b6818753f   23f  418bf1               movl rsi,r9
0x280b68187542   242  448bc8               movl r9,rax
0x280b68187545   245  8b45c8               movl rax,[rbp-0x38]
0x280b68187548   248  8b4dcc               movl rcx,[rbp-0x34]
0x280b6818754b   24b  8b5dd4               movl rbx,[rbp-0x2c]
0x280b6818754e   24e  8975c0               movl [rbp-0x40],rsi
0x280b68187551   251  44894dc4             movl [rbp-0x3c],r9
0x280b68187555   255  8945c8               movl [rbp-0x38],rax
0x280b68187558   258  894dcc               movl [rbp-0x34],rcx
0x280b6818755b   25b  8955d0               movl [rbp-0x30],rdx
0x280b6818755e   25e  8bc6                 movl rax,rsi
0x280b68187560   260  8bca                 movl rcx,rdx
0x280b68187562   262  8bd3                 movl rdx,rbx
0x280b68187564   264  488b75f0             REX.W movq rsi,[rbp-0x10]
0x280b68187568   268  e8e2eaffff           call 0x280b6818604f  (jump table)
0x280b6818756d   26d  8b45cc               movl rax,[rbp-0x34]
0x280b68187570   270  8b4dcc               movl rcx,[rbp-0x34]
0x280b68187573   273  488b75f0             REX.W movq rsi,[rbp-0x10]
0x280b68187577   277  488b5617             REX.W movq rdx,[rsi+0x17]
0x280b6818757b   27b  8b5c0a14             movl rbx,[rdx+rcx*1+0x14]
0x280b6818757f   27f  8b4dd0               movl rcx,[rbp-0x30]
0x280b68187582   282  03d9                 addl rbx,rcx
0x280b68187584   284  895c0214             movl [rdx+rax*1+0x14],rbx
0x280b68187588   288  8b45d0               movl rax,[rbp-0x30]
0x280b6818758b   28b  8b4dc8               movl rcx,[rbp-0x38]
0x280b6818758e   28e  03c1                 addl rax,rcx
0x280b68187590   290  8bc8                 movl rcx,rax
0x280b68187592   292  8b55c0               movl rdx,[rbp-0x40]
0x280b68187595   295  8bc1                 movl rax,rcx
0x280b68187597   297  488be5               REX.W movq rsp,rbp
0x280b6818759a   29a  5d                   pop rbp
0x280b6818759b   29b  c3                   retl
0x280b6818759c   29c  50                   push rax
0x280b6818759d   29d  51                   push rcx
0x280b6818759e   29e  52                   push rdx
0x280b6818759f   29f  e8ccedffff           call 0x280b68186370  (jump table)
0x280b681875a4   2a4  5a                   pop rdx
0x280b681875a5   2a5  59                   pop rcx
0x280b681875a6   2a6  58                   pop rax
0x280b681875a7   2a7  488b75f0             REX.W movq rsi,[rbp-0x10]
0x280b681875ab   2ab  e96bfdffff           jmp 0x280b6818731b  <+0x1b>
0x280b681875b0   2b0  e85bebffff           call 0x280b68186110  (jump table)
0x280b681875b5   2b5  e856ebffff           call 0x280b68186110  (jump table)
0x280b681875ba   2ba  e851ebffff           call 0x280b68186110  (jump table)
0x280b681875bf   2bf  e84cebffff           call 0x280b68186110  (jump table)
0x280b681875c4   2c4  e8d7ebffff           call 0x280b681861a0  (jump table)
0x280b681875c9   2c9  e8a2ebffff           call 0x280b68186170  (jump table)
0x280b681875ce   2ce  e83debffff           call 0x280b68186110  (jump table)
0x280b681875d3   2d3  53                   push rbx
0x280b681875d4   2d4  e897edffff           call 0x280b68186370  (jump table)
0x280b681875d9   2d9  5b                   pop rbx
0x280b681875da   2da  488b75f0             REX.W movq rsi,[rbp-0x10]
0x280b681875de   2de  e971feffff           jmp 0x280b68187454  <+0x154>
0x280b681875e3   2e3  e828ebffff           call 0x280b68186110  (jump table)
0x280b681875e8   2e8  e823ebffff           call 0x280b68186110  (jump table)
0x280b681875ed   2ed  e8aeebffff           call 0x280b681861a0  (jump table)
0x280b681875f2   2f2  e879ebffff           call 0x280b68186170  (jump table)
0x280b681875f7   2f7  e814ebffff           call 0x280b68186110  (jump table)
0x280b681875fc   2fc  e80febffff           call 0x280b68186110  (jump table)
0x280b68187601   301  e80aebffff           call 0x280b68186110  (jump table)
0x280b68187606   306  6690                 nop

Protected instructions:
 pc offset  land pad
        1f       2b0
        5e       2b5
        80       2ba
        9e       2bf
       120       2ce
       181       2e3
       1a0       2e8
       237       2f7
       27b       2fc
       284       301

Source positions:
 pc offset  position
        3d        21  statement
       10e        59  statement
       205       133  statement
       268       171  statement
       29f         0  statement
       2b0        11  statement
       2b5        27  statement
       2ba        39  statement
       2bf        56  statement
       2c4        59  statement
       2c9        59  statement
       2ce        68  statement
       2d4        87  statement
       2e3       113  statement
       2e8       130  statement
       2ed       133  statement
       2f2       133  statement
       2f7       159  statement
       2fc       178  statement
       301       184  statement

Safepoints (entries = 1, byte size = 11)
0x280b68187342     42  slots (sp->fp): 0000000000000000

RelocInfo (size = 0)

--- End code ---
--- WebAssembly code ---
name: __memcpy
index: 19
kind: wasm function
compiler: Liftoff
Body (size = 1408 = 1396 + 12 padding)
Instructions (size = 1384)
0x280b68187640     0  55                   push rbp
0x280b68187641     1  4889e5               REX.W movq rbp,rsp
0x280b68187644     4  6a08                 push 0x8
0x280b68187646     6  56                   push rsi
0x280b68187647     7  4881ec38000000       REX.W subq rsp,0x38
0x280b6818764e     e  488b5e27             REX.W movq rbx,[rsi+0x27]
0x280b68187652    12  483b23               REX.W cmpq rsp,[rbx]
0x280b68187655    15  0f860a040000         jna 0x280b68187a65  <+0x425>
0x280b6818765b    1b  81f900020000         cmpl rcx,0x200
0x280b68187661    21  0f822a000000         jc 0x280b68187691  <+0x51>
0x280b68187667    27  488b5e2f             REX.W movq rbx,[rsi+0x2f]
0x280b6818766b    2b  488b7b10             REX.W movq rdi,[rbx+0x10]
0x280b6818766f    2f  8b5e0b               movl rbx,[rsi+0xb]
0x280b68187672    32  4903de               REX.W addq rbx,r14
0x280b68187675    35  8b5b0f               movl rbx,[rbx+0xf]
0x280b68187678    38  4903de               REX.W addq rbx,r14
0x280b6818767b    3b  894dcc               movl [rbp-0x34],rcx
0x280b6818767e    3e  8955d0               movl [rbp-0x30],rdx
0x280b68187681    41  8945d4               movl [rbp-0x2c],rax
0x280b68187684    44  488bf3               REX.W movq rsi,rbx
0x280b68187687    47  ffd7                 call rdi
0x280b68187689    49  8b45d4               movl rax,[rbp-0x2c]
0x280b6818768c    4c  488be5               REX.W movq rsp,rbp
0x280b6818768f    4f  5d                   pop rbp
0x280b68187690    50  c3                   retl
0x280b68187691    51  8d1c08               leal rbx,[rax+rcx*1]
0x280b68187694    54  8bf8                 movl rdi,rax
0x280b68187696    56  33fa                 xorl rdi,rdx
0x280b68187698    58  83e703               andl rdi,0x3
0x280b6818769b    5b  85ff                 testl rdi,rdi
0x280b6818769d    5d  0f858c020000         jnz 0x280b6818792f  <+0x2ef>
0x280b681876a3    63  8bf8                 movl rdi,rax
0x280b681876a5    65  83e703               andl rdi,0x3
0x280b681876a8    68  85ff                 testl rdi,rdi
0x280b681876aa    6a  0f850c000000         jnz 0x280b681876bc  <+0x7c>
0x280b681876b0    70  8bc8                 movl rcx,rax
0x280b681876b2    72  33ff                 xorl rdi,rdi
0x280b681876b4    74  4533c9               xorl r9,r9
0x280b681876b7    77  e99b000000           jmp 0x280b68187757  <+0x117>
0x280b681876bc    7c  85c9                 testl rcx,rcx
0x280b681876be    7e  0f850c000000         jnz 0x280b681876d0  <+0x90>
0x280b681876c4    84  8bc8                 movl rcx,rax
0x280b681876c6    86  33ff                 xorl rdi,rdi
0x280b681876c8    88  4533c9               xorl r9,r9
0x280b681876cb    8b  e987000000           jmp 0x280b68187757  <+0x117>
0x280b681876d0    90  8945d4               movl [rbp-0x2c],rax
0x280b681876d3    93  8955d0               movl [rbp-0x30],rdx
0x280b681876d6    96  8945cc               movl [rbp-0x34],rax
0x280b681876d9    99  895dc8               movl [rbp-0x38],rbx
0x280b681876dc    9c  c745c400000000       movl [rbp-0x3c],0x0
0x280b681876e3    a3  c745c000000000       movl [rbp-0x40],0x0
0x280b681876ea    aa  488b4627             REX.W movq rax,[rsi+0x27]
0x280b681876ee    ae  483b20               REX.W cmpq rsp,[rax]
0x280b681876f1    b1  0f8682030000         jna 0x280b68187a79  <+0x439>
0x280b681876f7    b7  8b45cc               movl rax,[rbp-0x34]
0x280b681876fa    ba  8b4dd0               movl rcx,[rbp-0x30]
0x280b681876fd    bd  488b5617             REX.W movq rdx,[rsi+0x17]
0x280b68187701    c1  0fb61c0a             movzxbl rbx,[rdx+rcx*1]
0x280b68187705    c5  881c02               movb [rdx+rax*1],bl
0x280b68187708    c8  8b45d0               movl rax,[rbp-0x30]
0x280b6818770b    cb  83c001               addl rax,0x1
0x280b6818770e    ce  8b4dcc               movl rcx,[rbp-0x34]
0x280b68187711    d1  83c101               addl rcx,0x1
0x280b68187714    d4  8bd9                 movl rbx,rcx
0x280b68187716    d6  83e303               andl rbx,0x3
0x280b68187719    d9  85db                 testl rbx,rbx
0x280b6818771b    db  0f8514000000         jnz 0x280b68187735  <+0xf5>
0x280b68187721    e1  8bd0                 movl rdx,rax
0x280b68187723    e3  8b45d4               movl rax,[rbp-0x2c]
0x280b68187726    e6  8b5dc8               movl rbx,[rbp-0x38]
0x280b68187729    e9  8b7dc4               movl rdi,[rbp-0x3c]
0x280b6818772c    ec  448b4dc0             movl r9,[rbp-0x40]
0x280b68187730    f0  e922000000           jmp 0x280b68187757  <+0x117>
0x280b68187735    f5  8b5dc8               movl rbx,[rbp-0x38]
0x280b68187738    f8  3bcb                 cmpl rcx,rbx
0x280b6818773a    fa  0f8308000000         jnc 0x280b68187748  <+0x108>
0x280b68187740   100  8945d0               movl [rbp-0x30],rax
0x280b68187743   103  894dcc               movl [rbp-0x34],rcx
0x280b68187746   106  eba2                 jmp 0x280b681876ea  <+0xaa>
0x280b68187748   108  8bd0                 movl rdx,rax
0x280b6818774a   10a  8b45d4               movl rax,[rbp-0x2c]
0x280b6818774d   10d  8b5dc8               movl rbx,[rbp-0x38]
0x280b68187750   110  8b7dc4               movl rdi,[rbp-0x3c]
0x280b68187753   113  448b4dc0             movl r9,[rbp-0x40]
0x280b68187757   117  8bf3                 movl rsi,rbx
0x280b68187759   119  83e6fc               andl rsi,0xfc
0x280b6818775c   11c  83fe40               cmpl rsi,0x40
0x280b6818775f   11f  0f8305000000         jnc 0x280b6818776a  <+0x12a>
0x280b68187765   125  e951010000           jmp 0x280b681878bb  <+0x27b>
0x280b6818776a   12a  8d7ec0               leal rdi,[rsi-0x40]
0x280b6818776d   12d  3bcf                 cmpl rcx,rdi
0x280b6818776f   12f  0f8608000000         jna 0x280b6818777d  <+0x13d>
0x280b68187775   135  448bcf               movl r9,rdi
0x280b68187778   138  e93e010000           jmp 0x280b681878bb  <+0x27b>
0x280b6818777d   13d  8945d4               movl [rbp-0x2c],rax
0x280b68187780   140  8955d0               movl [rbp-0x30],rdx
0x280b68187783   143  894dcc               movl [rbp-0x34],rcx
0x280b68187786   146  895dc8               movl [rbp-0x38],rbx
0x280b68187789   149  8975c4               movl [rbp-0x3c],rsi
0x280b6818778c   14c  897dc0               movl [rbp-0x40],rdi
0x280b6818778f   14f  488b75f0             REX.W movq rsi,[rbp-0x10]
0x280b68187793   153  488b4627             REX.W movq rax,[rsi+0x27]
0x280b68187797   157  483b20               REX.W cmpq rsp,[rax]
0x280b6818779a   15a  0f86f1020000         jna 0x280b68187a91  <+0x451>
0x280b681877a0   160  8b45cc               movl rax,[rbp-0x34]
0x280b681877a3   163  8b4dd0               movl rcx,[rbp-0x30]
0x280b681877a6   166  488b5617             REX.W movq rdx,[rsi+0x17]
0x280b681877aa   16a  8b1c0a               movl rbx,[rdx+rcx*1]
0x280b681877ad   16d  891c02               movl [rdx+rax*1],rbx
0x280b681877b0   170  8b45cc               movl rax,[rbp-0x34]
0x280b681877b3   173  8b4dd0               movl rcx,[rbp-0x30]
0x280b681877b6   176  8b5c0a04             movl rbx,[rdx+rcx*1+0x4]
0x280b681877ba   17a  895c0204             movl [rdx+rax*1+0x4],rbx
0x280b681877be   17e  8b45cc               movl rax,[rbp-0x34]
0x280b681877c1   181  8b4dd0               movl rcx,[rbp-0x30]
0x280b681877c4   184  8b5c0a08             movl rbx,[rdx+rcx*1+0x8]
0x280b681877c8   188  895c0208             movl [rdx+rax*1+0x8],rbx
0x280b681877cc   18c  8b45cc               movl rax,[rbp-0x34]
0x280b681877cf   18f  8b4dd0               movl rcx,[rbp-0x30]
0x280b681877d2   192  8b5c0a0c             movl rbx,[rdx+rcx*1+0xc]
0x280b681877d6   196  895c020c             movl [rdx+rax*1+0xc],rbx
0x280b681877da   19a  8b45cc               movl rax,[rbp-0x34]
0x280b681877dd   19d  8b4dd0               movl rcx,[rbp-0x30]
0x280b681877e0   1a0  8b5c0a10             movl rbx,[rdx+rcx*1+0x10]
0x280b681877e4   1a4  895c0210             movl [rdx+rax*1+0x10],rbx
0x280b681877e8   1a8  8b45cc               movl rax,[rbp-0x34]
0x280b681877eb   1ab  8b4dd0               movl rcx,[rbp-0x30]
0x280b681877ee   1ae  8b5c0a14             movl rbx,[rdx+rcx*1+0x14]
0x280b681877f2   1b2  895c0214             movl [rdx+rax*1+0x14],rbx
0x280b681877f6   1b6  8b45cc               movl rax,[rbp-0x34]
0x280b681877f9   1b9  8b4dd0               movl rcx,[rbp-0x30]
0x280b681877fc   1bc  8b5c0a18             movl rbx,[rdx+rcx*1+0x18]
0x280b68187800   1c0  895c0218             movl [rdx+rax*1+0x18],rbx
0x280b68187804   1c4  8b45cc               movl rax,[rbp-0x34]
0x280b68187807   1c7  8b4dd0               movl rcx,[rbp-0x30]
0x280b6818780a   1ca  8b5c0a1c             movl rbx,[rdx+rcx*1+0x1c]
0x280b6818780e   1ce  895c021c             movl [rdx+rax*1+0x1c],rbx
0x280b68187812   1d2  8b45cc               movl rax,[rbp-0x34]
0x280b68187815   1d5  8b4dd0               movl rcx,[rbp-0x30]
0x280b68187818   1d8  8b5c0a20             movl rbx,[rdx+rcx*1+0x20]
0x280b6818781c   1dc  895c0220             movl [rdx+rax*1+0x20],rbx
0x280b68187820   1e0  8b45cc               movl rax,[rbp-0x34]
0x280b68187823   1e3  8b4dd0               movl rcx,[rbp-0x30]
0x280b68187826   1e6  8b5c0a24             movl rbx,[rdx+rcx*1+0x24]
0x280b6818782a   1ea  895c0224             movl [rdx+rax*1+0x24],rbx
0x280b6818782e   1ee  8b45cc               movl rax,[rbp-0x34]
0x280b68187831   1f1  8b4dd0               movl rcx,[rbp-0x30]
0x280b68187834   1f4  8b5c0a28             movl rbx,[rdx+rcx*1+0x28]
0x280b68187838   1f8  895c0228             movl [rdx+rax*1+0x28],rbx
0x280b6818783c   1fc  8b45cc               movl rax,[rbp-0x34]
0x280b6818783f   1ff  8b4dd0               movl rcx,[rbp-0x30]
0x280b68187842   202  8b5c0a2c             movl rbx,[rdx+rcx*1+0x2c]
0x280b68187846   206  895c022c             movl [rdx+rax*1+0x2c],rbx
0x280b6818784a   20a  8b45cc               movl rax,[rbp-0x34]
0x280b6818784d   20d  8b4dd0               movl rcx,[rbp-0x30]
0x280b68187850   210  8b5c0a30             movl rbx,[rdx+rcx*1+0x30]
0x280b68187854   214  895c0230             movl [rdx+rax*1+0x30],rbx
0x280b68187858   218  8b45cc               movl rax,[rbp-0x34]
0x280b6818785b   21b  8b4dd0               movl rcx,[rbp-0x30]
0x280b6818785e   21e  8b5c0a34             movl rbx,[rdx+rcx*1+0x34]
0x280b68187862   222  895c0234             movl [rdx+rax*1+0x34],rbx
0x280b68187866   226  8b45cc               movl rax,[rbp-0x34]
0x280b68187869   229  8b4dd0               movl rcx,[rbp-0x30]
0x280b6818786c   22c  8b5c0a38             movl rbx,[rdx+rcx*1+0x38]
0x280b68187870   230  895c0238             movl [rdx+rax*1+0x38],rbx
0x280b68187874   234  8b45cc               movl rax,[rbp-0x34]
0x280b68187877   237  8b4dd0               movl rcx,[rbp-0x30]
0x280b6818787a   23a  8b5c0a3c             movl rbx,[rdx+rcx*1+0x3c]
0x280b6818787e   23e  895c023c             movl [rdx+rax*1+0x3c],rbx
0x280b68187882   242  8b45d0               movl rax,[rbp-0x30]
0x280b68187885   245  b9c0ffffff           movl rcx,0xffffffc0
0x280b6818788a   24a  2bc1                 subl rax,rcx
0x280b6818788c   24c  8b4dcc               movl rcx,[rbp-0x34]
0x280b6818788f   24f  bbc0ffffff           movl rbx,0xffffffc0
0x280b68187894   254  2bcb                 subl rcx,rbx
0x280b68187896   256  8b5dc0               movl rbx,[rbp-0x40]
0x280b68187899   259  3bcb                 cmpl rcx,rbx
0x280b6818789b   25b  0f870b000000         ja 0x280b681878ac  <+0x26c>
0x280b681878a1   261  8945d0               movl [rbp-0x30],rax
0x280b681878a4   264  894dcc               movl [rbp-0x34],rcx
0x280b681878a7   267  e9e3feffff           jmp 0x280b6818778f  <+0x14f>
0x280b681878ac   26c  8bd0                 movl rdx,rax
0x280b681878ae   26e  8b45d4               movl rax,[rbp-0x2c]
0x280b681878b1   271  8b5dc8               movl rbx,[rbp-0x38]
0x280b681878b4   274  8b75c4               movl rsi,[rbp-0x3c]
0x280b681878b7   277  448b4dc0             movl r9,[rbp-0x40]
0x280b681878bb   27b  3bce                 cmpl rcx,rsi
0x280b681878bd   27d  0f8205000000         jc 0x280b681878c8  <+0x288>
0x280b681878c3   283  e928010000           jmp 0x280b681879f0  <+0x3b0>
0x280b681878c8   288  8945d4               movl [rbp-0x2c],rax
0x280b681878cb   28b  8955d0               movl [rbp-0x30],rdx
0x280b681878ce   28e  894dcc               movl [rbp-0x34],rcx
0x280b681878d1   291  895dc8               movl [rbp-0x38],rbx
0x280b681878d4   294  8975c4               movl [rbp-0x3c],rsi
0x280b681878d7   297  44894dc0             movl [rbp-0x40],r9
0x280b681878db   29b  488b75f0             REX.W movq rsi,[rbp-0x10]
0x280b681878df   29f  488b4627             REX.W movq rax,[rsi+0x27]
0x280b681878e3   2a3  483b20               REX.W cmpq rsp,[rax]
0x280b681878e6   2a6  0f8653020000         jna 0x280b68187b3f  <+0x4ff>
0x280b681878ec   2ac  8b45cc               movl rax,[rbp-0x34]
0x280b681878ef   2af  8b4dd0               movl rcx,[rbp-0x30]
0x280b681878f2   2b2  488b5617             REX.W movq rdx,[rsi+0x17]
0x280b681878f6   2b6  8b1c0a               movl rbx,[rdx+rcx*1]
0x280b681878f9   2b9  891c02               movl [rdx+rax*1],rbx
0x280b681878fc   2bc  8b45d0               movl rax,[rbp-0x30]
0x280b681878ff   2bf  83c004               addl rax,0x4
0x280b68187902   2c2  8b4dcc               movl rcx,[rbp-0x34]
0x280b68187905   2c5  83c104               addl rcx,0x4
0x280b68187908   2c8  8b5dc4               movl rbx,[rbp-0x3c]
0x280b6818790b   2cb  3bcb                 cmpl rcx,rbx
0x280b6818790d   2cd  0f8308000000         jnc 0x280b6818791b  <+0x2db>
0x280b68187913   2d3  8945d0               movl [rbp-0x30],rax
0x280b68187916   2d6  894dcc               movl [rbp-0x34],rcx
0x280b68187919   2d9  ebc0                 jmp 0x280b681878db  <+0x29b>
0x280b6818791b   2db  8bd0                 movl rdx,rax
0x280b6818791d   2dd  8b45d4               movl rax,[rbp-0x2c]
0x280b68187920   2e0  8b5dc8               movl rbx,[rbp-0x38]
0x280b68187923   2e3  8b75c4               movl rsi,[rbp-0x3c]
0x280b68187926   2e6  448b4dc0             movl r9,[rbp-0x40]
0x280b6818792a   2ea  e9c1000000           jmp 0x280b681879f0  <+0x3b0>
0x280b6818792f   2ef  83fb04               cmpl rbx,0x4
0x280b68187932   2f2  0f830c000000         jnc 0x280b68187944  <+0x304>
0x280b68187938   2f8  8bc8                 movl rcx,rax
0x280b6818793a   2fa  33f6                 xorl rsi,rsi
0x280b6818793c   2fc  4533c9               xorl r9,r9
0x280b6818793f   2ff  e9ac000000           jmp 0x280b681879f0  <+0x3b0>
0x280b68187944   304  bf04000000           movl rdi,0x4
0x280b68187949   309  f7df                 negl rdi
0x280b6818794b   30b  03fb                 addl rdi,rbx
0x280b6818794d   30d  3bc7                 cmpl rax,rdi
0x280b6818794f   30f  0f860c000000         jna 0x280b68187961  <+0x321>
0x280b68187955   315  8bc8                 movl rcx,rax
0x280b68187957   317  8bf7                 movl rsi,rdi
0x280b68187959   319  4533c9               xorl r9,r9
0x280b6818795c   31c  e98f000000           jmp 0x280b681879f0  <+0x3b0>
0x280b68187961   321  8945d4               movl [rbp-0x2c],rax
0x280b68187964   324  8955d0               movl [rbp-0x30],rdx
0x280b68187967   327  8945cc               movl [rbp-0x34],rax
0x280b6818796a   32a  895dc8               movl [rbp-0x38],rbx
0x280b6818796d   32d  897dc4               movl [rbp-0x3c],rdi
0x280b68187970   330  c745c000000000       movl [rbp-0x40],0x0
0x280b68187977   337  488b4627             REX.W movq rax,[rsi+0x27]
0x280b6818797b   33b  483b20               REX.W cmpq rsp,[rax]
0x280b6818797e   33e  0f86d3010000         jna 0x280b68187b57  <+0x517>
0x280b68187984   344  8b45cc               movl rax,[rbp-0x34]
0x280b68187987   347  8b4dd0               movl rcx,[rbp-0x30]
0x280b6818798a   34a  488b5617             REX.W movq rdx,[rsi+0x17]
0x280b6818798e   34e  0fb61c0a             movzxbl rbx,[rdx+rcx*1]
0x280b68187992   352  881c02               movb [rdx+rax*1],bl
0x280b68187995   355  8b45cc               movl rax,[rbp-0x34]
0x280b68187998   358  8b4dd0               movl rcx,[rbp-0x30]
0x280b6818799b   35b  0fb65c0a01           movzxbl rbx,[rdx+rcx*1+0x1]
0x280b681879a0   360  885c0201             movb [rdx+rax*1+0x1],bl
0x280b681879a4   364  8b45cc               movl rax,[rbp-0x34]
0x280b681879a7   367  8b4dd0               movl rcx,[rbp-0x30]
0x280b681879aa   36a  0fb65c0a02           movzxbl rbx,[rdx+rcx*1+0x2]
0x280b681879af   36f  885c0202             movb [rdx+rax*1+0x2],bl
0x280b681879b3   373  8b45cc               movl rax,[rbp-0x34]
0x280b681879b6   376  8b4dd0               movl rcx,[rbp-0x30]
0x280b681879b9   379  0fb65c0a03           movzxbl rbx,[rdx+rcx*1+0x3]
0x280b681879be   37e  885c0203             movb [rdx+rax*1+0x3],bl
0x280b681879c2   382  8b45d0               movl rax,[rbp-0x30]
0x280b681879c5   385  83c004               addl rax,0x4
0x280b681879c8   388  8b4dcc               movl rcx,[rbp-0x34]
0x280b681879cb   38b  83c104               addl rcx,0x4
0x280b681879ce   38e  8b5dc4               movl rbx,[rbp-0x3c]
0x280b681879d1   391  3bcb                 cmpl rcx,rbx
0x280b681879d3   393  0f8708000000         ja 0x280b681879e1  <+0x3a1>
0x280b681879d9   399  8945d0               movl [rbp-0x30],rax
0x280b681879dc   39c  894dcc               movl [rbp-0x34],rcx
0x280b681879df   39f  eb96                 jmp 0x280b68187977  <+0x337>
0x280b681879e1   3a1  8bd0                 movl rdx,rax
0x280b681879e3   3a3  8b45d4               movl rax,[rbp-0x2c]
0x280b681879e6   3a6  8b5dc8               movl rbx,[rbp-0x38]
0x280b681879e9   3a9  8b75c4               movl rsi,[rbp-0x3c]
0x280b681879ec   3ac  448b4dc0             movl r9,[rbp-0x40]
0x280b681879f0   3b0  3bcb                 cmpl rcx,rbx
0x280b681879f2   3b2  0f8368000000         jnc 0x280b68187a60  <+0x420>
0x280b681879f8   3b8  8945d4               movl [rbp-0x2c],rax
0x280b681879fb   3bb  8955d0               movl [rbp-0x30],rdx
0x280b681879fe   3be  894dcc               movl [rbp-0x34],rcx
0x280b68187a01   3c1  895dc8               movl [rbp-0x38],rbx
0x280b68187a04   3c4  8975c4               movl [rbp-0x3c],rsi
0x280b68187a07   3c7  44894dc0             movl [rbp-0x40],r9
0x280b68187a0b   3cb  488b75f0             REX.W movq rsi,[rbp-0x10]
0x280b68187a0f   3cf  488b4627             REX.W movq rax,[rsi+0x27]
0x280b68187a13   3d3  483b20               REX.W cmpq rsp,[rax]
0x280b68187a16   3d6  0f8671010000         jna 0x280b68187b8d  <+0x54d>
0x280b68187a1c   3dc  8b45cc               movl rax,[rbp-0x34]
0x280b68187a1f   3df  8b4dd0               movl rcx,[rbp-0x30]
0x280b68187a22   3e2  488b5617             REX.W movq rdx,[rsi+0x17]
0x280b68187a26   3e6  0fb61c0a             movzxbl rbx,[rdx+rcx*1]
0x280b68187a2a   3ea  881c02               movb [rdx+rax*1],bl
0x280b68187a2d   3ed  8b45d0               movl rax,[rbp-0x30]
0x280b68187a30   3f0  83c001               addl rax,0x1
0x280b68187a33   3f3  8b4dcc               movl rcx,[rbp-0x34]
0x280b68187a36   3f6  83c101               addl rcx,0x1
0x280b68187a39   3f9  8b5dc8               movl rbx,[rbp-0x38]
0x280b68187a3c   3fc  3bcb                 cmpl rcx,rbx
0x280b68187a3e   3fe  0f8408000000         jz 0x280b68187a4c  <+0x40c>
0x280b68187a44   404  8945d0               movl [rbp-0x30],rax
0x280b68187a47   407  894dcc               movl [rbp-0x34],rcx
0x280b68187a4a   40a  ebbf                 jmp 0x280b68187a0b  <+0x3cb>
0x280b68187a4c   40c  8bd0                 movl rdx,rax
0x280b68187a4e   40e  8b45d4               movl rax,[rbp-0x2c]
0x280b68187a51   411  8b5dc8               movl rbx,[rbp-0x38]
0x280b68187a54   414  8b75c4               movl rsi,[rbp-0x3c]
0x280b68187a57   417  448b4dc0             movl r9,[rbp-0x40]
0x280b68187a5b   41b  e900000000           jmp 0x280b68187a60  <+0x420>
0x280b68187a60   420  488be5               REX.W movq rsp,rbp
0x280b68187a63   423  5d                   pop rbp
0x280b68187a64   424  c3                   retl
0x280b68187a65   425  50                   push rax
0x280b68187a66   426  51                   push rcx
0x280b68187a67   427  52                   push rdx
0x280b68187a68   428  e803e9ffff           call 0x280b68186370  (jump table)
0x280b68187a6d   42d  5a                   pop rdx
0x280b68187a6e   42e  59                   pop rcx
0x280b68187a6f   42f  58                   pop rax
0x280b68187a70   430  488b75f0             REX.W movq rsi,[rbp-0x10]
0x280b68187a74   434  e9e2fbffff           jmp 0x280b6818765b  <+0x1b>
0x280b68187a79   439  e8f2e8ffff           call 0x280b68186370  (jump table)
0x280b68187a7e   43e  488b75f0             REX.W movq rsi,[rbp-0x10]
0x280b68187a82   442  e970fcffff           jmp 0x280b681876f7  <+0xb7>
0x280b68187a87   447  e884e6ffff           call 0x280b68186110  (jump table)
0x280b68187a8c   44c  e87fe6ffff           call 0x280b68186110  (jump table)
0x280b68187a91   451  e8dae8ffff           call 0x280b68186370  (jump table)
0x280b68187a96   456  488b75f0             REX.W movq rsi,[rbp-0x10]
0x280b68187a9a   45a  e901fdffff           jmp 0x280b681877a0  <+0x160>
0x280b68187a9f   45f  e86ce6ffff           call 0x280b68186110  (jump table)
0x280b68187aa4   464  e867e6ffff           call 0x280b68186110  (jump table)
0x280b68187aa9   469  e862e6ffff           call 0x280b68186110  (jump table)
0x280b68187aae   46e  e85de6ffff           call 0x280b68186110  (jump table)
0x280b68187ab3   473  e858e6ffff           call 0x280b68186110  (jump table)
0x280b68187ab8   478  e853e6ffff           call 0x280b68186110  (jump table)
0x280b68187abd   47d  e84ee6ffff           call 0x280b68186110  (jump table)
0x280b68187ac2   482  e849e6ffff           call 0x280b68186110  (jump table)
0x280b68187ac7   487  e844e6ffff           call 0x280b68186110  (jump table)
0x280b68187acc   48c  e83fe6ffff           call 0x280b68186110  (jump table)
0x280b68187ad1   491  e83ae6ffff           call 0x280b68186110  (jump table)
0x280b68187ad6   496  e835e6ffff           call 0x280b68186110  (jump table)
0x280b68187adb   49b  e830e6ffff           call 0x280b68186110  (jump table)
0x280b68187ae0   4a0  e82be6ffff           call 0x280b68186110  (jump table)
0x280b68187ae5   4a5  e826e6ffff           call 0x280b68186110  (jump table)
0x280b68187aea   4aa  e821e6ffff           call 0x280b68186110  (jump table)
0x280b68187aef   4af  e81ce6ffff           call 0x280b68186110  (jump table)
0x280b68187af4   4b4  e817e6ffff           call 0x280b68186110  (jump table)
0x280b68187af9   4b9  e812e6ffff           call 0x280b68186110  (jump table)
0x280b68187afe   4be  e80de6ffff           call 0x280b68186110  (jump table)
0x280b68187b03   4c3  e808e6ffff           call 0x280b68186110  (jump table)
0x280b68187b08   4c8  e803e6ffff           call 0x280b68186110  (jump table)
0x280b68187b0d   4cd  e8fee5ffff           call 0x280b68186110  (jump table)
0x280b68187b12   4d2  e8f9e5ffff           call 0x280b68186110  (jump table)
0x280b68187b17   4d7  e8f4e5ffff           call 0x280b68186110  (jump table)
0x280b68187b1c   4dc  e8efe5ffff           call 0x280b68186110  (jump table)
0x280b68187b21   4e1  e8eae5ffff           call 0x280b68186110  (jump table)
0x280b68187b26   4e6  e8e5e5ffff           call 0x280b68186110  (jump table)
0x280b68187b2b   4eb  e8e0e5ffff           call 0x280b68186110  (jump table)
0x280b68187b30   4f0  e8dbe5ffff           call 0x280b68186110  (jump table)
0x280b68187b35   4f5  e8d6e5ffff           call 0x280b68186110  (jump table)
0x280b68187b3a   4fa  e8d1e5ffff           call 0x280b68186110  (jump table)
0x280b68187b3f   4ff  e82ce8ffff           call 0x280b68186370  (jump table)
0x280b68187b44   504  488b75f0             REX.W movq rsi,[rbp-0x10]
0x280b68187b48   508  e99ffdffff           jmp 0x280b681878ec  <+0x2ac>
0x280b68187b4d   50d  e8bee5ffff           call 0x280b68186110  (jump table)
0x280b68187b52   512  e8b9e5ffff           call 0x280b68186110  (jump table)
0x280b68187b57   517  e814e8ffff           call 0x280b68186370  (jump table)
0x280b68187b5c   51c  488b75f0             REX.W movq rsi,[rbp-0x10]
0x280b68187b60   520  e91ffeffff           jmp 0x280b68187984  <+0x344>
0x280b68187b65   525  e8a6e5ffff           call 0x280b68186110  (jump table)
0x280b68187b6a   52a  e8a1e5ffff           call 0x280b68186110  (jump table)
0x280b68187b6f   52f  e89ce5ffff           call 0x280b68186110  (jump table)
0x280b68187b74   534  e897e5ffff           call 0x280b68186110  (jump table)
0x280b68187b79   539  e892e5ffff           call 0x280b68186110  (jump table)
0x280b68187b7e   53e  e88de5ffff           call 0x280b68186110  (jump table)
0x280b68187b83   543  e888e5ffff           call 0x280b68186110  (jump table)
0x280b68187b88   548  e883e5ffff           call 0x280b68186110  (jump table)
0x280b68187b8d   54d  e8dee7ffff           call 0x280b68186370  (jump table)
0x280b68187b92   552  488b75f0             REX.W movq rsi,[rbp-0x10]
0x280b68187b96   556  e981feffff           jmp 0x280b68187a1c  <+0x3dc>
0x280b68187b9b   55b  e870e5ffff           call 0x280b68186110  (jump table)
0x280b68187ba0   560  e86be5ffff           call 0x280b68186110  (jump table)
0x280b68187ba5   565  0f1f00               nop

Protected instructions:
 pc offset  land pad
        c1       447
        c5       44c
       16a       45f
       16d       464
       176       469
       17a       46e
       184       473
       188       478
       192       47d
       196       482
       1a0       487
       1a4       48c
       1ae       491
       1b2       496
       1bc       49b
       1c0       4a0
       1ca       4a5
       1ce       4aa
       1d8       4af
       1dc       4b4
       1e6       4b9
       1ea       4be
       1f4       4c3
       1f8       4c8
       202       4cd
       206       4d2
       210       4d7
       214       4dc
       21e       4e1
       222       4e6
       22c       4eb
       230       4f0
       23a       4f5
       23e       4fa
       2b6       50d
       2b9       512
       34e       525
       352       52a
       35b       52f
       360       534
       36a       539
       36f       53e
       379       543
       37e       548
       3e6       55b
       3ea       560

Source positions:
 pc offset  position
        47        21  statement
       428         0  statement
       439        81  statement
       447        87  statement
       44c        90  statement
       451       149  statement
       45f       155  statement
       464       158  statement
       469       165  statement
       46e       168  statement
       473       175  statement
       478       178  statement
       47d       185  statement
       482       188  statement
       487       195  statement
       48c       198  statement
       491       205  statement
       496       208  statement
       49b       215  statement
       4a0       218  statement
       4a5       225  statement
       4aa       228  statement
       4af       235  statement
       4b4       238  statement
       4b9       245  statement
       4be       248  statement
       4c3       255  statement
       4c8       258  statement
       4cd       265  statement
       4d2       268  statement
       4d7       275  statement
       4dc       278  statement
       4e1       285  statement
       4e6       288  statement
       4eb       295  statement
       4f0       298  statement
       4f5       305  statement
       4fa       308  statement
       4ff       339  statement
       50d       345  statement
       512       348  statement
       517       411  statement
       525       417  statement
       52a       420  statement
       52f       427  statement
       534       430  statement
       539       437  statement
       53e       440  statement
       543       447  statement
       548       450  statement
       54d       481  statement
       55b       487  statement
       560       490  statement

Safepoints (entries = 1, byte size = 11)
0x280b68187689     49  slots (sp->fp): 0000000000000000

RelocInfo (size = 0)

--- End code ---
--- WebAssembly code ---
name: __errno_location
index: 18
kind: wasm function
compiler: Liftoff
Body (size = 64 = 60 + 4 padding)
Instructions (size = 48)
0x280b68187bc0     0  55                   push rbp
0x280b68187bc1     1  4889e5               REX.W movq rbp,rsp
0x280b68187bc4     4  6a08                 push 0x8
0x280b68187bc6     6  56                   push rsi
0x280b68187bc7     7  4881ec18000000       REX.W subq rsp,0x18
0x280b68187bce     e  488b4627             REX.W movq rax,[rsi+0x27]
0x280b68187bd2    12  483b20               REX.W cmpq rsp,[rax]
0x280b68187bd5    15  0f860a000000         jna 0x280b68187be5  <+0x25>
0x280b68187bdb    1b  b8980a0000           movl rax,0xa98
0x280b68187be0    20  488be5               REX.W movq rsp,rbp
0x280b68187be3    23  5d                   pop rbp
0x280b68187be4    24  c3                   retl
0x280b68187be5    25  e886e7ffff           call 0x280b68186370  (jump table)
0x280b68187bea    2a  488b75f0             REX.W movq rsi,[rbp-0x10]
0x280b68187bee    2e  ebeb                 jmp 0x280b68187bdb  <+0x1b>

Source positions:
 pc offset  position
        25         0  statement

Safepoints (entries = 1, byte size = 10)
0x280b68187bea     2a  slots (sp->fp): 00000000

RelocInfo (size = 0)

--- End code ---
--- WebAssembly code ---
name: strnlen
index: 17
kind: wasm function
compiler: Liftoff
Body (size = 128 = 96 + 32 padding)
Instructions (size = 84)
0x280b68187c00     0  55                   push rbp
0x280b68187c01     1  4889e5               REX.W movq rbp,rsp
0x280b68187c04     4  6a08                 push 0x8
0x280b68187c06     6  56                   push rsi
0x280b68187c07     7  4881ec28000000       REX.W subq rsp,0x28
0x280b68187c0e     e  488b4e27             REX.W movq rcx,[rsi+0x27]
0x280b68187c12    12  483b21               REX.W cmpq rsp,[rcx]
0x280b68187c15    15  0f8629000000         jna 0x280b68187c44  <+0x44>
0x280b68187c1b    1b  8955d0               movl [rbp-0x30],rdx
0x280b68187c1e    1e  8945d4               movl [rbp-0x2c],rax
0x280b68187c21    21  8bca                 movl rcx,rdx
0x280b68187c23    23  33d2                 xorl rdx,rdx
0x280b68187c25    25  488b75f0             REX.W movq rsi,[rbp-0x10]
0x280b68187c29    29  e812e4ffff           call 0x280b68186040  (jump table)
0x280b68187c2e    2e  8b4dd4               movl rcx,[rbp-0x2c]
0x280b68187c31    31  f7d9                 negl rcx
0x280b68187c33    33  03c8                 addl rcx,rax
0x280b68187c35    35  8b55d0               movl rdx,[rbp-0x30]
0x280b68187c38    38  85c0                 testl rax,rax
0x280b68187c3a    3a  0f44ca               cmovzl rcx,rdx
0x280b68187c3d    3d  8bc1                 movl rax,rcx
0x280b68187c3f    3f  488be5               REX.W movq rsp,rbp
0x280b68187c42    42  5d                   pop rbp
0x280b68187c43    43  c3                   retl
0x280b68187c44    44  50                   push rax
0x280b68187c45    45  52                   push rdx
0x280b68187c46    46  e825e7ffff           call 0x280b68186370  (jump table)
0x280b68187c4b    4b  5a                   pop rdx
0x280b68187c4c    4c  58                   pop rax
0x280b68187c4d    4d  488b75f0             REX.W movq rsi,[rbp-0x10]
0x280b68187c51    51  ebc8                 jmp 0x280b68187c1b  <+0x1b>
0x280b68187c53    53  90                   nop

Source positions:
 pc offset  position
        29         9  statement
        46         0  statement

Safepoints (entries = 1, byte size = 11)
0x280b68187c2e     2e  slots (sp->fp): 0000000000000000

RelocInfo (size = 0)

--- End code ---
--- WebAssembly code ---
name: memchr
index: 16
kind: wasm function
compiler: Liftoff
Body (size = 704 = 660 + 44 padding)
Instructions (size = 648)
0x280b68187c80     0  55                   push rbp
0x280b68187c81     1  4889e5               REX.W movq rbp,rsp
0x280b68187c84     4  6a08                 push 0x8
0x280b68187c86     6  56                   push rsi
0x280b68187c87     7  4881ec30000000       REX.W subq rsp,0x30
0x280b68187c8e     e  488b5e27             REX.W movq rbx,[rsi+0x27]
0x280b68187c92    12  483b23               REX.W cmpq rsp,[rbx]
0x280b68187c95    15  0f8614020000         jna 0x280b68187eaf  <+0x22f>
0x280b68187c9b    1b  33db                 xorl rbx,rbx
0x280b68187c9d    1d  3bcb                 cmpl rcx,rbx
0x280b68187c9f    1f  0f95c3               setnzl bl
0x280b68187ca2    22  0fb6db               movzxbl rbx,rbx
0x280b68187ca5    25  8bf8                 movl rdi,rax
0x280b68187ca7    27  83e703               andl rdi,0x3
0x280b68187caa    2a  4533c9               xorl r9,r9
0x280b68187cad    2d  85ff                 testl rdi,rdi
0x280b68187caf    2f  0f8505000000         jnz 0x280b68187cba  <+0x3a>
0x280b68187cb5    35  e9a5000000           jmp 0x280b68187d5f  <+0xdf>
0x280b68187cba    3a  85c9                 testl rcx,rcx
0x280b68187cbc    3c  0f8505000000         jnz 0x280b68187cc7  <+0x47>
0x280b68187cc2    42  e998000000           jmp 0x280b68187d5f  <+0xdf>
0x280b68187cc7    47  8bfa                 movl rdi,rdx
0x280b68187cc9    49  81e7ff000000         andl rdi,0xff
0x280b68187ccf    4f  8945d4               movl [rbp-0x2c],rax
0x280b68187cd2    52  8955d0               movl [rbp-0x30],rdx
0x280b68187cd5    55  894dcc               movl [rbp-0x34],rcx
0x280b68187cd8    58  895dc8               movl [rbp-0x38],rbx
0x280b68187cdb    5b  897dc4               movl [rbp-0x3c],rdi
0x280b68187cde    5e  488b4627             REX.W movq rax,[rsi+0x27]
0x280b68187ce2    62  483b20               REX.W cmpq rsp,[rax]
0x280b68187ce5    65  0f86d8010000         jna 0x280b68187ec3  <+0x243>
0x280b68187ceb    6b  8b45d4               movl rax,[rbp-0x2c]
0x280b68187cee    6e  488b4e17             REX.W movq rcx,[rsi+0x17]
0x280b68187cf2    72  0fb61401             movzxbl rdx,[rcx+rax*1]
0x280b68187cf6    76  8b45c4               movl rax,[rbp-0x3c]
0x280b68187cf9    79  3bd0                 cmpl rdx,rax
0x280b68187cfb    7b  0f8505000000         jnz 0x280b68187d06  <+0x86>
0x280b68187d01    81  e976000000           jmp 0x280b68187d7c  <+0xfc>
0x280b68187d06    86  8b45cc               movl rax,[rbp-0x34]
0x280b68187d09    89  ba01000000           movl rdx,0x1
0x280b68187d0e    8e  2bc2                 subl rax,rdx
0x280b68187d10    90  33d2                 xorl rdx,rdx
0x280b68187d12    92  3bc2                 cmpl rax,rdx
0x280b68187d14    94  0f95c2               setnzl dl
0x280b68187d17    97  0fb6d2               movzxbl rdx,rdx
0x280b68187d1a    9a  8b5dd4               movl rbx,[rbp-0x2c]
0x280b68187d1d    9d  83c301               addl rbx,0x1
0x280b68187d20    a0  8bfb                 movl rdi,rbx
0x280b68187d22    a2  83e703               andl rdi,0x3
0x280b68187d25    a5  85ff                 testl rdi,rdi
0x280b68187d27    a7  0f8512000000         jnz 0x280b68187d3f  <+0xbf>
0x280b68187d2d    ad  8bc8                 movl rcx,rax
0x280b68187d2f    af  8bc3                 movl rax,rbx
0x280b68187d31    b1  8bda                 movl rbx,rdx
0x280b68187d33    b3  8b55d0               movl rdx,[rbp-0x30]
0x280b68187d36    b6  448b4dc4             movl r9,[rbp-0x3c]
0x280b68187d3a    ba  e920000000           jmp 0x280b68187d5f  <+0xdf>
0x280b68187d3f    bf  85c0                 testl rax,rax
0x280b68187d41    c1  0f840b000000         jz 0x280b68187d52  <+0xd2>
0x280b68187d47    c7  895dd4               movl [rbp-0x2c],rbx
0x280b68187d4a    ca  8945cc               movl [rbp-0x34],rax
0x280b68187d4d    cd  8955c8               movl [rbp-0x38],rdx
0x280b68187d50    d0  eb8c                 jmp 0x280b68187cde  <+0x5e>
0x280b68187d52    d2  8bc8                 movl rcx,rax
0x280b68187d54    d4  8bc3                 movl rax,rbx
0x280b68187d56    d6  8bda                 movl rbx,rdx
0x280b68187d58    d8  8b55d0               movl rdx,[rbp-0x30]
0x280b68187d5b    db  448b4dc4             movl r9,[rbp-0x3c]
0x280b68187d5f    df  85db                 testl rbx,rbx
0x280b68187d61    e1  0f8505000000         jnz 0x280b68187d6c  <+0xec>
0x280b68187d67    e7  e93c010000           jmp 0x280b68187ea8  <+0x228>
0x280b68187d6c    ec  8945d4               movl [rbp-0x2c],rax
0x280b68187d6f    ef  8955d0               movl [rbp-0x30],rdx
0x280b68187d72    f2  894dcc               movl [rbp-0x34],rcx
0x280b68187d75    f5  895dc8               movl [rbp-0x38],rbx
0x280b68187d78    f8  44894dc4             movl [rbp-0x3c],r9
0x280b68187d7c    fc  8b45d4               movl rax,[rbp-0x2c]
0x280b68187d7f    ff  488b4e17             REX.W movq rcx,[rsi+0x17]
0x280b68187d83   103  0fb61401             movzxbl rdx,[rcx+rax*1]
0x280b68187d87   107  8b45d0               movl rax,[rbp-0x30]
0x280b68187d8a   10a  25ff000000           and rax,0xff
0x280b68187d8f   10f  3bd0                 cmpl rdx,rax
0x280b68187d91   111  0f8505000000         jnz 0x280b68187d9c  <+0x11c>
0x280b68187d97   117  e98e000000           jmp 0x280b68187e2a  <+0x1aa>
0x280b68187d9c   11c  8b45cc               movl rax,[rbp-0x34]
0x280b68187d9f   11f  83f804               cmpl rax,0x4
0x280b68187da2   122  0f8305000000         jnc 0x280b68187dad  <+0x12d>
0x280b68187da8   128  e97d000000           jmp 0x280b68187e2a  <+0x1aa>
0x280b68187dad   12d  8b45d0               movl rax,[rbp-0x30]
0x280b68187db0   130  25ff000000           and rax,0xff
0x280b68187db5   135  ba01010101           movl rdx,0x1010101
0x280b68187dba   13a  0fafc2               imull rax,rdx
0x280b68187dbd   13d  8945c4               movl [rbp-0x3c],rax
0x280b68187dc0   140  488b4627             REX.W movq rax,[rsi+0x27]
0x280b68187dc4   144  483b20               REX.W cmpq rsp,[rax]
0x280b68187dc7   147  0f860e010000         jna 0x280b68187edb  <+0x25b>
0x280b68187dcd   14d  8b45d4               movl rax,[rbp-0x2c]
0x280b68187dd0   150  8b1401               movl rdx,[rcx+rax*1]
0x280b68187dd3   153  8b45c4               movl rax,[rbp-0x3c]
0x280b68187dd6   156  33d0                 xorl rdx,rax
0x280b68187dd8   158  8bc2                 movl rax,rdx
0x280b68187dda   15a  83f0ff               xorl rax,0xff
0x280b68187ddd   15d  bb01010101           movl rbx,0x1010101
0x280b68187de2   162  f7db                 negl rbx
0x280b68187de4   164  03da                 addl rbx,rdx
0x280b68187de6   166  23c3                 andl rax,rbx
0x280b68187de8   168  2580808080           and rax,0x80808080
0x280b68187ded   16d  85c0                 testl rax,rax
0x280b68187def   16f  0f8408000000         jz 0x280b68187dfd  <+0x17d>
0x280b68187df5   175  8955c8               movl [rbp-0x38],rdx
0x280b68187df8   178  e92d000000           jmp 0x280b68187e2a  <+0x1aa>
0x280b68187dfd   17d  8b45d4               movl rax,[rbp-0x2c]
0x280b68187e00   180  83c004               addl rax,0x4
0x280b68187e03   183  8b5dcc               movl rbx,[rbp-0x34]
0x280b68187e06   186  bf04000000           movl rdi,0x4
0x280b68187e0b   18b  2bdf                 subl rbx,rdi
0x280b68187e0d   18d  83fb03               cmpl rbx,0x3
0x280b68187e10   190  0f860b000000         jna 0x280b68187e21  <+0x1a1>
0x280b68187e16   196  8945d4               movl [rbp-0x2c],rax
0x280b68187e19   199  895dcc               movl [rbp-0x34],rbx
0x280b68187e1c   19c  8955c8               movl [rbp-0x38],rdx
0x280b68187e1f   19f  eb9f                 jmp 0x280b68187dc0  <+0x140>
0x280b68187e21   1a1  8945d4               movl [rbp-0x2c],rax
0x280b68187e24   1a4  895dcc               movl [rbp-0x34],rbx
0x280b68187e27   1a7  8955c8               movl [rbp-0x38],rdx
0x280b68187e2a   1aa  8b45cc               movl rax,[rbp-0x34]
0x280b68187e2d   1ad  85c0                 testl rax,rax
0x280b68187e2f   1af  0f8515000000         jnz 0x280b68187e4a  <+0x1ca>
0x280b68187e35   1b5  8b45d4               movl rax,[rbp-0x2c]
0x280b68187e38   1b8  8b4dcc               movl rcx,[rbp-0x34]
0x280b68187e3b   1bb  8b55d0               movl rdx,[rbp-0x30]
0x280b68187e3e   1be  8b5dc8               movl rbx,[rbp-0x38]
0x280b68187e41   1c1  448b4dc4             movl r9,[rbp-0x3c]
0x280b68187e45   1c5  e95e000000           jmp 0x280b68187ea8  <+0x228>
0x280b68187e4a   1ca  8b45d0               movl rax,[rbp-0x30]
0x280b68187e4d   1cd  25ff000000           and rax,0xff
0x280b68187e52   1d2  8945c8               movl [rbp-0x38],rax
0x280b68187e55   1d5  488b4627             REX.W movq rax,[rsi+0x27]
0x280b68187e59   1d9  483b20               REX.W cmpq rsp,[rax]
0x280b68187e5c   1dc  0f868e000000         jna 0x280b68187ef0  <+0x270>
0x280b68187e62   1e2  8b45c8               movl rax,[rbp-0x38]
0x280b68187e65   1e5  8b55d4               movl rdx,[rbp-0x2c]
0x280b68187e68   1e8  0fb61c11             movzxbl rbx,[rcx+rdx*1]
0x280b68187e6c   1ec  3bc3                 cmpl rax,rbx
0x280b68187e6e   1ee  0f8508000000         jnz 0x280b68187e7c  <+0x1fc>
0x280b68187e74   1f4  8b45d4               movl rax,[rbp-0x2c]
0x280b68187e77   1f7  488be5               REX.W movq rsp,rbp
0x280b68187e7a   1fa  5d                   pop rbp
0x280b68187e7b   1fb  c3                   retl
0x280b68187e7c   1fc  8b45d4               movl rax,[rbp-0x2c]
0x280b68187e7f   1ff  83c001               addl rax,0x1
0x280b68187e82   202  8b55cc               movl rdx,[rbp-0x34]
0x280b68187e85   205  bb01000000           movl rbx,0x1
0x280b68187e8a   20a  2bd3                 subl rdx,rbx
0x280b68187e8c   20c  85d2                 testl rdx,rdx
0x280b68187e8e   20e  0f8408000000         jz 0x280b68187e9c  <+0x21c>
0x280b68187e94   214  8945d4               movl [rbp-0x2c],rax
0x280b68187e97   217  8955cc               movl [rbp-0x34],rdx
0x280b68187e9a   21a  ebb9                 jmp 0x280b68187e55  <+0x1d5>
0x280b68187e9c   21c  8bca                 movl rcx,rdx
0x280b68187e9e   21e  8b55d0               movl rdx,[rbp-0x30]
0x280b68187ea1   221  8b5dc8               movl rbx,[rbp-0x38]
0x280b68187ea4   224  448b4dc4             movl r9,[rbp-0x3c]
0x280b68187ea8   228  33c0                 xorl rax,rax
0x280b68187eaa   22a  488be5               REX.W movq rsp,rbp
0x280b68187ead   22d  5d                   pop rbp
0x280b68187eae   22e  c3                   retl
0x280b68187eaf   22f  50                   push rax
0x280b68187eb0   230  51                   push rcx
0x280b68187eb1   231  52                   push rdx
0x280b68187eb2   232  e8b9e4ffff           call 0x280b68186370  (jump table)
0x280b68187eb7   237  5a                   pop rdx
0x280b68187eb8   238  59                   pop rcx
0x280b68187eb9   239  58                   pop rax
0x280b68187eba   23a  488b75f0             REX.W movq rsi,[rbp-0x10]
0x280b68187ebe   23e  e9d8fdffff           jmp 0x280b68187c9b  <+0x1b>
0x280b68187ec3   243  e8a8e4ffff           call 0x280b68186370  (jump table)
0x280b68187ec8   248  488b75f0             REX.W movq rsi,[rbp-0x10]
0x280b68187ecc   24c  e91afeffff           jmp 0x280b68187ceb  <+0x6b>
0x280b68187ed1   251  e83ae2ffff           call 0x280b68186110  (jump table)
0x280b68187ed6   256  e835e2ffff           call 0x280b68186110  (jump table)
0x280b68187edb   25b  51                   push rcx
0x280b68187edc   25c  e88fe4ffff           call 0x280b68186370  (jump table)
0x280b68187ee1   261  59                   pop rcx
0x280b68187ee2   262  488b75f0             REX.W movq rsi,[rbp-0x10]
0x280b68187ee6   266  e9e2feffff           jmp 0x280b68187dcd  <+0x14d>
0x280b68187eeb   26b  e820e2ffff           call 0x280b68186110  (jump table)
0x280b68187ef0   270  51                   push rcx
0x280b68187ef1   271  e87ae4ffff           call 0x280b68186370  (jump table)
0x280b68187ef6   276  59                   pop rcx
0x280b68187ef7   277  488b75f0             REX.W movq rsi,[rbp-0x10]
0x280b68187efb   27b  e962ffffff           jmp 0x280b68187e62  <+0x1e2>
0x280b68187f00   280  e80be2ffff           call 0x280b68186110  (jump table)
0x280b68187f05   285  0f1f00               nop

Protected instructions:
 pc offset  land pad
        72       251
       103       256
       150       26b
       1e8       280

Source positions:
 pc offset  position
       232         0  statement
       243        39  statement
       251        43  statement
       256        92  statement
       25c       125  statement
       26b       129  statement
       271       192  statement
       280       198  statement

Safepoints (entries = 1, byte size = 12)
0x280b68187eb7    237  slots (sp->fp): 0000000000000000

RelocInfo (size = 0)

--- End code ---
--- WebAssembly code ---
name: isdigit
index: 15
kind: wasm function
compiler: Liftoff
Body (size = 128 = 84 + 44 padding)
Instructions (size = 72)
0x280b68187f40     0  55                   push rbp
0x280b68187f41     1  4889e5               REX.W movq rbp,rsp
0x280b68187f44     4  6a08                 push 0x8
0x280b68187f46     6  56                   push rsi
0x280b68187f47     7  4881ec18000000       REX.W subq rsp,0x18
0x280b68187f4e     e  488b4e27             REX.W movq rcx,[rsi+0x27]
0x280b68187f52    12  483b21               REX.W cmpq rsp,[rcx]
0x280b68187f55    15  0f861d000000         jna 0x280b68187f78  <+0x38>
0x280b68187f5b    1b  b930000000           movl rcx,0x30
0x280b68187f60    20  f7d9                 negl rcx
0x280b68187f62    22  03c8                 addl rcx,rax
0x280b68187f64    24  ba0a000000           movl rdx,0xa
0x280b68187f69    29  3bca                 cmpl rcx,rdx
0x280b68187f6b    2b  0f92c1               setcl cl
0x280b68187f6e    2e  0fb6c9               movzxbl rcx,rcx
0x280b68187f71    31  8bc1                 movl rax,rcx
0x280b68187f73    33  488be5               REX.W movq rsp,rbp
0x280b68187f76    36  5d                   pop rbp
0x280b68187f77    37  c3                   retl
0x280b68187f78    38  50                   push rax
0x280b68187f79    39  e8f2e3ffff           call 0x280b68186370  (jump table)
0x280b68187f7e    3e  58                   pop rax
0x280b68187f7f    3f  488b75f0             REX.W movq rsi,[rbp-0x10]
0x280b68187f83    43  ebd6                 jmp 0x280b68187f5b  <+0x1b>
0x280b68187f85    45  0f1f00               nop

Source positions:
 pc offset  position
        39         0  statement

Safepoints (entries = 1, byte size = 10)
0x280b68187f7e     3e  slots (sp->fp): 00000000

RelocInfo (size = 0)

--- End code ---
--- WebAssembly code ---
name: __towrite
index: 14
kind: wasm function
compiler: Liftoff
Body (size = 256 = 196 + 60 padding)
Instructions (size = 184)
0x280b68187fc0     0  55                   push rbp
0x280b68187fc1     1  4889e5               REX.W movq rbp,rsp
0x280b68187fc4     4  6a08                 push 0x8
0x280b68187fc6     6  56                   push rsi
0x280b68187fc7     7  4881ec18000000       REX.W subq rsp,0x18
0x280b68187fce     e  488b4e27             REX.W movq rcx,[rsi+0x27]
0x280b68187fd2    12  483b21               REX.W cmpq rsp,[rcx]
0x280b68187fd5    15  0f865e000000         jna 0x280b68188039  <+0x79>
0x280b68187fdb    1b  488b4e17             REX.W movq rcx,[rsi+0x17]
0x280b68187fdf    1f  8b540148             movl rdx,[rcx+rax*1+0x48]
0x280b68187fe3    23  bb01000000           movl rbx,0x1
0x280b68187fe8    28  f7db                 negl rbx
0x280b68187fea    2a  03da                 addl rbx,rdx
0x280b68187fec    2c  0bda                 orl rbx,rdx
0x280b68187fee    2e  895c0148             movl [rcx+rax*1+0x48],rbx
0x280b68187ff2    32  8b1c01               movl rbx,[rcx+rax*1]
0x280b68187ff5    35  8bd3                 movl rdx,rbx
0x280b68187ff7    37  83e208               andl rdx,0x8
0x280b68187ffa    3a  85d2                 testl rdx,rdx
0x280b68187ffc    3c  0f8412000000         jz 0x280b68188014  <+0x54>
0x280b68188002    42  8bd3                 movl rdx,rbx
0x280b68188004    44  83ca20               orl rdx,0x20
0x280b68188007    47  891401               movl [rcx+rax*1],rdx
0x280b6818800a    4a  b8ffffffff           movl rax,0xffffffff
0x280b6818800f    4f  488be5               REX.W movq rsp,rbp
0x280b68188012    52  5d                   pop rbp
0x280b68188013    53  c3                   retl
0x280b68188014    54  33d2                 xorl rdx,rdx
0x280b68188016    56  4889540104           REX.W movq [rcx+rax*1+0x4],rdx
0x280b6818801b    5b  8b54012c             movl rdx,[rcx+rax*1+0x2c]
0x280b6818801f    5f  8954011c             movl [rcx+rax*1+0x1c],rdx
0x280b68188023    63  89540114             movl [rcx+rax*1+0x14],rdx
0x280b68188027    67  8b5c0130             movl rbx,[rcx+rax*1+0x30]
0x280b6818802b    6b  8d1c1a               leal rbx,[rdx+rbx*1]
0x280b6818802e    6e  895c0110             movl [rcx+rax*1+0x10],rbx
0x280b68188032    72  33c0                 xorl rax,rax
0x280b68188034    74  488be5               REX.W movq rsp,rbp
0x280b68188037    77  5d                   pop rbp
0x280b68188038    78  c3                   retl
0x280b68188039    79  50                   push rax
0x280b6818803a    7a  e831e3ffff           call 0x280b68186370  (jump table)
0x280b6818803f    7f  58                   pop rax
0x280b68188040    80  488b75f0             REX.W movq rsi,[rbp-0x10]
0x280b68188044    84  eb95                 jmp 0x280b68187fdb  <+0x1b>
0x280b68188046    86  e8c5e0ffff           call 0x280b68186110  (jump table)
0x280b6818804b    8b  e8c0e0ffff           call 0x280b68186110  (jump table)
0x280b68188050    90  e8bbe0ffff           call 0x280b68186110  (jump table)
0x280b68188055    95  e8b6e0ffff           call 0x280b68186110  (jump table)
0x280b6818805a    9a  e8b1e0ffff           call 0x280b68186110  (jump table)
0x280b6818805f    9f  e8ace0ffff           call 0x280b68186110  (jump table)
0x280b68188064    a4  e8a7e0ffff           call 0x280b68186110  (jump table)
0x280b68188069    a9  e8a2e0ffff           call 0x280b68186110  (jump table)
0x280b6818806e    ae  e89de0ffff           call 0x280b68186110  (jump table)
0x280b68188073    b3  e898e0ffff           call 0x280b68186110  (jump table)

Protected instructions:
 pc offset  land pad
        1f        86
        2e        8b
        32        90
        47        95
        56        9a
        5b        9f
        5f        a4
        63        a9
        67        ae
        6e        b3

Source positions:
 pc offset  position
        7a         0  statement
        86         7  statement
        8b        18  statement
        90        23  statement
        95        40  statement
        9a        51  statement
        9f        58  statement
        a4        63  statement
        a9        70  statement
        ae        79  statement
        b3        83  statement

Safepoints (entries = 1, byte size = 10)
0x280b6818803f     7f  slots (sp->fp): 00000000

RelocInfo (size = 0)

--- End code ---
--- WebAssembly code ---
name: __unlockfile
index: 13
kind: wasm function
compiler: Liftoff
Body (size = 64 = 60 + 4 padding)
Instructions (size = 48)
0x280b681880c0     0  55                   push rbp
0x280b681880c1     1  4889e5               REX.W movq rbp,rsp
0x280b681880c4     4  6a08                 push 0x8
0x280b681880c6     6  56                   push rsi
0x280b681880c7     7  4881ec18000000       REX.W subq rsp,0x18
0x280b681880ce     e  488b4e27             REX.W movq rcx,[rsi+0x27]
0x280b681880d2    12  483b21               REX.W cmpq rsp,[rcx]
0x280b681880d5    15  0f8605000000         jna 0x280b681880e0  <+0x20>
0x280b681880db    1b  488be5               REX.W movq rsp,rbp
0x280b681880de    1e  5d                   pop rbp
0x280b681880df    1f  c3                   retl
0x280b681880e0    20  50                   push rax
0x280b681880e1    21  e88ae2ffff           call 0x280b68186370  (jump table)
0x280b681880e6    26  58                   pop rax
0x280b681880e7    27  488b75f0             REX.W movq rsi,[rbp-0x10]
0x280b681880eb    2b  ebee                 jmp 0x280b681880db  <+0x1b>
0x280b681880ed    2d  0f1f00               nop

Source positions:
 pc offset  position
        21         0  statement

Safepoints (entries = 1, byte size = 10)
0x280b681880e6     26  slots (sp->fp): 00000000

RelocInfo (size = 0)

--- End code ---
--- WebAssembly code ---
name: __lockfile
index: 12
kind: wasm function
compiler: Liftoff
Body (size = 64 = 64 + 0 padding)
Instructions (size = 52)
0x280b68188100     0  55                   push rbp
0x280b68188101     1  4889e5               REX.W movq rbp,rsp
0x280b68188104     4  6a08                 push 0x8
0x280b68188106     6  56                   push rsi
0x280b68188107     7  4881ec18000000       REX.W subq rsp,0x18
0x280b6818810e     e  488b4e27             REX.W movq rcx,[rsi+0x27]
0x280b68188112    12  483b21               REX.W cmpq rsp,[rcx]
0x280b68188115    15  0f860a000000         jna 0x280b68188125  <+0x25>
0x280b6818811b    1b  b801000000           movl rax,0x1
0x280b68188120    20  488be5               REX.W movq rsp,rbp
0x280b68188123    23  5d                   pop rbp
0x280b68188124    24  c3                   retl
0x280b68188125    25  50                   push rax
0x280b68188126    26  e845e2ffff           call 0x280b68186370  (jump table)
0x280b6818812b    2b  58                   pop rax
0x280b6818812c    2c  488b75f0             REX.W movq rsi,[rbp-0x10]
0x280b68188130    30  ebe9                 jmp 0x280b6818811b  <+0x1b>
0x280b68188132    32  6690                 nop

Source positions:
 pc offset  position
        26         0  statement

Safepoints (entries = 1, byte size = 10)
0x280b6818812b     2b  slots (sp->fp): 00000000

RelocInfo (size = 0)

--- End code ---
--- WebAssembly code ---
name: memset
index: 11
kind: wasm function
compiler: Liftoff
Body (size = 832 = 788 + 44 padding)
Instructions (size = 776)
0x280b68188140     0  55                   push rbp
0x280b68188141     1  4889e5               REX.W movq rbp,rsp
0x280b68188144     4  6a08                 push 0x8
0x280b68188146     6  56                   push rsi
0x280b68188147     7  4881ec38000000       REX.W subq rsp,0x38
0x280b6818814e     e  48c745b800000000     REX.W movq [rbp-0x48],0x0
0x280b68188156    16  48c745c000000000     REX.W movq [rbp-0x40],0x0
0x280b6818815e    1e  c745c800000000       movl [rbp-0x38],0x0
0x280b68188165    25  488b5e27             REX.W movq rbx,[rsi+0x27]
0x280b68188169    29  483b23               REX.W cmpq rsp,[rbx]
0x280b6818816c    2c  0f8630020000         jna 0x280b681883a2  <+0x262>
0x280b68188172    32  85c9                 testl rcx,rcx
0x280b68188174    34  0f8505000000         jnz 0x280b6818817f  <+0x3f>
0x280b6818817a    3a  e91e020000           jmp 0x280b6818839d  <+0x25d>
0x280b6818817f    3f  488b5e17             REX.W movq rbx,[rsi+0x17]
0x280b68188183    43  881403               movb [rbx+rax*1],dl
0x280b68188186    46  8d3c08               leal rdi,[rax+rcx*1]
0x280b68188189    49  41b901000000         movl r9,0x1
0x280b6818818f    4f  41f7d9               negl r9
0x280b68188192    52  4403cf               addl r9,rdi
0x280b68188195    55  4288140b             movb [rbx+r9*1],dl
0x280b68188199    59  83f903               cmpl rcx,0x3
0x280b6818819c    5c  0f8308000000         jnc 0x280b681881aa  <+0x6a>
0x280b681881a2    62  897dc8               movl [rbp-0x38],rdi
0x280b681881a5    65  e9f3010000           jmp 0x280b6818839d  <+0x25d>
0x280b681881aa    6a  88540302             movb [rbx+rax*1+0x2],dl
0x280b681881ae    6e  88540301             movb [rbx+rax*1+0x1],dl
0x280b681881b2    72  41b903000000         movl r9,0x3
0x280b681881b8    78  41f7d9               negl r9
0x280b681881bb    7b  4403cf               addl r9,rdi
0x280b681881be    7e  4288140b             movb [rbx+r9*1],dl
0x280b681881c2    82  41b902000000         movl r9,0x2
0x280b681881c8    88  41f7d9               negl r9
0x280b681881cb    8b  4403cf               addl r9,rdi
0x280b681881ce    8e  4288140b             movb [rbx+r9*1],dl
0x280b681881d2    92  83f907               cmpl rcx,0x7
0x280b681881d5    95  0f8308000000         jnc 0x280b681881e3  <+0xa3>
0x280b681881db    9b  897dc8               movl [rbp-0x38],rdi
0x280b681881de    9e  e9ba010000           jmp 0x280b6818839d  <+0x25d>
0x280b681881e3    a3  88540303             movb [rbx+rax*1+0x3],dl
0x280b681881e7    a7  41b904000000         movl r9,0x4
0x280b681881ed    ad  41f7d9               negl r9
0x280b681881f0    b0  4403cf               addl r9,rdi
0x280b681881f3    b3  4288140b             movb [rbx+r9*1],dl
0x280b681881f7    b7  83f909               cmpl rcx,0x9
0x280b681881fa    ba  0f8308000000         jnc 0x280b68188208  <+0xc8>
0x280b68188200    c0  897dc8               movl [rbp-0x38],rdi
0x280b68188203    c3  e995010000           jmp 0x280b6818839d  <+0x25d>
0x280b68188208    c8  4533c9               xorl r9,r9
0x280b6818820b    cb  442bc8               subl r9,rax
0x280b6818820e    ce  4183e103             andl r9,0x3
0x280b68188212    d2  428d3408             leal rsi,[rax+r9*1]
0x280b68188216    d6  8bfa                 movl rdi,rdx
0x280b68188218    d8  81e7ff000000         andl rdi,0xff
0x280b6818821e    de  bb01010101           movl rbx,0x1010101
0x280b68188223    e3  0faffb               imull rdi,rbx
0x280b68188226    e6  488b5df0             REX.W movq rbx,[rbp-0x10]
0x280b6818822a    ea  488b5317             REX.W movq rdx,[rbx+0x17]
0x280b6818822e    ee  893c32               movl [rdx+rsi*1],rdi
0x280b68188231    f1  8bd9                 movl rbx,rcx
0x280b68188233    f3  412bd9               subl rbx,r9
0x280b68188236    f6  83e3fc               andl rbx,0xfc
0x280b68188239    f9  448d0c1e             leal r9,[rsi+rbx*1]
0x280b6818823d    fd  b904000000           movl rcx,0x4
0x280b68188242   102  f7d9                 negl rcx
0x280b68188244   104  4103c9               addl rcx,r9
0x280b68188247   107  893c0a               movl [rdx+rcx*1],rdi
0x280b6818824a   10a  83fb09               cmpl rbx,0x9
0x280b6818824d   10d  0f8310000000         jnc 0x280b68188263  <+0x123>
0x280b68188253   113  8975c8               movl [rbp-0x38],rsi
0x280b68188256   116  895dc4               movl [rbp-0x3c],rbx
0x280b68188259   119  418bc9               movl rcx,r9
0x280b6818825c   11c  8bd7                 movl rdx,rdi
0x280b6818825e   11e  e93a010000           jmp 0x280b6818839d  <+0x25d>
0x280b68188263   123  897c3208             movl [rdx+rsi*1+0x8],rdi
0x280b68188267   127  897c3204             movl [rdx+rsi*1+0x4],rdi
0x280b6818826b   12b  b908000000           movl rcx,0x8
0x280b68188270   130  f7d9                 negl rcx
0x280b68188272   132  4103c9               addl rcx,r9
0x280b68188275   135  893c0a               movl [rdx+rcx*1],rdi
0x280b68188278   138  b90c000000           movl rcx,0xc
0x280b6818827d   13d  f7d9                 negl rcx
0x280b6818827f   13f  4103c9               addl rcx,r9
0x280b68188282   142  893c0a               movl [rdx+rcx*1],rdi
0x280b68188285   145  83fb19               cmpl rbx,0x19
0x280b68188288   148  0f8310000000         jnc 0x280b6818829e  <+0x15e>
0x280b6818828e   14e  8975c8               movl [rbp-0x38],rsi
0x280b68188291   151  895dc4               movl [rbp-0x3c],rbx
0x280b68188294   154  418bc9               movl rcx,r9
0x280b68188297   157  8bd7                 movl rdx,rdi
0x280b68188299   159  e9ff000000           jmp 0x280b6818839d  <+0x25d>
0x280b6818829e   15e  897c3218             movl [rdx+rsi*1+0x18],rdi
0x280b681882a2   162  897c3214             movl [rdx+rsi*1+0x14],rdi
0x280b681882a6   166  897c3210             movl [rdx+rsi*1+0x10],rdi
0x280b681882aa   16a  897c320c             movl [rdx+rsi*1+0xc],rdi
0x280b681882ae   16e  b910000000           movl rcx,0x10
0x280b681882b3   173  f7d9                 negl rcx
0x280b681882b5   175  4103c9               addl rcx,r9
0x280b681882b8   178  893c0a               movl [rdx+rcx*1],rdi
0x280b681882bb   17b  b914000000           movl rcx,0x14
0x280b681882c0   180  f7d9                 negl rcx
0x280b681882c2   182  4103c9               addl rcx,r9
0x280b681882c5   185  893c0a               movl [rdx+rcx*1],rdi
0x280b681882c8   188  b918000000           movl rcx,0x18
0x280b681882cd   18d  f7d9                 negl rcx
0x280b681882cf   18f  4103c9               addl rcx,r9
0x280b681882d2   192  893c0a               movl [rdx+rcx*1],rdi
0x280b681882d5   195  b91c000000           movl rcx,0x1c
0x280b681882da   19a  f7d9                 negl rcx
0x280b681882dc   19c  4103c9               addl rcx,r9
0x280b681882df   19f  893c0a               movl [rdx+rcx*1],rdi
0x280b681882e2   1a2  8bce                 movl rcx,rsi
0x280b681882e4   1a4  83e104               andl rcx,0x4
0x280b681882e7   1a7  83c918               orl rcx,0x18
0x280b681882ea   1aa  8bd3                 movl rdx,rbx
0x280b681882ec   1ac  2bd1                 subl rdx,rcx
0x280b681882ee   1ae  83fa20               cmpl rdx,0x20
0x280b681882f1   1b1  0f8312000000         jnc 0x280b68188309  <+0x1c9>
0x280b681882f7   1b7  8975c8               movl [rbp-0x38],rsi
0x280b681882fa   1ba  895dc4               movl [rbp-0x3c],rbx
0x280b681882fd   1bd  894db8               movl [rbp-0x48],rcx
0x280b68188300   1c0  8bca                 movl rcx,rdx
0x280b68188302   1c2  8bd7                 movl rdx,rdi
0x280b68188304   1c4  e994000000           jmp 0x280b6818839d  <+0x25d>
0x280b68188309   1c9  448bcf               movl r9,rdi
0x280b6818830c   1cc  8945d4               movl [rbp-0x2c],rax
0x280b6818830f   1cf  48b80100000001000000 REX.W movq rax,0x100000001
0x280b68188319   1d9  4c0fafc8             REX.W imulq r9,rax
0x280b6818831d   1dd  8d040e               leal rax,[rsi+rcx*1]
0x280b68188320   1e0  8945d0               movl [rbp-0x30],rax
0x280b68188323   1e3  8955cc               movl [rbp-0x34],rdx
0x280b68188326   1e6  8975c8               movl [rbp-0x38],rsi
0x280b68188329   1e9  895dc4               movl [rbp-0x3c],rbx
0x280b6818832c   1ec  4c894dbc             REX.W movq [rbp-0x44],r9
0x280b68188330   1f0  894db8               movl [rbp-0x48],rcx
0x280b68188333   1f3  488b75f0             REX.W movq rsi,[rbp-0x10]
0x280b68188337   1f7  488b4627             REX.W movq rax,[rsi+0x27]
0x280b6818833b   1fb  483b20               REX.W cmpq rsp,[rax]
0x280b6818833e   1fe  0f86e0000000         jna 0x280b68188424  <+0x2e4>
0x280b68188344   204  8b45d0               movl rax,[rbp-0x30]
0x280b68188347   207  488b4dbc             REX.W movq rcx,[rbp-0x44]
0x280b6818834b   20b  488b5617             REX.W movq rdx,[rsi+0x17]
0x280b6818834f   20f  48894c0218           REX.W movq [rdx+rax*1+0x18],rcx
0x280b68188354   214  8b45d0               movl rax,[rbp-0x30]
0x280b68188357   217  488b4dbc             REX.W movq rcx,[rbp-0x44]
0x280b6818835b   21b  48894c0210           REX.W movq [rdx+rax*1+0x10],rcx
0x280b68188360   220  8b45d0               movl rax,[rbp-0x30]
0x280b68188363   223  488b4dbc             REX.W movq rcx,[rbp-0x44]
0x280b68188367   227  48894c0208           REX.W movq [rdx+rax*1+0x8],rcx
0x280b6818836c   22c  8b45d0               movl rax,[rbp-0x30]
0x280b6818836f   22f  488b4dbc             REX.W movq rcx,[rbp-0x44]
0x280b68188373   233  48890c02             REX.W movq [rdx+rax*1],rcx
0x280b68188377   237  8b45d0               movl rax,[rbp-0x30]
0x280b6818837a   23a  83c020               addl rax,0x20
0x280b6818837d   23d  8b4dcc               movl rcx,[rbp-0x34]
0x280b68188380   240  bb20000000           movl rbx,0x20
0x280b68188385   245  2bcb                 subl rcx,rbx
0x280b68188387   247  83f91f               cmpl rcx,0x1f
0x280b6818838a   24a  0f8608000000         jna 0x280b68188398  <+0x258>
0x280b68188390   250  8945d0               movl [rbp-0x30],rax
0x280b68188393   253  894dcc               movl [rbp-0x34],rcx
0x280b68188396   256  eb9b                 jmp 0x280b68188333  <+0x1f3>
0x280b68188398   258  8bd0                 movl rdx,rax
0x280b6818839a   25a  8b45d4               movl rax,[rbp-0x2c]
0x280b6818839d   25d  488be5               REX.W movq rsp,rbp
0x280b681883a0   260  5d                   pop rbp
0x280b681883a1   261  c3                   retl
0x280b681883a2   262  50                   push rax
0x280b681883a3   263  51                   push rcx
0x280b681883a4   264  52                   push rdx
0x280b681883a5   265  e8c6dfffff           call 0x280b68186370  (jump table)
0x280b681883aa   26a  5a                   pop rdx
0x280b681883ab   26b  59                   pop rcx
0x280b681883ac   26c  58                   pop rax
0x280b681883ad   26d  488b75f0             REX.W movq rsi,[rbp-0x10]
0x280b681883b1   271  e9bcfdffff           jmp 0x280b68188172  <+0x32>
0x280b681883b6   276  e855ddffff           call 0x280b68186110  (jump table)
0x280b681883bb   27b  e850ddffff           call 0x280b68186110  (jump table)
0x280b681883c0   280  e84bddffff           call 0x280b68186110  (jump table)
0x280b681883c5   285  e846ddffff           call 0x280b68186110  (jump table)
0x280b681883ca   28a  e841ddffff           call 0x280b68186110  (jump table)
0x280b681883cf   28f  e83cddffff           call 0x280b68186110  (jump table)
0x280b681883d4   294  e837ddffff           call 0x280b68186110  (jump table)
0x280b681883d9   299  e832ddffff           call 0x280b68186110  (jump table)
0x280b681883de   29e  e82dddffff           call 0x280b68186110  (jump table)
0x280b681883e3   2a3  e828ddffff           call 0x280b68186110  (jump table)
0x280b681883e8   2a8  e823ddffff           call 0x280b68186110  (jump table)
0x280b681883ed   2ad  e81eddffff           call 0x280b68186110  (jump table)
0x280b681883f2   2b2  e819ddffff           call 0x280b68186110  (jump table)
0x280b681883f7   2b7  e814ddffff           call 0x280b68186110  (jump table)
0x280b681883fc   2bc  e80fddffff           call 0x280b68186110  (jump table)
0x280b68188401   2c1  e80addffff           call 0x280b68186110  (jump table)
0x280b68188406   2c6  e805ddffff           call 0x280b68186110  (jump table)
0x280b6818840b   2cb  e800ddffff           call 0x280b68186110  (jump table)
0x280b68188410   2d0  e8fbdcffff           call 0x280b68186110  (jump table)
0x280b68188415   2d5  e8f6dcffff           call 0x280b68186110  (jump table)
0x280b6818841a   2da  e8f1dcffff           call 0x280b68186110  (jump table)
0x280b6818841f   2df  e8ecdcffff           call 0x280b68186110  (jump table)
0x280b68188424   2e4  e847dfffff           call 0x280b68186370  (jump table)
0x280b68188429   2e9  488b75f0             REX.W movq rsi,[rbp-0x10]
0x280b6818842d   2ed  e912ffffff           jmp 0x280b68188344  <+0x204>
0x280b68188432   2f2  e8d9dcffff           call 0x280b68186110  (jump table)
0x280b68188437   2f7  e8d4dcffff           call 0x280b68186110  (jump table)
0x280b6818843c   2fc  e8cfdcffff           call 0x280b68186110  (jump table)
0x280b68188441   301  e8cadcffff           call 0x280b68186110  (jump table)
0x280b68188446   306  6690                 nop

Protected instructions:
 pc offset  land pad
        43       276
        55       27b
        6a       280
        6e       285
        7e       28a
        8e       28f
        a3       294
        b3       299
        ee       29e
       107       2a3
       123       2a8
       127       2ad
       135       2b2
       142       2b7
       15e       2bc
       162       2c1
       166       2c6
       16a       2cb
       178       2d0
       185       2d5
       192       2da
       19f       2df
       20f       2f2
       21b       2f7
       227       2fc
       233       301

Source positions:
 pc offset  position
       265         0  statement
       276        20  statement
       27b        35  statement
       280        49  statement
       285        56  statement
       28a        66  statement
       28f        76  statement
       294        90  statement
       299       100  statement
       29e       139  statement
       2a3       162  statement
       2a8       176  statement
       2ad       183  statement
       2b2       193  statement
       2b7       203  statement
       2bc       217  statement
       2c1       224  statement
       2c6       231  statement
       2cb       238  statement
       2d0       248  statement
       2d5       258  statement
       2da       268  statement
       2df       278  statement
       2e4       320  statement
       2f2       326  statement
       2f7       333  statement
       2fc       340  statement
       301       347  statement

Safepoints (entries = 1, byte size = 12)
0x280b681883aa    26a  slots (sp->fp): 0000000000000000

RelocInfo (size = 0)

--- End code ---
--- WebAssembly code ---
name: pop_arg
index: 25
kind: wasm function
compiler: TurboFan
Body (size = 1216 = 1212 + 4 padding)
Instructions (size = 1200)
0x280b68192b00     0  55                   push rbp
0x280b68192b01     1  4889e5               REX.W movq rbp,rsp
0x280b68192b04     4  6a08                 push 0x8
0x280b68192b06     6  56                   push rsi
0x280b68192b07     7  4883ec20             REX.W subq rsp,0x20
0x280b68192b0b     b  488b7e27             REX.W movq rdi,[rsi+0x27]
0x280b68192b0f     f  483b27               REX.W cmpq rsp,[rdi]
0x280b68192b12    12  0f8678020000         jna 0x280b68192d90  <+0x290>
0x280b68192b18    18  8d7af7               leal rdi,[rdx-0x9]
0x280b68192b1b    1b  4c8b4617             REX.W movq r8,[rsi+0x17]
0x280b68192b1f    1f  83ff12               cmpl rdi,0x12
0x280b68192b22    22  0f8363020000         jnc 0x280b68192d8b  <+0x28b>
0x280b68192b28    28  4c8d15f1030000       REX.W leaq r10,[rip+0x3f1]
0x280b68192b2f    2f  41ff24fa             jmp [r10+rdi*8]
0x280b68192b33    33  e953020000           jmp 0x280b68192d8b  <+0x28b>
0x280b68192b38    38  8bd9                 movl rbx,rcx
0x280b68192b3a    3a  8bc8                 movl rcx,rax
0x280b68192b3c    3c  418b3c18             movl rdi,[r8+rbx*1]
0x280b68192b40    40  448d4f04             leal r9,[rdi+0x4]
0x280b68192b44    44  45890c18             movl [r8+rbx*1],r9
0x280b68192b48    48  418b1c38             movl rbx,[r8+rdi*1]
0x280b68192b4c    4c  41891c08             movl [r8+rcx*1],rbx
0x280b68192b50    50  488be5               REX.W movq rsp,rbp
0x280b68192b53    53  5d                   pop rbp
0x280b68192b54    54  c3                   retl
0x280b68192b55    55  8bd9                 movl rbx,rcx
0x280b68192b57    57  8bc8                 movl rcx,rax
0x280b68192b59    59  418b3c18             movl rdi,[r8+rbx*1]
0x280b68192b5d    5d  448d4f04             leal r9,[rdi+0x4]
0x280b68192b61    61  45890c18             movl [r8+rbx*1],r9
0x280b68192b65    65  418b1c38             movl rbx,[r8+rdi*1]
0x280b68192b69    69  4863db               REX.W movsxlq rbx,rbx
0x280b68192b6c    6c  49891c08             REX.W movq [r8+rcx*1],rbx
0x280b68192b70    70  ebde                 jmp 0x280b68192b50  <+0x50>
0x280b68192b72    72  8bd9                 movl rbx,rcx
0x280b68192b74    74  8bc8                 movl rcx,rax
0x280b68192b76    76  418b3c18             movl rdi,[r8+rbx*1]
0x280b68192b7a    7a  448d4f04             leal r9,[rdi+0x4]
0x280b68192b7e    7e  45890c18             movl [r8+rbx*1],r9
0x280b68192b82    82  418b1c38             movl rbx,[r8+rdi*1]
0x280b68192b86    86  49891c08             REX.W movq [r8+rcx*1],rbx
0x280b68192b8a    8a  ebc4                 jmp 0x280b68192b50  <+0x50>
0x280b68192b8c    8c  8bd9                 movl rbx,rcx
0x280b68192b8e    8e  8bc8                 movl rcx,rax
0x280b68192b90    90  418b3c18             movl rdi,[r8+rbx*1]
0x280b68192b94    94  83c707               addl rdi,0x7
0x280b68192b97    97  83e7f8               andl rdi,0xf8
0x280b68192b9a    9a  448d4f08             leal r9,[rdi+0x8]
0x280b68192b9e    9e  45890c18             movl [r8+rbx*1],r9
0x280b68192ba2    a2  498b1c38             REX.W movq rbx,[r8+rdi*1]
0x280b68192ba6    a6  49891c08             REX.W movq [r8+rcx*1],rbx
0x280b68192baa    aa  eba4                 jmp 0x280b68192b50  <+0x50>
0x280b68192bac    ac  8bd9                 movl rbx,rcx
0x280b68192bae    ae  8bc8                 movl rcx,rax
0x280b68192bb0    b0  418b3c18             movl rdi,[r8+rbx*1]
0x280b68192bb4    b4  448d4f04             leal r9,[rdi+0x4]
0x280b68192bb8    b8  45890c18             movl [r8+rbx*1],r9
0x280b68192bbc    bc  418b1c38             movl rbx,[r8+rdi*1]
0x280b68192bc0    c0  4863db               REX.W movsxlq rbx,rbx
0x280b68192bc3    c3  49891c08             REX.W movq [r8+rcx*1],rbx
0x280b68192bc7    c7  eb87                 jmp 0x280b68192b50  <+0x50>
0x280b68192bc9    c9  8bd9                 movl rbx,rcx
0x280b68192bcb    cb  8bc8                 movl rcx,rax
0x280b68192bcd    cd  418b3c18             movl rdi,[r8+rbx*1]
0x280b68192bd1    d1  448d4f04             leal r9,[rdi+0x4]
0x280b68192bd5    d5  45890c18             movl [r8+rbx*1],r9
0x280b68192bd9    d9  418b1c38             movl rbx,[r8+rdi*1]
0x280b68192bdd    dd  49891c08             REX.W movq [r8+rcx*1],rbx
0x280b68192be1    e1  e96affffff           jmp 0x280b68192b50  <+0x50>
0x280b68192be6    e6  8bd9                 movl rbx,rcx
0x280b68192be8    e8  8bc8                 movl rcx,rax
0x280b68192bea    ea  418b3c18             movl rdi,[r8+rbx*1]
0x280b68192bee    ee  448d4f04             leal r9,[rdi+0x4]
0x280b68192bf2    f2  45890c18             movl [r8+rbx*1],r9
0x280b68192bf6    f6  410fbf1c38           movsxwl rbx,[r8+rdi*1]
0x280b68192bfb    fb  4863db               REX.W movsxlq rbx,rbx
0x280b68192bfe    fe  49891c08             REX.W movq [r8+rcx*1],rbx
0x280b68192c02   102  e949ffffff           jmp 0x280b68192b50  <+0x50>
0x280b68192c07   107  8bd9                 movl rbx,rcx
0x280b68192c09   109  8bc8                 movl rcx,rax
0x280b68192c0b   10b  418b3c18             movl rdi,[r8+rbx*1]
0x280b68192c0f   10f  448d4f04             leal r9,[rdi+0x4]
0x280b68192c13   113  45890c18             movl [r8+rbx*1],r9
0x280b68192c17   117  410fb71c38           movzxwl rbx,[r8+rdi*1]
0x280b68192c1c   11c  49891c08             REX.W movq [r8+rcx*1],rbx
0x280b68192c20   120  e92bffffff           jmp 0x280b68192b50  <+0x50>
0x280b68192c25   125  8bd9                 movl rbx,rcx
0x280b68192c27   127  8bc8                 movl rcx,rax
0x280b68192c29   129  418b3c18             movl rdi,[r8+rbx*1]
0x280b68192c2d   12d  448d4f04             leal r9,[rdi+0x4]
0x280b68192c31   131  45890c18             movl [r8+rbx*1],r9
0x280b68192c35   135  410fbe1c38           movsxbl rbx,[r8+rdi*1]
0x280b68192c3a   13a  4863db               REX.W movsxlq rbx,rbx
0x280b68192c3d   13d  49891c08             REX.W movq [r8+rcx*1],rbx
0x280b68192c41   141  e90affffff           jmp 0x280b68192b50  <+0x50>
0x280b68192c46   146  8bd9                 movl rbx,rcx
0x280b68192c48   148  8bc8                 movl rcx,rax
0x280b68192c4a   14a  418b3c18             movl rdi,[r8+rbx*1]
0x280b68192c4e   14e  448d4f04             leal r9,[rdi+0x4]
0x280b68192c52   152  45890c18             movl [r8+rbx*1],r9
0x280b68192c56   156  410fb61c38           movzxbl rbx,[r8+rdi*1]
0x280b68192c5b   15b  49891c08             REX.W movq [r8+rcx*1],rbx
0x280b68192c5f   15f  e9ecfeffff           jmp 0x280b68192b50  <+0x50>
0x280b68192c64   164  8bd9                 movl rbx,rcx
0x280b68192c66   166  8bc8                 movl rcx,rax
0x280b68192c68   168  418b3c18             movl rdi,[r8+rbx*1]
0x280b68192c6c   16c  83c707               addl rdi,0x7
0x280b68192c6f   16f  83e7f8               andl rdi,0xf8
0x280b68192c72   172  448d4f08             leal r9,[rdi+0x8]
0x280b68192c76   176  45890c18             movl [r8+rbx*1],r9
0x280b68192c7a   17a  498b1c38             REX.W movq rbx,[r8+rdi*1]
0x280b68192c7e   17e  49891c08             REX.W movq [r8+rcx*1],rbx
0x280b68192c82   182  e9c9feffff           jmp 0x280b68192b50  <+0x50>
0x280b68192c87   187  8bd9                 movl rbx,rcx
0x280b68192c89   189  8bc8                 movl rcx,rax
0x280b68192c8b   18b  418b3c18             movl rdi,[r8+rbx*1]
0x280b68192c8f   18f  448d4f04             leal r9,[rdi+0x4]
0x280b68192c93   193  45890c18             movl [r8+rbx*1],r9
0x280b68192c97   197  418b1c38             movl rbx,[r8+rdi*1]
0x280b68192c9b   19b  49891c08             REX.W movq [r8+rcx*1],rbx
0x280b68192c9f   19f  e9acfeffff           jmp 0x280b68192b50  <+0x50>
0x280b68192ca4   1a4  8bd9                 movl rbx,rcx
0x280b68192ca6   1a6  8bc8                 movl rcx,rax
0x280b68192ca8   1a8  418b3c18             movl rdi,[r8+rbx*1]
0x280b68192cac   1ac  83c707               addl rdi,0x7
0x280b68192caf   1af  83e7f8               andl rdi,0xf8
0x280b68192cb2   1b2  448d4f08             leal r9,[rdi+0x8]
0x280b68192cb6   1b6  45890c18             movl [r8+rbx*1],r9
0x280b68192cba   1ba  498b1c38             REX.W movq rbx,[r8+rdi*1]
0x280b68192cbe   1be  49891c08             REX.W movq [r8+rcx*1],rbx
0x280b68192cc2   1c2  e989feffff           jmp 0x280b68192b50  <+0x50>
0x280b68192cc7   1c7  8bd9                 movl rbx,rcx
0x280b68192cc9   1c9  8bc8                 movl rcx,rax
0x280b68192ccb   1cb  418b3c18             movl rdi,[r8+rbx*1]
0x280b68192ccf   1cf  83c707               addl rdi,0x7
0x280b68192cd2   1d2  83e7f8               andl rdi,0xf8
0x280b68192cd5   1d5  448d4f08             leal r9,[rdi+0x8]
0x280b68192cd9   1d9  45890c18             movl [r8+rbx*1],r9
0x280b68192cdd   1dd  498b1c38             REX.W movq rbx,[r8+rdi*1]
0x280b68192ce1   1e1  49891c08             REX.W movq [r8+rcx*1],rbx
0x280b68192ce5   1e5  e966feffff           jmp 0x280b68192b50  <+0x50>
0x280b68192cea   1ea  8bd9                 movl rbx,rcx
0x280b68192cec   1ec  8bc8                 movl rcx,rax
0x280b68192cee   1ee  418b3c18             movl rdi,[r8+rbx*1]
0x280b68192cf2   1f2  448d4f04             leal r9,[rdi+0x4]
0x280b68192cf6   1f6  45890c18             movl [r8+rbx*1],r9
0x280b68192cfa   1fa  418b1c38             movl rbx,[r8+rdi*1]
0x280b68192cfe   1fe  4863db               REX.W movsxlq rbx,rbx
0x280b68192d01   201  49891c08             REX.W movq [r8+rcx*1],rbx
0x280b68192d05   205  e946feffff           jmp 0x280b68192b50  <+0x50>
0x280b68192d0a   20a  8bd9                 movl rbx,rcx
0x280b68192d0c   20c  8bc8                 movl rcx,rax
0x280b68192d0e   20e  418b3c18             movl rdi,[r8+rbx*1]
0x280b68192d12   212  448d4f04             leal r9,[rdi+0x4]
0x280b68192d16   216  45890c18             movl [r8+rbx*1],r9
0x280b68192d1a   21a  418b1c38             movl rbx,[r8+rdi*1]
0x280b68192d1e   21e  49891c08             REX.W movq [r8+rcx*1],rbx
0x280b68192d22   222  e929feffff           jmp 0x280b68192b50  <+0x50>
0x280b68192d27   227  8bd9                 movl rbx,rcx
0x280b68192d29   229  418b0c18             movl rcx,[r8+rbx*1]
0x280b68192d2d   22d  83c107               addl rcx,0x7
0x280b68192d30   230  83e1f8               andl rcx,0xf8
0x280b68192d33   233  8d7908               leal rdi,[rcx+0x8]
0x280b68192d36   236  41893c18             movl [r8+rbx*1],rdi
0x280b68192d3a   23a  c4c17b100408         vmovsd xmm0,[r8+rcx*1]
0x280b68192d40   240  8bd8                 movl rbx,rax
0x280b68192d42   242  c4c17b110418         vmovsd [r8+rbx*1],xmm0
0x280b68192d48   248  e903feffff           jmp 0x280b68192b50  <+0x50>
0x280b68192d4d   24d  488b7e3f             REX.W movq rdi,[rsi+0x3f]
0x280b68192d51   251  4c8b4637             REX.W movq r8,[rsi+0x37]
0x280b68192d55   255  448b4e0f             movl r9,[rsi+0xf]
0x280b68192d59   259  4d03ce               REX.W addq r9,r14
0x280b68192d5c   25c  448d1c9d00000000     leal r11,[rbx*4+0x0]
0x280b68192d64   264  83fb04               cmpl rbx,0x4
0x280b68192d67   267  0f8356000000         jnc 0x280b68192dc3  <+0x2c3>
0x280b68192d6d   26d  8bdb                 movl rbx,rbx
0x280b68192d6f   26f  42833c1f0e           cmpl [rdi+r11*1],0xe
0x280b68192d74   274  0f8544000000         jnz 0x280b68192dbe  <+0x2be>
0x280b68192d7a   27a  418b749907           movl rsi,[r9+rbx*4+0x7]
0x280b68192d7f   27f  4903f6               REX.W addq rsi,r14
0x280b68192d82   282  498b1cd8             REX.W movq rbx,[r8+rbx*8]
0x280b68192d86   286  488bd1               REX.W movq rdx,rcx
0x280b68192d89   289  ffd3                 call rbx
0x280b68192d8b   28b  e9c0fdffff           jmp 0x280b68192b50  <+0x50>
0x280b68192d90   290  488945e8             REX.W movq [rbp-0x18],rax
0x280b68192d94   294  48894de0             REX.W movq [rbp-0x20],rcx
0x280b68192d98   298  48895dd8             REX.W movq [rbp-0x28],rbx
0x280b68192d9c   29c  488955d0             REX.W movq [rbp-0x30],rdx
0x280b68192da0   2a0  e8cb35ffff           call 0x280b68186370  (jump table)    ;; wasm stub: WasmStackGuard
0x280b68192da5   2a5  488b45e8             REX.W movq rax,[rbp-0x18]
0x280b68192da9   2a9  488b4de0             REX.W movq rcx,[rbp-0x20]
0x280b68192dad   2ad  488b5dd8             REX.W movq rbx,[rbp-0x28]
0x280b68192db1   2b1  488b75f0             REX.W movq rsi,[rbp-0x10]
0x280b68192db5   2b5  488b55d0             REX.W movq rdx,[rbp-0x30]
0x280b68192db9   2b9  e95afdffff           jmp 0x280b68192b18  <+0x18>
0x280b68192dbe   2be  e8ad33ffff           call 0x280b68186170  (jump table)    ;; wasm stub: ThrowWasmTrapFuncSigMismatch
0x280b68192dc3   2c3  e8d833ffff           call 0x280b681861a0  (jump table)    ;; wasm stub: ThrowWasmTrapTableOutOfBounds
0x280b68192dc8   2c8  e84333ffff           call 0x280b68186110  (jump table)    ;; wasm stub: ThrowWasmTrapMemOutOfBounds
0x280b68192dcd   2cd  e83e33ffff           call 0x280b68186110  (jump table)    ;; wasm stub: ThrowWasmTrapMemOutOfBounds
0x280b68192dd2   2d2  e83933ffff           call 0x280b68186110  (jump table)    ;; wasm stub: ThrowWasmTrapMemOutOfBounds
0x280b68192dd7   2d7  e83433ffff           call 0x280b68186110  (jump table)    ;; wasm stub: ThrowWasmTrapMemOutOfBounds
0x280b68192ddc   2dc  e82f33ffff           call 0x280b68186110  (jump table)    ;; wasm stub: ThrowWasmTrapMemOutOfBounds
0x280b68192de1   2e1  e82a33ffff           call 0x280b68186110  (jump table)    ;; wasm stub: ThrowWasmTrapMemOutOfBounds
0x280b68192de6   2e6  e82533ffff           call 0x280b68186110  (jump table)    ;; wasm stub: ThrowWasmTrapMemOutOfBounds
0x280b68192deb   2eb  e82033ffff           call 0x280b68186110  (jump table)    ;; wasm stub: ThrowWasmTrapMemOutOfBounds
0x280b68192df0   2f0  e81b33ffff           call 0x280b68186110  (jump table)    ;; wasm stub: ThrowWasmTrapMemOutOfBounds
0x280b68192df5   2f5  e81633ffff           call 0x280b68186110  (jump table)    ;; wasm stub: ThrowWasmTrapMemOutOfBounds
0x280b68192dfa   2fa  e81133ffff           call 0x280b68186110  (jump table)    ;; wasm stub: ThrowWasmTrapMemOutOfBounds
0x280b68192dff   2ff  e80c33ffff           call 0x280b68186110  (jump table)    ;; wasm stub: ThrowWasmTrapMemOutOfBounds
0x280b68192e04   304  e80733ffff           call 0x280b68186110  (jump table)    ;; wasm stub: ThrowWasmTrapMemOutOfBounds
0x280b68192e09   309  e80233ffff           call 0x280b68186110  (jump table)    ;; wasm stub: ThrowWasmTrapMemOutOfBounds
0x280b68192e0e   30e  e8fd32ffff           call 0x280b68186110  (jump table)    ;; wasm stub: ThrowWasmTrapMemOutOfBounds
0x280b68192e13   313  e8f832ffff           call 0x280b68186110  (jump table)    ;; wasm stub: ThrowWasmTrapMemOutOfBounds
0x280b68192e18   318  e8f332ffff           call 0x280b68186110  (jump table)    ;; wasm stub: ThrowWasmTrapMemOutOfBounds
0x280b68192e1d   31d  e8ee32ffff           call 0x280b68186110  (jump table)    ;; wasm stub: ThrowWasmTrapMemOutOfBounds
0x280b68192e22   322  e8e932ffff           call 0x280b68186110  (jump table)    ;; wasm stub: ThrowWasmTrapMemOutOfBounds
0x280b68192e27   327  e8e432ffff           call 0x280b68186110  (jump table)    ;; wasm stub: ThrowWasmTrapMemOutOfBounds
0x280b68192e2c   32c  e8df32ffff           call 0x280b68186110  (jump table)    ;; wasm stub: ThrowWasmTrapMemOutOfBounds
0x280b68192e31   331  e8da32ffff           call 0x280b68186110  (jump table)    ;; wasm stub: ThrowWasmTrapMemOutOfBounds
0x280b68192e36   336  e8d532ffff           call 0x280b68186110  (jump table)    ;; wasm stub: ThrowWasmTrapMemOutOfBounds
0x280b68192e3b   33b  e8d032ffff           call 0x280b68186110  (jump table)    ;; wasm stub: ThrowWasmTrapMemOutOfBounds
0x280b68192e40   340  e8cb32ffff           call 0x280b68186110  (jump table)    ;; wasm stub: ThrowWasmTrapMemOutOfBounds
0x280b68192e45   345  e8c632ffff           call 0x280b68186110  (jump table)    ;; wasm stub: ThrowWasmTrapMemOutOfBounds
0x280b68192e4a   34a  e8c132ffff           call 0x280b68186110  (jump table)    ;; wasm stub: ThrowWasmTrapMemOutOfBounds
0x280b68192e4f   34f  e8bc32ffff           call 0x280b68186110  (jump table)    ;; wasm stub: ThrowWasmTrapMemOutOfBounds
0x280b68192e54   354  e8b732ffff           call 0x280b68186110  (jump table)    ;; wasm stub: ThrowWasmTrapMemOutOfBounds
0x280b68192e59   359  e8b232ffff           call 0x280b68186110  (jump table)    ;; wasm stub: ThrowWasmTrapMemOutOfBounds
0x280b68192e5e   35e  e8ad32ffff           call 0x280b68186110  (jump table)    ;; wasm stub: ThrowWasmTrapMemOutOfBounds
0x280b68192e63   363  e8a832ffff           call 0x280b68186110  (jump table)    ;; wasm stub: ThrowWasmTrapMemOutOfBounds
0x280b68192e68   368  e8a332ffff           call 0x280b68186110  (jump table)    ;; wasm stub: ThrowWasmTrapMemOutOfBounds
0x280b68192e6d   36d  e89e32ffff           call 0x280b68186110  (jump table)    ;; wasm stub: ThrowWasmTrapMemOutOfBounds
0x280b68192e72   372  e89932ffff           call 0x280b68186110  (jump table)    ;; wasm stub: ThrowWasmTrapMemOutOfBounds
0x280b68192e77   377  e89432ffff           call 0x280b68186110  (jump table)    ;; wasm stub: ThrowWasmTrapMemOutOfBounds
0x280b68192e7c   37c  e88f32ffff           call 0x280b68186110  (jump table)    ;; wasm stub: ThrowWasmTrapMemOutOfBounds
0x280b68192e81   381  e88a32ffff           call 0x280b68186110  (jump table)    ;; wasm stub: ThrowWasmTrapMemOutOfBounds
0x280b68192e86   386  e88532ffff           call 0x280b68186110  (jump table)    ;; wasm stub: ThrowWasmTrapMemOutOfBounds
0x280b68192e8b   38b  e88032ffff           call 0x280b68186110  (jump table)    ;; wasm stub: ThrowWasmTrapMemOutOfBounds
0x280b68192e90   390  e87b32ffff           call 0x280b68186110  (jump table)    ;; wasm stub: ThrowWasmTrapMemOutOfBounds
0x280b68192e95   395  e87632ffff           call 0x280b68186110  (jump table)    ;; wasm stub: ThrowWasmTrapMemOutOfBounds
0x280b68192e9a   39a  e87132ffff           call 0x280b68186110  (jump table)    ;; wasm stub: ThrowWasmTrapMemOutOfBounds
0x280b68192e9f   39f  e86c32ffff           call 0x280b68186110  (jump table)    ;; wasm stub: ThrowWasmTrapMemOutOfBounds
0x280b68192ea4   3a4  e86732ffff           call 0x280b68186110  (jump table)    ;; wasm stub: ThrowWasmTrapMemOutOfBounds
0x280b68192ea9   3a9  e86232ffff           call 0x280b68186110  (jump table)    ;; wasm stub: ThrowWasmTrapMemOutOfBounds
0x280b68192eae   3ae  e85d32ffff           call 0x280b68186110  (jump table)    ;; wasm stub: ThrowWasmTrapMemOutOfBounds
0x280b68192eb3   3b3  e85832ffff           call 0x280b68186110  (jump table)    ;; wasm stub: ThrowWasmTrapMemOutOfBounds
0x280b68192eb8   3b8  e85332ffff           call 0x280b68186110  (jump table)    ;; wasm stub: ThrowWasmTrapMemOutOfBounds
0x280b68192ebd   3bd  e84e32ffff           call 0x280b68186110  (jump table)    ;; wasm stub: ThrowWasmTrapMemOutOfBounds
0x280b68192ec2   3c2  e84932ffff           call 0x280b68186110  (jump table)    ;; wasm stub: ThrowWasmTrapMemOutOfBounds
0x280b68192ec7   3c7  e84432ffff           call 0x280b68186110  (jump table)    ;; wasm stub: ThrowWasmTrapMemOutOfBounds
0x280b68192ecc   3cc  e83f32ffff           call 0x280b68186110  (jump table)    ;; wasm stub: ThrowWasmTrapMemOutOfBounds
0x280b68192ed1   3d1  e83a32ffff           call 0x280b68186110  (jump table)    ;; wasm stub: ThrowWasmTrapMemOutOfBounds
0x280b68192ed6   3d6  e83532ffff           call 0x280b68186110  (jump table)    ;; wasm stub: ThrowWasmTrapMemOutOfBounds
0x280b68192edb   3db  e83032ffff           call 0x280b68186110  (jump table)    ;; wasm stub: ThrowWasmTrapMemOutOfBounds
0x280b68192ee0   3e0  e82b32ffff           call 0x280b68186110  (jump table)    ;; wasm stub: ThrowWasmTrapMemOutOfBounds
0x280b68192ee5   3e5  e82632ffff           call 0x280b68186110  (jump table)    ;; wasm stub: ThrowWasmTrapMemOutOfBounds
0x280b68192eea   3ea  e82132ffff           call 0x280b68186110  (jump table)    ;; wasm stub: ThrowWasmTrapMemOutOfBounds
0x280b68192eef   3ef  e81c32ffff           call 0x280b68186110  (jump table)    ;; wasm stub: ThrowWasmTrapMemOutOfBounds
0x280b68192ef4   3f4  e81732ffff           call 0x280b68186110  (jump table)    ;; wasm stub: ThrowWasmTrapMemOutOfBounds
0x280b68192ef9   3f9  e81232ffff           call 0x280b68186110  (jump table)    ;; wasm stub: ThrowWasmTrapMemOutOfBounds
0x280b68192efe   3fe  e80d32ffff           call 0x280b68186110  (jump table)    ;; wasm stub: ThrowWasmTrapMemOutOfBounds
0x280b68192f03   403  e80832ffff           call 0x280b68186110  (jump table)    ;; wasm stub: ThrowWasmTrapMemOutOfBounds
0x280b68192f08   408  e80332ffff           call 0x280b68186110  (jump table)    ;; wasm stub: ThrowWasmTrapMemOutOfBounds
0x280b68192f0d   40d  e8fe31ffff           call 0x280b68186110  (jump table)    ;; wasm stub: ThrowWasmTrapMemOutOfBounds
0x280b68192f12   412  e8f931ffff           call 0x280b68186110  (jump table)    ;; wasm stub: ThrowWasmTrapMemOutOfBounds
0x280b68192f17   417  e8f431ffff           call 0x280b68186110  (jump table)    ;; wasm stub: ThrowWasmTrapMemOutOfBounds
0x280b68192f1c   41c  90                   nop
0x280b68192f1d   41d  0f1f00               nop
0x280b68192f20   420  280b68192b38       jump table entry   56    ;; internal reference
0x280b68192f28   428  280b68192b55       jump table entry   85    ;; internal reference
0x280b68192f30   430  280b68192b72       jump table entry  114    ;; internal reference
0x280b68192f38   438  280b68192b8c       jump table entry  140    ;; internal reference
0x280b68192f40   440  280b68192bac       jump table entry  172    ;; internal reference
0x280b68192f48   448  280b68192bc9       jump table entry  201    ;; internal reference
0x280b68192f50   450  280b68192be6       jump table entry  230    ;; internal reference
0x280b68192f58   458  280b68192c07       jump table entry  263    ;; internal reference
0x280b68192f60   460  280b68192c25       jump table entry  293    ;; internal reference
0x280b68192f68   468  280b68192c46       jump table entry  326    ;; internal reference
0x280b68192f70   470  280b68192c64       jump table entry  356    ;; internal reference
0x280b68192f78   478  280b68192c87       jump table entry  391    ;; internal reference
0x280b68192f80   480  280b68192ca4       jump table entry  420    ;; internal reference
0x280b68192f88   488  280b68192cc7       jump table entry  455    ;; internal reference
0x280b68192f90   490  280b68192cea       jump table entry  490    ;; internal reference
0x280b68192f98   498  280b68192d0a       jump table entry  522    ;; internal reference
0x280b68192fa0   4a0  280b68192d27       jump table entry  551    ;; internal reference
0x280b68192fa8   4a8  280b68192d4d       jump table entry  589    ;; internal reference

Protected instructions:
 pc offset  land pad
       242       2c8
       23a       2cd
       236       2d2
       229       2d7
       21e       2dc
       21a       2e1
       216       2e6
       20e       2eb
       201       2f0
       1fa       2f5
       1f6       2fa
       1ee       2ff
       1e1       304
       1dd       309
       1d9       30e
       1cb       313
       1be       318
       1ba       31d
       1b6       322
       1a8       327
       19b       32c
       197       331
       193       336
       18b       33b
       17e       340
       17a       345
       176       34a
       168       34f
       15b       354
       156       359
       152       35e
       14a       363
       13d       368
       135       36d
       131       372
       129       377
       11c       37c
       117       381
       113       386
       10b       38b
        fe       390
        f6       395
        f2       39a
        ea       39f
        dd       3a4
        d9       3a9
        d5       3ae
        cd       3b3
        c3       3b8
        bc       3bd
        b8       3c2
        b0       3c7
        a6       3cc
        a2       3d1
        9e       3d6
        90       3db
        86       3e0
        82       3e5
        7e       3ea
        76       3ef
        6c       3f4
        65       3f9
        61       3fe
        59       403
        4c       408
        48       40d
        44       412
        3c       417

Source positions:
 pc offset  position
        3c        70
        44        78
        48        85
        4c        88
        59        97
        61       105
        65       112
        6c       115
        76       124
        7e       132
        82       139
        86       142
        90       205
        9e       219
        a2       226
        a6       229
        b0       151
        b8       159
        bc       166
        c3       169
        cd       178
        d5       186
        d9       193
        dd       196
        ea       238
        f2       246
        f6       253
        fe       256
       10b       265
       113       273
       117       280
       11c       283
       129       292
       131       300
       135       307
       13d       310
       14a       319
       152       327
       156       334
       15b       337
       168       346
       176       360
       17a       367
       17e       370
       18b       379
       193       387
       197       394
       19b       397
       1a8       406
       1b6       420
       1ba       427
       1be       430
       1cb       439
       1d9       453
       1dd       460
       1e1       463
       1ee       472
       1f6       480
       1fa       487
       201       490
       20e       499
       216       507
       21a       514
       21e       517
       229       526
       236       540
       23a       547
       242       550
       286       561
       290         0
       2be       561
       2c8       550
       2cd       547
       2d2       540
       2d7       526
       2dc       517
       2e1       514
       2e6       507
       2eb       499
       2f0       490
       2f5       487
       2fa       480
       2ff       472
       304       463
       309       460
       30e       453
       313       439
       318       430
       31d       427
       322       420
       327       406
       32c       397
       331       394
       336       387
       33b       379
       340       370
       345       367
       34a       360
       34f       346
       354       337
       359       334
       35e       327
       363       319
       368       310
       36d       307
       372       300
       377       292
       37c       283
       381       280
       386       273
       38b       265
       390       256
       395       253
       39a       246
       39f       238
       3a4       196
       3a9       193
       3ae       186
       3b3       178
       3b8       169
       3bd       166
       3c2       159
       3c7       151
       3cc       229
       3d1       226
       3d6       219
       3db       205
       3e0       142
       3e5       139
       3ea       132
       3ef       124
       3f4       115
       3f9       112
       3fe       105
       403        97
       408        88
       40d        85
       412        78
       417        70

Safepoints (entries = 1, byte size = 11)
0x280b68192d8b    28b  slots (sp->fp): 00000000

RelocInfo (size = 109)
0x280b68192da1  wasm stub call
0x280b68192dbf  wasm stub call
0x280b68192dc4  wasm stub call
0x280b68192dc9  wasm stub call
0x280b68192dce  wasm stub call
0x280b68192dd3  wasm stub call
0x280b68192dd8  wasm stub call
0x280b68192ddd  wasm stub call
0x280b68192de2  wasm stub call
0x280b68192de7  wasm stub call
0x280b68192dec  wasm stub call
0x280b68192df1  wasm stub call
0x280b68192df6  wasm stub call
0x280b68192dfb  wasm stub call
0x280b68192e00  wasm stub call
0x280b68192e05  wasm stub call
0x280b68192e0a  wasm stub call
0x280b68192e0f  wasm stub call
0x280b68192e14  wasm stub call
0x280b68192e19  wasm stub call
0x280b68192e1e  wasm stub call
0x280b68192e23  wasm stub call
0x280b68192e28  wasm stub call
0x280b68192e2d  wasm stub call
0x280b68192e32  wasm stub call
0x280b68192e37  wasm stub call
0x280b68192e3c  wasm stub call
0x280b68192e41  wasm stub call
0x280b68192e46  wasm stub call
0x280b68192e4b  wasm stub call
0x280b68192e50  wasm stub call
0x280b68192e55  wasm stub call
0x280b68192e5a  wasm stub call
0x280b68192e5f  wasm stub call
0x280b68192e64  wasm stub call
0x280b68192e69  wasm stub call
0x280b68192e6e  wasm stub call
0x280b68192e73  wasm stub call
0x280b68192e78  wasm stub call
0x280b68192e7d  wasm stub call
0x280b68192e82  wasm stub call
0x280b68192e87  wasm stub call
0x280b68192e8c  wasm stub call
0x280b68192e91  wasm stub call
0x280b68192e96  wasm stub call
0x280b68192e9b  wasm stub call
0x280b68192ea0  wasm stub call
0x280b68192ea5  wasm stub call
0x280b68192eaa  wasm stub call
0x280b68192eaf  wasm stub call
0x280b68192eb4  wasm stub call
0x280b68192eb9  wasm stub call
0x280b68192ebe  wasm stub call
0x280b68192ec3  wasm stub call
0x280b68192ec8  wasm stub call
0x280b68192ecd  wasm stub call
0x280b68192ed2  wasm stub call
0x280b68192ed7  wasm stub call
0x280b68192edc  wasm stub call
0x280b68192ee1  wasm stub call
0x280b68192ee6  wasm stub call
0x280b68192eeb  wasm stub call
0x280b68192ef0  wasm stub call
0x280b68192ef5  wasm stub call
0x280b68192efa  wasm stub call
0x280b68192eff  wasm stub call
0x280b68192f04  wasm stub call
0x280b68192f09  wasm stub call
0x280b68192f0e  wasm stub call
0x280b68192f13  wasm stub call
0x280b68192f18  wasm stub call
0x280b68192f20  internal reference
0x280b68192f28  internal reference
0x280b68192f30  internal reference
0x280b68192f38  internal reference
0x280b68192f40  internal reference
0x280b68192f48  internal reference
0x280b68192f50  internal reference
0x280b68192f58  internal reference
0x280b68192f60  internal reference
0x280b68192f68  internal reference
0x280b68192f70  internal reference
0x280b68192f78  internal reference
0x280b68192f80  internal reference
0x280b68192f88  internal reference
0x280b68192f90  internal reference
0x280b68192f98  internal reference
0x280b68192fa0  internal reference
0x280b68192fa8  internal reference

--- End code ---
--- WebAssembly code ---
name: __errno_location
index: 18
kind: wasm function
compiler: TurboFan
Body (size = 64 = 28 + 36 padding)
Instructions (size = 20)
0x280b68192780     0  55                   push rbp
0x280b68192781     1  4889e5               REX.W movq rbp,rsp
0x280b68192784     4  6a08                 push 0x8
0x280b68192786     6  56                   push rsi
0x280b68192787     7  b8980a0000           movl rax,0xa98
0x280b6819278c     c  488be5               REX.W movq rsp,rbp
0x280b6819278f     f  5d                   pop rbp
0x280b68192790    10  c3                   retl
0x280b68192791    11  90                   nop
0x280b68192792    12  6690                 nop

Safepoints (entries = 0, byte size = 8)

RelocInfo (size = 0)

--- End code ---
--- WebAssembly code ---
name: getpid
index: 33
kind: wasm function
compiler: TurboFan
Body (size = 64 = 56 + 8 padding)
Instructions (size = 44)
0x280b68192ac0     0  55                   push rbp
0x280b68192ac1     1  4889e5               REX.W movq rbp,rsp
0x280b68192ac4     4  6a08                 push 0x8
0x280b68192ac6     6  56                   push rsi
0x280b68192ac7     7  488b5e27             REX.W movq rbx,[rsi+0x27]
0x280b68192acb     b  483b23               REX.W cmpq rsp,[rbx]
0x280b68192ace     e  0f860a000000         jna 0x280b68192ade  <+0x1e>
0x280b68192ad4    14  e8bb35ffff           call 0x280b68186094  (jump table)    ;; internal wasm call
0x280b68192ad9    19  488be5               REX.W movq rsp,rbp
0x280b68192adc    1c  5d                   pop rbp
0x280b68192add    1d  c3                   retl
0x280b68192ade    1e  e88d38ffff           call 0x280b68186370  (jump table)    ;; wasm stub: WasmStackGuard
0x280b68192ae3    23  488b75f0             REX.W movq rsi,[rbp-0x10]
0x280b68192ae7    27  ebeb                 jmp 0x280b68192ad4  <+0x14>
0x280b68192ae9    29  90                   nop
0x280b68192aea    2a  6690                 nop

Source positions:
 pc offset  position
        14         1
        1e         0

Safepoints (entries = 1, byte size = 10)
0x280b68192ad9     19  slots (sp->fp): 00000000

RelocInfo (size = 3)
0x280b68192ad5  internal wasm call
0x280b68192adf  wasm stub call

--- End code ---
--- WebAssembly code ---
name: __unlockfile
index: 13
kind: wasm function
compiler: TurboFan
Body (size = 64 = 24 + 40 padding)
Instructions (size = 16)
0x280b68192fc0     0  55                   push rbp
0x280b68192fc1     1  4889e5               REX.W movq rbp,rsp
0x280b68192fc4     4  6a08                 push 0x8
0x280b68192fc6     6  56                   push rsi
0x280b68192fc7     7  488be5               REX.W movq rsp,rbp
0x280b68192fca     a  5d                   pop rbp
0x280b68192fcb     b  c3                   retl
0x280b68192fcc     c  90                   nop
0x280b68192fcd     d  0f1f00               nop

Safepoints (entries = 0, byte size = 8)

RelocInfo (size = 0)

--- End code ---
--- WebAssembly code ---
name: anonymous function
kind: wasm-to-js
Body (size = 384 = 332 + 52 padding)
Instructions (size = 312)
0x280b68193000     0  55                   push rbp
0x280b68193001     1  4889e5               REX.W movq rbp,rsp
0x280b68193004     4  6a0a                 push 0xa
0x280b68193006     6  56                   push rsi
0x280b68193007     7  4883ec38             REX.W subq rsp,0x38
0x280b6819300b     b  8b5e0b               movl rbx,[rsi+0xb]
0x280b6819300e     e  4903de               REX.W addq rbx,r14
0x280b68193011    11  8b7e0f               movl rdi,[rsi+0xf]
0x280b68193014    14  4903fe               REX.W addq rdi,r14
0x280b68193017    17  488b4e03             REX.W movq rcx,[rsi+0x3]
0x280b6819301b    1b  4c8b4603             REX.W movq r8,[rsi+0x3]
0x280b6819301f    1f  4d8b8048450000       REX.W movq r8,[r8+0x4548]
0x280b68193026    26  41c70000000000       movl [r8],0x0
0x280b6819302d    2d  448b470b             movl r8,[rdi+0xb]
0x280b68193031    31  4d03c6               REX.W addq r8,r14
0x280b68193034    34  488b8970010000       REX.W movq rcx,[rcx+0x170]
0x280b6819303b    3b  488975e8             REX.W movq [rbp-0x18],rsi
0x280b6819303f    3f  48895de0             REX.W movq [rbp-0x20],rbx
0x280b68193043    43  41f6401b60           testb [r8+0x1b],0x60
0x280b68193048    48  0f850c000000         jnz 0x280b6819305a  <+0x5a>
0x280b6819304e    4e  448b4313             movl r8,[rbx+0x13]
0x280b68193052    52  4d03c6               REX.W addq r8,r14
0x280b68193055    55  e903000000           jmp 0x280b6819305d  <+0x5d>
0x280b6819305a    5a  4c8bc1               REX.W movq r8,rcx
0x280b6819305d    5d  4c8bc8               REX.W movq r9,rax
0x280b68193060    60  4403c8               addl r9,rax
0x280b68193063    63  0f805a000000         jo 0x280b681930c3  <+0xc3>
0x280b68193069    69  4d63c9               REX.W movsxlq r9,r9
0x280b6819306c    6c  4c8bda               REX.W movq r11,rdx
0x280b6819306f    6f  4403da               addl r11,rdx
0x280b68193072    72  0f8080000000         jo 0x280b681930f8  <+0xf8>
0x280b68193078    78  4d63db               REX.W movsxlq r11,r11
0x280b6819307b    7b  448b670f             movl r12,[rdi+0xf]
0x280b6819307f    7f  4d03e6               REX.W addq r12,r14
0x280b68193082    82  4153                 push r11
0x280b68193084    84  4151                 push r9
0x280b68193086    86  4150                 push r8
0x280b68193088    88  b803000000           movl rax,0x3
0x280b6819308d    8d  488bd1               REX.W movq rdx,rcx
0x280b68193090    90  4c89e6               REX.W movq rsi,r12
0x280b68193093    93  8b4f17               movl rcx,[rdi+0x17]
0x280b68193096    96  4903ce               REX.W addq rcx,r14
0x280b68193099    99  488b490f             REX.W movq rcx,[rcx+0xf]
0x280b6819309d    9d  ffd1                 call rcx
0x280b6819309f    9f  a801                 test al,0x1
0x280b681930a1    a1  0f8581000000         jnz 0x280b68193128  <+0x128>
0x280b681930a7    a7  d1f8                 sarl rax, 1
0x280b681930a9    a9  488b5de8             REX.W movq rbx,[rbp-0x18]
0x280b681930ad    ad  488b5b03             REX.W movq rbx,[rbx+0x3]
0x280b681930b1    b1  488b9b48450000       REX.W movq rbx,[rbx+0x4548]
0x280b681930b8    b8  c70301000000         movl [rbx],0x1
0x280b681930be    be  488be5               REX.W movq rsp,rbp
0x280b681930c1    c1  5d                   pop rbp
0x280b681930c2    c2  c3                   retl
0x280b681930c3    c3  48897dd8             REX.W movq [rbp-0x28],rdi
0x280b681930c7    c7  4c8945d0             REX.W movq [rbp-0x30],r8
0x280b681930cb    cb  48894dc0             REX.W movq [rbp-0x40],rcx
0x280b681930cf    cf  488955b8             REX.W movq [rbp-0x48],rdx
0x280b681930d3    d3  e85831ffff           call 0x280b68186230  (jump table)    ;; wasm stub: WasmInt32ToHeapNumber
0x280b681930d8    d8  4c8bc8               REX.W movq r9,rax
0x280b681930db    db  488b75e8             REX.W movq rsi,[rbp-0x18]
0x280b681930df    df  488b5de0             REX.W movq rbx,[rbp-0x20]
0x280b681930e3    e3  488b7dd8             REX.W movq rdi,[rbp-0x28]
0x280b681930e7    e7  4c8b45d0             REX.W movq r8,[rbp-0x30]
0x280b681930eb    eb  488b4dc0             REX.W movq rcx,[rbp-0x40]
0x280b681930ef    ef  488b55b8             REX.W movq rdx,[rbp-0x48]
0x280b681930f3    f3  e974ffffff           jmp 0x280b6819306c  <+0x6c>
0x280b681930f8    f8  48897dd8             REX.W movq [rbp-0x28],rdi
0x280b681930fc    fc  4c8945d0             REX.W movq [rbp-0x30],r8
0x280b68193100   100  4c894dc8             REX.W movq [rbp-0x38],r9
0x280b68193104   104  48894dc0             REX.W movq [rbp-0x40],rcx
0x280b68193108   108  488bc2               REX.W movq rax,rdx
0x280b6819310b   10b  e82031ffff           call 0x280b68186230  (jump table)    ;; wasm stub: WasmInt32ToHeapNumber
0x280b68193110   110  4c8bd8               REX.W movq r11,rax
0x280b68193113   113  488b7dd8             REX.W movq rdi,[rbp-0x28]
0x280b68193117   117  4c8b45d0             REX.W movq r8,[rbp-0x30]
0x280b6819311b   11b  4c8b4dc8             REX.W movq r9,[rbp-0x38]
0x280b6819311f   11f  488b4dc0             REX.W movq rcx,[rbp-0x40]
0x280b68193123   123  e953ffffff           jmp 0x280b6819307b  <+0x7b>
0x280b68193128   128  488b75e0             REX.W movq rsi,[rbp-0x20]
0x280b6819312c   12c  e80f31ffff           call 0x280b68186240  (jump table)    ;; wasm stub: WasmTaggedNonSmiToInt32
0x280b68193131   131  e973ffffff           jmp 0x280b681930a9  <+0xa9>
0x280b68193136   136  90                   nop
0x280b68193137   137  90                   nop

Safepoints (entries = 4, byte size = 20)
0x280b6819309f     9f  slots (sp->fp): 00000110
0x280b681930d8     d8  slots (sp->fp): 00011110
0x280b68193110    110  slots (sp->fp): 00111110
0x280b68193131    131  slots (sp->fp): 00000010

RelocInfo (size = 5)
0x280b681930d4  wasm stub call
0x280b6819310c  wasm stub call
0x280b6819312d  wasm stub call

--- End code ---
time = 	45000
