--- WebAssembly code ---
name: getpid
index: 33
kind: wasm function
compiler: Liftoff
Body (size = 64 = 64 + 0 padding)
Instructions (size = 52)
0x8aec53f87c0     0  55                   push rbp
0x8aec53f87c1     1  4889e5               REX.W movq rbp,rsp
0x8aec53f87c4     4  6a08                 push 0x8
0x8aec53f87c6     6  56                   push rsi
0x8aec53f87c7     7  4881ec20000000       REX.W subq rsp,0x20
0x8aec53f87ce     e  488b4627             REX.W movq rax,[rsi+0x27]
0x8aec53f87d2    12  483b20               REX.W cmpq rsp,[rax]
0x8aec53f87d5    15  0f860e000000         jna 0x8aec53f87e9  <+0x29>
0x8aec53f87db    1b  488b75f0             REX.W movq rsi,[rbp-0x10]
0x8aec53f87df    1f  e8b0f8ffff           call 0x8aec53f8094  (jump table)
0x8aec53f87e4    24  488be5               REX.W movq rsp,rbp
0x8aec53f87e7    27  5d                   pop rbp
0x8aec53f87e8    28  c3                   retl
0x8aec53f87e9    29  e882fbffff           call 0x8aec53f8370  (jump table)
0x8aec53f87ee    2e  488b75f0             REX.W movq rsi,[rbp-0x10]
0x8aec53f87f2    32  ebe7                 jmp 0x8aec53f87db  <+0x1b>

Source positions:
 pc offset  position
        1f         1  statement
        29         0  statement

Safepoints (entries = 1, byte size = 10)
0x8aec53f87e4     24  slots (sp->fp): 00000000

RelocInfo (size = 0)

--- End code ---
--- WebAssembly code ---
name: wcrtomb
index: 36
kind: wasm function
compiler: Liftoff
Body (size = 640 = 628 + 12 padding)
Instructions (size = 616)
0x8aec53f8800     0  55                   push rbp
0x8aec53f8801     1  4889e5               REX.W movq rbp,rsp
0x8aec53f8804     4  6a08                 push 0x8
0x8aec53f8806     6  56                   push rsi
0x8aec53f8807     7  4881ec30000000       REX.W subq rsp,0x30
0x8aec53f880e     e  488b5e27             REX.W movq rbx,[rsi+0x27]
0x8aec53f8812    12  483b23               REX.W cmpq rsp,[rbx]
0x8aec53f8815    15  0f86f1010000         jna 0x8aec53f8a0c  <+0x20c>
0x8aec53f881b    1b  85c0                 testl rax,rax
0x8aec53f881d    1d  0f84cc010000         jz 0x8aec53f89ef  <+0x1ef>
0x8aec53f8823    23  bb01000000           movl rbx,0x1
0x8aec53f8828    28  83fa7f               cmpl rdx,0x7f
0x8aec53f882b    2b  0f8705000000         ja 0x8aec53f8836  <+0x36>
0x8aec53f8831    31  e9c5010000           jmp 0x8aec53f89fb  <+0x1fb>
0x8aec53f8836    36  895dc8               movl [rbp-0x38],rbx
0x8aec53f8839    39  894dcc               movl [rbp-0x34],rcx
0x8aec53f883c    3c  8955d0               movl [rbp-0x30],rdx
0x8aec53f883f    3f  8945d4               movl [rbp-0x2c],rax
0x8aec53f8842    42  488b75f0             REX.W movq rsi,[rbp-0x10]
0x8aec53f8846    46  e853f8ffff           call 0x8aec53f809e  (jump table)
0x8aec53f884b    4b  488b75f0             REX.W movq rsi,[rbp-0x10]
0x8aec53f884f    4f  488b4e17             REX.W movq rcx,[rsi+0x17]
0x8aec53f8853    53  8b540158             movl rdx,[rcx+rax*1+0x58]
0x8aec53f8857    57  8b0411               movl rax,[rcx+rdx*1]
0x8aec53f885a    5a  85c0                 testl rax,rax
0x8aec53f885c    5c  0f8540000000         jnz 0x8aec53f88a2  <+0xa2>
0x8aec53f8862    62  8b45d0               movl rax,[rbp-0x30]
0x8aec53f8865    65  83e080               andl rax,0x80
0x8aec53f8868    68  3d80df0000           cmp rax,0xdf80
0x8aec53f886d    6d  0f8511000000         jnz 0x8aec53f8884  <+0x84>
0x8aec53f8873    73  8b45d4               movl rax,[rbp-0x2c]
0x8aec53f8876    76  8b4dcc               movl rcx,[rbp-0x34]
0x8aec53f8879    79  8b55d0               movl rdx,[rbp-0x30]
0x8aec53f887c    7c  8b5dc8               movl rbx,[rbp-0x38]
0x8aec53f887f    7f  e977010000           jmp 0x8aec53f89fb  <+0x1fb>
0x8aec53f8884    84  488b75f0             REX.W movq rsi,[rbp-0x10]
0x8aec53f8888    88  e8bdf7ffff           call 0x8aec53f804a  (jump table)
0x8aec53f888d    8d  b919000000           movl rcx,0x19
0x8aec53f8892    92  488b75f0             REX.W movq rsi,[rbp-0x10]
0x8aec53f8896    96  488b5617             REX.W movq rdx,[rsi+0x17]
0x8aec53f889a    9a  890c02               movl [rdx+rax*1],rcx
0x8aec53f889d    9d  e93a010000           jmp 0x8aec53f89dc  <+0x1dc>
0x8aec53f88a2    a2  8b45d0               movl rax,[rbp-0x30]
0x8aec53f88a5    a5  3dff070000           cmp rax,0x7ff
0x8aec53f88aa    aa  0f872f000000         ja 0x8aec53f88df  <+0xdf>
0x8aec53f88b0    b0  8b45d4               movl rax,[rbp-0x2c]
0x8aec53f88b3    b3  8b55d0               movl rdx,[rbp-0x30]
0x8aec53f88b6    b6  83e23f               andl rdx,0x3f
0x8aec53f88b9    b9  81ca80000000         orl rdx,0x80
0x8aec53f88bf    bf  88540101             movb [rcx+rax*1+0x1],dl
0x8aec53f88c3    c3  8b45d4               movl rax,[rbp-0x2c]
0x8aec53f88c6    c6  8b55d0               movl rdx,[rbp-0x30]
0x8aec53f88c9    c9  c1ea06               shrl rdx, 6
0x8aec53f88cc    cc  81cac0000000         orl rdx,0xc0
0x8aec53f88d2    d2  881401               movb [rcx+rax*1],dl
0x8aec53f88d5    d5  b802000000           movl rax,0x2
0x8aec53f88da    da  488be5               REX.W movq rsp,rbp
0x8aec53f88dd    dd  5d                   pop rbp
0x8aec53f88de    de  c3                   retl
0x8aec53f88df    df  8b45d0               movl rax,[rbp-0x30]
0x8aec53f88e2    e2  2500e0ffff           and rax,0xffffe000
0x8aec53f88e7    e7  ba00e00000           movl rdx,0xe000
0x8aec53f88ec    ec  3bc2                 cmpl rax,rdx
0x8aec53f88ee    ee  0f95c0               setnzl al
0x8aec53f88f1    f1  0fb6c0               movzxbl rax,rax
0x8aec53f88f4    f4  8b55d0               movl rdx,[rbp-0x30]
0x8aec53f88f7    f7  bb00d80000           movl rbx,0xd800
0x8aec53f88fc    fc  3bd3                 cmpl rdx,rbx
0x8aec53f88fe    fe  0f93c2               setncl dl
0x8aec53f8901   101  0fb6d2               movzxbl rdx,rdx
0x8aec53f8904   104  23c2                 andl rax,rdx
0x8aec53f8906   106  85c0                 testl rax,rax
0x8aec53f8908   108  0f8545000000         jnz 0x8aec53f8953  <+0x153>
0x8aec53f890e   10e  8b45d4               movl rax,[rbp-0x2c]
0x8aec53f8911   111  8b55d0               movl rdx,[rbp-0x30]
0x8aec53f8914   114  83e23f               andl rdx,0x3f
0x8aec53f8917   117  81ca80000000         orl rdx,0x80
0x8aec53f891d   11d  88540102             movb [rcx+rax*1+0x2],dl
0x8aec53f8921   121  8b45d4               movl rax,[rbp-0x2c]
0x8aec53f8924   124  8b55d0               movl rdx,[rbp-0x30]
0x8aec53f8927   127  c1ea0c               shrl rdx, 12
0x8aec53f892a   12a  81cae0000000         orl rdx,0xe0
0x8aec53f8930   130  881401               movb [rcx+rax*1],dl
0x8aec53f8933   133  8b45d4               movl rax,[rbp-0x2c]
0x8aec53f8936   136  8b55d0               movl rdx,[rbp-0x30]
0x8aec53f8939   139  c1ea06               shrl rdx, 6
0x8aec53f893c   13c  83e23f               andl rdx,0x3f
0x8aec53f893f   13f  81ca80000000         orl rdx,0x80
0x8aec53f8945   145  88540101             movb [rcx+rax*1+0x1],dl
0x8aec53f8949   149  b803000000           movl rax,0x3
0x8aec53f894e   14e  488be5               REX.W movq rsp,rbp
0x8aec53f8951   151  5d                   pop rbp
0x8aec53f8952   152  c3                   retl
0x8aec53f8953   153  8b45d0               movl rax,[rbp-0x30]
0x8aec53f8956   156  ba00000100           movl rdx,0x10000
0x8aec53f895b   15b  2bc2                 subl rax,rdx
0x8aec53f895d   15d  3dffff0f00           cmp rax,0xfffff
0x8aec53f8962   162  0f875b000000         ja 0x8aec53f89c3  <+0x1c3>
0x8aec53f8968   168  8b45d4               movl rax,[rbp-0x2c]
0x8aec53f896b   16b  8b55d0               movl rdx,[rbp-0x30]
0x8aec53f896e   16e  83e23f               andl rdx,0x3f
0x8aec53f8971   171  81ca80000000         orl rdx,0x80
0x8aec53f8977   177  88540103             movb [rcx+rax*1+0x3],dl
0x8aec53f897b   17b  8b45d4               movl rax,[rbp-0x2c]
0x8aec53f897e   17e  8b55d0               movl rdx,[rbp-0x30]
0x8aec53f8981   181  c1ea12               shrl rdx, 18
0x8aec53f8984   184  81caf0000000         orl rdx,0xf0
0x8aec53f898a   18a  881401               movb [rcx+rax*1],dl
0x8aec53f898d   18d  8b45d4               movl rax,[rbp-0x2c]
0x8aec53f8990   190  8b55d0               movl rdx,[rbp-0x30]
0x8aec53f8993   193  c1ea06               shrl rdx, 6
0x8aec53f8996   196  83e23f               andl rdx,0x3f
0x8aec53f8999   199  81ca80000000         orl rdx,0x80
0x8aec53f899f   19f  88540102             movb [rcx+rax*1+0x2],dl
0x8aec53f89a3   1a3  8b45d4               movl rax,[rbp-0x2c]
0x8aec53f89a6   1a6  8b55d0               movl rdx,[rbp-0x30]
0x8aec53f89a9   1a9  c1ea0c               shrl rdx, 12
0x8aec53f89ac   1ac  83e23f               andl rdx,0x3f
0x8aec53f89af   1af  81ca80000000         orl rdx,0x80
0x8aec53f89b5   1b5  88540101             movb [rcx+rax*1+0x1],dl
0x8aec53f89b9   1b9  b804000000           movl rax,0x4
0x8aec53f89be   1be  488be5               REX.W movq rsp,rbp
0x8aec53f89c1   1c1  5d                   pop rbp
0x8aec53f89c2   1c2  c3                   retl
0x8aec53f89c3   1c3  488b75f0             REX.W movq rsi,[rbp-0x10]
0x8aec53f89c7   1c7  e87ef6ffff           call 0x8aec53f804a  (jump table)
0x8aec53f89cc   1cc  b919000000           movl rcx,0x19
0x8aec53f89d1   1d1  488b75f0             REX.W movq rsi,[rbp-0x10]
0x8aec53f89d5   1d5  488b5617             REX.W movq rdx,[rsi+0x17]
0x8aec53f89d9   1d9  890c02               movl [rdx+rax*1],rcx
0x8aec53f89dc   1dc  8b45d4               movl rax,[rbp-0x2c]
0x8aec53f89df   1df  8b4dcc               movl rcx,[rbp-0x34]
0x8aec53f89e2   1e2  8b55d0               movl rdx,[rbp-0x30]
0x8aec53f89e5   1e5  bbffffffff           movl rbx,0xffffffff
0x8aec53f89ea   1ea  e905000000           jmp 0x8aec53f89f4  <+0x1f4>
0x8aec53f89ef   1ef  bb01000000           movl rbx,0x1
0x8aec53f89f4   1f4  8bc3                 movl rax,rbx
0x8aec53f89f6   1f6  488be5               REX.W movq rsp,rbp
0x8aec53f89f9   1f9  5d                   pop rbp
0x8aec53f89fa   1fa  c3                   retl
0x8aec53f89fb   1fb  488b7e17             REX.W movq rdi,[rsi+0x17]
0x8aec53f89ff   1ff  881407               movb [rdi+rax*1],dl
0x8aec53f8a02   202  b801000000           movl rax,0x1
0x8aec53f8a07   207  488be5               REX.W movq rsp,rbp
0x8aec53f8a0a   20a  5d                   pop rbp
0x8aec53f8a0b   20b  c3                   retl
0x8aec53f8a0c   20c  50                   push rax
0x8aec53f8a0d   20d  51                   push rcx
0x8aec53f8a0e   20e  52                   push rdx
0x8aec53f8a0f   20f  e85cf9ffff           call 0x8aec53f8370  (jump table)
0x8aec53f8a14   214  5a                   pop rdx
0x8aec53f8a15   215  59                   pop rcx
0x8aec53f8a16   216  58                   pop rax
0x8aec53f8a17   217  488b75f0             REX.W movq rsi,[rbp-0x10]
0x8aec53f8a1b   21b  e9fbfdffff           jmp 0x8aec53f881b  <+0x1b>
0x8aec53f8a20   220  e8ebf6ffff           call 0x8aec53f8110  (jump table)
0x8aec53f8a25   225  e8e6f6ffff           call 0x8aec53f8110  (jump table)
0x8aec53f8a2a   22a  e8e1f6ffff           call 0x8aec53f8110  (jump table)
0x8aec53f8a2f   22f  e8dcf6ffff           call 0x8aec53f8110  (jump table)
0x8aec53f8a34   234  e8d7f6ffff           call 0x8aec53f8110  (jump table)
0x8aec53f8a39   239  e8d2f6ffff           call 0x8aec53f8110  (jump table)
0x8aec53f8a3e   23e  e8cdf6ffff           call 0x8aec53f8110  (jump table)
0x8aec53f8a43   243  e8c8f6ffff           call 0x8aec53f8110  (jump table)
0x8aec53f8a48   248  e8c3f6ffff           call 0x8aec53f8110  (jump table)
0x8aec53f8a4d   24d  e8bef6ffff           call 0x8aec53f8110  (jump table)
0x8aec53f8a52   252  e8b9f6ffff           call 0x8aec53f8110  (jump table)
0x8aec53f8a57   257  e8b4f6ffff           call 0x8aec53f8110  (jump table)
0x8aec53f8a5c   25c  e8aff6ffff           call 0x8aec53f8110  (jump table)
0x8aec53f8a61   261  e8aaf6ffff           call 0x8aec53f8110  (jump table)
0x8aec53f8a66   266  6690                 nop

Protected instructions:
 pc offset  land pad
        53       220
        57       225
        9a       22a
        bf       22f
        d2       234
       11d       239
       130       23e
       145       243
       177       248
       18a       24d
       19f       252
       1b5       257
       1d9       25c
       1ff       261

Source positions:
 pc offset  position
        46        23  statement
        88        47  statement
       1c7       248  statement
       20f         0  statement
       220        25  statement
       225        28  statement
       22a        51  statement
       22f        76  statement
       234        90  statement
       239       130  statement
       23e       144  statement
       243       161  statement
       248       193  statement
       24d       207  statement
       252       224  statement
       257       241  statement
       25c       252  statement
       261       269  statement

Safepoints (entries = 1, byte size = 11)
0x8aec53f884b     4b  slots (sp->fp): 0000000000000000

RelocInfo (size = 0)

--- End code ---
--- WebAssembly code ---
name: shl_simd(unsigned char*, unsigned char*, unsigned int, int)
index: 5
kind: wasm function
compiler: Liftoff
Body (size = 3712 = 3712 + 0 padding)
Instructions (size = 3696)
0x8aec53f8a80     0  55                   push rbp
0x8aec53f8a81     1  4889e5               REX.W movq rbp,rsp
0x8aec53f8a84     4  6a08                 push 0x8
0x8aec53f8a86     6  56                   push rsi
0x8aec53f8a87     7  4881ecb8000000       REX.W subq rsp,0xb8
0x8aec53f8a8e     e  50                   push rax
0x8aec53f8a8f     f  51                   push rcx
0x8aec53f8a90    10  57                   push rdi
0x8aec53f8a91    11  488dbd50ffffff       REX.W leaq rdi,[rbp-0xb0]
0x8aec53f8a98    18  33c0                 xorl rax,rax
0x8aec53f8a9a    1a  b91e000000           movl rcx,0x1e
0x8aec53f8a9f    1f  f3ab                 rep stosl
0x8aec53f8aa1    21  5f                   pop rdi
0x8aec53f8aa2    22  59                   pop rcx
0x8aec53f8aa3    23  58                   pop rax
0x8aec53f8aa4    24  488b7e27             REX.W movq rdi,[rsi+0x27]
0x8aec53f8aa8    28  483b27               REX.W cmpq rsp,[rdi]
0x8aec53f8aab    2b  0f868b0d0000         jna 0x8aec53f983c  <+0xdbc>
0x8aec53f8ab1    31  8bf9                 movl rdi,rcx
0x8aec53f8ab3    33  83e707               andl rdi,0x7
0x8aec53f8ab6    36  33c9                 xorl rcx,rcx
0x8aec53f8ab8    38  83fb10               cmpl rbx,0x10
0x8aec53f8abb    3b  0f8d05000000         jge 0x8aec53f8ac6  <+0x46>
0x8aec53f8ac1    41  e9d00b0000           jmp 0x8aec53f9696  <+0xc16>
0x8aec53f8ac6    46  41b910000000         movl r9,0x10
0x8aec53f8acc    4c  41f7d9               negl r9
0x8aec53f8acf    4f  4403cb               addl r9,rbx
0x8aec53f8ad2    52  418bf1               movl rsi,r9
0x8aec53f8ad5    55  c1ee04               shrl rsi, 4
0x8aec53f8ad8    58  83c601               addl rsi,0x1
0x8aec53f8adb    5b  8945d4               movl [rbp-0x2c],rax
0x8aec53f8ade    5e  8bc6                 movl rax,rsi
0x8aec53f8ae0    60  83e003               andl rax,0x3
0x8aec53f8ae3    63  c5796eff             vmovd xmm15,rdi
0x8aec53f8ae7    67  c4c27978c7           vpbroadcastb xmm0,xmm15
0x8aec53f8aec    6c  4183f930             cmpl r9,0x30
0x8aec53f8af0    70  0f82c1080000         jc 0x8aec53f93b7  <+0x937>
0x8aec53f8af6    76  894dcc               movl [rbp-0x34],rcx
0x8aec53f8af9    79  8bce                 movl rcx,rsi
0x8aec53f8afb    7b  81e1fcffff1f         andl rcx,0x1ffffffc
0x8aec53f8b01    81  8955d0               movl [rbp-0x30],rdx
0x8aec53f8b04    84  895dc8               movl [rbp-0x38],rbx
0x8aec53f8b07    87  c5fa7f45a8           vmovdqu [rbp-0x58],xmm0
0x8aec53f8b0c    8c  44894da4             movl [rbp-0x5c],r9
0x8aec53f8b10    90  8975a0               movl [rbp-0x60],rsi
0x8aec53f8b13    93  897d9c               movl [rbp-0x64],rdi
0x8aec53f8b16    96  89855cffffff         movl [rbp-0xa4],rax
0x8aec53f8b1c    9c  898d50ffffff         movl [rbp-0xb0],rcx
0x8aec53f8b22    a2  488b75f0             REX.W movq rsi,[rbp-0x10]
0x8aec53f8b26    a6  488b4627             REX.W movq rax,[rsi+0x27]
0x8aec53f8b2a    aa  483b20               REX.W cmpq rsp,[rax]
0x8aec53f8b2d    ad  0f861f0d0000         jna 0x8aec53f9852  <+0xdd2>
0x8aec53f8b33    b3  8b45d0               movl rax,[rbp-0x30]
0x8aec53f8b36    b6  8b4dcc               movl rcx,[rbp-0x34]
0x8aec53f8b39    b9  03c1                 addl rax,rcx
0x8aec53f8b3b    bb  8b4dd4               movl rcx,[rbp-0x2c]
0x8aec53f8b3e    be  8b55cc               movl rdx,[rbp-0x34]
0x8aec53f8b41    c1  03ca                 addl rcx,rdx
0x8aec53f8b43    c3  488b5617             REX.W movq rdx,[rsi+0x17]
0x8aec53f8b47    c7  c5fa6f040a           vmovdqu xmm0,[rdx+rcx*1]
0x8aec53f8b4c    cc  c4e37914c100         vpextrb cl,xmm0,0x0
0x8aec53f8b52    d2  c5fa6f4da8           vmovdqu xmm1,[rbp-0x58]
0x8aec53f8b57    d7  c4e37914cb00         vpextrb bl,xmm1,0x0
0x8aec53f8b5d    dd  448bd1               movl r10,rcx
0x8aec53f8b60    e0  8bcb                 movl rcx,rbx
0x8aec53f8b62    e2  41d3e2               shll r10, cl
0x8aec53f8b65    e5  418bca               movl rcx,r10
0x8aec53f8b68    e8  c5796ef9             vmovd xmm15,rcx
0x8aec53f8b6c    ec  c4c27978cf           vpbroadcastb xmm1,xmm15
0x8aec53f8b71    f1  c4e37914c101         vpextrb cl,xmm0,0x1
0x8aec53f8b77    f7  c5fa6f55a8           vmovdqu xmm2,[rbp-0x58]
0x8aec53f8b7c    fc  c4e37914d701         vpextrb dil,xmm2,0x1
0x8aec53f8b82   102  448bd1               movl r10,rcx
0x8aec53f8b85   105  8bcf                 movl rcx,rdi
0x8aec53f8b87   107  41d3e2               shll r10, cl
0x8aec53f8b8a   10a  418bca               movl rcx,r10
0x8aec53f8b8d   10d  c4e37120c901         vpinsrb xmm1,xmm1,cl,0x1
0x8aec53f8b93   113  c4e37914c102         vpextrb cl,xmm0,0x2
0x8aec53f8b99   119  c5fa6f55a8           vmovdqu xmm2,[rbp-0x58]
0x8aec53f8b9e   11e  c4c37914d102         vpextrb r9l,xmm2,0x2
0x8aec53f8ba4   124  448bd1               movl r10,rcx
0x8aec53f8ba7   127  418bc9               movl rcx,r9
0x8aec53f8baa   12a  41d3e2               shll r10, cl
0x8aec53f8bad   12d  418bca               movl rcx,r10
0x8aec53f8bb0   130  c4e37120c902         vpinsrb xmm1,xmm1,cl,0x2
0x8aec53f8bb6   136  c4e37914c103         vpextrb cl,xmm0,0x3
0x8aec53f8bbc   13c  c5fa6f55a8           vmovdqu xmm2,[rbp-0x58]
0x8aec53f8bc1   141  c4e37914d603         vpextrb sil,xmm2,0x3
0x8aec53f8bc7   147  448bd1               movl r10,rcx
0x8aec53f8bca   14a  8bce                 movl rcx,rsi
0x8aec53f8bcc   14c  41d3e2               shll r10, cl
0x8aec53f8bcf   14f  418bca               movl rcx,r10
0x8aec53f8bd2   152  c4e37120c903         vpinsrb xmm1,xmm1,cl,0x3
0x8aec53f8bd8   158  c4e37914c104         vpextrb cl,xmm0,0x4
0x8aec53f8bde   15e  c5fa6f55a8           vmovdqu xmm2,[rbp-0x58]
0x8aec53f8be3   163  c4e37914d204         vpextrb dl,xmm2,0x4
0x8aec53f8be9   169  448bd1               movl r10,rcx
0x8aec53f8bec   16c  8bca                 movl rcx,rdx
0x8aec53f8bee   16e  41d3e2               shll r10, cl
0x8aec53f8bf1   171  418bca               movl rcx,r10
0x8aec53f8bf4   174  c4e37120c904         vpinsrb xmm1,xmm1,cl,0x4
0x8aec53f8bfa   17a  c4e37914c105         vpextrb cl,xmm0,0x5
0x8aec53f8c00   180  c5fa6f55a8           vmovdqu xmm2,[rbp-0x58]
0x8aec53f8c05   185  89558c               movl [rbp-0x74],rdx
0x8aec53f8c08   188  c4e37914d205         vpextrb dl,xmm2,0x5
0x8aec53f8c0e   18e  448bd1               movl r10,rcx
0x8aec53f8c11   191  8bca                 movl rcx,rdx
0x8aec53f8c13   193  41d3e2               shll r10, cl
0x8aec53f8c16   196  418bca               movl rcx,r10
0x8aec53f8c19   199  c4e37120c905         vpinsrb xmm1,xmm1,cl,0x5
0x8aec53f8c1f   19f  c4e37914c106         vpextrb cl,xmm0,0x6
0x8aec53f8c25   1a5  c5fa6f55a8           vmovdqu xmm2,[rbp-0x58]
0x8aec53f8c2a   1aa  895da4               movl [rbp-0x5c],rbx
0x8aec53f8c2d   1ad  c4e37914d306         vpextrb bl,xmm2,0x6
0x8aec53f8c33   1b3  448bd1               movl r10,rcx
0x8aec53f8c36   1b6  8bcb                 movl rcx,rbx
0x8aec53f8c38   1b8  41d3e2               shll r10, cl
0x8aec53f8c3b   1bb  418bca               movl rcx,r10
0x8aec53f8c3e   1be  c4e37120c906         vpinsrb xmm1,xmm1,cl,0x6
0x8aec53f8c44   1c4  c4e37914c107         vpextrb cl,xmm0,0x7
0x8aec53f8c4a   1ca  c5fa6f55a8           vmovdqu xmm2,[rbp-0x58]
0x8aec53f8c4f   1cf  897590               movl [rbp-0x70],rsi
0x8aec53f8c52   1d2  c4e37914d607         vpextrb sil,xmm2,0x7
0x8aec53f8c58   1d8  448bd1               movl r10,rcx
0x8aec53f8c5b   1db  8bce                 movl rcx,rsi
0x8aec53f8c5d   1dd  41d3e2               shll r10, cl
0x8aec53f8c60   1e0  418bca               movl rcx,r10
0x8aec53f8c63   1e3  c4e37120c907         vpinsrb xmm1,xmm1,cl,0x7
0x8aec53f8c69   1e9  c4e37914c108         vpextrb cl,xmm0,0x8
0x8aec53f8c6f   1ef  c5fa6f55a8           vmovdqu xmm2,[rbp-0x58]
0x8aec53f8c74   1f4  897da0               movl [rbp-0x60],rdi
0x8aec53f8c77   1f7  c4e37914d708         vpextrb dil,xmm2,0x8
0x8aec53f8c7d   1fd  448bd1               movl r10,rcx
0x8aec53f8c80   200  8bcf                 movl rcx,rdi
0x8aec53f8c82   202  41d3e2               shll r10, cl
0x8aec53f8c85   205  418bca               movl rcx,r10
0x8aec53f8c88   208  c4e37120c908         vpinsrb xmm1,xmm1,cl,0x8
0x8aec53f8c8e   20e  c4e37914c109         vpextrb cl,xmm0,0x9
0x8aec53f8c94   214  c5fa6f55a8           vmovdqu xmm2,[rbp-0x58]
0x8aec53f8c99   219  44894d98             movl [rbp-0x68],r9
0x8aec53f8c9d   21d  c4c37914d109         vpextrb r9l,xmm2,0x9
0x8aec53f8ca3   223  448bd1               movl r10,rcx
0x8aec53f8ca6   226  418bc9               movl rcx,r9
0x8aec53f8ca9   229  41d3e2               shll r10, cl
0x8aec53f8cac   22c  418bca               movl rcx,r10
0x8aec53f8caf   22f  c4e37120c909         vpinsrb xmm1,xmm1,cl,0x9
0x8aec53f8cb5   235  c4e37914c10a         vpextrb cl,xmm0,0xa
0x8aec53f8cbb   23b  c5fa6f55a8           vmovdqu xmm2,[rbp-0x58]
0x8aec53f8cc0   240  89854cffffff         movl [rbp-0xb4],rax
0x8aec53f8cc6   246  c4e37914d00a         vpextrb al,xmm2,0xa
0x8aec53f8ccc   24c  448bd1               movl r10,rcx
0x8aec53f8ccf   24f  8bc8                 movl rcx,rax
0x8aec53f8cd1   251  41d3e2               shll r10, cl
0x8aec53f8cd4   254  418bca               movl rcx,r10
0x8aec53f8cd7   257  c4e37120c90a         vpinsrb xmm1,xmm1,cl,0xa
0x8aec53f8cdd   25d  c4e37914c10b         vpextrb cl,xmm0,0xb
0x8aec53f8ce3   263  c5fa6f55a8           vmovdqu xmm2,[rbp-0x58]
0x8aec53f8ce8   268  898d38ffffff         movl [rbp-0xc8],rcx
0x8aec53f8cee   26e  c4e37914d10b         vpextrb cl,xmm2,0xb
0x8aec53f8cf4   274  895588               movl [rbp-0x78],rdx
0x8aec53f8cf7   277  8b9538ffffff         movl rdx,[rbp-0xc8]
0x8aec53f8cfd   27d  d3e2                 shll rdx, cl
0x8aec53f8cff   27f  c4e37120ca0b         vpinsrb xmm1,xmm1,dl,0xb
0x8aec53f8d05   285  c4e37914c20c         vpextrb dl,xmm0,0xc
0x8aec53f8d0b   28b  c5fa6f55a8           vmovdqu xmm2,[rbp-0x58]
0x8aec53f8d10   290  895d84               movl [rbp-0x7c],rbx
0x8aec53f8d13   293  c4e37914d30c         vpextrb bl,xmm2,0xc
0x8aec53f8d19   299  4c8bd1               REX.W movq r10,rcx
0x8aec53f8d1c   29c  8bcb                 movl rcx,rbx
0x8aec53f8d1e   29e  d3e2                 shll rdx, cl
0x8aec53f8d20   2a0  498bca               REX.W movq rcx,r10
0x8aec53f8d23   2a3  c4e37120ca0c         vpinsrb xmm1,xmm1,dl,0xc
0x8aec53f8d29   2a9  c4e37914c20d         vpextrb dl,xmm0,0xd
0x8aec53f8d2f   2af  c5fa6f55a8           vmovdqu xmm2,[rbp-0x58]
0x8aec53f8d34   2b4  897580               movl [rbp-0x80],rsi
0x8aec53f8d37   2b7  c4e37914d60d         vpextrb sil,xmm2,0xd
0x8aec53f8d3d   2bd  4c8bd1               REX.W movq r10,rcx
0x8aec53f8d40   2c0  8bce                 movl rcx,rsi
0x8aec53f8d42   2c2  d3e2                 shll rdx, cl
0x8aec53f8d44   2c4  498bca               REX.W movq rcx,r10
0x8aec53f8d47   2c7  c4e37120ca0d         vpinsrb xmm1,xmm1,dl,0xd
0x8aec53f8d4d   2cd  c4e37914c20e         vpextrb dl,xmm0,0xe
0x8aec53f8d53   2d3  c5fa6f55a8           vmovdqu xmm2,[rbp-0x58]
0x8aec53f8d58   2d8  89bd7cffffff         movl [rbp-0x84],rdi
0x8aec53f8d5e   2de  c4e37914d70e         vpextrb dil,xmm2,0xe
0x8aec53f8d64   2e4  4c8bd1               REX.W movq r10,rcx
0x8aec53f8d67   2e7  8bcf                 movl rcx,rdi
0x8aec53f8d69   2e9  d3e2                 shll rdx, cl
0x8aec53f8d6b   2eb  498bca               REX.W movq rcx,r10
0x8aec53f8d6e   2ee  c4e37120ca0e         vpinsrb xmm1,xmm1,dl,0xe
0x8aec53f8d74   2f4  c4e37914c20f         vpextrb dl,xmm0,0xf
0x8aec53f8d7a   2fa  c5fa6f55a8           vmovdqu xmm2,[rbp-0x58]
0x8aec53f8d7f   2ff  44898d78ffffff       movl [rbp-0x88],r9
0x8aec53f8d86   306  c4c37914d10f         vpextrb r9l,xmm2,0xf
0x8aec53f8d8c   30c  4c8bd1               REX.W movq r10,rcx
0x8aec53f8d8f   30f  418bc9               movl rcx,r9
0x8aec53f8d92   312  d3e2                 shll rdx, cl
0x8aec53f8d94   314  498bca               REX.W movq rcx,r10
0x8aec53f8d97   317  c4e37120ca0f         vpinsrb xmm1,xmm1,dl,0xf
0x8aec53f8d9d   31d  c5f1fcc8             vpaddb xmm1,xmm1,xmm0
0x8aec53f8da1   321  8b954cffffff         movl rdx,[rbp-0xb4]
0x8aec53f8da7   327  898574ffffff         movl [rbp-0x8c],rax
0x8aec53f8dad   32d  488b45f0             REX.W movq rax,[rbp-0x10]
0x8aec53f8db1   331  488b4017             REX.W movq rax,[rax+0x17]
0x8aec53f8db5   335  c5fa7f0c10           vmovdqu [rax+rdx*1],xmm1
0x8aec53f8dba   33a  8b55d0               movl rdx,[rbp-0x30]
0x8aec53f8dbd   33d  8b45cc               movl rax,[rbp-0x34]
0x8aec53f8dc0   340  83c810               orl rax,0x10
0x8aec53f8dc3   343  03d0                 addl rdx,rax
0x8aec53f8dc5   345  898d70ffffff         movl [rbp-0x90],rcx
0x8aec53f8dcb   34b  8b4dd4               movl rcx,[rbp-0x2c]
0x8aec53f8dce   34e  03c8                 addl rcx,rax
0x8aec53f8dd0   350  89954cffffff         movl [rbp-0xb4],rdx
0x8aec53f8dd6   356  488b55f0             REX.W movq rdx,[rbp-0x10]
0x8aec53f8dda   35a  488b5217             REX.W movq rdx,[rdx+0x17]
0x8aec53f8dde   35e  c5fa6f0c0a           vmovdqu xmm1,[rdx+rcx*1]
0x8aec53f8de3   363  c4e37914c900         vpextrb cl,xmm1,0x0
0x8aec53f8de9   369  8b55a4               movl rdx,[rbp-0x5c]
0x8aec53f8dec   36c  448bd1               movl r10,rcx
0x8aec53f8def   36f  8bca                 movl rcx,rdx
0x8aec53f8df1   371  41d3e2               shll r10, cl
0x8aec53f8df4   374  418bca               movl rcx,r10
0x8aec53f8df7   377  c5796ef9             vmovd xmm15,rcx
0x8aec53f8dfb   37b  c4c27978c7           vpbroadcastb xmm0,xmm15
0x8aec53f8e00   380  c4e37914c901         vpextrb cl,xmm1,0x1
0x8aec53f8e06   386  8b55a0               movl rdx,[rbp-0x60]
0x8aec53f8e09   389  448bd1               movl r10,rcx
0x8aec53f8e0c   38c  8bca                 movl rcx,rdx
0x8aec53f8e0e   38e  41d3e2               shll r10, cl
0x8aec53f8e11   391  418bca               movl rcx,r10
0x8aec53f8e14   394  c4e37920c101         vpinsrb xmm0,xmm0,cl,0x1
0x8aec53f8e1a   39a  c4e37914c902         vpextrb cl,xmm1,0x2
0x8aec53f8e20   3a0  8b5598               movl rdx,[rbp-0x68]
0x8aec53f8e23   3a3  448bd1               movl r10,rcx
0x8aec53f8e26   3a6  8bca                 movl rcx,rdx
0x8aec53f8e28   3a8  41d3e2               shll r10, cl
0x8aec53f8e2b   3ab  418bca               movl rcx,r10
0x8aec53f8e2e   3ae  c4e37920c102         vpinsrb xmm0,xmm0,cl,0x2
0x8aec53f8e34   3b4  c4e37914c903         vpextrb cl,xmm1,0x3
0x8aec53f8e3a   3ba  8b5590               movl rdx,[rbp-0x70]
0x8aec53f8e3d   3bd  448bd1               movl r10,rcx
0x8aec53f8e40   3c0  8bca                 movl rcx,rdx
0x8aec53f8e42   3c2  41d3e2               shll r10, cl
0x8aec53f8e45   3c5  418bca               movl rcx,r10
0x8aec53f8e48   3c8  c4e37920c103         vpinsrb xmm0,xmm0,cl,0x3
0x8aec53f8e4e   3ce  c4e37914c904         vpextrb cl,xmm1,0x4
0x8aec53f8e54   3d4  8b558c               movl rdx,[rbp-0x74]
0x8aec53f8e57   3d7  448bd1               movl r10,rcx
0x8aec53f8e5a   3da  8bca                 movl rcx,rdx
0x8aec53f8e5c   3dc  41d3e2               shll r10, cl
0x8aec53f8e5f   3df  418bca               movl rcx,r10
0x8aec53f8e62   3e2  c4e37920c104         vpinsrb xmm0,xmm0,cl,0x4
0x8aec53f8e68   3e8  c4e37914c905         vpextrb cl,xmm1,0x5
0x8aec53f8e6e   3ee  8b5588               movl rdx,[rbp-0x78]
0x8aec53f8e71   3f1  448bd1               movl r10,rcx
0x8aec53f8e74   3f4  8bca                 movl rcx,rdx
0x8aec53f8e76   3f6  41d3e2               shll r10, cl
0x8aec53f8e79   3f9  418bca               movl rcx,r10
0x8aec53f8e7c   3fc  c4e37920c105         vpinsrb xmm0,xmm0,cl,0x5
0x8aec53f8e82   402  c4e37914c906         vpextrb cl,xmm1,0x6
0x8aec53f8e88   408  8b5584               movl rdx,[rbp-0x7c]
0x8aec53f8e8b   40b  448bd1               movl r10,rcx
0x8aec53f8e8e   40e  8bca                 movl rcx,rdx
0x8aec53f8e90   410  41d3e2               shll r10, cl
0x8aec53f8e93   413  418bca               movl rcx,r10
0x8aec53f8e96   416  c4e37920c106         vpinsrb xmm0,xmm0,cl,0x6
0x8aec53f8e9c   41c  c4e37914c907         vpextrb cl,xmm1,0x7
0x8aec53f8ea2   422  8b5580               movl rdx,[rbp-0x80]
0x8aec53f8ea5   425  448bd1               movl r10,rcx
0x8aec53f8ea8   428  8bca                 movl rcx,rdx
0x8aec53f8eaa   42a  41d3e2               shll r10, cl
0x8aec53f8ead   42d  418bca               movl rcx,r10
0x8aec53f8eb0   430  c4e37920c107         vpinsrb xmm0,xmm0,cl,0x7
0x8aec53f8eb6   436  c4e37914c908         vpextrb cl,xmm1,0x8
0x8aec53f8ebc   43c  8b957cffffff         movl rdx,[rbp-0x84]
0x8aec53f8ec2   442  448bd1               movl r10,rcx
0x8aec53f8ec5   445  8bca                 movl rcx,rdx
0x8aec53f8ec7   447  41d3e2               shll r10, cl
0x8aec53f8eca   44a  418bca               movl rcx,r10
0x8aec53f8ecd   44d  c4e37920c108         vpinsrb xmm0,xmm0,cl,0x8
0x8aec53f8ed3   453  c4e37914c909         vpextrb cl,xmm1,0x9
0x8aec53f8ed9   459  8b9578ffffff         movl rdx,[rbp-0x88]
0x8aec53f8edf   45f  448bd1               movl r10,rcx
0x8aec53f8ee2   462  8bca                 movl rcx,rdx
0x8aec53f8ee4   464  41d3e2               shll r10, cl
0x8aec53f8ee7   467  418bca               movl rcx,r10
0x8aec53f8eea   46a  c4e37920c109         vpinsrb xmm0,xmm0,cl,0x9
0x8aec53f8ef0   470  c4e37914c90a         vpextrb cl,xmm1,0xa
0x8aec53f8ef6   476  8b9574ffffff         movl rdx,[rbp-0x8c]
0x8aec53f8efc   47c  448bd1               movl r10,rcx
0x8aec53f8eff   47f  8bca                 movl rcx,rdx
0x8aec53f8f01   481  41d3e2               shll r10, cl
0x8aec53f8f04   484  418bca               movl rcx,r10
0x8aec53f8f07   487  c4e37920c10a         vpinsrb xmm0,xmm0,cl,0xa
0x8aec53f8f0d   48d  c4e37914c90b         vpextrb cl,xmm1,0xb
0x8aec53f8f13   493  8b9570ffffff         movl rdx,[rbp-0x90]
0x8aec53f8f19   499  448bd1               movl r10,rcx
0x8aec53f8f1c   49c  8bca                 movl rcx,rdx
0x8aec53f8f1e   49e  41d3e2               shll r10, cl
0x8aec53f8f21   4a1  418bca               movl rcx,r10
0x8aec53f8f24   4a4  c4e37920c10b         vpinsrb xmm0,xmm0,cl,0xb
0x8aec53f8f2a   4aa  c4e37914c90c         vpextrb cl,xmm1,0xc
0x8aec53f8f30   4b0  448bd1               movl r10,rcx
0x8aec53f8f33   4b3  8bcb                 movl rcx,rbx
0x8aec53f8f35   4b5  41d3e2               shll r10, cl
0x8aec53f8f38   4b8  418bca               movl rcx,r10
0x8aec53f8f3b   4bb  c4e37920c10c         vpinsrb xmm0,xmm0,cl,0xc
0x8aec53f8f41   4c1  c4e37914c90d         vpextrb cl,xmm1,0xd
0x8aec53f8f47   4c7  448bd1               movl r10,rcx
0x8aec53f8f4a   4ca  8bce                 movl rcx,rsi
0x8aec53f8f4c   4cc  41d3e2               shll r10, cl
0x8aec53f8f4f   4cf  418bca               movl rcx,r10
0x8aec53f8f52   4d2  c4e37920c10d         vpinsrb xmm0,xmm0,cl,0xd
0x8aec53f8f58   4d8  c4e37914c90e         vpextrb cl,xmm1,0xe
0x8aec53f8f5e   4de  448bd1               movl r10,rcx
0x8aec53f8f61   4e1  8bcf                 movl rcx,rdi
0x8aec53f8f63   4e3  41d3e2               shll r10, cl
0x8aec53f8f66   4e6  418bca               movl rcx,r10
0x8aec53f8f69   4e9  c4e37920c10e         vpinsrb xmm0,xmm0,cl,0xe
0x8aec53f8f6f   4ef  c4e37914c90f         vpextrb cl,xmm1,0xf
0x8aec53f8f75   4f5  448bd1               movl r10,rcx
0x8aec53f8f78   4f8  418bc9               movl rcx,r9
0x8aec53f8f7b   4fb  41d3e2               shll r10, cl
0x8aec53f8f7e   4fe  418bca               movl rcx,r10
0x8aec53f8f81   501  c4e37920c10f         vpinsrb xmm0,xmm0,cl,0xf
0x8aec53f8f87   507  c5f9fcc1             vpaddb xmm0,xmm0,xmm1
0x8aec53f8f8b   50b  8b8d4cffffff         movl rcx,[rbp-0xb4]
0x8aec53f8f91   511  488b55f0             REX.W movq rdx,[rbp-0x10]
0x8aec53f8f95   515  488b5217             REX.W movq rdx,[rdx+0x17]
0x8aec53f8f99   519  c5fa7f040a           vmovdqu [rdx+rcx*1],xmm0
0x8aec53f8f9e   51e  8b4dd0               movl rcx,[rbp-0x30]
0x8aec53f8fa1   521  8b55cc               movl rdx,[rbp-0x34]
0x8aec53f8fa4   524  83ca20               orl rdx,0x20
0x8aec53f8fa7   527  03ca                 addl rcx,rdx
0x8aec53f8fa9   529  8b45d4               movl rax,[rbp-0x2c]
0x8aec53f8fac   52c  03c2                 addl rax,rdx
0x8aec53f8fae   52e  899d6cffffff         movl [rbp-0x94],rbx
0x8aec53f8fb4   534  488b5df0             REX.W movq rbx,[rbp-0x10]
0x8aec53f8fb8   538  488b5b17             REX.W movq rbx,[rbx+0x17]
0x8aec53f8fbc   53c  c5fa6f0403           vmovdqu xmm0,[rbx+rax*1]
0x8aec53f8fc1   541  c4e37914c000         vpextrb al,xmm0,0x0
0x8aec53f8fc7   547  8b5da4               movl rbx,[rbp-0x5c]
0x8aec53f8fca   54a  4c8bd1               REX.W movq r10,rcx
0x8aec53f8fcd   54d  8bcb                 movl rcx,rbx
0x8aec53f8fcf   54f  d3e0                 shll rax, cl
0x8aec53f8fd1   551  498bca               REX.W movq rcx,r10
0x8aec53f8fd4   554  c5796ef8             vmovd xmm15,rax
0x8aec53f8fd8   558  c4c27978cf           vpbroadcastb xmm1,xmm15
0x8aec53f8fdd   55d  c4e37914c001         vpextrb al,xmm0,0x1
0x8aec53f8fe3   563  8b5da0               movl rbx,[rbp-0x60]
0x8aec53f8fe6   566  4c8bd1               REX.W movq r10,rcx
0x8aec53f8fe9   569  8bcb                 movl rcx,rbx
0x8aec53f8feb   56b  d3e0                 shll rax, cl
0x8aec53f8fed   56d  498bca               REX.W movq rcx,r10
0x8aec53f8ff0   570  c4e37120c801         vpinsrb xmm1,xmm1,al,0x1
0x8aec53f8ff6   576  c4e37914c002         vpextrb al,xmm0,0x2
0x8aec53f8ffc   57c  8b5d98               movl rbx,[rbp-0x68]
0x8aec53f8fff   57f  4c8bd1               REX.W movq r10,rcx
0x8aec53f9002   582  8bcb                 movl rcx,rbx
0x8aec53f9004   584  d3e0                 shll rax, cl
0x8aec53f9006   586  498bca               REX.W movq rcx,r10
0x8aec53f9009   589  c4e37120c802         vpinsrb xmm1,xmm1,al,0x2
0x8aec53f900f   58f  c4e37914c003         vpextrb al,xmm0,0x3
0x8aec53f9015   595  8b5d90               movl rbx,[rbp-0x70]
0x8aec53f9018   598  4c8bd1               REX.W movq r10,rcx
0x8aec53f901b   59b  8bcb                 movl rcx,rbx
0x8aec53f901d   59d  d3e0                 shll rax, cl
0x8aec53f901f   59f  498bca               REX.W movq rcx,r10
0x8aec53f9022   5a2  c4e37120c803         vpinsrb xmm1,xmm1,al,0x3
0x8aec53f9028   5a8  c4e37914c004         vpextrb al,xmm0,0x4
0x8aec53f902e   5ae  8b5d8c               movl rbx,[rbp-0x74]
0x8aec53f9031   5b1  4c8bd1               REX.W movq r10,rcx
0x8aec53f9034   5b4  8bcb                 movl rcx,rbx
0x8aec53f9036   5b6  d3e0                 shll rax, cl
0x8aec53f9038   5b8  498bca               REX.W movq rcx,r10
0x8aec53f903b   5bb  c4e37120c804         vpinsrb xmm1,xmm1,al,0x4
0x8aec53f9041   5c1  c4e37914c005         vpextrb al,xmm0,0x5
0x8aec53f9047   5c7  8b5d88               movl rbx,[rbp-0x78]
0x8aec53f904a   5ca  4c8bd1               REX.W movq r10,rcx
0x8aec53f904d   5cd  8bcb                 movl rcx,rbx
0x8aec53f904f   5cf  d3e0                 shll rax, cl
0x8aec53f9051   5d1  498bca               REX.W movq rcx,r10
0x8aec53f9054   5d4  c4e37120c805         vpinsrb xmm1,xmm1,al,0x5
0x8aec53f905a   5da  c4e37914c006         vpextrb al,xmm0,0x6
0x8aec53f9060   5e0  8b5d84               movl rbx,[rbp-0x7c]
0x8aec53f9063   5e3  4c8bd1               REX.W movq r10,rcx
0x8aec53f9066   5e6  8bcb                 movl rcx,rbx
0x8aec53f9068   5e8  d3e0                 shll rax, cl
0x8aec53f906a   5ea  498bca               REX.W movq rcx,r10
0x8aec53f906d   5ed  c4e37120c806         vpinsrb xmm1,xmm1,al,0x6
0x8aec53f9073   5f3  c4e37914c007         vpextrb al,xmm0,0x7
0x8aec53f9079   5f9  8b5d80               movl rbx,[rbp-0x80]
0x8aec53f907c   5fc  4c8bd1               REX.W movq r10,rcx
0x8aec53f907f   5ff  8bcb                 movl rcx,rbx
0x8aec53f9081   601  d3e0                 shll rax, cl
0x8aec53f9083   603  498bca               REX.W movq rcx,r10
0x8aec53f9086   606  c4e37120c807         vpinsrb xmm1,xmm1,al,0x7
0x8aec53f908c   60c  c4e37914c008         vpextrb al,xmm0,0x8
0x8aec53f9092   612  8b9d7cffffff         movl rbx,[rbp-0x84]
0x8aec53f9098   618  4c8bd1               REX.W movq r10,rcx
0x8aec53f909b   61b  8bcb                 movl rcx,rbx
0x8aec53f909d   61d  d3e0                 shll rax, cl
0x8aec53f909f   61f  498bca               REX.W movq rcx,r10
0x8aec53f90a2   622  c4e37120c808         vpinsrb xmm1,xmm1,al,0x8
0x8aec53f90a8   628  c4e37914c009         vpextrb al,xmm0,0x9
0x8aec53f90ae   62e  8b9d78ffffff         movl rbx,[rbp-0x88]
0x8aec53f90b4   634  4c8bd1               REX.W movq r10,rcx
0x8aec53f90b7   637  8bcb                 movl rcx,rbx
0x8aec53f90b9   639  d3e0                 shll rax, cl
0x8aec53f90bb   63b  498bca               REX.W movq rcx,r10
0x8aec53f90be   63e  c4e37120c809         vpinsrb xmm1,xmm1,al,0x9
0x8aec53f90c4   644  c4e37914c00a         vpextrb al,xmm0,0xa
0x8aec53f90ca   64a  8b9d74ffffff         movl rbx,[rbp-0x8c]
0x8aec53f90d0   650  4c8bd1               REX.W movq r10,rcx
0x8aec53f90d3   653  8bcb                 movl rcx,rbx
0x8aec53f90d5   655  d3e0                 shll rax, cl
0x8aec53f90d7   657  498bca               REX.W movq rcx,r10
0x8aec53f90da   65a  c4e37120c80a         vpinsrb xmm1,xmm1,al,0xa
0x8aec53f90e0   660  c4e37914c00b         vpextrb al,xmm0,0xb
0x8aec53f90e6   666  8b9d70ffffff         movl rbx,[rbp-0x90]
0x8aec53f90ec   66c  4c8bd1               REX.W movq r10,rcx
0x8aec53f90ef   66f  8bcb                 movl rcx,rbx
0x8aec53f90f1   671  d3e0                 shll rax, cl
0x8aec53f90f3   673  498bca               REX.W movq rcx,r10
0x8aec53f90f6   676  c4e37120c80b         vpinsrb xmm1,xmm1,al,0xb
0x8aec53f90fc   67c  c4e37914c00c         vpextrb al,xmm0,0xc
0x8aec53f9102   682  8b9d6cffffff         movl rbx,[rbp-0x94]
0x8aec53f9108   688  4c8bd1               REX.W movq r10,rcx
0x8aec53f910b   68b  8bcb                 movl rcx,rbx
0x8aec53f910d   68d  d3e0                 shll rax, cl
0x8aec53f910f   68f  498bca               REX.W movq rcx,r10
0x8aec53f9112   692  c4e37120c80c         vpinsrb xmm1,xmm1,al,0xc
0x8aec53f9118   698  c4e37914c00d         vpextrb al,xmm0,0xd
0x8aec53f911e   69e  4c8bd1               REX.W movq r10,rcx
0x8aec53f9121   6a1  8bce                 movl rcx,rsi
0x8aec53f9123   6a3  d3e0                 shll rax, cl
0x8aec53f9125   6a5  498bca               REX.W movq rcx,r10
0x8aec53f9128   6a8  c4e37120c80d         vpinsrb xmm1,xmm1,al,0xd
0x8aec53f912e   6ae  c4e37914c00e         vpextrb al,xmm0,0xe
0x8aec53f9134   6b4  4c8bd1               REX.W movq r10,rcx
0x8aec53f9137   6b7  8bcf                 movl rcx,rdi
0x8aec53f9139   6b9  d3e0                 shll rax, cl
0x8aec53f913b   6bb  498bca               REX.W movq rcx,r10
0x8aec53f913e   6be  c4e37120c80e         vpinsrb xmm1,xmm1,al,0xe
0x8aec53f9144   6c4  c4e37914c00f         vpextrb al,xmm0,0xf
0x8aec53f914a   6ca  4c8bd1               REX.W movq r10,rcx
0x8aec53f914d   6cd  418bc9               movl rcx,r9
0x8aec53f9150   6d0  d3e0                 shll rax, cl
0x8aec53f9152   6d2  498bca               REX.W movq rcx,r10
0x8aec53f9155   6d5  c4e37120c80f         vpinsrb xmm1,xmm1,al,0xf
0x8aec53f915b   6db  c5f1fcc8             vpaddb xmm1,xmm1,xmm0
0x8aec53f915f   6df  488b5df0             REX.W movq rbx,[rbp-0x10]
0x8aec53f9163   6e3  488b4317             REX.W movq rax,[rbx+0x17]
0x8aec53f9167   6e7  c5fa7f0c08           vmovdqu [rax+rcx*1],xmm1
0x8aec53f916c   6ec  8b4dd0               movl rcx,[rbp-0x30]
0x8aec53f916f   6ef  8b5dcc               movl rbx,[rbp-0x34]
0x8aec53f9172   6f2  83cb30               orl rbx,0x30
0x8aec53f9175   6f5  03cb                 addl rcx,rbx
0x8aec53f9177   6f7  8b55d4               movl rdx,[rbp-0x2c]
0x8aec53f917a   6fa  03d3                 addl rdx,rbx
0x8aec53f917c   6fc  c5fa6f0c10           vmovdqu xmm1,[rax+rdx*1]
0x8aec53f9181   701  c4e37914ca00         vpextrb dl,xmm1,0x0
0x8aec53f9187   707  8b45a4               movl rax,[rbp-0x5c]
0x8aec53f918a   70a  4c8bd1               REX.W movq r10,rcx
0x8aec53f918d   70d  8bc8                 movl rcx,rax
0x8aec53f918f   70f  d3e2                 shll rdx, cl
0x8aec53f9191   711  498bca               REX.W movq rcx,r10
0x8aec53f9194   714  c5796efa             vmovd xmm15,rdx
0x8aec53f9198   718  c4c27978c7           vpbroadcastb xmm0,xmm15
0x8aec53f919d   71d  c4e37914c801         vpextrb al,xmm1,0x1
0x8aec53f91a3   723  8b55a0               movl rdx,[rbp-0x60]
0x8aec53f91a6   726  4c8bd1               REX.W movq r10,rcx
0x8aec53f91a9   729  8bca                 movl rcx,rdx
0x8aec53f91ab   72b  d3e0                 shll rax, cl
0x8aec53f91ad   72d  498bca               REX.W movq rcx,r10
0x8aec53f91b0   730  c4e37920c001         vpinsrb xmm0,xmm0,al,0x1
0x8aec53f91b6   736  c4e37914c802         vpextrb al,xmm1,0x2
0x8aec53f91bc   73c  8b5598               movl rdx,[rbp-0x68]
0x8aec53f91bf   73f  4c8bd1               REX.W movq r10,rcx
0x8aec53f91c2   742  8bca                 movl rcx,rdx
0x8aec53f91c4   744  d3e0                 shll rax, cl
0x8aec53f91c6   746  498bca               REX.W movq rcx,r10
0x8aec53f91c9   749  c4e37920c002         vpinsrb xmm0,xmm0,al,0x2
0x8aec53f91cf   74f  c4e37914c803         vpextrb al,xmm1,0x3
0x8aec53f91d5   755  8b5590               movl rdx,[rbp-0x70]
0x8aec53f91d8   758  4c8bd1               REX.W movq r10,rcx
0x8aec53f91db   75b  8bca                 movl rcx,rdx
0x8aec53f91dd   75d  d3e0                 shll rax, cl
0x8aec53f91df   75f  498bca               REX.W movq rcx,r10
0x8aec53f91e2   762  c4e37920c003         vpinsrb xmm0,xmm0,al,0x3
0x8aec53f91e8   768  c4e37914c804         vpextrb al,xmm1,0x4
0x8aec53f91ee   76e  8b558c               movl rdx,[rbp-0x74]
0x8aec53f91f1   771  4c8bd1               REX.W movq r10,rcx
0x8aec53f91f4   774  8bca                 movl rcx,rdx
0x8aec53f91f6   776  d3e0                 shll rax, cl
0x8aec53f91f8   778  498bca               REX.W movq rcx,r10
0x8aec53f91fb   77b  c4e37920c004         vpinsrb xmm0,xmm0,al,0x4
0x8aec53f9201   781  c4e37914c805         vpextrb al,xmm1,0x5
0x8aec53f9207   787  8b5588               movl rdx,[rbp-0x78]
0x8aec53f920a   78a  4c8bd1               REX.W movq r10,rcx
0x8aec53f920d   78d  8bca                 movl rcx,rdx
0x8aec53f920f   78f  d3e0                 shll rax, cl
0x8aec53f9211   791  498bca               REX.W movq rcx,r10
0x8aec53f9214   794  c4e37920c005         vpinsrb xmm0,xmm0,al,0x5
0x8aec53f921a   79a  c4e37914c806         vpextrb al,xmm1,0x6
0x8aec53f9220   7a0  8b5584               movl rdx,[rbp-0x7c]
0x8aec53f9223   7a3  4c8bd1               REX.W movq r10,rcx
0x8aec53f9226   7a6  8bca                 movl rcx,rdx
0x8aec53f9228   7a8  d3e0                 shll rax, cl
0x8aec53f922a   7aa  498bca               REX.W movq rcx,r10
0x8aec53f922d   7ad  c4e37920c006         vpinsrb xmm0,xmm0,al,0x6
0x8aec53f9233   7b3  c4e37914c807         vpextrb al,xmm1,0x7
0x8aec53f9239   7b9  8b5580               movl rdx,[rbp-0x80]
0x8aec53f923c   7bc  4c8bd1               REX.W movq r10,rcx
0x8aec53f923f   7bf  8bca                 movl rcx,rdx
0x8aec53f9241   7c1  d3e0                 shll rax, cl
0x8aec53f9243   7c3  498bca               REX.W movq rcx,r10
0x8aec53f9246   7c6  c4e37920c007         vpinsrb xmm0,xmm0,al,0x7
0x8aec53f924c   7cc  c4e37914c808         vpextrb al,xmm1,0x8
0x8aec53f9252   7d2  8b957cffffff         movl rdx,[rbp-0x84]
0x8aec53f9258   7d8  4c8bd1               REX.W movq r10,rcx
0x8aec53f925b   7db  8bca                 movl rcx,rdx
0x8aec53f925d   7dd  d3e0                 shll rax, cl
0x8aec53f925f   7df  498bca               REX.W movq rcx,r10
0x8aec53f9262   7e2  c4e37920c008         vpinsrb xmm0,xmm0,al,0x8
0x8aec53f9268   7e8  c4e37914c809         vpextrb al,xmm1,0x9
0x8aec53f926e   7ee  8b9578ffffff         movl rdx,[rbp-0x88]
0x8aec53f9274   7f4  4c8bd1               REX.W movq r10,rcx
0x8aec53f9277   7f7  8bca                 movl rcx,rdx
0x8aec53f9279   7f9  d3e0                 shll rax, cl
0x8aec53f927b   7fb  498bca               REX.W movq rcx,r10
0x8aec53f927e   7fe  c4e37920c009         vpinsrb xmm0,xmm0,al,0x9
0x8aec53f9284   804  c4e37914c80a         vpextrb al,xmm1,0xa
0x8aec53f928a   80a  8b9574ffffff         movl rdx,[rbp-0x8c]
0x8aec53f9290   810  4c8bd1               REX.W movq r10,rcx
0x8aec53f9293   813  8bca                 movl rcx,rdx
0x8aec53f9295   815  d3e0                 shll rax, cl
0x8aec53f9297   817  498bca               REX.W movq rcx,r10
0x8aec53f929a   81a  c4e37920c00a         vpinsrb xmm0,xmm0,al,0xa
0x8aec53f92a0   820  c4e37914c80b         vpextrb al,xmm1,0xb
0x8aec53f92a6   826  8b9570ffffff         movl rdx,[rbp-0x90]
0x8aec53f92ac   82c  4c8bd1               REX.W movq r10,rcx
0x8aec53f92af   82f  8bca                 movl rcx,rdx
0x8aec53f92b1   831  d3e0                 shll rax, cl
0x8aec53f92b3   833  498bca               REX.W movq rcx,r10
0x8aec53f92b6   836  c4e37920c00b         vpinsrb xmm0,xmm0,al,0xb
0x8aec53f92bc   83c  c4e37914c80c         vpextrb al,xmm1,0xc
0x8aec53f92c2   842  8b956cffffff         movl rdx,[rbp-0x94]
0x8aec53f92c8   848  4c8bd1               REX.W movq r10,rcx
0x8aec53f92cb   84b  8bca                 movl rcx,rdx
0x8aec53f92cd   84d  d3e0                 shll rax, cl
0x8aec53f92cf   84f  498bca               REX.W movq rcx,r10
0x8aec53f92d2   852  c4e37920c00c         vpinsrb xmm0,xmm0,al,0xc
0x8aec53f92d8   858  c4e37914c80d         vpextrb al,xmm1,0xd
0x8aec53f92de   85e  4c8bd1               REX.W movq r10,rcx
0x8aec53f92e1   861  8bce                 movl rcx,rsi
0x8aec53f92e3   863  d3e0                 shll rax, cl
0x8aec53f92e5   865  498bca               REX.W movq rcx,r10
0x8aec53f92e8   868  c4e37920c00d         vpinsrb xmm0,xmm0,al,0xd
0x8aec53f92ee   86e  c4e37914c80e         vpextrb al,xmm1,0xe
0x8aec53f92f4   874  4c8bd1               REX.W movq r10,rcx
0x8aec53f92f7   877  8bcf                 movl rcx,rdi
0x8aec53f92f9   879  d3e0                 shll rax, cl
0x8aec53f92fb   87b  498bca               REX.W movq rcx,r10
0x8aec53f92fe   87e  c4e37920c00e         vpinsrb xmm0,xmm0,al,0xe
0x8aec53f9304   884  c4e37914c80f         vpextrb al,xmm1,0xf
0x8aec53f930a   88a  4c8bd1               REX.W movq r10,rcx
0x8aec53f930d   88d  418bc9               movl rcx,r9
0x8aec53f9310   890  d3e0                 shll rax, cl
0x8aec53f9312   892  498bca               REX.W movq rcx,r10
0x8aec53f9315   895  c4e37920c00f         vpinsrb xmm0,xmm0,al,0xf
0x8aec53f931b   89b  c5f9fcc1             vpaddb xmm0,xmm0,xmm1
0x8aec53f931f   89f  488b55f0             REX.W movq rdx,[rbp-0x10]
0x8aec53f9323   8a3  488b4217             REX.W movq rax,[rdx+0x17]
0x8aec53f9327   8a7  c5fa7f0408           vmovdqu [rax+rcx*1],xmm0
0x8aec53f932c   8ac  8b4dcc               movl rcx,[rbp-0x34]
0x8aec53f932f   8af  bac0ffffff           movl rdx,0xffffffc0
0x8aec53f9334   8b4  2bca                 subl rcx,rdx
0x8aec53f9336   8b6  8b9554ffffff         movl rdx,[rbp-0xac]
0x8aec53f933c   8bc  83c204               addl rdx,0x4
0x8aec53f933f   8bf  8b8550ffffff         movl rax,[rbp-0xb0]
0x8aec53f9345   8c5  3bd0                 cmpl rdx,rax
0x8aec53f9347   8c7  0f8429000000         jz 0x8aec53f9376  <+0x8f6>
0x8aec53f934d   8cd  894dcc               movl [rbp-0x34],rcx
0x8aec53f9350   8d0  c5fa7f4db8           vmovdqu [rbp-0x48],xmm1
0x8aec53f9355   8d5  895d94               movl [rbp-0x6c],rbx
0x8aec53f9358   8d8  89b568ffffff         movl [rbp-0x98],rsi
0x8aec53f935e   8de  89bd64ffffff         movl [rbp-0x9c],rdi
0x8aec53f9364   8e4  44898d60ffffff       movl [rbp-0xa0],r9
0x8aec53f936b   8eb  899554ffffff         movl [rbp-0xac],rdx
0x8aec53f9371   8f1  e9acf7ffff           jmp 0x8aec53f8b22  <+0xa2>
0x8aec53f9376   8f6  c5fa7f4db8           vmovdqu [rbp-0x48],xmm1
0x8aec53f937b   8fb  895d94               movl [rbp-0x6c],rbx
0x8aec53f937e   8fe  89b568ffffff         movl [rbp-0x98],rsi
0x8aec53f9384   904  89bd64ffffff         movl [rbp-0x9c],rdi
0x8aec53f938a   90a  44898d60ffffff       movl [rbp-0xa0],r9
0x8aec53f9391   911  899554ffffff         movl [rbp-0xac],rdx
0x8aec53f9397   917  8b855cffffff         movl rax,[rbp-0xa4]
0x8aec53f939d   91d  8b55d0               movl rdx,[rbp-0x30]
0x8aec53f93a0   920  8b5dc8               movl rbx,[rbp-0x38]
0x8aec53f93a3   923  8b75a0               movl rsi,[rbp-0x60]
0x8aec53f93a6   926  8b7d9c               movl rdi,[rbp-0x64]
0x8aec53f93a9   929  448b4da4             movl r9,[rbp-0x5c]
0x8aec53f93ad   92d  c5fa6f45a8           vmovdqu xmm0,[rbp-0x58]
0x8aec53f93b2   932  e900000000           jmp 0x8aec53f93b7  <+0x937>
0x8aec53f93b7   937  85c0                 testl rax,rax
0x8aec53f93b9   939  0f851a000000         jnz 0x8aec53f93d9  <+0x959>
0x8aec53f93bf   93f  c5fa7f45a8           vmovdqu [rbp-0x58],xmm0
0x8aec53f93c4   944  44894da4             movl [rbp-0x5c],r9
0x8aec53f93c8   948  8975a0               movl [rbp-0x60],rsi
0x8aec53f93cb   94b  89855cffffff         movl [rbp-0xa4],rax
0x8aec53f93d1   951  8b45d4               movl rax,[rbp-0x2c]
0x8aec53f93d4   954  e9bd020000           jmp 0x8aec53f9696  <+0xc16>
0x8aec53f93d9   959  8955d0               movl [rbp-0x30],rdx
0x8aec53f93dc   95c  894dcc               movl [rbp-0x34],rcx
0x8aec53f93df   95f  895dc8               movl [rbp-0x38],rbx
0x8aec53f93e2   962  c5fa7f45a8           vmovdqu [rbp-0x58],xmm0
0x8aec53f93e7   967  44894da4             movl [rbp-0x5c],r9
0x8aec53f93eb   96b  8975a0               movl [rbp-0x60],rsi
0x8aec53f93ee   96e  897d9c               movl [rbp-0x64],rdi
0x8aec53f93f1   971  89855cffffff         movl [rbp-0xa4],rax
0x8aec53f93f7   977  488b75f0             REX.W movq rsi,[rbp-0x10]
0x8aec53f93fb   97b  488b4627             REX.W movq rax,[rsi+0x27]
0x8aec53f93ff   97f  483b20               REX.W cmpq rsp,[rax]
0x8aec53f9402   982  0f8680040000         jna 0x8aec53f9888  <+0xe08>
0x8aec53f9408   988  8b45d0               movl rax,[rbp-0x30]
0x8aec53f940b   98b  8b4dcc               movl rcx,[rbp-0x34]
0x8aec53f940e   98e  03c1                 addl rax,rcx
0x8aec53f9410   990  8b4dd4               movl rcx,[rbp-0x2c]
0x8aec53f9413   993  8b55cc               movl rdx,[rbp-0x34]
0x8aec53f9416   996  03ca                 addl rcx,rdx
0x8aec53f9418   998  488b5617             REX.W movq rdx,[rsi+0x17]
0x8aec53f941c   99c  c5fa6f040a           vmovdqu xmm0,[rdx+rcx*1]
0x8aec53f9421   9a1  c4e37914c100         vpextrb cl,xmm0,0x0
0x8aec53f9427   9a7  c5fa6f4da8           vmovdqu xmm1,[rbp-0x58]
0x8aec53f942c   9ac  c4e37914cb00         vpextrb bl,xmm1,0x0
0x8aec53f9432   9b2  448bd1               movl r10,rcx
0x8aec53f9435   9b5  8bcb                 movl rcx,rbx
0x8aec53f9437   9b7  41d3e2               shll r10, cl
0x8aec53f943a   9ba  418bca               movl rcx,r10
0x8aec53f943d   9bd  c5796ef9             vmovd xmm15,rcx
0x8aec53f9441   9c1  c4c27978cf           vpbroadcastb xmm1,xmm15
0x8aec53f9446   9c6  c4e37914c101         vpextrb cl,xmm0,0x1
0x8aec53f944c   9cc  c5fa6f55a8           vmovdqu xmm2,[rbp-0x58]
0x8aec53f9451   9d1  c4e37914d301         vpextrb bl,xmm2,0x1
0x8aec53f9457   9d7  448bd1               movl r10,rcx
0x8aec53f945a   9da  8bcb                 movl rcx,rbx
0x8aec53f945c   9dc  41d3e2               shll r10, cl
0x8aec53f945f   9df  418bca               movl rcx,r10
0x8aec53f9462   9e2  c4e37120c901         vpinsrb xmm1,xmm1,cl,0x1
0x8aec53f9468   9e8  c4e37914c102         vpextrb cl,xmm0,0x2
0x8aec53f946e   9ee  c5fa6f55a8           vmovdqu xmm2,[rbp-0x58]
0x8aec53f9473   9f3  c4e37914d302         vpextrb bl,xmm2,0x2
0x8aec53f9479   9f9  448bd1               movl r10,rcx
0x8aec53f947c   9fc  8bcb                 movl rcx,rbx
0x8aec53f947e   9fe  41d3e2               shll r10, cl
0x8aec53f9481   a01  418bca               movl rcx,r10
0x8aec53f9484   a04  c4e37120c902         vpinsrb xmm1,xmm1,cl,0x2
0x8aec53f948a   a0a  c4e37914c103         vpextrb cl,xmm0,0x3
0x8aec53f9490   a10  c5fa6f55a8           vmovdqu xmm2,[rbp-0x58]
0x8aec53f9495   a15  c4e37914d303         vpextrb bl,xmm2,0x3
0x8aec53f949b   a1b  448bd1               movl r10,rcx
0x8aec53f949e   a1e  8bcb                 movl rcx,rbx
0x8aec53f94a0   a20  41d3e2               shll r10, cl
0x8aec53f94a3   a23  418bca               movl rcx,r10
0x8aec53f94a6   a26  c4e37120c903         vpinsrb xmm1,xmm1,cl,0x3
0x8aec53f94ac   a2c  c4e37914c104         vpextrb cl,xmm0,0x4
0x8aec53f94b2   a32  c5fa6f55a8           vmovdqu xmm2,[rbp-0x58]
0x8aec53f94b7   a37  c4e37914d304         vpextrb bl,xmm2,0x4
0x8aec53f94bd   a3d  448bd1               movl r10,rcx
0x8aec53f94c0   a40  8bcb                 movl rcx,rbx
0x8aec53f94c2   a42  41d3e2               shll r10, cl
0x8aec53f94c5   a45  418bca               movl rcx,r10
0x8aec53f94c8   a48  c4e37120c904         vpinsrb xmm1,xmm1,cl,0x4
0x8aec53f94ce   a4e  c4e37914c105         vpextrb cl,xmm0,0x5
0x8aec53f94d4   a54  c5fa6f55a8           vmovdqu xmm2,[rbp-0x58]
0x8aec53f94d9   a59  c4e37914d305         vpextrb bl,xmm2,0x5
0x8aec53f94df   a5f  448bd1               movl r10,rcx
0x8aec53f94e2   a62  8bcb                 movl rcx,rbx
0x8aec53f94e4   a64  41d3e2               shll r10, cl
0x8aec53f94e7   a67  418bca               movl rcx,r10
0x8aec53f94ea   a6a  c4e37120c905         vpinsrb xmm1,xmm1,cl,0x5
0x8aec53f94f0   a70  c4e37914c106         vpextrb cl,xmm0,0x6
0x8aec53f94f6   a76  c5fa6f55a8           vmovdqu xmm2,[rbp-0x58]
0x8aec53f94fb   a7b  c4e37914d306         vpextrb bl,xmm2,0x6
0x8aec53f9501   a81  448bd1               movl r10,rcx
0x8aec53f9504   a84  8bcb                 movl rcx,rbx
0x8aec53f9506   a86  41d3e2               shll r10, cl
0x8aec53f9509   a89  418bca               movl rcx,r10
0x8aec53f950c   a8c  c4e37120c906         vpinsrb xmm1,xmm1,cl,0x6
0x8aec53f9512   a92  c4e37914c107         vpextrb cl,xmm0,0x7
0x8aec53f9518   a98  c5fa6f55a8           vmovdqu xmm2,[rbp-0x58]
0x8aec53f951d   a9d  c4e37914d307         vpextrb bl,xmm2,0x7
0x8aec53f9523   aa3  448bd1               movl r10,rcx
0x8aec53f9526   aa6  8bcb                 movl rcx,rbx
0x8aec53f9528   aa8  41d3e2               shll r10, cl
0x8aec53f952b   aab  418bca               movl rcx,r10
0x8aec53f952e   aae  c4e37120c907         vpinsrb xmm1,xmm1,cl,0x7
0x8aec53f9534   ab4  c4e37914c108         vpextrb cl,xmm0,0x8
0x8aec53f953a   aba  c5fa6f55a8           vmovdqu xmm2,[rbp-0x58]
0x8aec53f953f   abf  c4e37914d308         vpextrb bl,xmm2,0x8
0x8aec53f9545   ac5  448bd1               movl r10,rcx
0x8aec53f9548   ac8  8bcb                 movl rcx,rbx
0x8aec53f954a   aca  41d3e2               shll r10, cl
0x8aec53f954d   acd  418bca               movl rcx,r10
0x8aec53f9550   ad0  c4e37120c908         vpinsrb xmm1,xmm1,cl,0x8
0x8aec53f9556   ad6  c4e37914c109         vpextrb cl,xmm0,0x9
0x8aec53f955c   adc  c5fa6f55a8           vmovdqu xmm2,[rbp-0x58]
0x8aec53f9561   ae1  c4e37914d309         vpextrb bl,xmm2,0x9
0x8aec53f9567   ae7  448bd1               movl r10,rcx
0x8aec53f956a   aea  8bcb                 movl rcx,rbx
0x8aec53f956c   aec  41d3e2               shll r10, cl
0x8aec53f956f   aef  418bca               movl rcx,r10
0x8aec53f9572   af2  c4e37120c909         vpinsrb xmm1,xmm1,cl,0x9
0x8aec53f9578   af8  c4e37914c10a         vpextrb cl,xmm0,0xa
0x8aec53f957e   afe  c5fa6f55a8           vmovdqu xmm2,[rbp-0x58]
0x8aec53f9583   b03  c4e37914d30a         vpextrb bl,xmm2,0xa
0x8aec53f9589   b09  448bd1               movl r10,rcx
0x8aec53f958c   b0c  8bcb                 movl rcx,rbx
0x8aec53f958e   b0e  41d3e2               shll r10, cl
0x8aec53f9591   b11  418bca               movl rcx,r10
0x8aec53f9594   b14  c4e37120c90a         vpinsrb xmm1,xmm1,cl,0xa
0x8aec53f959a   b1a  c4e37914c10b         vpextrb cl,xmm0,0xb
0x8aec53f95a0   b20  c5fa6f55a8           vmovdqu xmm2,[rbp-0x58]
0x8aec53f95a5   b25  c4e37914d30b         vpextrb bl,xmm2,0xb
0x8aec53f95ab   b2b  448bd1               movl r10,rcx
0x8aec53f95ae   b2e  8bcb                 movl rcx,rbx
0x8aec53f95b0   b30  41d3e2               shll r10, cl
0x8aec53f95b3   b33  418bca               movl rcx,r10
0x8aec53f95b6   b36  c4e37120c90b         vpinsrb xmm1,xmm1,cl,0xb
0x8aec53f95bc   b3c  c4e37914c10c         vpextrb cl,xmm0,0xc
0x8aec53f95c2   b42  c5fa6f55a8           vmovdqu xmm2,[rbp-0x58]
0x8aec53f95c7   b47  c4e37914d30c         vpextrb bl,xmm2,0xc
0x8aec53f95cd   b4d  448bd1               movl r10,rcx
0x8aec53f95d0   b50  8bcb                 movl rcx,rbx
0x8aec53f95d2   b52  41d3e2               shll r10, cl
0x8aec53f95d5   b55  418bca               movl rcx,r10
0x8aec53f95d8   b58  c4e37120c90c         vpinsrb xmm1,xmm1,cl,0xc
0x8aec53f95de   b5e  c4e37914c10d         vpextrb cl,xmm0,0xd
0x8aec53f95e4   b64  c5fa6f55a8           vmovdqu xmm2,[rbp-0x58]
0x8aec53f95e9   b69  c4e37914d30d         vpextrb bl,xmm2,0xd
0x8aec53f95ef   b6f  448bd1               movl r10,rcx
0x8aec53f95f2   b72  8bcb                 movl rcx,rbx
0x8aec53f95f4   b74  41d3e2               shll r10, cl
0x8aec53f95f7   b77  418bca               movl rcx,r10
0x8aec53f95fa   b7a  c4e37120c90d         vpinsrb xmm1,xmm1,cl,0xd
0x8aec53f9600   b80  c4e37914c10e         vpextrb cl,xmm0,0xe
0x8aec53f9606   b86  c5fa6f55a8           vmovdqu xmm2,[rbp-0x58]
0x8aec53f960b   b8b  c4e37914d30e         vpextrb bl,xmm2,0xe
0x8aec53f9611   b91  448bd1               movl r10,rcx
0x8aec53f9614   b94  8bcb                 movl rcx,rbx
0x8aec53f9616   b96  41d3e2               shll r10, cl
0x8aec53f9619   b99  418bca               movl rcx,r10
0x8aec53f961c   b9c  c4e37120c90e         vpinsrb xmm1,xmm1,cl,0xe
0x8aec53f9622   ba2  c4e37914c10f         vpextrb cl,xmm0,0xf
0x8aec53f9628   ba8  c5fa6f55a8           vmovdqu xmm2,[rbp-0x58]
0x8aec53f962d   bad  c4e37914d30f         vpextrb bl,xmm2,0xf
0x8aec53f9633   bb3  448bd1               movl r10,rcx
0x8aec53f9636   bb6  8bcb                 movl rcx,rbx
0x8aec53f9638   bb8  41d3e2               shll r10, cl
0x8aec53f963b   bbb  418bca               movl rcx,r10
0x8aec53f963e   bbe  c4e37120c90f         vpinsrb xmm1,xmm1,cl,0xf
0x8aec53f9644   bc4  c5f1fcc8             vpaddb xmm1,xmm1,xmm0
0x8aec53f9648   bc8  c5fa7f0c02           vmovdqu [rdx+rax*1],xmm1
0x8aec53f964d   bcd  8b45cc               movl rax,[rbp-0x34]
0x8aec53f9650   bd0  83c010               addl rax,0x10
0x8aec53f9653   bd3  8b8d58ffffff         movl rcx,[rbp-0xa8]
0x8aec53f9659   bd9  83c101               addl rcx,0x1
0x8aec53f965c   bdc  8b9d5cffffff         movl rbx,[rbp-0xa4]
0x8aec53f9662   be2  3bcb                 cmpl rcx,rbx
0x8aec53f9664   be4  0f8413000000         jz 0x8aec53f967d  <+0xbfd>
0x8aec53f966a   bea  8945cc               movl [rbp-0x34],rax
0x8aec53f966d   bed  c5fa7f45b8           vmovdqu [rbp-0x48],xmm0
0x8aec53f9672   bf2  898d58ffffff         movl [rbp-0xa8],rcx
0x8aec53f9678   bf8  e97afdffff           jmp 0x8aec53f93f7  <+0x977>
0x8aec53f967d   bfd  c5fa7f45b8           vmovdqu [rbp-0x48],xmm0
0x8aec53f9682   c02  898d58ffffff         movl [rbp-0xa8],rcx
0x8aec53f9688   c08  8bc8                 movl rcx,rax
0x8aec53f968a   c0a  8b45d4               movl rax,[rbp-0x2c]
0x8aec53f968d   c0d  8b55d0               movl rdx,[rbp-0x30]
0x8aec53f9690   c10  8b5dc8               movl rbx,[rbp-0x38]
0x8aec53f9693   c13  8b7d9c               movl rdi,[rbp-0x64]
0x8aec53f9696   c16  3bcb                 cmpl rcx,rbx
0x8aec53f9698   c18  0f8c05000000         jl 0x8aec53f96a3  <+0xc23>
0x8aec53f969e   c1e  e994010000           jmp 0x8aec53f9837  <+0xdb7>
0x8aec53f96a3   c23  8bf1                 movl rsi,rcx
0x8aec53f96a5   c25  83f6ff               xorl rsi,0xff
0x8aec53f96a8   c28  03f3                 addl rsi,rbx
0x8aec53f96aa   c2a  448bcb               movl r9,rbx
0x8aec53f96ad   c2d  442bc9               subl r9,rcx
0x8aec53f96b0   c30  4183e103             andl r9,0x3
0x8aec53f96b4   c34  4585c9               testl r9,r9
0x8aec53f96b7   c37  0f848a000000         jz 0x8aec53f9747  <+0xcc7>
0x8aec53f96bd   c3d  8945d4               movl [rbp-0x2c],rax
0x8aec53f96c0   c40  8955d0               movl [rbp-0x30],rdx
0x8aec53f96c3   c43  894dcc               movl [rbp-0x34],rcx
0x8aec53f96c6   c46  895dc8               movl [rbp-0x38],rbx
0x8aec53f96c9   c49  c745a400000000       movl [rbp-0x5c],0x0
0x8aec53f96d0   c50  44894da0             movl [rbp-0x60],r9
0x8aec53f96d4   c54  897d9c               movl [rbp-0x64],rdi
0x8aec53f96d7   c57  897598               movl [rbp-0x68],rsi
0x8aec53f96da   c5a  488b75f0             REX.W movq rsi,[rbp-0x10]
0x8aec53f96de   c5e  488b4627             REX.W movq rax,[rsi+0x27]
0x8aec53f96e2   c62  483b20               REX.W cmpq rsp,[rax]
0x8aec53f96e5   c65  0f86b5010000         jna 0x8aec53f98a0  <+0xe20>
0x8aec53f96eb   c6b  8b45d0               movl rax,[rbp-0x30]
0x8aec53f96ee   c6e  8b4dcc               movl rcx,[rbp-0x34]
0x8aec53f96f1   c71  03c1                 addl rax,rcx
0x8aec53f96f3   c73  8b4dd4               movl rcx,[rbp-0x2c]
0x8aec53f96f6   c76  8b55cc               movl rdx,[rbp-0x34]
0x8aec53f96f9   c79  03ca                 addl rcx,rdx
0x8aec53f96fb   c7b  488b5617             REX.W movq rdx,[rsi+0x17]
0x8aec53f96ff   c7f  0fb61c0a             movzxbl rbx,[rdx+rcx*1]
0x8aec53f9703   c83  8b4d9c               movl rcx,[rbp-0x64]
0x8aec53f9706   c86  d3e3                 shll rbx, cl
0x8aec53f9708   c88  881c02               movb [rdx+rax*1],bl
0x8aec53f970b   c8b  8b45cc               movl rax,[rbp-0x34]
0x8aec53f970e   c8e  83c001               addl rax,0x1
0x8aec53f9711   c91  8b4da4               movl rcx,[rbp-0x5c]
0x8aec53f9714   c94  83c101               addl rcx,0x1
0x8aec53f9717   c97  8b5da0               movl rbx,[rbp-0x60]
0x8aec53f971a   c9a  3bcb                 cmpl rcx,rbx
0x8aec53f971c   c9c  0f8408000000         jz 0x8aec53f972a  <+0xcaa>
0x8aec53f9722   ca2  8945cc               movl [rbp-0x34],rax
0x8aec53f9725   ca5  894da4               movl [rbp-0x5c],rcx
0x8aec53f9728   ca8  ebb0                 jmp 0x8aec53f96da  <+0xc5a>
0x8aec53f972a   caa  894da4               movl [rbp-0x5c],rcx
0x8aec53f972d   cad  8bc8                 movl rcx,rax
0x8aec53f972f   caf  8b45d4               movl rax,[rbp-0x2c]
0x8aec53f9732   cb2  8b55d0               movl rdx,[rbp-0x30]
0x8aec53f9735   cb5  8b5dc8               movl rbx,[rbp-0x38]
0x8aec53f9738   cb8  8b7598               movl rsi,[rbp-0x68]
0x8aec53f973b   cbb  8b7d9c               movl rdi,[rbp-0x64]
0x8aec53f973e   cbe  448b4da0             movl r9,[rbp-0x60]
0x8aec53f9742   cc2  e900000000           jmp 0x8aec53f9747  <+0xcc7>
0x8aec53f9747   cc7  83fe03               cmpl rsi,0x3
0x8aec53f974a   cca  0f830c000000         jnc 0x8aec53f975c  <+0xcdc>
0x8aec53f9750   cd0  44894da0             movl [rbp-0x60],r9
0x8aec53f9754   cd4  897598               movl [rbp-0x68],rsi
0x8aec53f9757   cd7  e9db000000           jmp 0x8aec53f9837  <+0xdb7>
0x8aec53f975c   cdc  8945d4               movl [rbp-0x2c],rax
0x8aec53f975f   cdf  8955d0               movl [rbp-0x30],rdx
0x8aec53f9762   ce2  894dcc               movl [rbp-0x34],rcx
0x8aec53f9765   ce5  895dc8               movl [rbp-0x38],rbx
0x8aec53f9768   ce8  44894da0             movl [rbp-0x60],r9
0x8aec53f976c   cec  897d9c               movl [rbp-0x64],rdi
0x8aec53f976f   cef  897598               movl [rbp-0x68],rsi
0x8aec53f9772   cf2  488b75f0             REX.W movq rsi,[rbp-0x10]
0x8aec53f9776   cf6  488b4627             REX.W movq rax,[rsi+0x27]
0x8aec53f977a   cfa  483b20               REX.W cmpq rsp,[rax]
0x8aec53f977d   cfd  0f8635010000         jna 0x8aec53f98b8  <+0xe38>
0x8aec53f9783   d03  8b45d0               movl rax,[rbp-0x30]
0x8aec53f9786   d06  8b4dcc               movl rcx,[rbp-0x34]
0x8aec53f9789   d09  03c1                 addl rax,rcx
0x8aec53f978b   d0b  8b4dd4               movl rcx,[rbp-0x2c]
0x8aec53f978e   d0e  8b55cc               movl rdx,[rbp-0x34]
0x8aec53f9791   d11  03ca                 addl rcx,rdx
0x8aec53f9793   d13  488b5617             REX.W movq rdx,[rsi+0x17]
0x8aec53f9797   d17  0fb61c0a             movzxbl rbx,[rdx+rcx*1]
0x8aec53f979b   d1b  8b4d9c               movl rcx,[rbp-0x64]
0x8aec53f979e   d1e  d3e3                 shll rbx, cl
0x8aec53f97a0   d20  881c02               movb [rdx+rax*1],bl
0x8aec53f97a3   d23  8b45d0               movl rax,[rbp-0x30]
0x8aec53f97a6   d26  8b4dcc               movl rcx,[rbp-0x34]
0x8aec53f97a9   d29  83c101               addl rcx,0x1
0x8aec53f97ac   d2c  03c1                 addl rax,rcx
0x8aec53f97ae   d2e  8b5dd4               movl rbx,[rbp-0x2c]
0x8aec53f97b1   d31  03d9                 addl rbx,rcx
0x8aec53f97b3   d33  0fb63c1a             movzxbl rdi,[rdx+rbx*1]
0x8aec53f97b7   d37  8b5d9c               movl rbx,[rbp-0x64]
0x8aec53f97ba   d3a  4c8bd1               REX.W movq r10,rcx
0x8aec53f97bd   d3d  8bcb                 movl rcx,rbx
0x8aec53f97bf   d3f  d3e7                 shll rdi, cl
0x8aec53f97c1   d41  498bca               REX.W movq rcx,r10
0x8aec53f97c4   d44  40883c02             movb [rdx+rax*1],dil
0x8aec53f97c8   d48  8b45d0               movl rax,[rbp-0x30]
0x8aec53f97cb   d4b  8b5dcc               movl rbx,[rbp-0x34]
0x8aec53f97ce   d4e  83c302               addl rbx,0x2
0x8aec53f97d1   d51  03c3                 addl rax,rbx
0x8aec53f97d3   d53  8b4dd4               movl rcx,[rbp-0x2c]
0x8aec53f97d6   d56  03cb                 addl rcx,rbx
0x8aec53f97d8   d58  0fb63c0a             movzxbl rdi,[rdx+rcx*1]
0x8aec53f97dc   d5c  8b4d9c               movl rcx,[rbp-0x64]
0x8aec53f97df   d5f  d3e7                 shll rdi, cl
0x8aec53f97e1   d61  40883c02             movb [rdx+rax*1],dil
0x8aec53f97e5   d65  8b45d0               movl rax,[rbp-0x30]
0x8aec53f97e8   d68  8b4dcc               movl rcx,[rbp-0x34]
0x8aec53f97eb   d6b  83c103               addl rcx,0x3
0x8aec53f97ee   d6e  03c1                 addl rax,rcx
0x8aec53f97f0   d70  8b5dd4               movl rbx,[rbp-0x2c]
0x8aec53f97f3   d73  03d9                 addl rbx,rcx
0x8aec53f97f5   d75  0fb63c1a             movzxbl rdi,[rdx+rbx*1]
0x8aec53f97f9   d79  8b5d9c               movl rbx,[rbp-0x64]
0x8aec53f97fc   d7c  4c8bd1               REX.W movq r10,rcx
0x8aec53f97ff   d7f  8bcb                 movl rcx,rbx
0x8aec53f9801   d81  d3e7                 shll rdi, cl
0x8aec53f9803   d83  498bca               REX.W movq rcx,r10
0x8aec53f9806   d86  40883c02             movb [rdx+rax*1],dil
0x8aec53f980a   d8a  8b45cc               movl rax,[rbp-0x34]
0x8aec53f980d   d8d  83c004               addl rax,0x4
0x8aec53f9810   d90  8b5dc8               movl rbx,[rbp-0x38]
0x8aec53f9813   d93  3bc3                 cmpl rax,rbx
0x8aec53f9815   d95  0f840b000000         jz 0x8aec53f9826  <+0xda6>
0x8aec53f981b   d9b  8945cc               movl [rbp-0x34],rax
0x8aec53f981e   d9e  894da4               movl [rbp-0x5c],rcx
0x8aec53f9821   da1  e94cffffff           jmp 0x8aec53f9772  <+0xcf2>
0x8aec53f9826   da6  894da4               movl [rbp-0x5c],rcx
0x8aec53f9829   da9  8bc8                 movl rcx,rax
0x8aec53f982b   dab  8b45d4               movl rax,[rbp-0x2c]
0x8aec53f982e   dae  8b55d0               movl rdx,[rbp-0x30]
0x8aec53f9831   db1  8b5dc8               movl rbx,[rbp-0x38]
0x8aec53f9834   db4  8b7d9c               movl rdi,[rbp-0x64]
0x8aec53f9837   db7  488be5               REX.W movq rsp,rbp
0x8aec53f983a   dba  5d                   pop rbp
0x8aec53f983b   dbb  c3                   retl
0x8aec53f983c   dbc  50                   push rax
0x8aec53f983d   dbd  51                   push rcx
0x8aec53f983e   dbe  52                   push rdx
0x8aec53f983f   dbf  53                   push rbx
0x8aec53f9840   dc0  e82bebffff           call 0x8aec53f8370  (jump table)
0x8aec53f9845   dc5  5b                   pop rbx
0x8aec53f9846   dc6  5a                   pop rdx
0x8aec53f9847   dc7  59                   pop rcx
0x8aec53f9848   dc8  58                   pop rax
0x8aec53f9849   dc9  488b75f0             REX.W movq rsi,[rbp-0x10]
0x8aec53f984d   dcd  e95ff2ffff           jmp 0x8aec53f8ab1  <+0x31>
0x8aec53f9852   dd2  e819ebffff           call 0x8aec53f8370  (jump table)
0x8aec53f9857   dd7  488b75f0             REX.W movq rsi,[rbp-0x10]
0x8aec53f985b   ddb  e9d3f2ffff           jmp 0x8aec53f8b33  <+0xb3>
0x8aec53f9860   de0  e8abe8ffff           call 0x8aec53f8110  (jump table)
0x8aec53f9865   de5  e8a6e8ffff           call 0x8aec53f8110  (jump table)
0x8aec53f986a   dea  e8a1e8ffff           call 0x8aec53f8110  (jump table)
0x8aec53f986f   def  e89ce8ffff           call 0x8aec53f8110  (jump table)
0x8aec53f9874   df4  e897e8ffff           call 0x8aec53f8110  (jump table)
0x8aec53f9879   df9  e892e8ffff           call 0x8aec53f8110  (jump table)
0x8aec53f987e   dfe  e88de8ffff           call 0x8aec53f8110  (jump table)
0x8aec53f9883   e03  e888e8ffff           call 0x8aec53f8110  (jump table)
0x8aec53f9888   e08  e8e3eaffff           call 0x8aec53f8370  (jump table)
0x8aec53f988d   e0d  488b75f0             REX.W movq rsi,[rbp-0x10]
0x8aec53f9891   e11  e972fbffff           jmp 0x8aec53f9408  <+0x988>
0x8aec53f9896   e16  e875e8ffff           call 0x8aec53f8110  (jump table)
0x8aec53f989b   e1b  e870e8ffff           call 0x8aec53f8110  (jump table)
0x8aec53f98a0   e20  e8cbeaffff           call 0x8aec53f8370  (jump table)
0x8aec53f98a5   e25  488b75f0             REX.W movq rsi,[rbp-0x10]
0x8aec53f98a9   e29  e93dfeffff           jmp 0x8aec53f96eb  <+0xc6b>
0x8aec53f98ae   e2e  e85de8ffff           call 0x8aec53f8110  (jump table)
0x8aec53f98b3   e33  e858e8ffff           call 0x8aec53f8110  (jump table)
0x8aec53f98b8   e38  e8b3eaffff           call 0x8aec53f8370  (jump table)
0x8aec53f98bd   e3d  488b75f0             REX.W movq rsi,[rbp-0x10]
0x8aec53f98c1   e41  e9bdfeffff           jmp 0x8aec53f9783  <+0xd03>
0x8aec53f98c6   e46  e845e8ffff           call 0x8aec53f8110  (jump table)
0x8aec53f98cb   e4b  e840e8ffff           call 0x8aec53f8110  (jump table)
0x8aec53f98d0   e50  e83be8ffff           call 0x8aec53f8110  (jump table)
0x8aec53f98d5   e55  e836e8ffff           call 0x8aec53f8110  (jump table)
0x8aec53f98da   e5a  e831e8ffff           call 0x8aec53f8110  (jump table)
0x8aec53f98df   e5f  e82ce8ffff           call 0x8aec53f8110  (jump table)
0x8aec53f98e4   e64  e827e8ffff           call 0x8aec53f8110  (jump table)
0x8aec53f98e9   e69  e822e8ffff           call 0x8aec53f8110  (jump table)
0x8aec53f98ee   e6e  6690                 nop

Protected instructions:
 pc offset  land pad
        c7       de0
       335       de5
       35e       dea
       519       def
       53c       df4
       6e7       df9
       6fc       dfe
       8a7       e03
       99c       e16
       bc8       e1b
       c7f       e2e
       c88       e33
       d17       e46
       d20       e4b
       d33       e50
       d44       e55
       d58       e5a
       d61       e5f
       d75       e64
       d86       e69

Source positions:
 pc offset  position
       dc0         0  statement
       dd2       113  statement
       de0       125  statement
       de5       388  statement
       dea       407  statement
       def       590  statement
       df4       609  statement
       df9       792  statement
       dfe       811  statement
       e03       994  statement
       e08      1024  statement
       e16      1036  statement
       e1b      1267  statement
       e20      1327  statement
       e2e      1339  statement
       e33      1345  statement
       e38      1376  statement
       e46      1388  statement
       e4b      1394  statement
       e50      1412  statement
       e55      1418  statement
       e5a      1436  statement
       e5f      1442  statement
       e64      1460  statement
       e69      1466  statement

Safepoints (entries = 1, byte size = 14)
0x8aec53f9845    dc5  slots (sp->fp): 00000000000000000000000000000000

RelocInfo (size = 0)

--- End code ---
--- WebAssembly code ---
name: __emscripten_stdout_seek
index: 10
kind: wasm function
compiler: Liftoff
Body (size = 64 = 64 + 0 padding)
Instructions (size = 52)
0x8aec53f9980     0  55                   push rbp
0x8aec53f9981     1  4889e5               REX.W movq rbp,rsp
0x8aec53f9984     4  6a08                 push 0x8
0x8aec53f9986     6  56                   push rsi
0x8aec53f9987     7  4881ec18000000       REX.W subq rsp,0x18
0x8aec53f998e     e  488b5e27             REX.W movq rbx,[rsi+0x27]
0x8aec53f9992    12  483b23               REX.W cmpq rsp,[rbx]
0x8aec53f9995    15  0f8607000000         jna 0x8aec53f99a2  <+0x22>
0x8aec53f999b    1b  33c0                 xorl rax,rax
0x8aec53f999d    1d  488be5               REX.W movq rsp,rbp
0x8aec53f99a0    20  5d                   pop rbp
0x8aec53f99a1    21  c3                   retl
0x8aec53f99a2    22  50                   push rax
0x8aec53f99a3    23  51                   push rcx
0x8aec53f99a4    24  52                   push rdx
0x8aec53f99a5    25  e8c6e9ffff           call 0x8aec53f8370  (jump table)
0x8aec53f99aa    2a  5a                   pop rdx
0x8aec53f99ab    2b  59                   pop rcx
0x8aec53f99ac    2c  58                   pop rax
0x8aec53f99ad    2d  488b75f0             REX.W movq rsi,[rbp-0x10]
0x8aec53f99b1    31  ebe8                 jmp 0x8aec53f999b  <+0x1b>
0x8aec53f99b3    33  90                   nop

Source positions:
 pc offset  position
        25         0  statement

Safepoints (entries = 1, byte size = 11)
0x8aec53f99aa     2a  slots (sp->fp): 0000000000000000

RelocInfo (size = 0)

--- End code ---
--- WebAssembly code ---
name: __fwritex
index: 20
kind: wasm function
compiler: Liftoff
Body (size = 832 = 788 + 44 padding)
Instructions (size = 776)
0x8aec53f99c0     0  55                   push rbp
0x8aec53f99c1     1  4889e5               REX.W movq rbp,rsp
0x8aec53f99c4     4  6a08                 push 0x8
0x8aec53f99c6     6  56                   push rsi
0x8aec53f99c7     7  4881ec40000000       REX.W subq rsp,0x40
0x8aec53f99ce     e  488b5e27             REX.W movq rbx,[rsi+0x27]
0x8aec53f99d2    12  483b23               REX.W cmpq rsp,[rbx]
0x8aec53f99d5    15  0f8681020000         jna 0x8aec53f9c5c  <+0x29c>
0x8aec53f99db    1b  488b5e17             REX.W movq rbx,[rsi+0x17]
0x8aec53f99df    1f  8b7c0b10             movl rdi,[rbx+rcx*1+0x10]
0x8aec53f99e3    23  85ff                 testl rdi,rdi
0x8aec53f99e5    25  0f854b000000         jnz 0x8aec53f9a36  <+0x76>
0x8aec53f99eb    2b  897dc8               movl [rbp-0x38],rdi
0x8aec53f99ee    2e  894dcc               movl [rbp-0x34],rcx
0x8aec53f99f1    31  8955d0               movl [rbp-0x30],rdx
0x8aec53f99f4    34  8945d4               movl [rbp-0x2c],rax
0x8aec53f99f7    37  8bc1                 movl rax,rcx
0x8aec53f99f9    39  488b75f0             REX.W movq rsi,[rbp-0x10]
0x8aec53f99fd    3d  e830e6ffff           call 0x8aec53f8032  (jump table)
0x8aec53f9a02    42  33c9                 xorl rcx,rcx
0x8aec53f9a04    44  33d2                 xorl rdx,rdx
0x8aec53f9a06    46  85c0                 testl rax,rax
0x8aec53f9a08    48  0f8405000000         jz 0x8aec53f9a13  <+0x53>
0x8aec53f9a0e    4e  e942020000           jmp 0x8aec53f9c55  <+0x295>
0x8aec53f9a13    53  8b45cc               movl rax,[rbp-0x34]
0x8aec53f9a16    56  488b75f0             REX.W movq rsi,[rbp-0x10]
0x8aec53f9a1a    5a  488b5e17             REX.W movq rbx,[rsi+0x17]
0x8aec53f9a1e    5e  8b7c0310             movl rdi,[rbx+rax*1+0x10]
0x8aec53f9a22    62  8955c0               movl [rbp-0x40],rdx
0x8aec53f9a25    65  448bc9               movl r9,rcx
0x8aec53f9a28    68  8b45d4               movl rax,[rbp-0x2c]
0x8aec53f9a2b    6b  8b4dcc               movl rcx,[rbp-0x34]
0x8aec53f9a2e    6e  8b55d0               movl rdx,[rbp-0x30]
0x8aec53f9a31    71  e90a000000           jmp 0x8aec53f9a40  <+0x80>
0x8aec53f9a36    76  c745c000000000       movl [rbp-0x40],0x0
0x8aec53f9a3d    7d  4533c9               xorl r9,r9
0x8aec53f9a40    80  8b740b14             movl rsi,[rbx+rcx*1+0x14]
0x8aec53f9a44    84  8bdf                 movl rbx,rdi
0x8aec53f9a46    86  2bde                 subl rbx,rsi
0x8aec53f9a48    88  3bd3                 cmpl rdx,rbx
0x8aec53f9a4a    8a  0f8685000000         jna 0x8aec53f9ad5  <+0x115>
0x8aec53f9a50    90  488b5df0             REX.W movq rbx,[rbp-0x10]
0x8aec53f9a54    94  488b5b17             REX.W movq rbx,[rbx+0x17]
0x8aec53f9a58    98  8945b8               movl [rbp-0x48],rax
0x8aec53f9a5b    9b  8945d4               movl [rbp-0x2c],rax
0x8aec53f9a5e    9e  8b440b24             movl rax,[rbx+rcx*1+0x24]
0x8aec53f9a62    a2  894dbc               movl [rbp-0x44],rcx
0x8aec53f9a65    a5  894dcc               movl [rbp-0x34],rcx
0x8aec53f9a68    a8  8955b4               movl [rbp-0x4c],rdx
0x8aec53f9a6b    ab  8955d0               movl [rbp-0x30],rdx
0x8aec53f9a6e    ae  488b4df0             REX.W movq rcx,[rbp-0x10]
0x8aec53f9a72    b2  8b4913               movl rcx,[rcx+0x13]
0x8aec53f9a75    b5  3bc1                 cmpl rax,rcx
0x8aec53f9a77    b7  0f8307020000         jnc 0x8aec53f9c84  <+0x2c4>
0x8aec53f9a7d    bd  488b5df0             REX.W movq rbx,[rbp-0x10]
0x8aec53f9a81    c1  488b5b3f             REX.W movq rbx,[rbx+0x3f]
0x8aec53f9a85    c5  c1e002               shll rax, 2
0x8aec53f9a88    c8  8b1403               movl rdx,[rbx+rax*1]
0x8aec53f9a8b    cb  33c9                 xorl rcx,rcx
0x8aec53f9a8d    cd  483bd1               REX.W cmpq rdx,rcx
0x8aec53f9a90    d0  0f85f3010000         jnz 0x8aec53f9c89  <+0x2c9>
0x8aec53f9a96    d6  488b5df0             REX.W movq rbx,[rbp-0x10]
0x8aec53f9a9a    da  8b5b0f               movl rbx,[rbx+0xf]
0x8aec53f9a9d    dd  4903de               REX.W addq rbx,r14
0x8aec53f9aa0    e0  8b4c0307             movl rcx,[rbx+rax*1+0x7]
0x8aec53f9aa4    e4  4903ce               REX.W addq rcx,r14
0x8aec53f9aa7    e7  03c0                 addl rax,rax
0x8aec53f9aa9    e9  488b5df0             REX.W movq rbx,[rbp-0x10]
0x8aec53f9aad    ed  488b5b37             REX.W movq rbx,[rbx+0x37]
0x8aec53f9ab1    f1  488b1403             REX.W movq rdx,[rbx+rax*1]
0x8aec53f9ab5    f5  8975c0               movl [rbp-0x40],rsi
0x8aec53f9ab8    f8  44894dc4             movl [rbp-0x3c],r9
0x8aec53f9abc    fc  897dc8               movl [rbp-0x38],rdi
0x8aec53f9abf    ff  488bda               REX.W movq rbx,rdx
0x8aec53f9ac2   102  488bf1               REX.W movq rsi,rcx
0x8aec53f9ac5   105  8b45bc               movl rax,[rbp-0x44]
0x8aec53f9ac8   108  8b4db4               movl rcx,[rbp-0x4c]
0x8aec53f9acb   10b  8b55b8               movl rdx,[rbp-0x48]
0x8aec53f9ace   10e  ffd3                 call rbx
0x8aec53f9ad0   110  488be5               REX.W movq rsp,rbp
0x8aec53f9ad3   113  5d                   pop rbp
0x8aec53f9ad4   114  c3                   retl
0x8aec53f9ad5   115  488b5df0             REX.W movq rbx,[rbp-0x10]
0x8aec53f9ad9   119  488b5b17             REX.W movq rbx,[rbx+0x17]
0x8aec53f9add   11d  8945d4               movl [rbp-0x2c],rax
0x8aec53f9ae0   120  8b440b50             movl rax,[rbx+rcx*1+0x50]
0x8aec53f9ae4   124  83f800               cmpl rax,0x0
0x8aec53f9ae7   127  0f8d07000000         jge 0x8aec53f9af4  <+0x134>
0x8aec53f9aed   12d  33c0                 xorl rax,rax
0x8aec53f9aef   12f  e917010000           jmp 0x8aec53f9c0b  <+0x24b>
0x8aec53f9af4   134  8955d0               movl [rbp-0x30],rdx
0x8aec53f9af7   137  894dcc               movl [rbp-0x34],rcx
0x8aec53f9afa   13a  897dc8               movl [rbp-0x38],rdi
0x8aec53f9afd   13d  8955c4               movl [rbp-0x3c],rdx
0x8aec53f9b00   140  8975c0               movl [rbp-0x40],rsi
0x8aec53f9b03   143  488b75f0             REX.W movq rsi,[rbp-0x10]
0x8aec53f9b07   147  488b4627             REX.W movq rax,[rsi+0x27]
0x8aec53f9b0b   14b  483b20               REX.W cmpq rsp,[rax]
0x8aec53f9b0e   14e  0f867f010000         jna 0x8aec53f9c93  <+0x2d3>
0x8aec53f9b14   154  8b45c4               movl rax,[rbp-0x3c]
0x8aec53f9b17   157  85c0                 testl rax,rax
0x8aec53f9b19   159  0f8514000000         jnz 0x8aec53f9b33  <+0x173>
0x8aec53f9b1f   15f  33c0                 xorl rax,rax
0x8aec53f9b21   161  8b4dcc               movl rcx,[rbp-0x34]
0x8aec53f9b24   164  8b55d0               movl rdx,[rbp-0x30]
0x8aec53f9b27   167  8b75c0               movl rsi,[rbp-0x40]
0x8aec53f9b2a   16a  448b4dc4             movl r9,[rbp-0x3c]
0x8aec53f9b2e   16e  e9d8000000           jmp 0x8aec53f9c0b  <+0x24b>
0x8aec53f9b33   173  8b4dd4               movl rcx,[rbp-0x2c]
0x8aec53f9b36   176  ba01000000           movl rdx,0x1
0x8aec53f9b3b   17b  f7da                 negl rdx
0x8aec53f9b3d   17d  03d0                 addl rdx,rax
0x8aec53f9b3f   17f  03ca                 addl rcx,rdx
0x8aec53f9b41   181  0fb63c0b             movzxbl rdi,[rbx+rcx*1]
0x8aec53f9b45   185  83ff0a               cmpl rdi,0xa
0x8aec53f9b48   188  0f8408000000         jz 0x8aec53f9b56  <+0x196>
0x8aec53f9b4e   18e  8945c8               movl [rbp-0x38],rax
0x8aec53f9b51   191  8955c4               movl [rbp-0x3c],rdx
0x8aec53f9b54   194  ebad                 jmp 0x8aec53f9b03  <+0x143>
0x8aec53f9b56   196  8b4dcc               movl rcx,[rbp-0x34]
0x8aec53f9b59   199  8b7dd4               movl rdi,[rbp-0x2c]
0x8aec53f9b5c   19c  448b4dcc             movl r9,[rbp-0x34]
0x8aec53f9b60   1a0  428b740b24           movl rsi,[rbx+r9*1+0x24]
0x8aec53f9b65   1a5  894dbc               movl [rbp-0x44],rcx
0x8aec53f9b68   1a8  488b5df0             REX.W movq rbx,[rbp-0x10]
0x8aec53f9b6c   1ac  8b5b13               movl rbx,[rbx+0x13]
0x8aec53f9b6f   1af  3bf3                 cmpl rsi,rbx
0x8aec53f9b71   1b1  0f8336010000         jnc 0x8aec53f9cad  <+0x2ed>
0x8aec53f9b77   1b7  4c8b4df0             REX.W movq r9,[rbp-0x10]
0x8aec53f9b7b   1bb  4d8b493f             REX.W movq r9,[r9+0x3f]
0x8aec53f9b7f   1bf  c1e602               shll rsi, 2
0x8aec53f9b82   1c2  418b0c31             movl rcx,[r9+rsi*1]
0x8aec53f9b86   1c6  33db                 xorl rbx,rbx
0x8aec53f9b88   1c8  483bcb               REX.W cmpq rcx,rbx
0x8aec53f9b8b   1cb  0f8521010000         jnz 0x8aec53f9cb2  <+0x2f2>
0x8aec53f9b91   1d1  4c8b4df0             REX.W movq r9,[rbp-0x10]
0x8aec53f9b95   1d5  458b490f             movl r9,[r9+0xf]
0x8aec53f9b99   1d9  4d03ce               REX.W addq r9,r14
0x8aec53f9b9c   1dc  418b5c3107           movl rbx,[r9+rsi*1+0x7]
0x8aec53f9ba1   1e1  4903de               REX.W addq rbx,r14
0x8aec53f9ba4   1e4  03f6                 addl rsi,rsi
0x8aec53f9ba6   1e6  4c8b4df0             REX.W movq r9,[rbp-0x10]
0x8aec53f9baa   1ea  4d8b4937             REX.W movq r9,[r9+0x37]
0x8aec53f9bae   1ee  498b0c31             REX.W movq rcx,[r9+rsi*1]
0x8aec53f9bb2   1f2  8955c4               movl [rbp-0x3c],rdx
0x8aec53f9bb5   1f5  8945c8               movl [rbp-0x38],rax
0x8aec53f9bb8   1f8  8bd7                 movl rdx,rdi
0x8aec53f9bba   1fa  488bf3               REX.W movq rsi,rbx
0x8aec53f9bbd   1fd  488bd9               REX.W movq rbx,rcx
0x8aec53f9bc0   200  8bc8                 movl rcx,rax
0x8aec53f9bc2   202  8b45bc               movl rax,[rbp-0x44]
0x8aec53f9bc5   205  ffd3                 call rbx
0x8aec53f9bc7   207  8b4dc8               movl rcx,[rbp-0x38]
0x8aec53f9bca   20a  3bc1                 cmpl rax,rcx
0x8aec53f9bcc   20c  0f830a000000         jnc 0x8aec53f9bdc  <+0x21c>
0x8aec53f9bd2   212  8bc8                 movl rcx,rax
0x8aec53f9bd4   214  8b55c0               movl rdx,[rbp-0x40]
0x8aec53f9bd7   217  e979000000           jmp 0x8aec53f9c55  <+0x295>
0x8aec53f9bdc   21c  8b4dd4               movl rcx,[rbp-0x2c]
0x8aec53f9bdf   21f  8b55c8               movl rdx,[rbp-0x38]
0x8aec53f9be2   222  03ca                 addl rcx,rdx
0x8aec53f9be4   224  8b55d0               movl rdx,[rbp-0x30]
0x8aec53f9be7   227  8b5dc8               movl rbx,[rbp-0x38]
0x8aec53f9bea   22a  2bd3                 subl rdx,rbx
0x8aec53f9bec   22c  8b5dcc               movl rbx,[rbp-0x34]
0x8aec53f9bef   22f  488b7df0             REX.W movq rdi,[rbp-0x10]
0x8aec53f9bf3   233  488b7717             REX.W movq rsi,[rdi+0x17]
0x8aec53f9bf7   237  448b4c1e14           movl r9,[rsi+rbx*1+0x14]
0x8aec53f9bfc   23c  894dd4               movl [rbp-0x2c],rcx
0x8aec53f9bff   23f  418bf1               movl rsi,r9
0x8aec53f9c02   242  448bc8               movl r9,rax
0x8aec53f9c05   245  8b45c8               movl rax,[rbp-0x38]
0x8aec53f9c08   248  8b4dcc               movl rcx,[rbp-0x34]
0x8aec53f9c0b   24b  8b5dd4               movl rbx,[rbp-0x2c]
0x8aec53f9c0e   24e  8975c0               movl [rbp-0x40],rsi
0x8aec53f9c11   251  44894dc4             movl [rbp-0x3c],r9
0x8aec53f9c15   255  8945c8               movl [rbp-0x38],rax
0x8aec53f9c18   258  894dcc               movl [rbp-0x34],rcx
0x8aec53f9c1b   25b  8955d0               movl [rbp-0x30],rdx
0x8aec53f9c1e   25e  8bc6                 movl rax,rsi
0x8aec53f9c20   260  8bca                 movl rcx,rdx
0x8aec53f9c22   262  8bd3                 movl rdx,rbx
0x8aec53f9c24   264  488b75f0             REX.W movq rsi,[rbp-0x10]
0x8aec53f9c28   268  e822e4ffff           call 0x8aec53f804f  (jump table)
0x8aec53f9c2d   26d  8b45cc               movl rax,[rbp-0x34]
0x8aec53f9c30   270  8b4dcc               movl rcx,[rbp-0x34]
0x8aec53f9c33   273  488b75f0             REX.W movq rsi,[rbp-0x10]
0x8aec53f9c37   277  488b5617             REX.W movq rdx,[rsi+0x17]
0x8aec53f9c3b   27b  8b5c0a14             movl rbx,[rdx+rcx*1+0x14]
0x8aec53f9c3f   27f  8b4dd0               movl rcx,[rbp-0x30]
0x8aec53f9c42   282  03d9                 addl rbx,rcx
0x8aec53f9c44   284  895c0214             movl [rdx+rax*1+0x14],rbx
0x8aec53f9c48   288  8b45d0               movl rax,[rbp-0x30]
0x8aec53f9c4b   28b  8b4dc8               movl rcx,[rbp-0x38]
0x8aec53f9c4e   28e  03c1                 addl rax,rcx
0x8aec53f9c50   290  8bc8                 movl rcx,rax
0x8aec53f9c52   292  8b55c0               movl rdx,[rbp-0x40]
0x8aec53f9c55   295  8bc1                 movl rax,rcx
0x8aec53f9c57   297  488be5               REX.W movq rsp,rbp
0x8aec53f9c5a   29a  5d                   pop rbp
0x8aec53f9c5b   29b  c3                   retl
0x8aec53f9c5c   29c  50                   push rax
0x8aec53f9c5d   29d  51                   push rcx
0x8aec53f9c5e   29e  52                   push rdx
0x8aec53f9c5f   29f  e80ce7ffff           call 0x8aec53f8370  (jump table)
0x8aec53f9c64   2a4  5a                   pop rdx
0x8aec53f9c65   2a5  59                   pop rcx
0x8aec53f9c66   2a6  58                   pop rax
0x8aec53f9c67   2a7  488b75f0             REX.W movq rsi,[rbp-0x10]
0x8aec53f9c6b   2ab  e96bfdffff           jmp 0x8aec53f99db  <+0x1b>
0x8aec53f9c70   2b0  e89be4ffff           call 0x8aec53f8110  (jump table)
0x8aec53f9c75   2b5  e896e4ffff           call 0x8aec53f8110  (jump table)
0x8aec53f9c7a   2ba  e891e4ffff           call 0x8aec53f8110  (jump table)
0x8aec53f9c7f   2bf  e88ce4ffff           call 0x8aec53f8110  (jump table)
0x8aec53f9c84   2c4  e817e5ffff           call 0x8aec53f81a0  (jump table)
0x8aec53f9c89   2c9  e8e2e4ffff           call 0x8aec53f8170  (jump table)
0x8aec53f9c8e   2ce  e87de4ffff           call 0x8aec53f8110  (jump table)
0x8aec53f9c93   2d3  53                   push rbx
0x8aec53f9c94   2d4  e8d7e6ffff           call 0x8aec53f8370  (jump table)
0x8aec53f9c99   2d9  5b                   pop rbx
0x8aec53f9c9a   2da  488b75f0             REX.W movq rsi,[rbp-0x10]
0x8aec53f9c9e   2de  e971feffff           jmp 0x8aec53f9b14  <+0x154>
0x8aec53f9ca3   2e3  e868e4ffff           call 0x8aec53f8110  (jump table)
0x8aec53f9ca8   2e8  e863e4ffff           call 0x8aec53f8110  (jump table)
0x8aec53f9cad   2ed  e8eee4ffff           call 0x8aec53f81a0  (jump table)
0x8aec53f9cb2   2f2  e8b9e4ffff           call 0x8aec53f8170  (jump table)
0x8aec53f9cb7   2f7  e854e4ffff           call 0x8aec53f8110  (jump table)
0x8aec53f9cbc   2fc  e84fe4ffff           call 0x8aec53f8110  (jump table)
0x8aec53f9cc1   301  e84ae4ffff           call 0x8aec53f8110  (jump table)
0x8aec53f9cc6   306  6690                 nop

Protected instructions:
 pc offset  land pad
        1f       2b0
        5e       2b5
        80       2ba
        9e       2bf
       120       2ce
       181       2e3
       1a0       2e8
       237       2f7
       27b       2fc
       284       301

Source positions:
 pc offset  position
        3d        21  statement
       10e        59  statement
       205       133  statement
       268       171  statement
       29f         0  statement
       2b0        11  statement
       2b5        27  statement
       2ba        39  statement
       2bf        56  statement
       2c4        59  statement
       2c9        59  statement
       2ce        68  statement
       2d4        87  statement
       2e3       113  statement
       2e8       130  statement
       2ed       133  statement
       2f2       133  statement
       2f7       159  statement
       2fc       178  statement
       301       184  statement

Safepoints (entries = 1, byte size = 11)
0x8aec53f9a02     42  slots (sp->fp): 0000000000000000

RelocInfo (size = 0)

--- End code ---
--- WebAssembly code ---
name: __wasi_syscall_ret
index: 31
kind: wasm function
compiler: Liftoff
Body (size = 128 = 108 + 20 padding)
Instructions (size = 96)
0x8aec53f9d00     0  55                   push rbp
0x8aec53f9d01     1  4889e5               REX.W movq rbp,rsp
0x8aec53f9d04     4  6a08                 push 0x8
0x8aec53f9d06     6  56                   push rsi
0x8aec53f9d07     7  4881ec20000000       REX.W subq rsp,0x20
0x8aec53f9d0e     e  488b4e27             REX.W movq rcx,[rsi+0x27]
0x8aec53f9d12    12  483b21               REX.W cmpq rsp,[rcx]
0x8aec53f9d15    15  0f8633000000         jna 0x8aec53f9d4e  <+0x4e>
0x8aec53f9d1b    1b  85c0                 testl rax,rax
0x8aec53f9d1d    1d  0f8507000000         jnz 0x8aec53f9d2a  <+0x2a>
0x8aec53f9d23    23  33c0                 xorl rax,rax
0x8aec53f9d25    25  488be5               REX.W movq rsp,rbp
0x8aec53f9d28    28  5d                   pop rbp
0x8aec53f9d29    29  c3                   retl
0x8aec53f9d2a    2a  8945d4               movl [rbp-0x2c],rax
0x8aec53f9d2d    2d  488b75f0             REX.W movq rsi,[rbp-0x10]
0x8aec53f9d31    31  e814e3ffff           call 0x8aec53f804a  (jump table)
0x8aec53f9d36    36  8b4dd4               movl rcx,[rbp-0x2c]
0x8aec53f9d39    39  488b75f0             REX.W movq rsi,[rbp-0x10]
0x8aec53f9d3d    3d  488b5617             REX.W movq rdx,[rsi+0x17]
0x8aec53f9d41    41  890c02               movl [rdx+rax*1],rcx
0x8aec53f9d44    44  b8ffffffff           movl rax,0xffffffff
0x8aec53f9d49    49  488be5               REX.W movq rsp,rbp
0x8aec53f9d4c    4c  5d                   pop rbp
0x8aec53f9d4d    4d  c3                   retl
0x8aec53f9d4e    4e  50                   push rax
0x8aec53f9d4f    4f  e81ce6ffff           call 0x8aec53f8370  (jump table)
0x8aec53f9d54    54  58                   pop rax
0x8aec53f9d55    55  488b75f0             REX.W movq rsi,[rbp-0x10]
0x8aec53f9d59    59  ebc0                 jmp 0x8aec53f9d1b  <+0x1b>
0x8aec53f9d5b    5b  e8b0e3ffff           call 0x8aec53f8110  (jump table)

Protected instructions:
 pc offset  land pad
        41        5b

Source positions:
 pc offset  position
        31        10  statement
        4f         0  statement
        5b        14  statement

Safepoints (entries = 1, byte size = 11)
0x8aec53f9d36     36  slots (sp->fp): 0000000000000000

RelocInfo (size = 0)

--- End code ---
--- WebAssembly code ---
name: init_pthread_self
index: 35
kind: wasm function
compiler: Liftoff
Body (size = 128 = 96 + 32 padding)
Instructions (size = 84)
0x8aec53f9d80     0  55                   push rbp
0x8aec53f9d81     1  4889e5               REX.W movq rbp,rsp
0x8aec53f9d84     4  6a08                 push 0x8
0x8aec53f9d86     6  56                   push rsi
0x8aec53f9d87     7  4881ec20000000       REX.W subq rsp,0x20
0x8aec53f9d8e     e  488b4627             REX.W movq rax,[rsi+0x27]
0x8aec53f9d92    12  483b20               REX.W cmpq rsp,[rax]
0x8aec53f9d95    15  0f862b000000         jna 0x8aec53f9dc6  <+0x46>
0x8aec53f9d9b    1b  b8bc0a0000           movl rax,0xabc
0x8aec53f9da0    20  488b4e17             REX.W movq rcx,[rsi+0x17]
0x8aec53f9da4    24  89812c0b0000         movl [rcx+0xb2c],rax
0x8aec53f9daa    2a  488b75f0             REX.W movq rsi,[rbp-0x10]
0x8aec53f9dae    2e  e8e6e2ffff           call 0x8aec53f8099  (jump table)
0x8aec53f9db3    33  488b75f0             REX.W movq rsi,[rbp-0x10]
0x8aec53f9db7    37  488b4e17             REX.W movq rcx,[rsi+0x17]
0x8aec53f9dbb    3b  8981e40a0000         movl [rcx+0xae4],rax
0x8aec53f9dc1    41  488be5               REX.W movq rsp,rbp
0x8aec53f9dc4    44  5d                   pop rbp
0x8aec53f9dc5    45  c3                   retl
0x8aec53f9dc6    46  e8a5e5ffff           call 0x8aec53f8370  (jump table)
0x8aec53f9dcb    4b  488b75f0             REX.W movq rsi,[rbp-0x10]
0x8aec53f9dcf    4f  ebca                 jmp 0x8aec53f9d9b  <+0x1b>
0x8aec53f9dd1    51  0f1f00               nop

Source positions:
 pc offset  position
        2e        13  statement
        46         0  statement

Safepoints (entries = 1, byte size = 10)
0x8aec53f9db3     33  slots (sp->fp): 00000000

RelocInfo (size = 0)

--- End code ---
--- WebAssembly code ---
name: __syscall_getpid
index: 32
kind: wasm function
compiler: Liftoff
Body (size = 64 = 60 + 4 padding)
Instructions (size = 48)
0x8aec53f9e00     0  55                   push rbp
0x8aec53f9e01     1  4889e5               REX.W movq rbp,rsp
0x8aec53f9e04     4  6a08                 push 0x8
0x8aec53f9e06     6  56                   push rsi
0x8aec53f9e07     7  4881ec18000000       REX.W subq rsp,0x18
0x8aec53f9e0e     e  488b4627             REX.W movq rax,[rsi+0x27]
0x8aec53f9e12    12  483b20               REX.W cmpq rsp,[rax]
0x8aec53f9e15    15  0f860a000000         jna 0x8aec53f9e25  <+0x25>
0x8aec53f9e1b    1b  b82a000000           movl rax,0x2a
0x8aec53f9e20    20  488be5               REX.W movq rsp,rbp
0x8aec53f9e23    23  5d                   pop rbp
0x8aec53f9e24    24  c3                   retl
0x8aec53f9e25    25  e846e5ffff           call 0x8aec53f8370  (jump table)
0x8aec53f9e2a    2a  488b75f0             REX.W movq rsi,[rbp-0x10]
0x8aec53f9e2e    2e  ebeb                 jmp 0x8aec53f9e1b  <+0x1b>

Source positions:
 pc offset  position
        25         0  statement

Safepoints (entries = 1, byte size = 10)
0x8aec53f9e2a     2a  slots (sp->fp): 00000000

RelocInfo (size = 0)

--- End code ---
--- WebAssembly code ---
name: __stdio_write
index: 8
kind: wasm function
compiler: Liftoff
Body (size = 896 = 880 + 16 padding)
Instructions (size = 868)
0x8aec53fa800     0  55                   push rbp
0x8aec53fa801     1  4889e5               REX.W movq rbp,rsp
0x8aec53fa804     4  6a08                 push 0x8
0x8aec53fa806     6  56                   push rsi
0x8aec53fa807     7  4881ec50000000       REX.W subq rsp,0x50
0x8aec53fa80e     e  50                   push rax
0x8aec53fa80f     f  51                   push rcx
0x8aec53fa810    10  57                   push rdi
0x8aec53fa811    11  488d7db0             REX.W leaq rdi,[rbp-0x50]
0x8aec53fa815    15  33c0                 xorl rax,rax
0x8aec53fa817    17  b907000000           movl rcx,0x7
0x8aec53fa81c    1c  f3ab                 rep stosl
0x8aec53fa81e    1e  5f                   pop rdi
0x8aec53fa81f    1f  59                   pop rcx
0x8aec53fa820    20  58                   pop rax
0x8aec53fa821    21  488b5e27             REX.W movq rbx,[rsi+0x27]
0x8aec53fa825    25  483b23               REX.W cmpq rsp,[rbx]
0x8aec53fa828    28  0f869b020000         jna 0x8aec53faac9  <+0x2c9>
0x8aec53fa82e    2e  488b5e47             REX.W movq rbx,[rsi+0x47]
0x8aec53fa832    32  8b3b                 movl rdi,[rbx]
0x8aec53fa834    34  bb20000000           movl rbx,0x20
0x8aec53fa839    39  2bfb                 subl rdi,rbx
0x8aec53fa83b    3b  488b5e47             REX.W movq rbx,[rsi+0x47]
0x8aec53fa83f    3f  893b                 movl [rbx],rdi
0x8aec53fa841    41  488b5e17             REX.W movq rbx,[rsi+0x17]
0x8aec53fa845    45  448b4c031c           movl r9,[rbx+rax*1+0x1c]
0x8aec53fa84a    4a  44894c3b10           movl [rbx+rdi*1+0x10],r9
0x8aec53fa84f    4f  8b740314             movl rsi,[rbx+rax*1+0x14]
0x8aec53fa853    53  894c3b1c             movl [rbx+rdi*1+0x1c],rcx
0x8aec53fa857    57  89543b18             movl [rbx+rdi*1+0x18],rdx
0x8aec53fa85b    5b  8bde                 movl rbx,rsi
0x8aec53fa85d    5d  412bd9               subl rbx,r9
0x8aec53fa860    60  488b55f0             REX.W movq rdx,[rbp-0x10]
0x8aec53fa864    64  488b5217             REX.W movq rdx,[rdx+0x17]
0x8aec53fa868    68  895c3a14             movl [rdx+rdi*1+0x14],rbx
0x8aec53fa86c    6c  8d140b               leal rdx,[rbx+rcx*1]
0x8aec53fa86f    6f  8945d4               movl [rbp-0x2c],rax
0x8aec53fa872    72  8d4710               leal rax,[rdi+0x10]
0x8aec53fa875    75  8b5dd4               movl rbx,[rbp-0x2c]
0x8aec53fa878    78  894dcc               movl [rbp-0x34],rcx
0x8aec53fa87b    7b  488b4df0             REX.W movq rcx,[rbp-0x10]
0x8aec53fa87f    7f  488b4917             REX.W movq rcx,[rcx+0x17]
0x8aec53fa883    83  8955bc               movl [rbp-0x44],rdx
0x8aec53fa886    86  8b54193c             movl rdx,[rcx+rbx*1+0x3c]
0x8aec53fa88a    8a  8d5f10               leal rbx,[rdi+0x10]
0x8aec53fa88d    8d  8d4f0c               leal rcx,[rdi+0xc]
0x8aec53fa890    90  895da8               movl [rbp-0x58],rbx
0x8aec53fa893    93  8975c0               movl [rbp-0x40],rsi
0x8aec53fa896    96  488b5df0             REX.W movq rbx,[rbp-0x10]
0x8aec53fa89a    9a  488b5b2f             REX.W movq rbx,[rbx+0x2f]
0x8aec53fa89e    9e  488b7308             REX.W movq rsi,[rbx+0x8]
0x8aec53fa8a2    a2  488b5df0             REX.W movq rbx,[rbp-0x10]
0x8aec53fa8a6    a6  8b5b0b               movl rbx,[rbx+0xb]
0x8aec53fa8a9    a9  4903de               REX.W addq rbx,r14
0x8aec53fa8ac    ac  8b5b0b               movl rbx,[rbx+0xb]
0x8aec53fa8af    af  4903de               REX.W addq rbx,r14
0x8aec53fa8b2    b2  44894dc4             movl [rbp-0x3c],r9
0x8aec53fa8b6    b6  897dc8               movl [rbp-0x38],rdi
0x8aec53fa8b9    b9  8945d0               movl [rbp-0x30],rax
0x8aec53fa8bc    bc  8bc2                 movl rax,rdx
0x8aec53fa8be    be  488bfe               REX.W movq rdi,rsi
0x8aec53fa8c1    c1  488bf3               REX.W movq rsi,rbx
0x8aec53fa8c4    c4  8bd9                 movl rbx,rcx
0x8aec53fa8c6    c6  b902000000           movl rcx,0x2
0x8aec53fa8cb    cb  8b55a8               movl rdx,[rbp-0x58]
0x8aec53fa8ce    ce  ffd7                 call rdi
0x8aec53fa8d0    d0  488b75f0             REX.W movq rsi,[rbp-0x10]
0x8aec53fa8d4    d4  e8b6d7ffff           call 0x8aec53f808f  (jump table)
0x8aec53fa8d9    d9  85c0                 testl rax,rax
0x8aec53fa8db    db  0f8527010000         jnz 0x8aec53faa08  <+0x208>
0x8aec53fa8e1    e1  c745b802000000       movl [rbp-0x48],0x2
0x8aec53fa8e8    e8  488b75f0             REX.W movq rsi,[rbp-0x10]
0x8aec53fa8ec    ec  488b4627             REX.W movq rax,[rsi+0x27]
0x8aec53fa8f0    f0  483b20               REX.W cmpq rsp,[rax]
0x8aec53fa8f3    f3  0f8607020000         jna 0x8aec53fab00  <+0x300>
0x8aec53fa8f9    f9  8b45bc               movl rax,[rbp-0x44]
0x8aec53fa8fc    fc  8b4dc8               movl rcx,[rbp-0x38]
0x8aec53fa8ff    ff  488b5617             REX.W movq rdx,[rsi+0x17]
0x8aec53fa903   103  8b5c0a0c             movl rbx,[rdx+rcx*1+0xc]
0x8aec53fa907   107  3bc3                 cmpl rax,rbx
0x8aec53fa909   109  0f8505000000         jnz 0x8aec53fa914  <+0x114>
0x8aec53fa90f   10f  e916010000           jmp 0x8aec53faa2a  <+0x22a>
0x8aec53fa914   114  83fb00               cmpl rbx,0x0
0x8aec53fa917   117  0f8d05000000         jge 0x8aec53fa922  <+0x122>
0x8aec53fa91d   11d  e941010000           jmp 0x8aec53faa63  <+0x263>
0x8aec53fa922   122  8b45d0               movl rax,[rbp-0x30]
0x8aec53fa925   125  8b4dd0               movl rcx,[rbp-0x30]
0x8aec53fa928   128  8b7c0a04             movl rdi,[rdx+rcx*1+0x4]
0x8aec53fa92c   12c  3bdf                 cmpl rbx,rdi
0x8aec53fa92e   12e  0f97c1               setal cl
0x8aec53fa931   131  0fb6c9               movzxbl rcx,rcx
0x8aec53fa934   134  448bc9               movl r9,rcx
0x8aec53fa937   137  41c1e103             shll r9, 3
0x8aec53fa93b   13b  4103c1               addl rax,r9
0x8aec53fa93e   13e  4533c9               xorl r9,r9
0x8aec53fa941   141  85c9                 testl rcx,rcx
0x8aec53fa943   143  440f45cf             cmovnzl r9,rdi
0x8aec53fa947   147  41f7d9               negl r9
0x8aec53fa94a   14a  4403cb               addl r9,rbx
0x8aec53fa94d   14d  8b3c02               movl rdi,[rdx+rax*1]
0x8aec53fa950   150  418d3c39             leal rdi,[r9+rdi*1]
0x8aec53fa954   154  893c02               movl [rdx+rax*1],rdi
0x8aec53fa957   157  8b7dd0               movl rdi,[rbp-0x30]
0x8aec53fa95a   15a  be04000000           movl rsi,0x4
0x8aec53fa95f   15f  ba0c000000           movl rdx,0xc
0x8aec53fa964   164  85c9                 testl rcx,rcx
0x8aec53fa966   166  0f44d6               cmovzl rdx,rsi
0x8aec53fa969   169  03fa                 addl rdi,rdx
0x8aec53fa96b   16b  488b75f0             REX.W movq rsi,[rbp-0x10]
0x8aec53fa96f   16f  488b4617             REX.W movq rax,[rsi+0x17]
0x8aec53fa973   173  8b1438               movl rdx,[rax+rdi*1]
0x8aec53fa976   176  412bd1               subl rdx,r9
0x8aec53fa979   179  891438               movl [rax+rdi*1],rdx
0x8aec53fa97c   17c  8b55bc               movl rdx,[rbp-0x44]
0x8aec53fa97f   17f  2bd3                 subl rdx,rbx
0x8aec53fa981   181  8b75d4               movl rsi,[rbp-0x2c]
0x8aec53fa984   184  897db0               movl [rbp-0x50],rdi
0x8aec53fa987   187  8b7c303c             movl rdi,[rax+rsi*1+0x3c]
0x8aec53fa98b   18b  8b75d0               movl rsi,[rbp-0x30]
0x8aec53fa98e   18e  83c608               addl rsi,0x8
0x8aec53fa991   191  8b45d0               movl rax,[rbp-0x30]
0x8aec53fa994   194  85c9                 testl rcx,rcx
0x8aec53fa996   196  0f44f0               cmovzl rsi,rax
0x8aec53fa999   199  8b45b8               movl rax,[rbp-0x48]
0x8aec53fa99c   19c  2bc1                 subl rax,rcx
0x8aec53fa99e   19e  44894db4             movl [rbp-0x4c],r9
0x8aec53fa9a2   1a2  448b4dc8             movl r9,[rbp-0x38]
0x8aec53fa9a6   1a6  4183c10c             addl r9,0xc
0x8aec53fa9aa   1aa  8945a4               movl [rbp-0x5c],rax
0x8aec53fa9ad   1ad  8945b8               movl [rbp-0x48],rax
0x8aec53fa9b0   1b0  894dc0               movl [rbp-0x40],rcx
0x8aec53fa9b3   1b3  488b45f0             REX.W movq rax,[rbp-0x10]
0x8aec53fa9b7   1b7  488b402f             REX.W movq rax,[rax+0x2f]
0x8aec53fa9bb   1bb  488b4808             REX.W movq rcx,[rax+0x8]
0x8aec53fa9bf   1bf  488b45f0             REX.W movq rax,[rbp-0x10]
0x8aec53fa9c3   1c3  8b400b               movl rax,[rax+0xb]
0x8aec53fa9c6   1c6  4903c6               REX.W addq rax,r14
0x8aec53fa9c9   1c9  8b400b               movl rax,[rax+0xb]
0x8aec53fa9cc   1cc  4903c6               REX.W addq rax,r14
0x8aec53fa9cf   1cf  8955bc               movl [rbp-0x44],rdx
0x8aec53fa9d2   1d2  895dc4               movl [rbp-0x3c],rbx
0x8aec53fa9d5   1d5  8975d0               movl [rbp-0x30],rsi
0x8aec53fa9d8   1d8  8bd6                 movl rdx,rsi
0x8aec53fa9da   1da  488bf0               REX.W movq rsi,rax
0x8aec53fa9dd   1dd  8bc7                 movl rax,rdi
0x8aec53fa9df   1df  488bf9               REX.W movq rdi,rcx
0x8aec53fa9e2   1e2  418bd9               movl rbx,r9
0x8aec53fa9e5   1e5  8b4da4               movl rcx,[rbp-0x5c]
0x8aec53fa9e8   1e8  ffd7                 call rdi
0x8aec53fa9ea   1ea  488b75f0             REX.W movq rsi,[rbp-0x10]
0x8aec53fa9ee   1ee  e89cd6ffff           call 0x8aec53f808f  (jump table)
0x8aec53fa9f3   1f3  85c0                 testl rax,rax
0x8aec53fa9f5   1f5  0f8505000000         jnz 0x8aec53faa00  <+0x200>
0x8aec53fa9fb   1fb  e9e8feffff           jmp 0x8aec53fa8e8  <+0xe8>
0x8aec53faa00   200  8b45b8               movl rax,[rbp-0x48]
0x8aec53faa03   203  e905000000           jmp 0x8aec53faa0d  <+0x20d>
0x8aec53faa08   208  b802000000           movl rax,0x2
0x8aec53faa0d   20d  8b4dbc               movl rcx,[rbp-0x44]
0x8aec53faa10   210  83f9ff               cmpl rcx,0xff
0x8aec53faa13   213  0f840b000000         jz 0x8aec53faa24  <+0x224>
0x8aec53faa19   219  8945b8               movl [rbp-0x48],rax
0x8aec53faa1c   21c  8b5dc4               movl rbx,[rbp-0x3c]
0x8aec53faa1f   21f  e93f000000           jmp 0x8aec53faa63  <+0x263>
0x8aec53faa24   224  8945b8               movl [rbp-0x48],rax
0x8aec53faa27   227  8b5dc4               movl rbx,[rbp-0x3c]
0x8aec53faa2a   22a  8b45d4               movl rax,[rbp-0x2c]
0x8aec53faa2d   22d  8b4dd4               movl rcx,[rbp-0x2c]
0x8aec53faa30   230  488b75f0             REX.W movq rsi,[rbp-0x10]
0x8aec53faa34   234  488b5617             REX.W movq rdx,[rsi+0x17]
0x8aec53faa38   238  8b7c0a2c             movl rdi,[rdx+rcx*1+0x2c]
0x8aec53faa3c   23c  897c021c             movl [rdx+rax*1+0x1c],rdi
0x8aec53faa40   240  8b45d4               movl rax,[rbp-0x2c]
0x8aec53faa43   243  897c0214             movl [rdx+rax*1+0x14],rdi
0x8aec53faa47   247  8b45d4               movl rax,[rbp-0x2c]
0x8aec53faa4a   24a  8b4dd4               movl rcx,[rbp-0x2c]
0x8aec53faa4d   24d  448b4c0a30           movl r9,[rdx+rcx*1+0x30]
0x8aec53faa52   252  468d0c0f             leal r9,[rdi+r9*1]
0x8aec53faa56   256  44894c0210           movl [rdx+rax*1+0x10],r9
0x8aec53faa5b   25b  8b45cc               movl rax,[rbp-0x34]
0x8aec53faa5e   25e  e955000000           jmp 0x8aec53faab8  <+0x2b8>
0x8aec53faa63   263  8b45d4               movl rax,[rbp-0x2c]
0x8aec53faa66   266  33c9                 xorl rcx,rcx
0x8aec53faa68   268  488b75f0             REX.W movq rsi,[rbp-0x10]
0x8aec53faa6c   26c  488b5617             REX.W movq rdx,[rsi+0x17]
0x8aec53faa70   270  894c021c             movl [rdx+rax*1+0x1c],rcx
0x8aec53faa74   274  8b45d4               movl rax,[rbp-0x2c]
0x8aec53faa77   277  33c9                 xorl rcx,rcx
0x8aec53faa79   279  48894c0210           REX.W movq [rdx+rax*1+0x10],rcx
0x8aec53faa7e   27e  8b45d4               movl rax,[rbp-0x2c]
0x8aec53faa81   281  8b4dd4               movl rcx,[rbp-0x2c]
0x8aec53faa84   284  8b3c0a               movl rdi,[rdx+rcx*1]
0x8aec53faa87   287  83cf20               orl rdi,0x20
0x8aec53faa8a   28a  893c02               movl [rdx+rax*1],rdi
0x8aec53faa8d   28d  8b45b8               movl rax,[rbp-0x48]
0x8aec53faa90   290  b902000000           movl rcx,0x2
0x8aec53faa95   295  33db                 xorl rbx,rbx
0x8aec53faa97   297  3bc1                 cmpl rax,rcx
0x8aec53faa99   299  0f850a000000         jnz 0x8aec53faaa9  <+0x2a9>
0x8aec53faa9f   29f  33c0                 xorl rax,rax
0x8aec53faaa1   2a1  8b7dd0               movl rdi,[rbp-0x30]
0x8aec53faaa4   2a4  e90f000000           jmp 0x8aec53faab8  <+0x2b8>
0x8aec53faaa9   2a9  8b45cc               movl rax,[rbp-0x34]
0x8aec53faaac   2ac  8b4dd0               movl rcx,[rbp-0x30]
0x8aec53faaaf   2af  8b7c0a04             movl rdi,[rdx+rcx*1+0x4]
0x8aec53faab3   2b3  2bc7                 subl rax,rdi
0x8aec53faab5   2b5  8b7dd0               movl rdi,[rbp-0x30]
0x8aec53faab8   2b8  8b4dc8               movl rcx,[rbp-0x38]
0x8aec53faabb   2bb  83c120               addl rcx,0x20
0x8aec53faabe   2be  488b5e47             REX.W movq rbx,[rsi+0x47]
0x8aec53faac2   2c2  890b                 movl [rbx],rcx
0x8aec53faac4   2c4  488be5               REX.W movq rsp,rbp
0x8aec53faac7   2c7  5d                   pop rbp
0x8aec53faac8   2c8  c3                   retl
0x8aec53faac9   2c9  50                   push rax
0x8aec53faaca   2ca  51                   push rcx
0x8aec53faacb   2cb  52                   push rdx
0x8aec53faacc   2cc  e89fd8ffff           call 0x8aec53f8370  (jump table)
0x8aec53faad1   2d1  5a                   pop rdx
0x8aec53faad2   2d2  59                   pop rcx
0x8aec53faad3   2d3  58                   pop rax
0x8aec53faad4   2d4  488b75f0             REX.W movq rsi,[rbp-0x10]
0x8aec53faad8   2d8  e951fdffff           jmp 0x8aec53fa82e  <+0x2e>
0x8aec53faadd   2dd  e82ed6ffff           call 0x8aec53f8110  (jump table)
0x8aec53faae2   2e2  e829d6ffff           call 0x8aec53f8110  (jump table)
0x8aec53faae7   2e7  e824d6ffff           call 0x8aec53f8110  (jump table)
0x8aec53faaec   2ec  e81fd6ffff           call 0x8aec53f8110  (jump table)
0x8aec53faaf1   2f1  e81ad6ffff           call 0x8aec53f8110  (jump table)
0x8aec53faaf6   2f6  e815d6ffff           call 0x8aec53f8110  (jump table)
0x8aec53faafb   2fb  e810d6ffff           call 0x8aec53f8110  (jump table)
0x8aec53fab00   300  e86bd8ffff           call 0x8aec53f8370  (jump table)
0x8aec53fab05   305  488b75f0             REX.W movq rsi,[rbp-0x10]
0x8aec53fab09   309  e9ebfdffff           jmp 0x8aec53fa8f9  <+0xf9>
0x8aec53fab0e   30e  e8fdd5ffff           call 0x8aec53f8110  (jump table)
0x8aec53fab13   313  e8f8d5ffff           call 0x8aec53f8110  (jump table)
0x8aec53fab18   318  e8f3d5ffff           call 0x8aec53f8110  (jump table)
0x8aec53fab1d   31d  e8eed5ffff           call 0x8aec53f8110  (jump table)
0x8aec53fab22   322  e8e9d5ffff           call 0x8aec53f8110  (jump table)
0x8aec53fab27   327  e8e4d5ffff           call 0x8aec53f8110  (jump table)
0x8aec53fab2c   32c  e8dfd5ffff           call 0x8aec53f8110  (jump table)
0x8aec53fab31   331  e8dad5ffff           call 0x8aec53f8110  (jump table)
0x8aec53fab36   336  e8d5d5ffff           call 0x8aec53f8110  (jump table)
0x8aec53fab3b   33b  e8d0d5ffff           call 0x8aec53f8110  (jump table)
0x8aec53fab40   340  e8cbd5ffff           call 0x8aec53f8110  (jump table)
0x8aec53fab45   345  e8c6d5ffff           call 0x8aec53f8110  (jump table)
0x8aec53fab4a   34a  e8c1d5ffff           call 0x8aec53f8110  (jump table)
0x8aec53fab4f   34f  e8bcd5ffff           call 0x8aec53f8110  (jump table)
0x8aec53fab54   354  e8b7d5ffff           call 0x8aec53f8110  (jump table)
0x8aec53fab59   359  e8b2d5ffff           call 0x8aec53f8110  (jump table)
0x8aec53fab5e   35e  e8add5ffff           call 0x8aec53f8110  (jump table)
0x8aec53fab63   363  90                   nop

Protected instructions:
 pc offset  land pad
        45       2dd
        4a       2e2
        4f       2e7
        53       2ec
        57       2f1
        68       2f6
        86       2fb
       103       30e
       128       313
       14d       318
       154       31d
       173       322
       179       327
       187       32c
       238       331
       23c       336
       243       33b
       24d       340
       256       345
       270       34a
       279       34f
       284       354
       28a       359
       2af       35e

Source positions:
 pc offset  position
        ce       110  statement
        d4       112  statement
       1e8       238  statement
       1ee       240  statement
       2cc         0  statement
       2dd        28  statement
       2e2        33  statement
       2e7        38  statement
       2ec        47  statement
       2f1        54  statement
       2f6        66  statement
       2fb        95  statement
       300       117  statement
       30e       123  statement
       313       144  statement
       318       172  statement
       31d       176  statement
       322       193  statement
       327       199  statement
       32c       211  statement
       331       259  statement
       336       264  statement
       33b       271  statement
       340       280  statement
       345       284  statement
       34a       296  statement
       34f       303  statement
       354       310  statement
       359       316  statement
       35e       335  statement

Safepoints (entries = 1, byte size = 12)
0x8aec53fa8d0     d0  slots (sp->fp): 000000000000000000000000

RelocInfo (size = 0)

--- End code ---
--- WebAssembly code ---
name: __vfprintf_internal
index: 21
kind: wasm function
compiler: Liftoff
Body (size = 1024 = 1008 + 16 padding)
Instructions (size = 996)
0x8aec53fab80     0  55                   push rbp
0x8aec53fab81     1  4889e5               REX.W movq rbp,rsp
0x8aec53fab84     4  6a08                 push 0x8
0x8aec53fab86     6  56                   push rsi
0x8aec53fab87     7  4881ec48000000       REX.W subq rsp,0x48
0x8aec53fab8e     e  48c745b400000000     REX.W movq [rbp-0x4c],0x0
0x8aec53fab96    16  48c745bc00000000     REX.W movq [rbp-0x44],0x0
0x8aec53fab9e    1e  488b7e27             REX.W movq rdi,[rsi+0x27]
0x8aec53faba2    22  483b27               REX.W cmpq rsp,[rdi]
0x8aec53faba5    25  0f8626030000         jna 0x8aec53faed1  <+0x351>
0x8aec53fabab    2b  488b7e47             REX.W movq rdi,[rsi+0x47]
0x8aec53fabaf    2f  8b37                 movl rsi,[rdi]
0x8aec53fabb1    31  bfd0000000           movl rdi,0xd0
0x8aec53fabb6    36  2bf7                 subl rsi,rdi
0x8aec53fabb8    38  488b7df0             REX.W movq rdi,[rbp-0x10]
0x8aec53fabbc    3c  488b7f47             REX.W movq rdi,[rdi+0x47]
0x8aec53fabc0    40  8937                 movl [rdi],rsi
0x8aec53fabc2    42  488b7df0             REX.W movq rdi,[rbp-0x10]
0x8aec53fabc6    46  488b7f17             REX.W movq rdi,[rdi+0x17]
0x8aec53fabca    4a  898c37cc000000       movl [rdi+rsi*1+0xcc],rcx
0x8aec53fabd1    51  8dbea0000000         leal rdi,[rsi+0xa0]
0x8aec53fabd7    57  8975c0               movl [rbp-0x40],rsi
0x8aec53fabda    5a  44894dc4             movl [rbp-0x3c],r9
0x8aec53fabde    5e  895dc8               movl [rbp-0x38],rbx
0x8aec53fabe1    61  894dcc               movl [rbp-0x34],rcx
0x8aec53fabe4    64  8955d0               movl [rbp-0x30],rdx
0x8aec53fabe7    67  8945d4               movl [rbp-0x2c],rax
0x8aec53fabea    6a  8bc7                 movl rax,rdi
0x8aec53fabec    6c  b928000000           movl rcx,0x28
0x8aec53fabf1    71  33d2                 xorl rdx,rdx
0x8aec53fabf3    73  488b75f0             REX.W movq rsi,[rbp-0x10]
0x8aec53fabf7    77  e827d4ffff           call 0x8aec53f8023  (jump table)
0x8aec53fabfc    7c  8b45c0               movl rax,[rbp-0x40]
0x8aec53fabff    7f  8b4dc0               movl rcx,[rbp-0x40]
0x8aec53fac02    82  488b75f0             REX.W movq rsi,[rbp-0x10]
0x8aec53fac06    86  488b5617             REX.W movq rdx,[rsi+0x17]
0x8aec53fac0a    8a  8b9c0acc000000       movl rbx,[rdx+rcx*1+0xcc]
0x8aec53fac11    91  899c02c8000000       movl [rdx+rax*1+0xc8],rbx
0x8aec53fac18    98  8b45d0               movl rax,[rbp-0x30]
0x8aec53fac1b    9b  8b4dc0               movl rcx,[rbp-0x40]
0x8aec53fac1e    9e  81c1c8000000         addl rcx,0xc8
0x8aec53fac24    a4  8b5dc0               movl rbx,[rbp-0x40]
0x8aec53fac27    a7  83c350               addl rbx,0x50
0x8aec53fac2a    aa  8b7dc0               movl rdi,[rbp-0x40]
0x8aec53fac2d    ad  81c7a0000000         addl rdi,0xa0
0x8aec53fac33    b3  448b4dc8             movl r9,[rbp-0x38]
0x8aec53fac37    b7  8b75c4               movl rsi,[rbp-0x3c]
0x8aec53fac3a    ba  56                   push rsi
0x8aec53fac3b    bb  4151                 push r9
0x8aec53fac3d    bd  8bd0                 movl rdx,rax
0x8aec53fac3f    bf  448bcf               movl r9,rdi
0x8aec53fac42    c2  33c0                 xorl rax,rax
0x8aec53fac44    c4  488b75f0             REX.W movq rsi,[rbp-0x10]
0x8aec53fac48    c8  e811d4ffff           call 0x8aec53f805e  (jump table)
0x8aec53fac4d    cd  83f800               cmpl rax,0x0
0x8aec53fac50    d0  0f8d0a000000         jge 0x8aec53fac60  <+0xe0>
0x8aec53fac56    d6  b8ffffffff           movl rax,0xffffffff
0x8aec53fac5b    db  e959020000           jmp 0x8aec53faeb9  <+0x339>
0x8aec53fac60    e0  8b45d4               movl rax,[rbp-0x2c]
0x8aec53fac63    e3  488b75f0             REX.W movq rsi,[rbp-0x10]
0x8aec53fac67    e7  488b4e17             REX.W movq rcx,[rsi+0x17]
0x8aec53fac6b    eb  8b54014c             movl rdx,[rcx+rax*1+0x4c]
0x8aec53fac6f    ef  83fa00               cmpl rdx,0x0
0x8aec53fac72    f2  0f8c14000000         jl 0x8aec53fac8c  <+0x10c>
0x8aec53fac78    f8  8b45d4               movl rax,[rbp-0x2c]
0x8aec53fac7b    fb  488b75f0             REX.W movq rsi,[rbp-0x10]
0x8aec53fac7f    ff  e8a4d3ffff           call 0x8aec53f8028  (jump table)
0x8aec53fac84   104  8945bc               movl [rbp-0x44],rax
0x8aec53fac87   107  e900000000           jmp 0x8aec53fac8c  <+0x10c>
0x8aec53fac8c   10c  8b45d4               movl rax,[rbp-0x2c]
0x8aec53fac8f   10f  488b75f0             REX.W movq rsi,[rbp-0x10]
0x8aec53fac93   113  488b4e17             REX.W movq rcx,[rsi+0x17]
0x8aec53fac97   117  8b1401               movl rdx,[rcx+rax*1]
0x8aec53fac9a   11a  8b45d4               movl rax,[rbp-0x2c]
0x8aec53fac9d   11d  8b5c0148             movl rbx,[rcx+rax*1+0x48]
0x8aec53faca1   121  83fb00               cmpl rbx,0x0
0x8aec53faca4   124  0f8f10000000         jg 0x8aec53facba  <+0x13a>
0x8aec53facaa   12a  8b45d4               movl rax,[rbp-0x2c]
0x8aec53facad   12d  8bda                 movl rbx,rdx
0x8aec53facaf   12f  83e3df               andl rbx,0xdf
0x8aec53facb2   132  891c01               movl [rcx+rax*1],rbx
0x8aec53facb5   135  e900000000           jmp 0x8aec53facba  <+0x13a>
0x8aec53facba   13a  8b45d4               movl rax,[rbp-0x2c]
0x8aec53facbd   13d  8b5c0130             movl rbx,[rcx+rax*1+0x30]
0x8aec53facc1   141  85db                 testl rbx,rbx
0x8aec53facc3   143  0f8535000000         jnz 0x8aec53facfe  <+0x17e>
0x8aec53facc9   149  8b45d4               movl rax,[rbp-0x2c]
0x8aec53faccc   14c  bb50000000           movl rbx,0x50
0x8aec53facd1   151  895c0130             movl [rcx+rax*1+0x30],rbx
0x8aec53facd5   155  8b45d4               movl rax,[rbp-0x2c]
0x8aec53facd8   158  33db                 xorl rbx,rbx
0x8aec53facda   15a  895c011c             movl [rcx+rax*1+0x1c],rbx
0x8aec53facde   15e  8b45d4               movl rax,[rbp-0x2c]
0x8aec53face1   161  33db                 xorl rbx,rbx
0x8aec53face3   163  48895c0110           REX.W movq [rcx+rax*1+0x10],rbx
0x8aec53face8   168  8b45d4               movl rax,[rbp-0x2c]
0x8aec53faceb   16b  8b5c012c             movl rbx,[rcx+rax*1+0x2c]
0x8aec53facef   16f  8b45d4               movl rax,[rbp-0x2c]
0x8aec53facf2   172  8b7dc0               movl rdi,[rbp-0x40]
0x8aec53facf5   175  897c012c             movl [rcx+rax*1+0x2c],rdi
0x8aec53facf9   179  e917000000           jmp 0x8aec53fad15  <+0x195>
0x8aec53facfe   17e  8b45d4               movl rax,[rbp-0x2c]
0x8aec53fad01   181  8b5c0110             movl rbx,[rcx+rax*1+0x10]
0x8aec53fad05   185  85db                 testl rbx,rbx
0x8aec53fad07   187  0f8405000000         jz 0x8aec53fad12  <+0x192>
0x8aec53fad0d   18d  e932000000           jmp 0x8aec53fad44  <+0x1c4>
0x8aec53fad12   192  8b5db8               movl rbx,[rbp-0x48]
0x8aec53fad15   195  8b45d4               movl rax,[rbp-0x2c]
0x8aec53fad18   198  8955b4               movl [rbp-0x4c],rdx
0x8aec53fad1b   19b  895db8               movl [rbp-0x48],rbx
0x8aec53fad1e   19e  488b75f0             REX.W movq rsi,[rbp-0x10]
0x8aec53fad22   1a2  e80bd3ffff           call 0x8aec53f8032  (jump table)
0x8aec53fad27   1a7  b9ffffffff           movl rcx,0xffffffff
0x8aec53fad2c   1ac  85c0                 testl rax,rax
0x8aec53fad2e   1ae  0f840a000000         jz 0x8aec53fad3e  <+0x1be>
0x8aec53fad34   1b4  b8ffffffff           movl rax,0xffffffff
0x8aec53fad39   1b9  e94c000000           jmp 0x8aec53fad8a  <+0x20a>
0x8aec53fad3e   1be  894dcc               movl [rbp-0x34],rcx
0x8aec53fad41   1c1  8b55b4               movl rdx,[rbp-0x4c]
0x8aec53fad44   1c4  8b45d4               movl rax,[rbp-0x2c]
0x8aec53fad47   1c7  8b4dd0               movl rcx,[rbp-0x30]
0x8aec53fad4a   1ca  8b5dc0               movl rbx,[rbp-0x40]
0x8aec53fad4d   1cd  81c3c8000000         addl rbx,0xc8
0x8aec53fad53   1d3  8b75c0               movl rsi,[rbp-0x40]
0x8aec53fad56   1d6  83c650               addl rsi,0x50
0x8aec53fad59   1d9  8b7dc0               movl rdi,[rbp-0x40]
0x8aec53fad5c   1dc  81c7a0000000         addl rdi,0xa0
0x8aec53fad62   1e2  448b4dc8             movl r9,[rbp-0x38]
0x8aec53fad66   1e6  8945b0               movl [rbp-0x50],rax
0x8aec53fad69   1e9  8b45c4               movl rax,[rbp-0x3c]
0x8aec53fad6c   1ec  8955b4               movl [rbp-0x4c],rdx
0x8aec53fad6f   1ef  50                   push rax
0x8aec53fad70   1f0  4151                 push r9
0x8aec53fad72   1f2  8bd1                 movl rdx,rcx
0x8aec53fad74   1f4  8bcb                 movl rcx,rbx
0x8aec53fad76   1f6  8bde                 movl rbx,rsi
0x8aec53fad78   1f8  448bcf               movl r9,rdi
0x8aec53fad7b   1fb  8b45b0               movl rax,[rbp-0x50]
0x8aec53fad7e   1fe  488b75f0             REX.W movq rsi,[rbp-0x10]
0x8aec53fad82   202  e8d7d2ffff           call 0x8aec53f805e  (jump table)
0x8aec53fad87   207  8b4dcc               movl rcx,[rbp-0x34]
0x8aec53fad8a   20a  8b4db4               movl rcx,[rbp-0x4c]
0x8aec53fad8d   20d  83e120               andl rcx,0x20
0x8aec53fad90   210  8b55b8               movl rdx,[rbp-0x48]
0x8aec53fad93   213  85d2                 testl rdx,rdx
0x8aec53fad95   215  0f84c0000000         jz 0x8aec53fae5b  <+0x2db>
0x8aec53fad9b   21b  8b55d4               movl rdx,[rbp-0x2c]
0x8aec53fad9e   21e  8b5dd4               movl rbx,[rbp-0x2c]
0x8aec53fada1   221  488b7df0             REX.W movq rdi,[rbp-0x10]
0x8aec53fada5   225  488b7717             REX.W movq rsi,[rdi+0x17]
0x8aec53fada9   229  448b4c1e24           movl r9,[rsi+rbx*1+0x24]
0x8aec53fadae   22e  488b7df0             REX.W movq rdi,[rbp-0x10]
0x8aec53fadb2   232  8b7f13               movl rdi,[rdi+0x13]
0x8aec53fadb5   235  443bcf               cmpl r9,rdi
0x8aec53fadb8   238  0f8378010000         jnc 0x8aec53faf36  <+0x3b6>
0x8aec53fadbe   23e  488b5df0             REX.W movq rbx,[rbp-0x10]
0x8aec53fadc2   242  488b5b3f             REX.W movq rbx,[rbx+0x3f]
0x8aec53fadc6   246  41c1e102             shll r9, 2
0x8aec53fadca   24a  428b340b             movl rsi,[rbx+r9*1]
0x8aec53fadce   24e  33ff                 xorl rdi,rdi
0x8aec53fadd0   250  483bf7               REX.W cmpq rsi,rdi
0x8aec53fadd3   253  0f8562010000         jnz 0x8aec53faf3b  <+0x3bb>
0x8aec53fadd9   259  488b5df0             REX.W movq rbx,[rbp-0x10]
0x8aec53faddd   25d  8b5b0f               movl rbx,[rbx+0xf]
0x8aec53fade0   260  4903de               REX.W addq rbx,r14
0x8aec53fade3   263  428b7c0b07           movl rdi,[rbx+r9*1+0x7]
0x8aec53fade8   268  4903fe               REX.W addq rdi,r14
0x8aec53fadeb   26b  4503c9               addl r9,r9
0x8aec53fadee   26e  488b5df0             REX.W movq rbx,[rbp-0x10]
0x8aec53fadf2   272  488b5b37             REX.W movq rbx,[rbx+0x37]
0x8aec53fadf6   276  4a8b340b             REX.W movq rsi,[rbx+r9*1]
0x8aec53fadfa   27a  8945cc               movl [rbp-0x34],rax
0x8aec53fadfd   27d  894dd0               movl [rbp-0x30],rcx
0x8aec53fae00   280  8bc2                 movl rax,rdx
0x8aec53fae02   282  488bde               REX.W movq rbx,rsi
0x8aec53fae05   285  488bf7               REX.W movq rsi,rdi
0x8aec53fae08   288  33c9                 xorl rcx,rcx
0x8aec53fae0a   28a  33d2                 xorl rdx,rdx
0x8aec53fae0c   28c  ffd3                 call rbx
0x8aec53fae0e   28e  8b45d4               movl rax,[rbp-0x2c]
0x8aec53fae11   291  33c9                 xorl rcx,rcx
0x8aec53fae13   293  488b75f0             REX.W movq rsi,[rbp-0x10]
0x8aec53fae17   297  488b5617             REX.W movq rdx,[rsi+0x17]
0x8aec53fae1b   29b  894c0230             movl [rdx+rax*1+0x30],rcx
0x8aec53fae1f   29f  8b45d4               movl rax,[rbp-0x2c]
0x8aec53fae22   2a2  8b4db8               movl rcx,[rbp-0x48]
0x8aec53fae25   2a5  894c022c             movl [rdx+rax*1+0x2c],rcx
0x8aec53fae29   2a9  8b45d4               movl rax,[rbp-0x2c]
0x8aec53fae2c   2ac  33c9                 xorl rcx,rcx
0x8aec53fae2e   2ae  894c021c             movl [rdx+rax*1+0x1c],rcx
0x8aec53fae32   2b2  8b45d4               movl rax,[rbp-0x2c]
0x8aec53fae35   2b5  8b4c0214             movl rcx,[rdx+rax*1+0x14]
0x8aec53fae39   2b9  8b45d4               movl rax,[rbp-0x2c]
0x8aec53fae3c   2bc  33db                 xorl rbx,rbx
0x8aec53fae3e   2be  48895c0210           REX.W movq [rdx+rax*1+0x10],rbx
0x8aec53fae43   2c3  8b45cc               movl rax,[rbp-0x34]
0x8aec53fae46   2c6  bbffffffff           movl rbx,0xffffffff
0x8aec53fae4b   2cb  85c9                 testl rcx,rcx
0x8aec53fae4d   2cd  0f44c3               cmovzl rax,rbx
0x8aec53fae50   2d0  894dc8               movl [rbp-0x38],rcx
0x8aec53fae53   2d3  8b4dd0               movl rcx,[rbp-0x30]
0x8aec53fae56   2d6  e900000000           jmp 0x8aec53fae5b  <+0x2db>
0x8aec53fae5b   2db  8b55d4               movl rdx,[rbp-0x2c]
0x8aec53fae5e   2de  8b5dd4               movl rbx,[rbp-0x2c]
0x8aec53fae61   2e1  488b7df0             REX.W movq rdi,[rbp-0x10]
0x8aec53fae65   2e5  488b7717             REX.W movq rsi,[rdi+0x17]
0x8aec53fae69   2e9  448b0c1e             movl r9,[rsi+rbx*1]
0x8aec53fae6d   2ed  418bd9               movl rbx,r9
0x8aec53fae70   2f0  0bd9                 orl rbx,rcx
0x8aec53fae72   2f2  891c16               movl [rsi+rdx*1],rbx
0x8aec53fae75   2f5  418bd1               movl rdx,r9
0x8aec53fae78   2f8  83e220               andl rdx,0x20
0x8aec53fae7b   2fb  bbffffffff           movl rbx,0xffffffff
0x8aec53fae80   300  85d2                 testl rdx,rdx
0x8aec53fae82   302  0f44d8               cmovzl rbx,rax
0x8aec53fae85   305  8b4dbc               movl rcx,[rbp-0x44]
0x8aec53fae88   308  85c9                 testl rcx,rcx
0x8aec53fae8a   30a  0f850e000000         jnz 0x8aec53fae9e  <+0x31e>
0x8aec53fae90   310  8945cc               movl [rbp-0x34],rax
0x8aec53fae93   313  44894dc8             movl [rbp-0x38],r9
0x8aec53fae97   317  8bc3                 movl rax,rbx
0x8aec53fae99   319  e91b000000           jmp 0x8aec53faeb9  <+0x339>
0x8aec53fae9e   31e  8b4dd4               movl rcx,[rbp-0x2c]
0x8aec53faea1   321  44894dc8             movl [rbp-0x38],r9
0x8aec53faea5   325  8945cc               movl [rbp-0x34],rax
0x8aec53faea8   328  895dd0               movl [rbp-0x30],rbx
0x8aec53faeab   32b  8bc1                 movl rax,rcx
0x8aec53faead   32d  488b75f0             REX.W movq rsi,[rbp-0x10]
0x8aec53faeb1   331  e877d1ffff           call 0x8aec53f802d  (jump table)
0x8aec53faeb6   336  8b45d0               movl rax,[rbp-0x30]
0x8aec53faeb9   339  8b4dc0               movl rcx,[rbp-0x40]
0x8aec53faebc   33c  81c1d0000000         addl rcx,0xd0
0x8aec53faec2   342  488b75f0             REX.W movq rsi,[rbp-0x10]
0x8aec53faec6   346  488b5647             REX.W movq rdx,[rsi+0x47]
0x8aec53faeca   34a  890a                 movl [rdx],rcx
0x8aec53faecc   34c  488be5               REX.W movq rsp,rbp
0x8aec53faecf   34f  5d                   pop rbp
0x8aec53faed0   350  c3                   retl
0x8aec53faed1   351  50                   push rax
0x8aec53faed2   352  51                   push rcx
0x8aec53faed3   353  52                   push rdx
0x8aec53faed4   354  53                   push rbx
0x8aec53faed5   355  4151                 push r9
0x8aec53faed7   357  e894d4ffff           call 0x8aec53f8370  (jump table)
0x8aec53faedc   35c  4159                 pop r9
0x8aec53faede   35e  5b                   pop rbx
0x8aec53faedf   35f  5a                   pop rdx
0x8aec53faee0   360  59                   pop rcx
0x8aec53faee1   361  58                   pop rax
0x8aec53faee2   362  488b75f0             REX.W movq rsi,[rbp-0x10]
0x8aec53faee6   366  e9c0fcffff           jmp 0x8aec53fabab  <+0x2b>
0x8aec53faeeb   36b  e820d2ffff           call 0x8aec53f8110  (jump table)
0x8aec53faef0   370  e81bd2ffff           call 0x8aec53f8110  (jump table)
0x8aec53faef5   375  e816d2ffff           call 0x8aec53f8110  (jump table)
0x8aec53faefa   37a  e811d2ffff           call 0x8aec53f8110  (jump table)
0x8aec53faeff   37f  e80cd2ffff           call 0x8aec53f8110  (jump table)
0x8aec53faf04   384  e807d2ffff           call 0x8aec53f8110  (jump table)
0x8aec53faf09   389  e802d2ffff           call 0x8aec53f8110  (jump table)
0x8aec53faf0e   38e  e8fdd1ffff           call 0x8aec53f8110  (jump table)
0x8aec53faf13   393  e8f8d1ffff           call 0x8aec53f8110  (jump table)
0x8aec53faf18   398  e8f3d1ffff           call 0x8aec53f8110  (jump table)
0x8aec53faf1d   39d  e8eed1ffff           call 0x8aec53f8110  (jump table)
0x8aec53faf22   3a2  e8e9d1ffff           call 0x8aec53f8110  (jump table)
0x8aec53faf27   3a7  e8e4d1ffff           call 0x8aec53f8110  (jump table)
0x8aec53faf2c   3ac  e8dfd1ffff           call 0x8aec53f8110  (jump table)
0x8aec53faf31   3b1  e8dad1ffff           call 0x8aec53f8110  (jump table)
0x8aec53faf36   3b6  e865d2ffff           call 0x8aec53f81a0  (jump table)
0x8aec53faf3b   3bb  e830d2ffff           call 0x8aec53f8170  (jump table)
0x8aec53faf40   3c0  e8cbd1ffff           call 0x8aec53f8110  (jump table)
0x8aec53faf45   3c5  e8c6d1ffff           call 0x8aec53f8110  (jump table)
0x8aec53faf4a   3ca  e8c1d1ffff           call 0x8aec53f8110  (jump table)
0x8aec53faf4f   3cf  e8bcd1ffff           call 0x8aec53f8110  (jump table)
0x8aec53faf54   3d4  e8b7d1ffff           call 0x8aec53f8110  (jump table)
0x8aec53faf59   3d9  e8b2d1ffff           call 0x8aec53f8110  (jump table)
0x8aec53faf5e   3de  e8add1ffff           call 0x8aec53f8110  (jump table)
0x8aec53faf63   3e3  90                   nop

Protected instructions:
 pc offset  land pad
        4a       36b
        8a       370
        91       375
        eb       37a
       117       37f
       11d       384
       132       389
       13d       38e
       151       393
       15a       398
       163       39d
       16b       3a2
       175       3a7
       181       3ac
       229       3b1
       29b       3c0
       2a5       3c5
       2ae       3ca
       2b5       3cf
       2be       3d4
       2e9       3d9
       2f2       3de

Source positions:
 pc offset  position
        77        37  statement
        c8        80  statement
        ff       106  statement
       1a2       206  statement
       202       238  statement
       28c       265  statement
       331       348  statement
       357         0  statement
       36b        23  statement
       370        44  statement
       375        48  statement
       37a        96  statement
       37f       113  statement
       384       120  statement
       389       135  statement
       38e       147  statement
       393       158  statement
       398       165  statement
       39d       172  statement
       3a2       177  statement
       3a7       186  statement
       3ac       194  statement
       3b1       262  statement
       3b6       265  statement
       3bb       265  statement
       3c0       273  statement
       3c5       280  statement
       3ca       287  statement
       3cf       292  statement
       3d4       301  statement
       3d9       318  statement
       3de       326  statement

Safepoints (entries = 1, byte size = 12)
0x8aec53fabfc     7c  slots (sp->fp): 000000000000000000000000

RelocInfo (size = 0)

--- End code ---
--- WebAssembly code ---
name: legalstub$dynCall_jiji
index: 42
kind: wasm function
compiler: Liftoff
Body (size = 192 = 160 + 32 padding)
Instructions (size = 148)
0x8aec53faf80     0  55                   push rbp
0x8aec53faf81     1  4889e5               REX.W movq rbp,rsp
0x8aec53faf84     4  6a08                 push 0x8
0x8aec53faf86     6  56                   push rsi
0x8aec53faf87     7  4881ec40000000       REX.W subq rsp,0x40
0x8aec53faf8e     e  488b7e27             REX.W movq rdi,[rsi+0x27]
0x8aec53faf92    12  483b27               REX.W cmpq rsp,[rdi]
0x8aec53faf95    15  0f8661000000         jna 0x8aec53faffc  <+0x7c>
0x8aec53faf9b    1b  8bf9                 movl rdi,rcx
0x8aec53faf9d    1d  8bf3                 movl rsi,rbx
0x8aec53faf9f    1f  48c1e620             REX.W shlq rsi, 32
0x8aec53fafa3    23  480bfe               REX.W orq rdi,rsi
0x8aec53fafa6    26  44894dc4             movl [rbp-0x3c],r9
0x8aec53fafaa    2a  895dc8               movl [rbp-0x38],rbx
0x8aec53fafad    2d  894dcc               movl [rbp-0x34],rcx
0x8aec53fafb0    30  8955d0               movl [rbp-0x30],rdx
0x8aec53fafb3    33  8945d4               movl [rbp-0x2c],rax
0x8aec53fafb6    36  488bcf               REX.W movq rcx,rdi
0x8aec53fafb9    39  418bd9               movl rbx,r9
0x8aec53fafbc    3c  488b75f0             REX.W movq rsi,[rbp-0x10]
0x8aec53fafc0    40  e800d1ffff           call 0x8aec53f80c5  (jump table)
0x8aec53fafc5    45  488bc8               REX.W movq rcx,rax
0x8aec53fafc8    48  48c1e920             REX.W shrq rcx, 32
0x8aec53fafcc    4c  8bc9                 movl rcx,rcx
0x8aec53fafce    4e  488b75f0             REX.W movq rsi,[rbp-0x10]
0x8aec53fafd2    52  488b562f             REX.W movq rdx,[rsi+0x2f]
0x8aec53fafd6    56  488b5a18             REX.W movq rbx,[rdx+0x18]
0x8aec53fafda    5a  8b560b               movl rdx,[rsi+0xb]
0x8aec53fafdd    5d  4903d6               REX.W addq rdx,r14
0x8aec53fafe0    60  8b5213               movl rdx,[rdx+0x13]
0x8aec53fafe3    63  4903d6               REX.W addq rdx,r14
0x8aec53fafe6    66  488945bc             REX.W movq [rbp-0x44],rax
0x8aec53fafea    6a  8bc1                 movl rax,rcx
0x8aec53fafec    6c  488bf2               REX.W movq rsi,rdx
0x8aec53fafef    6f  ffd3                 call rbx
0x8aec53faff1    71  488b45bc             REX.W movq rax,[rbp-0x44]
0x8aec53faff5    75  8bc0                 movl rax,rax
0x8aec53faff7    77  488be5               REX.W movq rsp,rbp
0x8aec53faffa    7a  5d                   pop rbp
0x8aec53faffb    7b  c3                   retl
0x8aec53faffc    7c  50                   push rax
0x8aec53faffd    7d  51                   push rcx
0x8aec53faffe    7e  52                   push rdx
0x8aec53fafff    7f  53                   push rbx
0x8aec53fb000    80  4151                 push r9
0x8aec53fb002    82  e869d3ffff           call 0x8aec53f8370  (jump table)
0x8aec53fb007    87  4159                 pop r9
0x8aec53fb009    89  5b                   pop rbx
0x8aec53fb00a    8a  5a                   pop rdx
0x8aec53fb00b    8b  59                   pop rcx
0x8aec53fb00c    8c  58                   pop rax
0x8aec53fb00d    8d  488b75f0             REX.W movq rsi,[rbp-0x10]
0x8aec53fb011    91  eb88                 jmp 0x8aec53faf9b  <+0x1b>
0x8aec53fb013    93  90                   nop

Source positions:
 pc offset  position
        40        19  statement
        6f        27  statement
        82         0  statement

Safepoints (entries = 1, byte size = 12)
0x8aec53fafc5     45  slots (sp->fp): 000000000000000000000000

RelocInfo (size = 0)

--- End code ---
--- WebAssembly code ---
name: dynCall_jiji
index: 41
kind: wasm function
compiler: Liftoff
Body (size = 192 = 184 + 8 padding)
Instructions (size = 172)
0x8aec53fb040     0  55                   push rbp
0x8aec53fb041     1  4889e5               REX.W movq rbp,rsp
0x8aec53fb044     4  6a08                 push 0x8
0x8aec53fb046     6  56                   push rsi
0x8aec53fb047     7  4881ec40000000       REX.W subq rsp,0x40
0x8aec53fb04e     e  488b7e27             REX.W movq rdi,[rsi+0x27]
0x8aec53fb052    12  483b27               REX.W cmpq rsp,[rdi]
0x8aec53fb055    15  0f8671000000         jna 0x8aec53fb0cc  <+0x8c>
0x8aec53fb05b    1b  8bf8                 movl rdi,rax
0x8aec53fb05d    1d  8945d4               movl [rbp-0x2c],rax
0x8aec53fb060    20  488b75f0             REX.W movq rsi,[rbp-0x10]
0x8aec53fb064    24  8b7613               movl rsi,[rsi+0x13]
0x8aec53fb067    27  3bfe                 cmpl rdi,rsi
0x8aec53fb069    29  0f8373000000         jnc 0x8aec53fb0e2  <+0xa2>
0x8aec53fb06f    2f  4c8b4df0             REX.W movq r9,[rbp-0x10]
0x8aec53fb073    33  4d8b493f             REX.W movq r9,[r9+0x3f]
0x8aec53fb077    37  c1e702               shll rdi, 2
0x8aec53fb07a    3a  418b0439             movl rax,[r9+rdi*1]
0x8aec53fb07e    3e  be07000000           movl rsi,0x7
0x8aec53fb083    43  483bc6               REX.W cmpq rax,rsi
0x8aec53fb086    46  0f855b000000         jnz 0x8aec53fb0e7  <+0xa7>
0x8aec53fb08c    4c  4c8b4df0             REX.W movq r9,[rbp-0x10]
0x8aec53fb090    50  458b490f             movl r9,[r9+0xf]
0x8aec53fb094    54  4d03ce               REX.W addq r9,r14
0x8aec53fb097    57  418b743907           movl rsi,[r9+rdi*1+0x7]
0x8aec53fb09c    5c  4903f6               REX.W addq rsi,r14
0x8aec53fb09f    5f  03ff                 addl rdi,rdi
0x8aec53fb0a1    61  4c8b4df0             REX.W movq r9,[rbp-0x10]
0x8aec53fb0a5    65  4d8b4937             REX.W movq r9,[r9+0x37]
0x8aec53fb0a9    69  498b0439             REX.W movq rax,[r9+rdi*1]
0x8aec53fb0ad    6d  895dc4               movl [rbp-0x3c],rbx
0x8aec53fb0b0    70  48894dc8             REX.W movq [rbp-0x38],rcx
0x8aec53fb0b4    74  8955d0               movl [rbp-0x30],rdx
0x8aec53fb0b7    77  8955b0               movl [rbp-0x50],rdx
0x8aec53fb0ba    7a  488bd1               REX.W movq rdx,rcx
0x8aec53fb0bd    7d  8bcb                 movl rcx,rbx
0x8aec53fb0bf    7f  488bd8               REX.W movq rbx,rax
0x8aec53fb0c2    82  8b45b0               movl rax,[rbp-0x50]
0x8aec53fb0c5    85  ffd3                 call rbx
0x8aec53fb0c7    87  488be5               REX.W movq rsp,rbp
0x8aec53fb0ca    8a  5d                   pop rbp
0x8aec53fb0cb    8b  c3                   retl
0x8aec53fb0cc    8c  50                   push rax
0x8aec53fb0cd    8d  51                   push rcx
0x8aec53fb0ce    8e  52                   push rdx
0x8aec53fb0cf    8f  53                   push rbx
0x8aec53fb0d0    90  e89bd2ffff           call 0x8aec53f8370  (jump table)
0x8aec53fb0d5    95  5b                   pop rbx
0x8aec53fb0d6    96  5a                   pop rdx
0x8aec53fb0d7    97  59                   pop rcx
0x8aec53fb0d8    98  58                   pop rax
0x8aec53fb0d9    99  488b75f0             REX.W movq rsi,[rbp-0x10]
0x8aec53fb0dd    9d  e979ffffff           jmp 0x8aec53fb05b  <+0x1b>
0x8aec53fb0e2    a2  e8b9d0ffff           call 0x8aec53f81a0  (jump table)
0x8aec53fb0e7    a7  e884d0ffff           call 0x8aec53f8170  (jump table)

Source positions:
 pc offset  position
        85         9  statement
        90         0  statement
        a2         9  statement
        a7         9  statement

Safepoints (entries = 1, byte size = 11)
0x8aec53fb0c7     87  slots (sp->fp): 0000000000000000

RelocInfo (size = 0)

--- End code ---
--- WebAssembly code ---
name: stackAlloc
index: 40
kind: wasm function
compiler: Liftoff
Body (size = 128 = 76 + 52 padding)
Instructions (size = 64)
0x8aec53fb100     0  55                   push rbp
0x8aec53fb101     1  4889e5               REX.W movq rbp,rsp
0x8aec53fb104     4  6a08                 push 0x8
0x8aec53fb106     6  56                   push rsi
0x8aec53fb107     7  4881ec18000000       REX.W subq rsp,0x18
0x8aec53fb10e     e  488b4e27             REX.W movq rcx,[rsi+0x27]
0x8aec53fb112    12  483b21               REX.W cmpq rsp,[rcx]
0x8aec53fb115    15  0f8618000000         jna 0x8aec53fb133  <+0x33>
0x8aec53fb11b    1b  488b4e47             REX.W movq rcx,[rsi+0x47]
0x8aec53fb11f    1f  8b11                 movl rdx,[rcx]
0x8aec53fb121    21  2bd0                 subl rdx,rax
0x8aec53fb123    23  83e2f0               andl rdx,0xf0
0x8aec53fb126    26  488b4e47             REX.W movq rcx,[rsi+0x47]
0x8aec53fb12a    2a  8911                 movl [rcx],rdx
0x8aec53fb12c    2c  8bc2                 movl rax,rdx
0x8aec53fb12e    2e  488be5               REX.W movq rsp,rbp
0x8aec53fb131    31  5d                   pop rbp
0x8aec53fb132    32  c3                   retl
0x8aec53fb133    33  50                   push rax
0x8aec53fb134    34  e837d2ffff           call 0x8aec53f8370  (jump table)
0x8aec53fb139    39  58                   pop rax
0x8aec53fb13a    3a  488b75f0             REX.W movq rsi,[rbp-0x10]
0x8aec53fb13e    3e  ebdb                 jmp 0x8aec53fb11b  <+0x1b>

Source positions:
 pc offset  position
        34         0  statement

Safepoints (entries = 1, byte size = 10)
0x8aec53fb139     39  slots (sp->fp): 00000000

RelocInfo (size = 0)

--- End code ---
--- WebAssembly code ---
name: vfiprintf
index: 30
kind: wasm function
compiler: Liftoff
Body (size = 128 = 84 + 44 padding)
Instructions (size = 72)
0x8aec53fb180     0  55                   push rbp
0x8aec53fb181     1  4889e5               REX.W movq rbp,rsp
0x8aec53fb184     4  6a08                 push 0x8
0x8aec53fb186     6  56                   push rsi
0x8aec53fb187     7  4881ec28000000       REX.W subq rsp,0x28
0x8aec53fb18e     e  488b5e27             REX.W movq rbx,[rsi+0x27]
0x8aec53fb192    12  483b23               REX.W cmpq rsp,[rbx]
0x8aec53fb195    15  0f861c000000         jna 0x8aec53fb1b7  <+0x37>
0x8aec53fb19b    1b  894dcc               movl [rbp-0x34],rcx
0x8aec53fb19e    1e  8955d0               movl [rbp-0x30],rdx
0x8aec53fb1a1    21  8945d4               movl [rbp-0x2c],rax
0x8aec53fb1a4    24  33db                 xorl rbx,rbx
0x8aec53fb1a6    26  4533c9               xorl r9,r9
0x8aec53fb1a9    29  488b75f0             REX.W movq rsi,[rbp-0x10]
0x8aec53fb1ad    2d  e8a7ceffff           call 0x8aec53f8059  (jump table)
0x8aec53fb1b2    32  488be5               REX.W movq rsp,rbp
0x8aec53fb1b5    35  5d                   pop rbp
0x8aec53fb1b6    36  c3                   retl
0x8aec53fb1b7    37  50                   push rax
0x8aec53fb1b8    38  51                   push rcx
0x8aec53fb1b9    39  52                   push rdx
0x8aec53fb1ba    3a  e8b1d1ffff           call 0x8aec53f8370  (jump table)
0x8aec53fb1bf    3f  5a                   pop rdx
0x8aec53fb1c0    40  59                   pop rcx
0x8aec53fb1c1    41  58                   pop rax
0x8aec53fb1c2    42  488b75f0             REX.W movq rsi,[rbp-0x10]
0x8aec53fb1c6    46  ebd3                 jmp 0x8aec53fb19b  <+0x1b>

Source positions:
 pc offset  position
        2d        11  statement
        3a         0  statement

Safepoints (entries = 1, byte size = 11)
0x8aec53fb1b2     32  slots (sp->fp): 0000000000000000

RelocInfo (size = 0)

--- End code ---
--- WebAssembly code ---
name: pad
index: 29
kind: wasm function
compiler: Liftoff
Body (size = 384 = 360 + 24 padding)
Instructions (size = 348)
0x8aec53fb200     0  55                   push rbp
0x8aec53fb201     1  4889e5               REX.W movq rbp,rsp
0x8aec53fb204     4  6a08                 push 0x8
0x8aec53fb206     6  56                   push rsi
0x8aec53fb207     7  4881ec40000000       REX.W subq rsp,0x40
0x8aec53fb20e     e  488b7e27             REX.W movq rdi,[rsi+0x27]
0x8aec53fb212    12  483b27               REX.W cmpq rsp,[rdi]
0x8aec53fb215    15  0f8618010000         jna 0x8aec53fb333  <+0x133>
0x8aec53fb21b    1b  488b7e47             REX.W movq rdi,[rsi+0x47]
0x8aec53fb21f    1f  8b37                 movl rsi,[rdi]
0x8aec53fb221    21  bf00010000           movl rdi,0x100
0x8aec53fb226    26  2bf7                 subl rsi,rdi
0x8aec53fb228    28  488b7df0             REX.W movq rdi,[rbp-0x10]
0x8aec53fb22c    2c  488b7f47             REX.W movq rdi,[rdi+0x47]
0x8aec53fb230    30  8937                 movl [rdi],rsi
0x8aec53fb232    32  3bcb                 cmpl rcx,rbx
0x8aec53fb234    34  0f8f05000000         jg 0x8aec53fb23f  <+0x3f>
0x8aec53fb23a    3a  e9dc000000           jmp 0x8aec53fb31b  <+0x11b>
0x8aec53fb23f    3f  418bf9               movl rdi,r9
0x8aec53fb242    42  81e700200100         andl rdi,0x12000
0x8aec53fb248    48  85ff                 testl rdi,rdi
0x8aec53fb24a    4a  0f8405000000         jz 0x8aec53fb255  <+0x55>
0x8aec53fb250    50  e9c6000000           jmp 0x8aec53fb31b  <+0x11b>
0x8aec53fb255    55  8bfa                 movl rdi,rdx
0x8aec53fb257    57  81e7ff000000         andl rdi,0xff
0x8aec53fb25d    5d  8945d4               movl [rbp-0x2c],rax
0x8aec53fb260    60  8bc1                 movl rax,rcx
0x8aec53fb262    62  2bc3                 subl rax,rbx
0x8aec53fb264    64  b900010000           movl rcx,0x100
0x8aec53fb269    69  3bc1                 cmpl rax,rcx
0x8aec53fb26b    6b  0f92c1               setcl cl
0x8aec53fb26e    6e  0fb6c9               movzxbl rcx,rcx
0x8aec53fb271    71  bb00010000           movl rbx,0x100
0x8aec53fb276    76  85c9                 testl rcx,rcx
0x8aec53fb278    78  0f45d8               cmovnzl rbx,rax
0x8aec53fb27b    7b  8975c0               movl [rbp-0x40],rsi
0x8aec53fb27e    7e  44894dc4             movl [rbp-0x3c],r9
0x8aec53fb282    82  894dc8               movl [rbp-0x38],rcx
0x8aec53fb285    85  8945cc               movl [rbp-0x34],rax
0x8aec53fb288    88  8955d0               movl [rbp-0x30],rdx
0x8aec53fb28b    8b  8bc6                 movl rax,rsi
0x8aec53fb28d    8d  8bcb                 movl rcx,rbx
0x8aec53fb28f    8f  8bd7                 movl rdx,rdi
0x8aec53fb291    91  488b75f0             REX.W movq rsi,[rbp-0x10]
0x8aec53fb295    95  e889cdffff           call 0x8aec53f8023  (jump table)
0x8aec53fb29a    9a  8b45c8               movl rax,[rbp-0x38]
0x8aec53fb29d    9d  85c0                 testl rax,rax
0x8aec53fb29f    9f  0f8549000000         jnz 0x8aec53fb2ee  <+0xee>
0x8aec53fb2a5    a5  488b75f0             REX.W movq rsi,[rbp-0x10]
0x8aec53fb2a9    a9  488b4627             REX.W movq rax,[rsi+0x27]
0x8aec53fb2ad    ad  483b20               REX.W cmpq rsp,[rax]
0x8aec53fb2b0    b0  0f8697000000         jna 0x8aec53fb34d  <+0x14d>
0x8aec53fb2b6    b6  8b45d4               movl rax,[rbp-0x2c]
0x8aec53fb2b9    b9  8b4dc0               movl rcx,[rbp-0x40]
0x8aec53fb2bc    bc  8bd1                 movl rdx,rcx
0x8aec53fb2be    be  b900010000           movl rcx,0x100
0x8aec53fb2c3    c3  488b75f0             REX.W movq rsi,[rbp-0x10]
0x8aec53fb2c7    c7  e897cdffff           call 0x8aec53f8063  (jump table)
0x8aec53fb2cc    cc  8b45cc               movl rax,[rbp-0x34]
0x8aec53fb2cf    cf  b900010000           movl rcx,0x100
0x8aec53fb2d4    d4  2bc1                 subl rax,rcx
0x8aec53fb2d6    d6  3dff000000           cmp rax,0xff
0x8aec53fb2db    db  0f8605000000         jna 0x8aec53fb2e6  <+0xe6>
0x8aec53fb2e1    e1  8945cc               movl [rbp-0x34],rax
0x8aec53fb2e4    e4  ebbf                 jmp 0x8aec53fb2a5  <+0xa5>
0x8aec53fb2e6    e6  8945cc               movl [rbp-0x34],rax
0x8aec53fb2e9    e9  e900000000           jmp 0x8aec53fb2ee  <+0xee>
0x8aec53fb2ee    ee  8b45d4               movl rax,[rbp-0x2c]
0x8aec53fb2f1    f1  8b4dc0               movl rcx,[rbp-0x40]
0x8aec53fb2f4    f4  8b55cc               movl rdx,[rbp-0x34]
0x8aec53fb2f7    f7  8955b0               movl [rbp-0x50],rdx
0x8aec53fb2fa    fa  8bd1                 movl rdx,rcx
0x8aec53fb2fc    fc  8b4db0               movl rcx,[rbp-0x50]
0x8aec53fb2ff    ff  488b75f0             REX.W movq rsi,[rbp-0x10]
0x8aec53fb303   103  e85bcdffff           call 0x8aec53f8063  (jump table)
0x8aec53fb308   108  8b45d4               movl rax,[rbp-0x2c]
0x8aec53fb30b   10b  8b4dcc               movl rcx,[rbp-0x34]
0x8aec53fb30e   10e  8b55d0               movl rdx,[rbp-0x30]
0x8aec53fb311   111  8b5dc8               movl rbx,[rbp-0x38]
0x8aec53fb314   114  8b75c0               movl rsi,[rbp-0x40]
0x8aec53fb317   117  448b4dc4             movl r9,[rbp-0x3c]
0x8aec53fb31b   11b  8dbe00010000         leal rdi,[rsi+0x100]
0x8aec53fb321   121  8945d4               movl [rbp-0x2c],rax
0x8aec53fb324   124  488b45f0             REX.W movq rax,[rbp-0x10]
0x8aec53fb328   128  488b4047             REX.W movq rax,[rax+0x47]
0x8aec53fb32c   12c  8938                 movl [rax],rdi
0x8aec53fb32e   12e  488be5               REX.W movq rsp,rbp
0x8aec53fb331   131  5d                   pop rbp
0x8aec53fb332   132  c3                   retl
0x8aec53fb333   133  50                   push rax
0x8aec53fb334   134  51                   push rcx
0x8aec53fb335   135  52                   push rdx
0x8aec53fb336   136  53                   push rbx
0x8aec53fb337   137  4151                 push r9
0x8aec53fb339   139  e832d0ffff           call 0x8aec53f8370  (jump table)
0x8aec53fb33e   13e  4159                 pop r9
0x8aec53fb340   140  5b                   pop rbx
0x8aec53fb341   141  5a                   pop rdx
0x8aec53fb342   142  59                   pop rcx
0x8aec53fb343   143  58                   pop rax
0x8aec53fb344   144  488b75f0             REX.W movq rsi,[rbp-0x10]
0x8aec53fb348   148  e9cefeffff           jmp 0x8aec53fb21b  <+0x1b>
0x8aec53fb34d   14d  e81ed0ffff           call 0x8aec53f8370  (jump table)
0x8aec53fb352   152  488b75f0             REX.W movq rsi,[rbp-0x10]
0x8aec53fb356   156  e95bffffff           jmp 0x8aec53fb2b6  <+0xb6>
0x8aec53fb35b   15b  90                   nop

Source positions:
 pc offset  position
        95        58  statement
        c7        75  statement
       103        99  statement
       139         0  statement
       14d        66  statement

Safepoints (entries = 1, byte size = 12)
0x8aec53fb29a     9a  slots (sp->fp): 000000000000000000000000

RelocInfo (size = 0)

--- End code ---
--- WebAssembly code ---
name: fmt_u
index: 28
kind: wasm function
compiler: Liftoff
Body (size = 512 = 488 + 24 padding)
Instructions (size = 476)
0x8aec53fb380     0  55                   push rbp
0x8aec53fb381     1  4889e5               REX.W movq rbp,rsp
0x8aec53fb384     4  6a08                 push 0x8
0x8aec53fb386     6  56                   push rsi
0x8aec53fb387     7  4881ec40000000       REX.W subq rsp,0x40
0x8aec53fb38e     e  48c745b800000000     REX.W movq [rbp-0x48],0x0
0x8aec53fb396    16  48c745c000000000     REX.W movq [rbp-0x40],0x0
0x8aec53fb39e    1e  c745c800000000       movl [rbp-0x38],0x0
0x8aec53fb3a5    25  488b4e27             REX.W movq rcx,[rsi+0x27]
0x8aec53fb3a9    29  483b21               REX.W cmpq rsp,[rcx]
0x8aec53fb3ac    2c  0f8667010000         jna 0x8aec53fb519  <+0x199>
0x8aec53fb3b2    32  48b90000000001000000 REX.W movq rcx,0x100000000
0x8aec53fb3bc    3c  483bc1               REX.W cmpq rax,rcx
0x8aec53fb3bf    3f  0f92c1               setcl cl
0x8aec53fb3c2    42  0fb6c9               movzxbl rcx,rcx
0x8aec53fb3c5    45  85c9                 testl rcx,rcx
0x8aec53fb3c7    47  0f8408000000         jz 0x8aec53fb3d5  <+0x55>
0x8aec53fb3cd    4d  488bc8               REX.W movq rcx,rax
0x8aec53fb3d0    50  e99b000000           jmp 0x8aec53fb470  <+0xf0>
0x8aec53fb3d5    55  488945d0             REX.W movq [rbp-0x30],rax
0x8aec53fb3d9    59  8955cc               movl [rbp-0x34],rdx
0x8aec53fb3dc    5c  488b4627             REX.W movq rax,[rsi+0x27]
0x8aec53fb3e0    60  483b20               REX.W cmpq rsp,[rax]
0x8aec53fb3e3    63  0f8642010000         jna 0x8aec53fb52b  <+0x1ab>
0x8aec53fb3e9    69  8b45cc               movl rax,[rbp-0x34]
0x8aec53fb3ec    6c  b901000000           movl rcx,0x1
0x8aec53fb3f1    71  2bc1                 subl rax,rcx
0x8aec53fb3f3    73  488b4dd0             REX.W movq rcx,[rbp-0x30]
0x8aec53fb3f7    77  488b55d0             REX.W movq rdx,[rbp-0x30]
0x8aec53fb3fb    7b  bb0a000000           movl rbx,0xa
0x8aec53fb400    80  8945b4               movl [rbp-0x4c],rax
0x8aec53fb403    83  8945cc               movl [rbp-0x34],rax
0x8aec53fb406    86  4885db               REX.W testq rbx,rbx
0x8aec53fb409    89  0f842a010000         jz 0x8aec53fb539  <+0x1b9>
0x8aec53fb40f    8f  488bc2               REX.W movq rax,rdx
0x8aec53fb412    92  33d2                 xorl rdx,rdx
0x8aec53fb414    94  48f7f3               REX.W divq rbx
0x8aec53fb417    97  488bd0               REX.W movq rdx,rax
0x8aec53fb41a    9a  b80a000000           movl rax,0xa
0x8aec53fb41f    9f  480fafc2             REX.W imulq rax,rdx
0x8aec53fb423    a3  482bc8               REX.W subq rcx,rax
0x8aec53fb426    a6  8bc9                 movl rcx,rcx
0x8aec53fb428    a8  83c930               orl rcx,0x30
0x8aec53fb42b    ab  8b45b4               movl rax,[rbp-0x4c]
0x8aec53fb42e    ae  488b5e17             REX.W movq rbx,[rsi+0x17]
0x8aec53fb432    b2  880c03               movb [rbx+rax*1],cl
0x8aec53fb435    b5  488b45d0             REX.W movq rax,[rbp-0x30]
0x8aec53fb439    b9  48b9ffffffff09000000 REX.W movq rcx,0x9ffffffff
0x8aec53fb443    c3  483bc1               REX.W cmpq rax,rcx
0x8aec53fb446    c6  0f97c0               setal al
0x8aec53fb449    c9  0fb6c0               movzxbl rax,rax
0x8aec53fb44c    cc  85c0                 testl rax,rax
0x8aec53fb44e    ce  0f8410000000         jz 0x8aec53fb464  <+0xe4>
0x8aec53fb454    d4  488955d0             REX.W movq [rbp-0x30],rdx
0x8aec53fb458    d8  8945c8               movl [rbp-0x38],rax
0x8aec53fb45b    db  488955c0             REX.W movq [rbp-0x40],rdx
0x8aec53fb45f    df  e978ffffff           jmp 0x8aec53fb3dc  <+0x5c>
0x8aec53fb464    e4  8945c8               movl [rbp-0x38],rax
0x8aec53fb467    e7  488bc2               REX.W movq rax,rdx
0x8aec53fb46a    ea  488bca               REX.W movq rcx,rdx
0x8aec53fb46d    ed  8b55cc               movl rdx,[rbp-0x34]
0x8aec53fb470    f0  8bd9                 movl rbx,rcx
0x8aec53fb472    f2  85db                 testl rbx,rbx
0x8aec53fb474    f4  0f8498000000         jz 0x8aec53fb512  <+0x192>
0x8aec53fb47a    fa  488945d0             REX.W movq [rbp-0x30],rax
0x8aec53fb47e    fe  8955cc               movl [rbp-0x34],rdx
0x8aec53fb481   101  895dc8               movl [rbp-0x38],rbx
0x8aec53fb484   104  48894dc0             REX.W movq [rbp-0x40],rcx
0x8aec53fb488   108  488b4627             REX.W movq rax,[rsi+0x27]
0x8aec53fb48c   10c  483b20               REX.W cmpq rsp,[rax]
0x8aec53fb48f   10f  0f86ae000000         jna 0x8aec53fb543  <+0x1c3>
0x8aec53fb495   115  8b45cc               movl rax,[rbp-0x34]
0x8aec53fb498   118  b901000000           movl rcx,0x1
0x8aec53fb49d   11d  2bc1                 subl rax,rcx
0x8aec53fb49f   11f  8b4dc8               movl rcx,[rbp-0x38]
0x8aec53fb4a2   122  8b55c8               movl rdx,[rbp-0x38]
0x8aec53fb4a5   125  bb0a000000           movl rbx,0xa
0x8aec53fb4aa   12a  8945b4               movl [rbp-0x4c],rax
0x8aec53fb4ad   12d  8945cc               movl [rbp-0x34],rax
0x8aec53fb4b0   130  85db                 testl rbx,rbx
0x8aec53fb4b2   132  0f8499000000         jz 0x8aec53fb551  <+0x1d1>
0x8aec53fb4b8   138  8bc2                 movl rax,rdx
0x8aec53fb4ba   13a  33d2                 xorl rdx,rdx
0x8aec53fb4bc   13c  f7f3                 divl rbx
0x8aec53fb4be   13e  8bd0                 movl rdx,rax
0x8aec53fb4c0   140  b80a000000           movl rax,0xa
0x8aec53fb4c5   145  0fafc2               imull rax,rdx
0x8aec53fb4c8   148  2bc8                 subl rcx,rax
0x8aec53fb4ca   14a  83c930               orl rcx,0x30
0x8aec53fb4cd   14d  8b45b4               movl rax,[rbp-0x4c]
0x8aec53fb4d0   150  488b5e17             REX.W movq rbx,[rsi+0x17]
0x8aec53fb4d4   154  880c03               movb [rbx+rax*1],cl
0x8aec53fb4d7   157  8b45c8               movl rax,[rbp-0x38]
0x8aec53fb4da   15a  b909000000           movl rcx,0x9
0x8aec53fb4df   15f  3bc1                 cmpl rax,rcx
0x8aec53fb4e1   161  0f97c0               setal al
0x8aec53fb4e4   164  0fb6c0               movzxbl rax,rax
0x8aec53fb4e7   167  85c0                 testl rax,rax
0x8aec53fb4e9   169  0f840b000000         jz 0x8aec53fb4fa  <+0x17a>
0x8aec53fb4ef   16f  8955c8               movl [rbp-0x38],rdx
0x8aec53fb4f2   172  8955bc               movl [rbp-0x44],rdx
0x8aec53fb4f5   175  8945b8               movl [rbp-0x48],rax
0x8aec53fb4f8   178  eb8e                 jmp 0x8aec53fb488  <+0x108>
0x8aec53fb4fa   17a  8955bc               movl [rbp-0x44],rdx
0x8aec53fb4fd   17d  8945b8               movl [rbp-0x48],rax
0x8aec53fb500   180  8bda                 movl rbx,rdx
0x8aec53fb502   182  488b45d0             REX.W movq rax,[rbp-0x30]
0x8aec53fb506   186  488b4dc0             REX.W movq rcx,[rbp-0x40]
0x8aec53fb50a   18a  8b55cc               movl rdx,[rbp-0x34]
0x8aec53fb50d   18d  e900000000           jmp 0x8aec53fb512  <+0x192>
0x8aec53fb512   192  8bc2                 movl rax,rdx
0x8aec53fb514   194  488be5               REX.W movq rsp,rbp
0x8aec53fb517   197  5d                   pop rbp
0x8aec53fb518   198  c3                   retl
0x8aec53fb519   199  50                   push rax
0x8aec53fb51a   19a  52                   push rdx
0x8aec53fb51b   19b  e850ceffff           call 0x8aec53f8370  (jump table)
0x8aec53fb520   1a0  5a                   pop rdx
0x8aec53fb521   1a1  58                   pop rax
0x8aec53fb522   1a2  488b75f0             REX.W movq rsi,[rbp-0x10]
0x8aec53fb526   1a6  e987feffff           jmp 0x8aec53fb3b2  <+0x32>
0x8aec53fb52b   1ab  e840ceffff           call 0x8aec53f8370  (jump table)
0x8aec53fb530   1b0  488b75f0             REX.W movq rsi,[rbp-0x10]
0x8aec53fb534   1b4  e9b0feffff           jmp 0x8aec53fb3e9  <+0x69>
0x8aec53fb539   1b9  e8f2cbffff           call 0x8aec53f8130  (jump table)
0x8aec53fb53e   1be  e8cdcbffff           call 0x8aec53f8110  (jump table)
0x8aec53fb543   1c3  e828ceffff           call 0x8aec53f8370  (jump table)
0x8aec53fb548   1c8  488b75f0             REX.W movq rsi,[rbp-0x10]
0x8aec53fb54c   1cc  e944ffffff           jmp 0x8aec53fb495  <+0x115>
0x8aec53fb551   1d1  e8dacbffff           call 0x8aec53f8130  (jump table)
0x8aec53fb556   1d6  e8b5cbffff           call 0x8aec53f8110  (jump table)
0x8aec53fb55b   1db  90                   nop

Protected instructions:
 pc offset  land pad
        b2       1be
       154       1d6

Source positions:
 pc offset  position
       19b         0  statement
       1ab        29  statement
       1b9        44  statement
       1be        55  statement
       1c3        87  statement
       1d1       102  statement
       1d6       112  statement

Safepoints (entries = 1, byte size = 12)
0x8aec53fb520    1a0  slots (sp->fp): 0000000000000000

RelocInfo (size = 0)

--- End code ---
--- WebAssembly code ---
name: fmt_o
index: 27
kind: wasm function
compiler: Liftoff
Body (size = 256 = 212 + 44 padding)
Instructions (size = 200)
0x8aec53fb580     0  55                   push rbp
0x8aec53fb581     1  4889e5               REX.W movq rbp,rsp
0x8aec53fb584     4  6a08                 push 0x8
0x8aec53fb586     6  56                   push rsi
0x8aec53fb587     7  4881ec28000000       REX.W subq rsp,0x28
0x8aec53fb58e     e  488b4e27             REX.W movq rcx,[rsi+0x27]
0x8aec53fb592    12  483b21               REX.W cmpq rsp,[rcx]
0x8aec53fb595    15  0f868a000000         jna 0x8aec53fb625  <+0xa5>
0x8aec53fb59b    1b  4885c0               REX.W testq rax,rax
0x8aec53fb59e    1e  0f94c1               setzl cl
0x8aec53fb5a1    21  0fb6c9               movzxbl rcx,rcx
0x8aec53fb5a4    24  85c9                 testl rcx,rcx
0x8aec53fb5a6    26  0f8570000000         jnz 0x8aec53fb61c  <+0x9c>
0x8aec53fb5ac    2c  488945d0             REX.W movq [rbp-0x30],rax
0x8aec53fb5b0    30  8955cc               movl [rbp-0x34],rdx
0x8aec53fb5b3    33  c745c800000000       movl [rbp-0x38],0x0
0x8aec53fb5ba    3a  488b4627             REX.W movq rax,[rsi+0x27]
0x8aec53fb5be    3e  483b20               REX.W cmpq rsp,[rax]
0x8aec53fb5c1    41  0f8670000000         jna 0x8aec53fb637  <+0xb7>
0x8aec53fb5c7    47  8b45cc               movl rax,[rbp-0x34]
0x8aec53fb5ca    4a  b901000000           movl rcx,0x1
0x8aec53fb5cf    4f  2bc1                 subl rax,rcx
0x8aec53fb5d1    51  488b4dd0             REX.W movq rcx,[rbp-0x30]
0x8aec53fb5d5    55  8bc9                 movl rcx,rcx
0x8aec53fb5d7    57  83e107               andl rcx,0x7
0x8aec53fb5da    5a  83c930               orl rcx,0x30
0x8aec53fb5dd    5d  488b5617             REX.W movq rdx,[rsi+0x17]
0x8aec53fb5e1    61  880c02               movb [rdx+rax*1],cl
0x8aec53fb5e4    64  488b4dd0             REX.W movq rcx,[rbp-0x30]
0x8aec53fb5e8    68  bb07000000           movl rbx,0x7
0x8aec53fb5ed    6d  483bcb               REX.W cmpq rcx,rbx
0x8aec53fb5f0    70  0f97c1               setal cl
0x8aec53fb5f3    73  0fb6c9               movzxbl rcx,rcx
0x8aec53fb5f6    76  488b5dd0             REX.W movq rbx,[rbp-0x30]
0x8aec53fb5fa    7a  48c1eb03             REX.W shrq rbx, 3
0x8aec53fb5fe    7e  85c9                 testl rcx,rcx
0x8aec53fb600    80  0f840c000000         jz 0x8aec53fb612  <+0x92>
0x8aec53fb606    86  48895dd0             REX.W movq [rbp-0x30],rbx
0x8aec53fb60a    8a  8945cc               movl [rbp-0x34],rax
0x8aec53fb60d    8d  894dc8               movl [rbp-0x38],rcx
0x8aec53fb610    90  eba8                 jmp 0x8aec53fb5ba  <+0x3a>
0x8aec53fb612    92  8bd0                 movl rdx,rax
0x8aec53fb614    94  488bc3               REX.W movq rax,rbx
0x8aec53fb617    97  e902000000           jmp 0x8aec53fb61e  <+0x9e>
0x8aec53fb61c    9c  33c9                 xorl rcx,rcx
0x8aec53fb61e    9e  8bc2                 movl rax,rdx
0x8aec53fb620    a0  488be5               REX.W movq rsp,rbp
0x8aec53fb623    a3  5d                   pop rbp
0x8aec53fb624    a4  c3                   retl
0x8aec53fb625    a5  50                   push rax
0x8aec53fb626    a6  52                   push rdx
0x8aec53fb627    a7  e844cdffff           call 0x8aec53f8370  (jump table)
0x8aec53fb62c    ac  5a                   pop rdx
0x8aec53fb62d    ad  58                   pop rax
0x8aec53fb62e    ae  488b75f0             REX.W movq rsi,[rbp-0x10]
0x8aec53fb632    b2  e964ffffff           jmp 0x8aec53fb59b  <+0x1b>
0x8aec53fb637    b7  e834cdffff           call 0x8aec53f8370  (jump table)
0x8aec53fb63c    bc  488b75f0             REX.W movq rsi,[rbp-0x10]
0x8aec53fb640    c0  eb85                 jmp 0x8aec53fb5c7  <+0x47>
0x8aec53fb642    c2  e8c9caffff           call 0x8aec53f8110  (jump table)
0x8aec53fb647    c7  90                   nop

Protected instructions:
 pc offset  land pad
        61        c2

Source positions:
 pc offset  position
        a7         0  statement
        b7         9  statement
        c2        27  statement

Safepoints (entries = 1, byte size = 11)
0x8aec53fb62c     ac  slots (sp->fp): 0000000000000000

RelocInfo (size = 0)

--- End code ---
--- WebAssembly code ---
name: fmt_x
index: 26
kind: wasm function
compiler: Liftoff
Body (size = 256 = 244 + 12 padding)
Instructions (size = 232)
0x8aec53fb680     0  55                   push rbp
0x8aec53fb681     1  4889e5               REX.W movq rbp,rsp
0x8aec53fb684     4  6a08                 push 0x8
0x8aec53fb686     6  56                   push rsi
0x8aec53fb687     7  4881ec30000000       REX.W subq rsp,0x30
0x8aec53fb68e     e  488b5e27             REX.W movq rbx,[rsi+0x27]
0x8aec53fb692    12  483b23               REX.W cmpq rsp,[rbx]
0x8aec53fb695    15  0f869e000000         jna 0x8aec53fb739  <+0xb9>
0x8aec53fb69b    1b  4885c0               REX.W testq rax,rax
0x8aec53fb69e    1e  0f94c3               setzl bl
0x8aec53fb6a1    21  0fb6db               movzxbl rbx,rbx
0x8aec53fb6a4    24  85db                 testl rbx,rbx
0x8aec53fb6a6    26  0f8584000000         jnz 0x8aec53fb730  <+0xb0>
0x8aec53fb6ac    2c  488945d0             REX.W movq [rbp-0x30],rax
0x8aec53fb6b0    30  8955cc               movl [rbp-0x34],rdx
0x8aec53fb6b3    33  894dc8               movl [rbp-0x38],rcx
0x8aec53fb6b6    36  c745c400000000       movl [rbp-0x3c],0x0
0x8aec53fb6bd    3d  488b4627             REX.W movq rax,[rsi+0x27]
0x8aec53fb6c1    41  483b20               REX.W cmpq rsp,[rax]
0x8aec53fb6c4    44  0f8683000000         jna 0x8aec53fb74d  <+0xcd>
0x8aec53fb6ca    4a  8b45cc               movl rax,[rbp-0x34]
0x8aec53fb6cd    4d  b901000000           movl rcx,0x1
0x8aec53fb6d2    52  2bc1                 subl rax,rcx
0x8aec53fb6d4    54  488b4dd0             REX.W movq rcx,[rbp-0x30]
0x8aec53fb6d8    58  8bc9                 movl rcx,rcx
0x8aec53fb6da    5a  83e10f               andl rcx,0xf
0x8aec53fb6dd    5d  81c1f0050000         addl rcx,0x5f0
0x8aec53fb6e3    63  488b5617             REX.W movq rdx,[rsi+0x17]
0x8aec53fb6e7    67  0fb61c0a             movzxbl rbx,[rdx+rcx*1]
0x8aec53fb6eb    6b  8b4dc8               movl rcx,[rbp-0x38]
0x8aec53fb6ee    6e  0bd9                 orl rbx,rcx
0x8aec53fb6f0    70  881c02               movb [rdx+rax*1],bl
0x8aec53fb6f3    73  488b4dd0             REX.W movq rcx,[rbp-0x30]
0x8aec53fb6f7    77  bb0f000000           movl rbx,0xf
0x8aec53fb6fc    7c  483bcb               REX.W cmpq rcx,rbx
0x8aec53fb6ff    7f  0f97c1               setal cl
0x8aec53fb702    82  0fb6c9               movzxbl rcx,rcx
0x8aec53fb705    85  488b5dd0             REX.W movq rbx,[rbp-0x30]
0x8aec53fb709    89  48c1eb04             REX.W shrq rbx, 4
0x8aec53fb70d    8d  85c9                 testl rcx,rcx
0x8aec53fb70f    8f  0f840c000000         jz 0x8aec53fb721  <+0xa1>
0x8aec53fb715    95  48895dd0             REX.W movq [rbp-0x30],rbx
0x8aec53fb719    99  8945cc               movl [rbp-0x34],rax
0x8aec53fb71c    9c  894dc4               movl [rbp-0x3c],rcx
0x8aec53fb71f    9f  eb9c                 jmp 0x8aec53fb6bd  <+0x3d>
0x8aec53fb721    a1  8bd0                 movl rdx,rax
0x8aec53fb723    a3  488bc3               REX.W movq rax,rbx
0x8aec53fb726    a6  8bd9                 movl rbx,rcx
0x8aec53fb728    a8  8b4dc8               movl rcx,[rbp-0x38]
0x8aec53fb72b    ab  e902000000           jmp 0x8aec53fb732  <+0xb2>
0x8aec53fb730    b0  33db                 xorl rbx,rbx
0x8aec53fb732    b2  8bc2                 movl rax,rdx
0x8aec53fb734    b4  488be5               REX.W movq rsp,rbp
0x8aec53fb737    b7  5d                   pop rbp
0x8aec53fb738    b8  c3                   retl
0x8aec53fb739    b9  50                   push rax
0x8aec53fb73a    ba  51                   push rcx
0x8aec53fb73b    bb  52                   push rdx
0x8aec53fb73c    bc  e82fccffff           call 0x8aec53f8370  (jump table)
0x8aec53fb741    c1  5a                   pop rdx
0x8aec53fb742    c2  59                   pop rcx
0x8aec53fb743    c3  58                   pop rax
0x8aec53fb744    c4  488b75f0             REX.W movq rsi,[rbp-0x10]
0x8aec53fb748    c8  e94effffff           jmp 0x8aec53fb69b  <+0x1b>
0x8aec53fb74d    cd  e81eccffff           call 0x8aec53f8370  (jump table)
0x8aec53fb752    d2  488b75f0             REX.W movq rsi,[rbp-0x10]
0x8aec53fb756    d6  e96fffffff           jmp 0x8aec53fb6ca  <+0x4a>
0x8aec53fb75b    db  e8b0c9ffff           call 0x8aec53f8110  (jump table)
0x8aec53fb760    e0  e8abc9ffff           call 0x8aec53f8110  (jump table)
0x8aec53fb765    e5  0f1f00               nop

Protected instructions:
 pc offset  land pad
        67        db
        70        e0

Source positions:
 pc offset  position
        bc         0  statement
        cd         9  statement
        db        28  statement
        e0        34  statement

Safepoints (entries = 1, byte size = 11)
0x8aec53fb741     c1  slots (sp->fp): 0000000000000000

RelocInfo (size = 0)

--- End code ---
--- WebAssembly code ---
name: pop_arg
index: 25
kind: wasm function
compiler: Liftoff
Body (size = 1472 = 1428 + 44 padding)
Instructions (size = 1416)
0x8aec53fb780     0  55                   push rbp
0x8aec53fb781     1  4889e5               REX.W movq rbp,rsp
0x8aec53fb784     4  6a08                 push 0x8
0x8aec53fb786     6  56                   push rsi
0x8aec53fb787     7  4881ec30000000       REX.W subq rsp,0x30
0x8aec53fb78e     e  488b7e27             REX.W movq rdi,[rsi+0x27]
0x8aec53fb792    12  483b27               REX.W cmpq rsp,[rdi]
0x8aec53fb795    15  0f86f9030000         jna 0x8aec53fbb94  <+0x414>
0x8aec53fb79b    1b  bf09000000           movl rdi,0x9
0x8aec53fb7a0    20  f7df                 negl rdi
0x8aec53fb7a2    22  03fa                 addl rdi,rdx
0x8aec53fb7a4    24  41b912000000         movl r9,0x12
0x8aec53fb7aa    2a  413bf9               cmpl rdi,r9
0x8aec53fb7ad    2d  0f8359010000         jnc 0x8aec53fb90c  <+0x18c>
0x8aec53fb7b3    33  41b909000000         movl r9,0x9
0x8aec53fb7b9    39  413bf9               cmpl rdi,r9
0x8aec53fb7bc    3c  0f83a5000000         jnc 0x8aec53fb867  <+0xe7>
0x8aec53fb7c2    42  41b904000000         movl r9,0x4
0x8aec53fb7c8    48  413bf9               cmpl rdi,r9
0x8aec53fb7cb    4b  0f8341000000         jnc 0x8aec53fb812  <+0x92>
0x8aec53fb7d1    51  41b902000000         movl r9,0x2
0x8aec53fb7d7    57  413bf9               cmpl rdi,r9
0x8aec53fb7da    5a  0f8319000000         jnc 0x8aec53fb7f9  <+0x79>
0x8aec53fb7e0    60  41b901000000         movl r9,0x1
0x8aec53fb7e6    66  413bf9               cmpl rdi,r9
0x8aec53fb7e9    69  0f8305000000         jnc 0x8aec53fb7f4  <+0x74>
0x8aec53fb7ef    6f  e91d010000           jmp 0x8aec53fb911  <+0x191>
0x8aec53fb7f4    74  e933010000           jmp 0x8aec53fb92c  <+0x1ac>
0x8aec53fb7f9    79  41b903000000         movl r9,0x3
0x8aec53fb7ff    7f  413bf9               cmpl rdi,r9
0x8aec53fb802    82  0f8305000000         jnc 0x8aec53fb80d  <+0x8d>
0x8aec53fb808    88  e93b010000           jmp 0x8aec53fb948  <+0x1c8>
0x8aec53fb80d    8d  e98a010000           jmp 0x8aec53fb99c  <+0x21c>
0x8aec53fb812    92  41b906000000         movl r9,0x6
0x8aec53fb818    98  413bf9               cmpl rdi,r9
0x8aec53fb81b    9b  0f8319000000         jnc 0x8aec53fb83a  <+0xba>
0x8aec53fb821    a1  41b905000000         movl r9,0x5
0x8aec53fb827    a7  413bf9               cmpl rdi,r9
0x8aec53fb82a    aa  0f8305000000         jnc 0x8aec53fb835  <+0xb5>
0x8aec53fb830    b0  e92f010000           jmp 0x8aec53fb964  <+0x1e4>
0x8aec53fb835    b5  e946010000           jmp 0x8aec53fb980  <+0x200>
0x8aec53fb83a    ba  41b907000000         movl r9,0x7
0x8aec53fb840    c0  413bf9               cmpl rdi,r9
0x8aec53fb843    c3  0f8305000000         jnc 0x8aec53fb84e  <+0xce>
0x8aec53fb849    c9  e972010000           jmp 0x8aec53fb9c0  <+0x240>
0x8aec53fb84e    ce  41b908000000         movl r9,0x8
0x8aec53fb854    d4  413bf9               cmpl rdi,r9
0x8aec53fb857    d7  0f8305000000         jnc 0x8aec53fb862  <+0xe2>
0x8aec53fb85d    dd  e97b010000           jmp 0x8aec53fb9dd  <+0x25d>
0x8aec53fb862    e2  e993010000           jmp 0x8aec53fb9fa  <+0x27a>
0x8aec53fb867    e7  41b90d000000         movl r9,0xd
0x8aec53fb86d    ed  413bf9               cmpl rdi,r9
0x8aec53fb870    f0  0f8341000000         jnc 0x8aec53fb8b7  <+0x137>
0x8aec53fb876    f6  41b90b000000         movl r9,0xb
0x8aec53fb87c    fc  413bf9               cmpl rdi,r9
0x8aec53fb87f    ff  0f8319000000         jnc 0x8aec53fb89e  <+0x11e>
0x8aec53fb885   105  41b90a000000         movl r9,0xa
0x8aec53fb88b   10b  413bf9               cmpl rdi,r9
0x8aec53fb88e   10e  0f8305000000         jnc 0x8aec53fb899  <+0x119>
0x8aec53fb894   114  e97e010000           jmp 0x8aec53fba17  <+0x297>
0x8aec53fb899   119  e996010000           jmp 0x8aec53fba34  <+0x2b4>
0x8aec53fb89e   11e  41b90c000000         movl r9,0xc
0x8aec53fb8a4   124  413bf9               cmpl rdi,r9
0x8aec53fb8a7   127  0f8305000000         jnc 0x8aec53fb8b2  <+0x132>
0x8aec53fb8ad   12d  e9a6010000           jmp 0x8aec53fba58  <+0x2d8>
0x8aec53fb8b2   132  e9bd010000           jmp 0x8aec53fba74  <+0x2f4>
0x8aec53fb8b7   137  41b90f000000         movl r9,0xf
0x8aec53fb8bd   13d  413bf9               cmpl rdi,r9
0x8aec53fb8c0   140  0f8319000000         jnc 0x8aec53fb8df  <+0x15f>
0x8aec53fb8c6   146  41b90e000000         movl r9,0xe
0x8aec53fb8cc   14c  413bf9               cmpl rdi,r9
0x8aec53fb8cf   14f  0f8305000000         jnc 0x8aec53fb8da  <+0x15a>
0x8aec53fb8d5   155  e9be010000           jmp 0x8aec53fba98  <+0x318>
0x8aec53fb8da   15a  e9dd010000           jmp 0x8aec53fbabc  <+0x33c>
0x8aec53fb8df   15f  41b910000000         movl r9,0x10
0x8aec53fb8e5   165  413bf9               cmpl rdi,r9
0x8aec53fb8e8   168  0f8305000000         jnc 0x8aec53fb8f3  <+0x173>
0x8aec53fb8ee   16e  e9e5010000           jmp 0x8aec53fbad8  <+0x358>
0x8aec53fb8f3   173  41b911000000         movl r9,0x11
0x8aec53fb8f9   179  413bf9               cmpl rdi,r9
0x8aec53fb8fc   17c  0f8305000000         jnc 0x8aec53fb907  <+0x187>
0x8aec53fb902   182  e9ed010000           jmp 0x8aec53fbaf4  <+0x374>
0x8aec53fb907   187  e90f020000           jmp 0x8aec53fbb1b  <+0x39b>
0x8aec53fb90c   18c  e97e020000           jmp 0x8aec53fbb8f  <+0x40f>
0x8aec53fb911   191  488b7e17             REX.W movq rdi,[rsi+0x17]
0x8aec53fb915   195  448b0c0f             movl r9,[rdi+rcx*1]
0x8aec53fb919   199  418d5104             leal rdx,[r9+0x4]
0x8aec53fb91d   19d  89140f               movl [rdi+rcx*1],rdx
0x8aec53fb920   1a0  428b140f             movl rdx,[rdi+r9*1]
0x8aec53fb924   1a4  891407               movl [rdi+rax*1],rdx
0x8aec53fb927   1a7  488be5               REX.W movq rsp,rbp
0x8aec53fb92a   1aa  5d                   pop rbp
0x8aec53fb92b   1ab  c3                   retl
0x8aec53fb92c   1ac  488b7e17             REX.W movq rdi,[rsi+0x17]
0x8aec53fb930   1b0  448b0c0f             movl r9,[rdi+rcx*1]
0x8aec53fb934   1b4  418d5104             leal rdx,[r9+0x4]
0x8aec53fb938   1b8  89140f               movl [rdi+rcx*1],rdx
0x8aec53fb93b   1bb  4a63140f             REX.W movsxlq rdx,[rdi+r9*1]
0x8aec53fb93f   1bf  48891407             REX.W movq [rdi+rax*1],rdx
0x8aec53fb943   1c3  488be5               REX.W movq rsp,rbp
0x8aec53fb946   1c6  5d                   pop rbp
0x8aec53fb947   1c7  c3                   retl
0x8aec53fb948   1c8  488b7e17             REX.W movq rdi,[rsi+0x17]
0x8aec53fb94c   1cc  448b0c0f             movl r9,[rdi+rcx*1]
0x8aec53fb950   1d0  418d5104             leal rdx,[r9+0x4]
0x8aec53fb954   1d4  89140f               movl [rdi+rcx*1],rdx
0x8aec53fb957   1d7  428b140f             movl rdx,[rdi+r9*1]
0x8aec53fb95b   1db  48891407             REX.W movq [rdi+rax*1],rdx
0x8aec53fb95f   1df  488be5               REX.W movq rsp,rbp
0x8aec53fb962   1e2  5d                   pop rbp
0x8aec53fb963   1e3  c3                   retl
0x8aec53fb964   1e4  488b7e17             REX.W movq rdi,[rsi+0x17]
0x8aec53fb968   1e8  448b0c0f             movl r9,[rdi+rcx*1]
0x8aec53fb96c   1ec  418d5104             leal rdx,[r9+0x4]
0x8aec53fb970   1f0  89140f               movl [rdi+rcx*1],rdx
0x8aec53fb973   1f3  4a63140f             REX.W movsxlq rdx,[rdi+r9*1]
0x8aec53fb977   1f7  48891407             REX.W movq [rdi+rax*1],rdx
0x8aec53fb97b   1fb  488be5               REX.W movq rsp,rbp
0x8aec53fb97e   1fe  5d                   pop rbp
0x8aec53fb97f   1ff  c3                   retl
0x8aec53fb980   200  488b7e17             REX.W movq rdi,[rsi+0x17]
0x8aec53fb984   204  448b0c0f             movl r9,[rdi+rcx*1]
0x8aec53fb988   208  418d5104             leal rdx,[r9+0x4]
0x8aec53fb98c   20c  89140f               movl [rdi+rcx*1],rdx
0x8aec53fb98f   20f  428b140f             movl rdx,[rdi+r9*1]
0x8aec53fb993   213  48891407             REX.W movq [rdi+rax*1],rdx
0x8aec53fb997   217  488be5               REX.W movq rsp,rbp
0x8aec53fb99a   21a  5d                   pop rbp
0x8aec53fb99b   21b  c3                   retl
0x8aec53fb99c   21c  488b7e17             REX.W movq rdi,[rsi+0x17]
0x8aec53fb9a0   220  448b0c0f             movl r9,[rdi+rcx*1]
0x8aec53fb9a4   224  4183c107             addl r9,0x7
0x8aec53fb9a8   228  4183e1f8             andl r9,0xf8
0x8aec53fb9ac   22c  418d5108             leal rdx,[r9+0x8]
0x8aec53fb9b0   230  89140f               movl [rdi+rcx*1],rdx
0x8aec53fb9b3   233  4a8b140f             REX.W movq rdx,[rdi+r9*1]
0x8aec53fb9b7   237  48891407             REX.W movq [rdi+rax*1],rdx
0x8aec53fb9bb   23b  488be5               REX.W movq rsp,rbp
0x8aec53fb9be   23e  5d                   pop rbp
0x8aec53fb9bf   23f  c3                   retl
0x8aec53fb9c0   240  488b7e17             REX.W movq rdi,[rsi+0x17]
0x8aec53fb9c4   244  448b0c0f             movl r9,[rdi+rcx*1]
0x8aec53fb9c8   248  418d5104             leal rdx,[r9+0x4]
0x8aec53fb9cc   24c  89140f               movl [rdi+rcx*1],rdx
0x8aec53fb9cf   24f  4a0fbf140f           REX.W movsxwq rdx,[rdi+r9*1]
0x8aec53fb9d4   254  48891407             REX.W movq [rdi+rax*1],rdx
0x8aec53fb9d8   258  488be5               REX.W movq rsp,rbp
0x8aec53fb9db   25b  5d                   pop rbp
0x8aec53fb9dc   25c  c3                   retl
0x8aec53fb9dd   25d  488b7e17             REX.W movq rdi,[rsi+0x17]
0x8aec53fb9e1   261  448b0c0f             movl r9,[rdi+rcx*1]
0x8aec53fb9e5   265  418d5104             leal rdx,[r9+0x4]
0x8aec53fb9e9   269  89140f               movl [rdi+rcx*1],rdx
0x8aec53fb9ec   26c  420fb7140f           movzxwl rdx,[rdi+r9*1]
0x8aec53fb9f1   271  48891407             REX.W movq [rdi+rax*1],rdx
0x8aec53fb9f5   275  488be5               REX.W movq rsp,rbp
0x8aec53fb9f8   278  5d                   pop rbp
0x8aec53fb9f9   279  c3                   retl
0x8aec53fb9fa   27a  488b7e17             REX.W movq rdi,[rsi+0x17]
0x8aec53fb9fe   27e  448b0c0f             movl r9,[rdi+rcx*1]
0x8aec53fba02   282  418d5104             leal rdx,[r9+0x4]
0x8aec53fba06   286  89140f               movl [rdi+rcx*1],rdx
0x8aec53fba09   289  4a0fbe140f           REX.W movsxbq rdx,[rdi+r9*1]
0x8aec53fba0e   28e  48891407             REX.W movq [rdi+rax*1],rdx
0x8aec53fba12   292  488be5               REX.W movq rsp,rbp
0x8aec53fba15   295  5d                   pop rbp
0x8aec53fba16   296  c3                   retl
0x8aec53fba17   297  488b7e17             REX.W movq rdi,[rsi+0x17]
0x8aec53fba1b   29b  448b0c0f             movl r9,[rdi+rcx*1]
0x8aec53fba1f   29f  418d5104             leal rdx,[r9+0x4]
0x8aec53fba23   2a3  89140f               movl [rdi+rcx*1],rdx
0x8aec53fba26   2a6  420fb6140f           movzxbl rdx,[rdi+r9*1]
0x8aec53fba2b   2ab  48891407             REX.W movq [rdi+rax*1],rdx
0x8aec53fba2f   2af  488be5               REX.W movq rsp,rbp
0x8aec53fba32   2b2  5d                   pop rbp
0x8aec53fba33   2b3  c3                   retl
0x8aec53fba34   2b4  488b7e17             REX.W movq rdi,[rsi+0x17]
0x8aec53fba38   2b8  448b0c0f             movl r9,[rdi+rcx*1]
0x8aec53fba3c   2bc  4183c107             addl r9,0x7
0x8aec53fba40   2c0  4183e1f8             andl r9,0xf8
0x8aec53fba44   2c4  418d5108             leal rdx,[r9+0x8]
0x8aec53fba48   2c8  89140f               movl [rdi+rcx*1],rdx
0x8aec53fba4b   2cb  4a8b140f             REX.W movq rdx,[rdi+r9*1]
0x8aec53fba4f   2cf  48891407             REX.W movq [rdi+rax*1],rdx
0x8aec53fba53   2d3  488be5               REX.W movq rsp,rbp
0x8aec53fba56   2d6  5d                   pop rbp
0x8aec53fba57   2d7  c3                   retl
0x8aec53fba58   2d8  488b7e17             REX.W movq rdi,[rsi+0x17]
0x8aec53fba5c   2dc  448b0c0f             movl r9,[rdi+rcx*1]
0x8aec53fba60   2e0  418d5104             leal rdx,[r9+0x4]
0x8aec53fba64   2e4  89140f               movl [rdi+rcx*1],rdx
0x8aec53fba67   2e7  428b140f             movl rdx,[rdi+r9*1]
0x8aec53fba6b   2eb  48891407             REX.W movq [rdi+rax*1],rdx
0x8aec53fba6f   2ef  488be5               REX.W movq rsp,rbp
0x8aec53fba72   2f2  5d                   pop rbp
0x8aec53fba73   2f3  c3                   retl
0x8aec53fba74   2f4  488b7e17             REX.W movq rdi,[rsi+0x17]
0x8aec53fba78   2f8  448b0c0f             movl r9,[rdi+rcx*1]
0x8aec53fba7c   2fc  4183c107             addl r9,0x7
0x8aec53fba80   300  4183e1f8             andl r9,0xf8
0x8aec53fba84   304  418d5108             leal rdx,[r9+0x8]
0x8aec53fba88   308  89140f               movl [rdi+rcx*1],rdx
0x8aec53fba8b   30b  4a8b140f             REX.W movq rdx,[rdi+r9*1]
0x8aec53fba8f   30f  48891407             REX.W movq [rdi+rax*1],rdx
0x8aec53fba93   313  488be5               REX.W movq rsp,rbp
0x8aec53fba96   316  5d                   pop rbp
0x8aec53fba97   317  c3                   retl
0x8aec53fba98   318  488b7e17             REX.W movq rdi,[rsi+0x17]
0x8aec53fba9c   31c  448b0c0f             movl r9,[rdi+rcx*1]
0x8aec53fbaa0   320  4183c107             addl r9,0x7
0x8aec53fbaa4   324  4183e1f8             andl r9,0xf8
0x8aec53fbaa8   328  418d5108             leal rdx,[r9+0x8]
0x8aec53fbaac   32c  89140f               movl [rdi+rcx*1],rdx
0x8aec53fbaaf   32f  4a8b140f             REX.W movq rdx,[rdi+r9*1]
0x8aec53fbab3   333  48891407             REX.W movq [rdi+rax*1],rdx
0x8aec53fbab7   337  488be5               REX.W movq rsp,rbp
0x8aec53fbaba   33a  5d                   pop rbp
0x8aec53fbabb   33b  c3                   retl
0x8aec53fbabc   33c  488b7e17             REX.W movq rdi,[rsi+0x17]
0x8aec53fbac0   340  448b0c0f             movl r9,[rdi+rcx*1]
0x8aec53fbac4   344  418d5104             leal rdx,[r9+0x4]
0x8aec53fbac8   348  89140f               movl [rdi+rcx*1],rdx
0x8aec53fbacb   34b  4a63140f             REX.W movsxlq rdx,[rdi+r9*1]
0x8aec53fbacf   34f  48891407             REX.W movq [rdi+rax*1],rdx
0x8aec53fbad3   353  488be5               REX.W movq rsp,rbp
0x8aec53fbad6   356  5d                   pop rbp
0x8aec53fbad7   357  c3                   retl
0x8aec53fbad8   358  488b7e17             REX.W movq rdi,[rsi+0x17]
0x8aec53fbadc   35c  448b0c0f             movl r9,[rdi+rcx*1]
0x8aec53fbae0   360  418d5104             leal rdx,[r9+0x4]
0x8aec53fbae4   364  89140f               movl [rdi+rcx*1],rdx
0x8aec53fbae7   367  428b140f             movl rdx,[rdi+r9*1]
0x8aec53fbaeb   36b  48891407             REX.W movq [rdi+rax*1],rdx
0x8aec53fbaef   36f  488be5               REX.W movq rsp,rbp
0x8aec53fbaf2   372  5d                   pop rbp
0x8aec53fbaf3   373  c3                   retl
0x8aec53fbaf4   374  488b7e17             REX.W movq rdi,[rsi+0x17]
0x8aec53fbaf8   378  448b0c0f             movl r9,[rdi+rcx*1]
0x8aec53fbafc   37c  4183c107             addl r9,0x7
0x8aec53fbb00   380  4183e1f8             andl r9,0xf8
0x8aec53fbb04   384  418d5108             leal rdx,[r9+0x8]
0x8aec53fbb08   388  89140f               movl [rdi+rcx*1],rdx
0x8aec53fbb0b   38b  c4a17b10040f         vmovsd xmm0,[rdi+r9*1]
0x8aec53fbb11   391  c5fb110407           vmovsd [rdi+rax*1],xmm0
0x8aec53fbb16   396  488be5               REX.W movq rsp,rbp
0x8aec53fbb19   399  5d                   pop rbp
0x8aec53fbb1a   39a  c3                   retl
0x8aec53fbb1b   39b  8bfb                 movl rdi,rbx
0x8aec53fbb1d   39d  8945c4               movl [rbp-0x3c],rax
0x8aec53fbb20   3a0  8945d4               movl [rbp-0x2c],rax
0x8aec53fbb23   3a3  488b75f0             REX.W movq rsi,[rbp-0x10]
0x8aec53fbb27   3a7  8b7613               movl rsi,[rsi+0x13]
0x8aec53fbb2a   3aa  3bfe                 cmpl rdi,rsi
0x8aec53fbb2c   3ac  0f83cc010000         jnc 0x8aec53fbcfe  <+0x57e>
0x8aec53fbb32   3b2  4c8b4df0             REX.W movq r9,[rbp-0x10]
0x8aec53fbb36   3b6  4d8b493f             REX.W movq r9,[r9+0x3f]
0x8aec53fbb3a   3ba  c1e702               shll rdi, 2
0x8aec53fbb3d   3bd  418b0439             movl rax,[r9+rdi*1]
0x8aec53fbb41   3c1  be0e000000           movl rsi,0xe
0x8aec53fbb46   3c6  483bc6               REX.W cmpq rax,rsi
0x8aec53fbb49   3c9  0f85b4010000         jnz 0x8aec53fbd03  <+0x583>
0x8aec53fbb4f   3cf  4c8b4df0             REX.W movq r9,[rbp-0x10]
0x8aec53fbb53   3d3  458b490f             movl r9,[r9+0xf]
0x8aec53fbb57   3d7  4d03ce               REX.W addq r9,r14
0x8aec53fbb5a   3da  418b743907           movl rsi,[r9+rdi*1+0x7]
0x8aec53fbb5f   3df  4903f6               REX.W addq rsi,r14
0x8aec53fbb62   3e2  03ff                 addl rdi,rdi
0x8aec53fbb64   3e4  4c8b4df0             REX.W movq r9,[rbp-0x10]
0x8aec53fbb68   3e8  4d8b4937             REX.W movq r9,[r9+0x37]
0x8aec53fbb6c   3ec  498b0439             REX.W movq rax,[r9+rdi*1]
0x8aec53fbb70   3f0  895dc8               movl [rbp-0x38],rbx
0x8aec53fbb73   3f3  894dcc               movl [rbp-0x34],rcx
0x8aec53fbb76   3f6  8955d0               movl [rbp-0x30],rdx
0x8aec53fbb79   3f9  8bd1                 movl rdx,rcx
0x8aec53fbb7b   3fb  488bc8               REX.W movq rcx,rax
0x8aec53fbb7e   3fe  8b45c4               movl rax,[rbp-0x3c]
0x8aec53fbb81   401  ffd1                 call rcx
0x8aec53fbb83   403  8b45d4               movl rax,[rbp-0x2c]
0x8aec53fbb86   406  8b4dcc               movl rcx,[rbp-0x34]
0x8aec53fbb89   409  8b55d0               movl rdx,[rbp-0x30]
0x8aec53fbb8c   40c  8b5dc8               movl rbx,[rbp-0x38]
0x8aec53fbb8f   40f  488be5               REX.W movq rsp,rbp
0x8aec53fbb92   412  5d                   pop rbp
0x8aec53fbb93   413  c3                   retl
0x8aec53fbb94   414  50                   push rax
0x8aec53fbb95   415  51                   push rcx
0x8aec53fbb96   416  52                   push rdx
0x8aec53fbb97   417  53                   push rbx
0x8aec53fbb98   418  e8d3c7ffff           call 0x8aec53f8370  (jump table)
0x8aec53fbb9d   41d  5b                   pop rbx
0x8aec53fbb9e   41e  5a                   pop rdx
0x8aec53fbb9f   41f  59                   pop rcx
0x8aec53fbba0   420  58                   pop rax
0x8aec53fbba1   421  488b75f0             REX.W movq rsi,[rbp-0x10]
0x8aec53fbba5   425  e9f1fbffff           jmp 0x8aec53fb79b  <+0x1b>
0x8aec53fbbaa   42a  e861c5ffff           call 0x8aec53f8110  (jump table)
0x8aec53fbbaf   42f  e85cc5ffff           call 0x8aec53f8110  (jump table)
0x8aec53fbbb4   434  e857c5ffff           call 0x8aec53f8110  (jump table)
0x8aec53fbbb9   439  e852c5ffff           call 0x8aec53f8110  (jump table)
0x8aec53fbbbe   43e  e84dc5ffff           call 0x8aec53f8110  (jump table)
0x8aec53fbbc3   443  e848c5ffff           call 0x8aec53f8110  (jump table)
0x8aec53fbbc8   448  e843c5ffff           call 0x8aec53f8110  (jump table)
0x8aec53fbbcd   44d  e83ec5ffff           call 0x8aec53f8110  (jump table)
0x8aec53fbbd2   452  e839c5ffff           call 0x8aec53f8110  (jump table)
0x8aec53fbbd7   457  e834c5ffff           call 0x8aec53f8110  (jump table)
0x8aec53fbbdc   45c  e82fc5ffff           call 0x8aec53f8110  (jump table)
0x8aec53fbbe1   461  e82ac5ffff           call 0x8aec53f8110  (jump table)
0x8aec53fbbe6   466  e825c5ffff           call 0x8aec53f8110  (jump table)
0x8aec53fbbeb   46b  e820c5ffff           call 0x8aec53f8110  (jump table)
0x8aec53fbbf0   470  e81bc5ffff           call 0x8aec53f8110  (jump table)
0x8aec53fbbf5   475  e816c5ffff           call 0x8aec53f8110  (jump table)
0x8aec53fbbfa   47a  e811c5ffff           call 0x8aec53f8110  (jump table)
0x8aec53fbbff   47f  e80cc5ffff           call 0x8aec53f8110  (jump table)
0x8aec53fbc04   484  e807c5ffff           call 0x8aec53f8110  (jump table)
0x8aec53fbc09   489  e802c5ffff           call 0x8aec53f8110  (jump table)
0x8aec53fbc0e   48e  e8fdc4ffff           call 0x8aec53f8110  (jump table)
0x8aec53fbc13   493  e8f8c4ffff           call 0x8aec53f8110  (jump table)
0x8aec53fbc18   498  e8f3c4ffff           call 0x8aec53f8110  (jump table)
0x8aec53fbc1d   49d  e8eec4ffff           call 0x8aec53f8110  (jump table)
0x8aec53fbc22   4a2  e8e9c4ffff           call 0x8aec53f8110  (jump table)
0x8aec53fbc27   4a7  e8e4c4ffff           call 0x8aec53f8110  (jump table)
0x8aec53fbc2c   4ac  e8dfc4ffff           call 0x8aec53f8110  (jump table)
0x8aec53fbc31   4b1  e8dac4ffff           call 0x8aec53f8110  (jump table)
0x8aec53fbc36   4b6  e8d5c4ffff           call 0x8aec53f8110  (jump table)
0x8aec53fbc3b   4bb  e8d0c4ffff           call 0x8aec53f8110  (jump table)
0x8aec53fbc40   4c0  e8cbc4ffff           call 0x8aec53f8110  (jump table)
0x8aec53fbc45   4c5  e8c6c4ffff           call 0x8aec53f8110  (jump table)
0x8aec53fbc4a   4ca  e8c1c4ffff           call 0x8aec53f8110  (jump table)
0x8aec53fbc4f   4cf  e8bcc4ffff           call 0x8aec53f8110  (jump table)
0x8aec53fbc54   4d4  e8b7c4ffff           call 0x8aec53f8110  (jump table)
0x8aec53fbc59   4d9  e8b2c4ffff           call 0x8aec53f8110  (jump table)
0x8aec53fbc5e   4de  e8adc4ffff           call 0x8aec53f8110  (jump table)
0x8aec53fbc63   4e3  e8a8c4ffff           call 0x8aec53f8110  (jump table)
0x8aec53fbc68   4e8  e8a3c4ffff           call 0x8aec53f8110  (jump table)
0x8aec53fbc6d   4ed  e89ec4ffff           call 0x8aec53f8110  (jump table)
0x8aec53fbc72   4f2  e899c4ffff           call 0x8aec53f8110  (jump table)
0x8aec53fbc77   4f7  e894c4ffff           call 0x8aec53f8110  (jump table)
0x8aec53fbc7c   4fc  e88fc4ffff           call 0x8aec53f8110  (jump table)
0x8aec53fbc81   501  e88ac4ffff           call 0x8aec53f8110  (jump table)
0x8aec53fbc86   506  e885c4ffff           call 0x8aec53f8110  (jump table)
0x8aec53fbc8b   50b  e880c4ffff           call 0x8aec53f8110  (jump table)
0x8aec53fbc90   510  e87bc4ffff           call 0x8aec53f8110  (jump table)
0x8aec53fbc95   515  e876c4ffff           call 0x8aec53f8110  (jump table)
0x8aec53fbc9a   51a  e871c4ffff           call 0x8aec53f8110  (jump table)
0x8aec53fbc9f   51f  e86cc4ffff           call 0x8aec53f8110  (jump table)
0x8aec53fbca4   524  e867c4ffff           call 0x8aec53f8110  (jump table)
0x8aec53fbca9   529  e862c4ffff           call 0x8aec53f8110  (jump table)
0x8aec53fbcae   52e  e85dc4ffff           call 0x8aec53f8110  (jump table)
0x8aec53fbcb3   533  e858c4ffff           call 0x8aec53f8110  (jump table)
0x8aec53fbcb8   538  e853c4ffff           call 0x8aec53f8110  (jump table)
0x8aec53fbcbd   53d  e84ec4ffff           call 0x8aec53f8110  (jump table)
0x8aec53fbcc2   542  e849c4ffff           call 0x8aec53f8110  (jump table)
0x8aec53fbcc7   547  e844c4ffff           call 0x8aec53f8110  (jump table)
0x8aec53fbccc   54c  e83fc4ffff           call 0x8aec53f8110  (jump table)
0x8aec53fbcd1   551  e83ac4ffff           call 0x8aec53f8110  (jump table)
0x8aec53fbcd6   556  e835c4ffff           call 0x8aec53f8110  (jump table)
0x8aec53fbcdb   55b  e830c4ffff           call 0x8aec53f8110  (jump table)
0x8aec53fbce0   560  e82bc4ffff           call 0x8aec53f8110  (jump table)
0x8aec53fbce5   565  e826c4ffff           call 0x8aec53f8110  (jump table)
0x8aec53fbcea   56a  e821c4ffff           call 0x8aec53f8110  (jump table)
0x8aec53fbcef   56f  e81cc4ffff           call 0x8aec53f8110  (jump table)
0x8aec53fbcf4   574  e817c4ffff           call 0x8aec53f8110  (jump table)
0x8aec53fbcf9   579  e812c4ffff           call 0x8aec53f8110  (jump table)
0x8aec53fbcfe   57e  e89dc4ffff           call 0x8aec53f81a0  (jump table)
0x8aec53fbd03   583  e868c4ffff           call 0x8aec53f8170  (jump table)

Protected instructions:
 pc offset  land pad
       195       42a
       19d       42f
       1a0       434
       1a4       439
       1b0       43e
       1b8       443
       1bb       448
       1bf       44d
       1cc       452
       1d4       457
       1d7       45c
       1db       461
       1e8       466
       1f0       46b
       1f3       470
       1f7       475
       204       47a
       20c       47f
       20f       484
       213       489
       220       48e
       230       493
       233       498
       237       49d
       244       4a2
       24c       4a7
       24f       4ac
       254       4b1
       261       4b6
       269       4bb
       26c       4c0
       271       4c5
       27e       4ca
       286       4cf
       289       4d4
       28e       4d9
       29b       4de
       2a3       4e3
       2a6       4e8
       2ab       4ed
       2b8       4f2
       2c8       4f7
       2cb       4fc
       2cf       501
       2dc       506
       2e4       50b
       2e7       510
       2eb       515
       2f8       51a
       308       51f
       30b       524
       30f       529
       31c       52e
       32c       533
       32f       538
       333       53d
       340       542
       348       547
       34b       54c
       34f       551
       35c       556
       364       55b
       367       560
       36b       565
       378       56a
       388       56f
       38b       574
       391       579

Source positions:
 pc offset  position
       401       561  statement
       418         0  statement
       42a        70  statement
       42f        78  statement
       434        85  statement
       439        88  statement
       43e        97  statement
       443       105  statement
       448       112  statement
       44d       115  statement
       452       124  statement
       457       132  statement
       45c       139  statement
       461       142  statement
       466       151  statement
       46b       159  statement
       470       166  statement
       475       169  statement
       47a       178  statement
       47f       186  statement
       484       193  statement
       489       196  statement
       48e       205  statement
       493       219  statement
       498       226  statement
       49d       229  statement
       4a2       238  statement
       4a7       246  statement
       4ac       253  statement
       4b1       256  statement
       4b6       265  statement
       4bb       273  statement
       4c0       280  statement
       4c5       283  statement
       4ca       292  statement
       4cf       300  statement
       4d4       307  statement
       4d9       310  statement
       4de       319  statement
       4e3       327  statement
       4e8       334  statement
       4ed       337  statement
       4f2       346  statement
       4f7       360  statement
       4fc       367  statement
       501       370  statement
       506       379  statement
       50b       387  statement
       510       394  statement
       515       397  statement
       51a       406  statement
       51f       420  statement
       524       427  statement
       529       430  statement
       52e       439  statement
       533       453  statement
       538       460  statement
       53d       463  statement
       542       472  statement
       547       480  statement
       54c       487  statement
       551       490  statement
       556       499  statement
       55b       507  statement
       560       514  statement
       565       517  statement
       56a       526  statement
       56f       540  statement
       574       547  statement
       579       550  statement
       57e       561  statement
       583       561  statement

Safepoints (entries = 1, byte size = 12)
0x8aec53fbb83    403  slots (sp->fp): 0000000000000000

RelocInfo (size = 0)

--- End code ---
--- WebAssembly code ---
name: main
index: 6
kind: wasm function
compiler: Liftoff
Body (size = 704 = 652 + 52 padding)
Instructions (size = 640)
0x8aec53fa100     0  55                   push rbp
0x8aec53fa101     1  4889e5               REX.W movq rbp,rsp
0x8aec53fa104     4  6a08                 push 0x8
0x8aec53fa106     6  56                   push rsi
0x8aec53fa107     7  4881ec40000000       REX.W subq rsp,0x40
0x8aec53fa10e     e  488b4e27             REX.W movq rcx,[rsi+0x27]
0x8aec53fa112    12  483b21               REX.W cmpq rsp,[rcx]
0x8aec53fa115    15  0f86f4010000         jna 0x8aec53fa30f  <+0x20f>
0x8aec53fa11b    1b  488b4e47             REX.W movq rcx,[rsi+0x47]
0x8aec53fa11f    1f  8b19                 movl rbx,[rcx]
0x8aec53fa121    21  b940270000           movl rcx,0x2740
0x8aec53fa126    26  2bd9                 subl rbx,rcx
0x8aec53fa128    28  488b4e47             REX.W movq rcx,[rsi+0x47]
0x8aec53fa12c    2c  8919                 movl [rcx],rbx
0x8aec53fa12e    2e  8945d4               movl [rbp-0x2c],rax
0x8aec53fa131    31  8955d0               movl [rbp-0x30],rdx
0x8aec53fa134    34  895dcc               movl [rbp-0x34],rbx
0x8aec53fa137    37  c745c800000000       movl [rbp-0x38],0x0
0x8aec53fa13e    3e  c745c400000000       movl [rbp-0x3c],0x0
0x8aec53fa145    45  488b4627             REX.W movq rax,[rsi+0x27]
0x8aec53fa149    49  483b20               REX.W cmpq rsp,[rax]
0x8aec53fa14c    4c  0f86cf010000         jna 0x8aec53fa321  <+0x221>
0x8aec53fa152    52  8b45cc               movl rax,[rbp-0x34]
0x8aec53fa155    55  05b0130000           add rax,0x13b0
0x8aec53fa15a    5a  8b4dc8               movl rcx,[rbp-0x38]
0x8aec53fa15d    5d  03c1                 addl rax,rcx
0x8aec53fa15f    5f  8b4dc8               movl rcx,[rbp-0x38]
0x8aec53fa162    62  83c901               orl rcx,0x1
0x8aec53fa165    65  488b5617             REX.W movq rdx,[rsi+0x17]
0x8aec53fa169    69  880c02               movb [rdx+rax*1],cl
0x8aec53fa16c    6c  8b45cc               movl rax,[rbp-0x34]
0x8aec53fa16f    6f  05b0130000           add rax,0x13b0
0x8aec53fa174    74  03c1                 addl rax,rcx
0x8aec53fa176    76  8b5dc8               movl rbx,[rbp-0x38]
0x8aec53fa179    79  83cb02               orl rbx,0x2
0x8aec53fa17c    7c  881c02               movb [rdx+rax*1],bl
0x8aec53fa17f    7f  8b45cc               movl rax,[rbp-0x34]
0x8aec53fa182    82  05b0130000           add rax,0x13b0
0x8aec53fa187    87  03c3                 addl rax,rbx
0x8aec53fa189    89  8b4dc8               movl rcx,[rbp-0x38]
0x8aec53fa18c    8c  83c903               orl rcx,0x3
0x8aec53fa18f    8f  880c02               movb [rdx+rax*1],cl
0x8aec53fa192    92  8b45cc               movl rax,[rbp-0x34]
0x8aec53fa195    95  05b0130000           add rax,0x13b0
0x8aec53fa19a    9a  03c1                 addl rax,rcx
0x8aec53fa19c    9c  8b5dc8               movl rbx,[rbp-0x38]
0x8aec53fa19f    9f  83cb04               orl rbx,0x4
0x8aec53fa1a2    a2  881c02               movb [rdx+rax*1],bl
0x8aec53fa1a5    a5  8b45cc               movl rax,[rbp-0x34]
0x8aec53fa1a8    a8  05b0130000           add rax,0x13b0
0x8aec53fa1ad    ad  03c3                 addl rax,rbx
0x8aec53fa1af    af  8b4dc8               movl rcx,[rbp-0x38]
0x8aec53fa1b2    b2  83c905               orl rcx,0x5
0x8aec53fa1b5    b5  880c02               movb [rdx+rax*1],cl
0x8aec53fa1b8    b8  8b45cc               movl rax,[rbp-0x34]
0x8aec53fa1bb    bb  05b0130000           add rax,0x13b0
0x8aec53fa1c0    c0  03c1                 addl rax,rcx
0x8aec53fa1c2    c2  8b5dc8               movl rbx,[rbp-0x38]
0x8aec53fa1c5    c5  83cb06               orl rbx,0x6
0x8aec53fa1c8    c8  881c02               movb [rdx+rax*1],bl
0x8aec53fa1cb    cb  8b45cc               movl rax,[rbp-0x34]
0x8aec53fa1ce    ce  05b0130000           add rax,0x13b0
0x8aec53fa1d3    d3  03c3                 addl rax,rbx
0x8aec53fa1d5    d5  8b4dc8               movl rcx,[rbp-0x38]
0x8aec53fa1d8    d8  83c907               orl rcx,0x7
0x8aec53fa1db    db  880c02               movb [rdx+rax*1],cl
0x8aec53fa1de    de  8b45cc               movl rax,[rbp-0x34]
0x8aec53fa1e1    e1  05b0130000           add rax,0x13b0
0x8aec53fa1e6    e6  03c1                 addl rax,rcx
0x8aec53fa1e8    e8  8b5dc8               movl rbx,[rbp-0x38]
0x8aec53fa1eb    eb  83c308               addl rbx,0x8
0x8aec53fa1ee    ee  881c02               movb [rdx+rax*1],bl
0x8aec53fa1f1    f1  81fb88130000         cmpl rbx,0x1388
0x8aec53fa1f7    f7  0f840b000000         jz 0x8aec53fa208  <+0x108>
0x8aec53fa1fd    fd  895dc8               movl [rbp-0x38],rbx
0x8aec53fa200   100  894dc4               movl [rbp-0x3c],rcx
0x8aec53fa203   103  e93dffffff           jmp 0x8aec53fa145  <+0x45>
0x8aec53fa208   108  8b45cc               movl rax,[rbp-0x34]
0x8aec53fa20b   10b  83c018               addl rax,0x18
0x8aec53fa20e   10e  488b5e2f             REX.W movq rbx,[rsi+0x2f]
0x8aec53fa212   112  488b3b               REX.W movq rdi,[rbx]
0x8aec53fa215   115  8b5e0b               movl rbx,[rsi+0xb]
0x8aec53fa218   118  4903de               REX.W addq rbx,r14
0x8aec53fa21b   11b  8b5b07               movl rbx,[rbx+0x7]
0x8aec53fa21e   11e  4903de               REX.W addq rbx,r14
0x8aec53fa221   121  894dc4               movl [rbp-0x3c],rcx
0x8aec53fa224   124  488bf3               REX.W movq rsi,rbx
0x8aec53fa227   127  33d2                 xorl rdx,rdx
0x8aec53fa229   129  ffd7                 call rdi
0x8aec53fa22b   12b  c745c800000000       movl [rbp-0x38],0x0
0x8aec53fa232   132  488b75f0             REX.W movq rsi,[rbp-0x10]
0x8aec53fa236   136  488b4627             REX.W movq rax,[rsi+0x27]
0x8aec53fa23a   13a  483b20               REX.W cmpq rsp,[rax]
0x8aec53fa23d   13d  0f8614010000         jna 0x8aec53fa357  <+0x257>
0x8aec53fa243   143  8b45cc               movl rax,[rbp-0x34]
0x8aec53fa246   146  05b0130000           add rax,0x13b0
0x8aec53fa24b   14b  8b4dcc               movl rcx,[rbp-0x34]
0x8aec53fa24e   14e  83c120               addl rcx,0x20
0x8aec53fa251   151  8b55c8               movl rdx,[rbp-0x38]
0x8aec53fa254   154  8955b0               movl [rbp-0x50],rdx
0x8aec53fa257   157  8bd1                 movl rdx,rcx
0x8aec53fa259   159  8b4db0               movl rcx,[rbp-0x50]
0x8aec53fa25c   15c  bb88130000           movl rbx,0x1388
0x8aec53fa261   161  488b75f0             REX.W movq rsi,[rbp-0x10]
0x8aec53fa265   165  e89bddffff           call 0x8aec53f8005  (jump table)
0x8aec53fa26a   16a  8b45c8               movl rax,[rbp-0x38]
0x8aec53fa26d   16d  83c001               addl rax,0x1
0x8aec53fa270   170  3d10270000           cmp rax,0x2710
0x8aec53fa275   175  0f8405000000         jz 0x8aec53fa280  <+0x180>
0x8aec53fa27b   17b  8945c8               movl [rbp-0x38],rax
0x8aec53fa27e   17e  ebb2                 jmp 0x8aec53fa232  <+0x132>
0x8aec53fa280   180  8b4dcc               movl rcx,[rbp-0x34]
0x8aec53fa283   183  83c110               addl rcx,0x10
0x8aec53fa286   186  488b75f0             REX.W movq rsi,[rbp-0x10]
0x8aec53fa28a   18a  488b562f             REX.W movq rdx,[rsi+0x2f]
0x8aec53fa28e   18e  488b1a               REX.W movq rbx,[rdx]
0x8aec53fa291   191  8b560b               movl rdx,[rsi+0xb]
0x8aec53fa294   194  4903d6               REX.W addq rdx,r14
0x8aec53fa297   197  8b5207               movl rdx,[rdx+0x7]
0x8aec53fa29a   19a  4903d6               REX.W addq rdx,r14
0x8aec53fa29d   19d  8945c8               movl [rbp-0x38],rax
0x8aec53fa2a0   1a0  8bc1                 movl rax,rcx
0x8aec53fa2a2   1a2  488bf2               REX.W movq rsi,rdx
0x8aec53fa2a5   1a5  33d2                 xorl rdx,rdx
0x8aec53fa2a7   1a7  ffd3                 call rbx
0x8aec53fa2a9   1a9  8b45cc               movl rax,[rbp-0x34]
0x8aec53fa2ac   1ac  8b4dcc               movl rcx,[rbp-0x34]
0x8aec53fa2af   1af  488b75f0             REX.W movq rsi,[rbp-0x10]
0x8aec53fa2b3   1b3  488b5617             REX.W movq rdx,[rsi+0x17]
0x8aec53fa2b7   1b7  8b5c0a14             movl rbx,[rdx+rcx*1+0x14]
0x8aec53fa2bb   1bb  8b4dcc               movl rcx,[rbp-0x34]
0x8aec53fa2be   1be  8b7c0a1c             movl rdi,[rdx+rcx*1+0x1c]
0x8aec53fa2c2   1c2  2bdf                 subl rbx,rdi
0x8aec53fa2c4   1c4  8b4dcc               movl rcx,[rbp-0x34]
0x8aec53fa2c7   1c7  8b7c0a10             movl rdi,[rdx+rcx*1+0x10]
0x8aec53fa2cb   1cb  8b4dcc               movl rcx,[rbp-0x34]
0x8aec53fa2ce   1ce  448b4c0a18           movl r9,[rdx+rcx*1+0x18]
0x8aec53fa2d3   1d3  412bf9               subl rdi,r9
0x8aec53fa2d6   1d6  b940420f00           movl rcx,0xf4240
0x8aec53fa2db   1db  0faff9               imull rdi,rcx
0x8aec53fa2de   1de  03df                 addl rbx,rdi
0x8aec53fa2e0   1e0  891c02               movl [rdx+rax*1],rbx
0x8aec53fa2e3   1e3  8b45cc               movl rax,[rbp-0x34]
0x8aec53fa2e6   1e6  8bd0                 movl rdx,rax
0x8aec53fa2e8   1e8  b811040000           movl rax,0x411
0x8aec53fa2ed   1ed  488b75f0             REX.W movq rsi,[rbp-0x10]
0x8aec53fa2f1   1f1  e819ddffff           call 0x8aec53f800f  (jump table)
0x8aec53fa2f6   1f6  8b45cc               movl rax,[rbp-0x34]
0x8aec53fa2f9   1f9  0540270000           add rax,0x2740
0x8aec53fa2fe   1fe  488b75f0             REX.W movq rsi,[rbp-0x10]
0x8aec53fa302   202  488b4e47             REX.W movq rcx,[rsi+0x47]
0x8aec53fa306   206  8901                 movl [rcx],rax
0x8aec53fa308   208  33c0                 xorl rax,rax
0x8aec53fa30a   20a  488be5               REX.W movq rsp,rbp
0x8aec53fa30d   20d  5d                   pop rbp
0x8aec53fa30e   20e  c3                   retl
0x8aec53fa30f   20f  50                   push rax
0x8aec53fa310   210  52                   push rdx
0x8aec53fa311   211  e85ae0ffff           call 0x8aec53f8370  (jump table)
0x8aec53fa316   216  5a                   pop rdx
0x8aec53fa317   217  58                   pop rax
0x8aec53fa318   218  488b75f0             REX.W movq rsi,[rbp-0x10]
0x8aec53fa31c   21c  e9fafdffff           jmp 0x8aec53fa11b  <+0x1b>
0x8aec53fa321   221  e84ae0ffff           call 0x8aec53f8370  (jump table)
0x8aec53fa326   226  488b75f0             REX.W movq rsi,[rbp-0x10]
0x8aec53fa32a   22a  e923feffff           jmp 0x8aec53fa152  <+0x52>
0x8aec53fa32f   22f  e8dcddffff           call 0x8aec53f8110  (jump table)
0x8aec53fa334   234  e8d7ddffff           call 0x8aec53f8110  (jump table)
0x8aec53fa339   239  e8d2ddffff           call 0x8aec53f8110  (jump table)
0x8aec53fa33e   23e  e8cdddffff           call 0x8aec53f8110  (jump table)
0x8aec53fa343   243  e8c8ddffff           call 0x8aec53f8110  (jump table)
0x8aec53fa348   248  e8c3ddffff           call 0x8aec53f8110  (jump table)
0x8aec53fa34d   24d  e8beddffff           call 0x8aec53f8110  (jump table)
0x8aec53fa352   252  e8b9ddffff           call 0x8aec53f8110  (jump table)
0x8aec53fa357   257  e814e0ffff           call 0x8aec53f8370  (jump table)
0x8aec53fa35c   25c  488b75f0             REX.W movq rsi,[rbp-0x10]
0x8aec53fa360   260  e9defeffff           jmp 0x8aec53fa243  <+0x143>
0x8aec53fa365   265  e8a6ddffff           call 0x8aec53f8110  (jump table)
0x8aec53fa36a   26a  e8a1ddffff           call 0x8aec53f8110  (jump table)
0x8aec53fa36f   26f  e89cddffff           call 0x8aec53f8110  (jump table)
0x8aec53fa374   274  e897ddffff           call 0x8aec53f8110  (jump table)
0x8aec53fa379   279  e892ddffff           call 0x8aec53f8110  (jump table)
0x8aec53fa37e   27e  6690                 nop

Protected instructions:
 pc offset  land pad
        69       22f
        7c       234
        8f       239
        a2       23e
        b5       243
        c8       248
        db       24d
        ee       252
       1b7       265
       1be       26a
       1c7       26f
       1ce       274
       1e0       279

Source positions:
 pc offset  position
       129       192  statement
       165       213  statement
       1a7       237  statement
       1f1       278  statement
       211         0  statement
       221        18  statement
       22f        36  statement
       234        55  statement
       239        74  statement
       23e        93  statement
       243       112  statement
       248       131  statement
       24d       150  statement
       252       169  statement
       257       195  statement
       265       244  statement
       26a       249  statement
       26f       255  statement
       274       260  statement
       279       270  statement

Safepoints (entries = 1, byte size = 12)
0x8aec53fa22b    12b  slots (sp->fp): 0000000000000000

RelocInfo (size = 0)

--- End code ---
--- WebAssembly code ---
name: memset
index: 11
kind: wasm function
compiler: Liftoff
Body (size = 832 = 788 + 44 padding)
Instructions (size = 776)
0x8aec53fa3c0     0  55                   push rbp
0x8aec53fa3c1     1  4889e5               REX.W movq rbp,rsp
0x8aec53fa3c4     4  6a08                 push 0x8
0x8aec53fa3c6     6  56                   push rsi
0x8aec53fa3c7     7  4881ec38000000       REX.W subq rsp,0x38
0x8aec53fa3ce     e  48c745b800000000     REX.W movq [rbp-0x48],0x0
0x8aec53fa3d6    16  48c745c000000000     REX.W movq [rbp-0x40],0x0
0x8aec53fa3de    1e  c745c800000000       movl [rbp-0x38],0x0
0x8aec53fa3e5    25  488b5e27             REX.W movq rbx,[rsi+0x27]
0x8aec53fa3e9    29  483b23               REX.W cmpq rsp,[rbx]
0x8aec53fa3ec    2c  0f8630020000         jna 0x8aec53fa622  <+0x262>
0x8aec53fa3f2    32  85c9                 testl rcx,rcx
0x8aec53fa3f4    34  0f8505000000         jnz 0x8aec53fa3ff  <+0x3f>
0x8aec53fa3fa    3a  e91e020000           jmp 0x8aec53fa61d  <+0x25d>
0x8aec53fa3ff    3f  488b5e17             REX.W movq rbx,[rsi+0x17]
0x8aec53fa403    43  881403               movb [rbx+rax*1],dl
0x8aec53fa406    46  8d3c08               leal rdi,[rax+rcx*1]
0x8aec53fa409    49  41b901000000         movl r9,0x1
0x8aec53fa40f    4f  41f7d9               negl r9
0x8aec53fa412    52  4403cf               addl r9,rdi
0x8aec53fa415    55  4288140b             movb [rbx+r9*1],dl
0x8aec53fa419    59  83f903               cmpl rcx,0x3
0x8aec53fa41c    5c  0f8308000000         jnc 0x8aec53fa42a  <+0x6a>
0x8aec53fa422    62  897dc8               movl [rbp-0x38],rdi
0x8aec53fa425    65  e9f3010000           jmp 0x8aec53fa61d  <+0x25d>
0x8aec53fa42a    6a  88540302             movb [rbx+rax*1+0x2],dl
0x8aec53fa42e    6e  88540301             movb [rbx+rax*1+0x1],dl
0x8aec53fa432    72  41b903000000         movl r9,0x3
0x8aec53fa438    78  41f7d9               negl r9
0x8aec53fa43b    7b  4403cf               addl r9,rdi
0x8aec53fa43e    7e  4288140b             movb [rbx+r9*1],dl
0x8aec53fa442    82  41b902000000         movl r9,0x2
0x8aec53fa448    88  41f7d9               negl r9
0x8aec53fa44b    8b  4403cf               addl r9,rdi
0x8aec53fa44e    8e  4288140b             movb [rbx+r9*1],dl
0x8aec53fa452    92  83f907               cmpl rcx,0x7
0x8aec53fa455    95  0f8308000000         jnc 0x8aec53fa463  <+0xa3>
0x8aec53fa45b    9b  897dc8               movl [rbp-0x38],rdi
0x8aec53fa45e    9e  e9ba010000           jmp 0x8aec53fa61d  <+0x25d>
0x8aec53fa463    a3  88540303             movb [rbx+rax*1+0x3],dl
0x8aec53fa467    a7  41b904000000         movl r9,0x4
0x8aec53fa46d    ad  41f7d9               negl r9
0x8aec53fa470    b0  4403cf               addl r9,rdi
0x8aec53fa473    b3  4288140b             movb [rbx+r9*1],dl
0x8aec53fa477    b7  83f909               cmpl rcx,0x9
0x8aec53fa47a    ba  0f8308000000         jnc 0x8aec53fa488  <+0xc8>
0x8aec53fa480    c0  897dc8               movl [rbp-0x38],rdi
0x8aec53fa483    c3  e995010000           jmp 0x8aec53fa61d  <+0x25d>
0x8aec53fa488    c8  4533c9               xorl r9,r9
0x8aec53fa48b    cb  442bc8               subl r9,rax
0x8aec53fa48e    ce  4183e103             andl r9,0x3
0x8aec53fa492    d2  428d3408             leal rsi,[rax+r9*1]
0x8aec53fa496    d6  8bfa                 movl rdi,rdx
0x8aec53fa498    d8  81e7ff000000         andl rdi,0xff
0x8aec53fa49e    de  bb01010101           movl rbx,0x1010101
0x8aec53fa4a3    e3  0faffb               imull rdi,rbx
0x8aec53fa4a6    e6  488b5df0             REX.W movq rbx,[rbp-0x10]
0x8aec53fa4aa    ea  488b5317             REX.W movq rdx,[rbx+0x17]
0x8aec53fa4ae    ee  893c32               movl [rdx+rsi*1],rdi
0x8aec53fa4b1    f1  8bd9                 movl rbx,rcx
0x8aec53fa4b3    f3  412bd9               subl rbx,r9
0x8aec53fa4b6    f6  83e3fc               andl rbx,0xfc
0x8aec53fa4b9    f9  448d0c1e             leal r9,[rsi+rbx*1]
0x8aec53fa4bd    fd  b904000000           movl rcx,0x4
0x8aec53fa4c2   102  f7d9                 negl rcx
0x8aec53fa4c4   104  4103c9               addl rcx,r9
0x8aec53fa4c7   107  893c0a               movl [rdx+rcx*1],rdi
0x8aec53fa4ca   10a  83fb09               cmpl rbx,0x9
0x8aec53fa4cd   10d  0f8310000000         jnc 0x8aec53fa4e3  <+0x123>
0x8aec53fa4d3   113  8975c8               movl [rbp-0x38],rsi
0x8aec53fa4d6   116  895dc4               movl [rbp-0x3c],rbx
0x8aec53fa4d9   119  418bc9               movl rcx,r9
0x8aec53fa4dc   11c  8bd7                 movl rdx,rdi
0x8aec53fa4de   11e  e93a010000           jmp 0x8aec53fa61d  <+0x25d>
0x8aec53fa4e3   123  897c3208             movl [rdx+rsi*1+0x8],rdi
0x8aec53fa4e7   127  897c3204             movl [rdx+rsi*1+0x4],rdi
0x8aec53fa4eb   12b  b908000000           movl rcx,0x8
0x8aec53fa4f0   130  f7d9                 negl rcx
0x8aec53fa4f2   132  4103c9               addl rcx,r9
0x8aec53fa4f5   135  893c0a               movl [rdx+rcx*1],rdi
0x8aec53fa4f8   138  b90c000000           movl rcx,0xc
0x8aec53fa4fd   13d  f7d9                 negl rcx
0x8aec53fa4ff   13f  4103c9               addl rcx,r9
0x8aec53fa502   142  893c0a               movl [rdx+rcx*1],rdi
0x8aec53fa505   145  83fb19               cmpl rbx,0x19
0x8aec53fa508   148  0f8310000000         jnc 0x8aec53fa51e  <+0x15e>
0x8aec53fa50e   14e  8975c8               movl [rbp-0x38],rsi
0x8aec53fa511   151  895dc4               movl [rbp-0x3c],rbx
0x8aec53fa514   154  418bc9               movl rcx,r9
0x8aec53fa517   157  8bd7                 movl rdx,rdi
0x8aec53fa519   159  e9ff000000           jmp 0x8aec53fa61d  <+0x25d>
0x8aec53fa51e   15e  897c3218             movl [rdx+rsi*1+0x18],rdi
0x8aec53fa522   162  897c3214             movl [rdx+rsi*1+0x14],rdi
0x8aec53fa526   166  897c3210             movl [rdx+rsi*1+0x10],rdi
0x8aec53fa52a   16a  897c320c             movl [rdx+rsi*1+0xc],rdi
0x8aec53fa52e   16e  b910000000           movl rcx,0x10
0x8aec53fa533   173  f7d9                 negl rcx
0x8aec53fa535   175  4103c9               addl rcx,r9
0x8aec53fa538   178  893c0a               movl [rdx+rcx*1],rdi
0x8aec53fa53b   17b  b914000000           movl rcx,0x14
0x8aec53fa540   180  f7d9                 negl rcx
0x8aec53fa542   182  4103c9               addl rcx,r9
0x8aec53fa545   185  893c0a               movl [rdx+rcx*1],rdi
0x8aec53fa548   188  b918000000           movl rcx,0x18
0x8aec53fa54d   18d  f7d9                 negl rcx
0x8aec53fa54f   18f  4103c9               addl rcx,r9
0x8aec53fa552   192  893c0a               movl [rdx+rcx*1],rdi
0x8aec53fa555   195  b91c000000           movl rcx,0x1c
0x8aec53fa55a   19a  f7d9                 negl rcx
0x8aec53fa55c   19c  4103c9               addl rcx,r9
0x8aec53fa55f   19f  893c0a               movl [rdx+rcx*1],rdi
0x8aec53fa562   1a2  8bce                 movl rcx,rsi
0x8aec53fa564   1a4  83e104               andl rcx,0x4
0x8aec53fa567   1a7  83c918               orl rcx,0x18
0x8aec53fa56a   1aa  8bd3                 movl rdx,rbx
0x8aec53fa56c   1ac  2bd1                 subl rdx,rcx
0x8aec53fa56e   1ae  83fa20               cmpl rdx,0x20
0x8aec53fa571   1b1  0f8312000000         jnc 0x8aec53fa589  <+0x1c9>
0x8aec53fa577   1b7  8975c8               movl [rbp-0x38],rsi
0x8aec53fa57a   1ba  895dc4               movl [rbp-0x3c],rbx
0x8aec53fa57d   1bd  894db8               movl [rbp-0x48],rcx
0x8aec53fa580   1c0  8bca                 movl rcx,rdx
0x8aec53fa582   1c2  8bd7                 movl rdx,rdi
0x8aec53fa584   1c4  e994000000           jmp 0x8aec53fa61d  <+0x25d>
0x8aec53fa589   1c9  448bcf               movl r9,rdi
0x8aec53fa58c   1cc  8945d4               movl [rbp-0x2c],rax
0x8aec53fa58f   1cf  48b80100000001000000 REX.W movq rax,0x100000001
0x8aec53fa599   1d9  4c0fafc8             REX.W imulq r9,rax
0x8aec53fa59d   1dd  8d040e               leal rax,[rsi+rcx*1]
0x8aec53fa5a0   1e0  8945d0               movl [rbp-0x30],rax
0x8aec53fa5a3   1e3  8955cc               movl [rbp-0x34],rdx
0x8aec53fa5a6   1e6  8975c8               movl [rbp-0x38],rsi
0x8aec53fa5a9   1e9  895dc4               movl [rbp-0x3c],rbx
0x8aec53fa5ac   1ec  4c894dbc             REX.W movq [rbp-0x44],r9
0x8aec53fa5b0   1f0  894db8               movl [rbp-0x48],rcx
0x8aec53fa5b3   1f3  488b75f0             REX.W movq rsi,[rbp-0x10]
0x8aec53fa5b7   1f7  488b4627             REX.W movq rax,[rsi+0x27]
0x8aec53fa5bb   1fb  483b20               REX.W cmpq rsp,[rax]
0x8aec53fa5be   1fe  0f86e0000000         jna 0x8aec53fa6a4  <+0x2e4>
0x8aec53fa5c4   204  8b45d0               movl rax,[rbp-0x30]
0x8aec53fa5c7   207  488b4dbc             REX.W movq rcx,[rbp-0x44]
0x8aec53fa5cb   20b  488b5617             REX.W movq rdx,[rsi+0x17]
0x8aec53fa5cf   20f  48894c0218           REX.W movq [rdx+rax*1+0x18],rcx
0x8aec53fa5d4   214  8b45d0               movl rax,[rbp-0x30]
0x8aec53fa5d7   217  488b4dbc             REX.W movq rcx,[rbp-0x44]
0x8aec53fa5db   21b  48894c0210           REX.W movq [rdx+rax*1+0x10],rcx
0x8aec53fa5e0   220  8b45d0               movl rax,[rbp-0x30]
0x8aec53fa5e3   223  488b4dbc             REX.W movq rcx,[rbp-0x44]
0x8aec53fa5e7   227  48894c0208           REX.W movq [rdx+rax*1+0x8],rcx
0x8aec53fa5ec   22c  8b45d0               movl rax,[rbp-0x30]
0x8aec53fa5ef   22f  488b4dbc             REX.W movq rcx,[rbp-0x44]
0x8aec53fa5f3   233  48890c02             REX.W movq [rdx+rax*1],rcx
0x8aec53fa5f7   237  8b45d0               movl rax,[rbp-0x30]
0x8aec53fa5fa   23a  83c020               addl rax,0x20
0x8aec53fa5fd   23d  8b4dcc               movl rcx,[rbp-0x34]
0x8aec53fa600   240  bb20000000           movl rbx,0x20
0x8aec53fa605   245  2bcb                 subl rcx,rbx
0x8aec53fa607   247  83f91f               cmpl rcx,0x1f
0x8aec53fa60a   24a  0f8608000000         jna 0x8aec53fa618  <+0x258>
0x8aec53fa610   250  8945d0               movl [rbp-0x30],rax
0x8aec53fa613   253  894dcc               movl [rbp-0x34],rcx
0x8aec53fa616   256  eb9b                 jmp 0x8aec53fa5b3  <+0x1f3>
0x8aec53fa618   258  8bd0                 movl rdx,rax
0x8aec53fa61a   25a  8b45d4               movl rax,[rbp-0x2c]
0x8aec53fa61d   25d  488be5               REX.W movq rsp,rbp
0x8aec53fa620   260  5d                   pop rbp
0x8aec53fa621   261  c3                   retl
0x8aec53fa622   262  50                   push rax
0x8aec53fa623   263  51                   push rcx
0x8aec53fa624   264  52                   push rdx
0x8aec53fa625   265  e846ddffff           call 0x8aec53f8370  (jump table)
0x8aec53fa62a   26a  5a                   pop rdx
0x8aec53fa62b   26b  59                   pop rcx
0x8aec53fa62c   26c  58                   pop rax
0x8aec53fa62d   26d  488b75f0             REX.W movq rsi,[rbp-0x10]
0x8aec53fa631   271  e9bcfdffff           jmp 0x8aec53fa3f2  <+0x32>
0x8aec53fa636   276  e8d5daffff           call 0x8aec53f8110  (jump table)
0x8aec53fa63b   27b  e8d0daffff           call 0x8aec53f8110  (jump table)
0x8aec53fa640   280  e8cbdaffff           call 0x8aec53f8110  (jump table)
0x8aec53fa645   285  e8c6daffff           call 0x8aec53f8110  (jump table)
0x8aec53fa64a   28a  e8c1daffff           call 0x8aec53f8110  (jump table)
0x8aec53fa64f   28f  e8bcdaffff           call 0x8aec53f8110  (jump table)
0x8aec53fa654   294  e8b7daffff           call 0x8aec53f8110  (jump table)
0x8aec53fa659   299  e8b2daffff           call 0x8aec53f8110  (jump table)
0x8aec53fa65e   29e  e8addaffff           call 0x8aec53f8110  (jump table)
0x8aec53fa663   2a3  e8a8daffff           call 0x8aec53f8110  (jump table)
0x8aec53fa668   2a8  e8a3daffff           call 0x8aec53f8110  (jump table)
0x8aec53fa66d   2ad  e89edaffff           call 0x8aec53f8110  (jump table)
0x8aec53fa672   2b2  e899daffff           call 0x8aec53f8110  (jump table)
0x8aec53fa677   2b7  e894daffff           call 0x8aec53f8110  (jump table)
0x8aec53fa67c   2bc  e88fdaffff           call 0x8aec53f8110  (jump table)
0x8aec53fa681   2c1  e88adaffff           call 0x8aec53f8110  (jump table)
0x8aec53fa686   2c6  e885daffff           call 0x8aec53f8110  (jump table)
0x8aec53fa68b   2cb  e880daffff           call 0x8aec53f8110  (jump table)
0x8aec53fa690   2d0  e87bdaffff           call 0x8aec53f8110  (jump table)
0x8aec53fa695   2d5  e876daffff           call 0x8aec53f8110  (jump table)
0x8aec53fa69a   2da  e871daffff           call 0x8aec53f8110  (jump table)
0x8aec53fa69f   2df  e86cdaffff           call 0x8aec53f8110  (jump table)
0x8aec53fa6a4   2e4  e8c7dcffff           call 0x8aec53f8370  (jump table)
0x8aec53fa6a9   2e9  488b75f0             REX.W movq rsi,[rbp-0x10]
0x8aec53fa6ad   2ed  e912ffffff           jmp 0x8aec53fa5c4  <+0x204>
0x8aec53fa6b2   2f2  e859daffff           call 0x8aec53f8110  (jump table)
0x8aec53fa6b7   2f7  e854daffff           call 0x8aec53f8110  (jump table)
0x8aec53fa6bc   2fc  e84fdaffff           call 0x8aec53f8110  (jump table)
0x8aec53fa6c1   301  e84adaffff           call 0x8aec53f8110  (jump table)
0x8aec53fa6c6   306  6690                 nop

Protected instructions:
 pc offset  land pad
        43       276
        55       27b
        6a       280
        6e       285
        7e       28a
        8e       28f
        a3       294
        b3       299
        ee       29e
       107       2a3
       123       2a8
       127       2ad
       135       2b2
       142       2b7
       15e       2bc
       162       2c1
       166       2c6
       16a       2cb
       178       2d0
       185       2d5
       192       2da
       19f       2df
       20f       2f2
       21b       2f7
       227       2fc
       233       301

Source positions:
 pc offset  position
       265         0  statement
       276        20  statement
       27b        35  statement
       280        49  statement
       285        56  statement
       28a        66  statement
       28f        76  statement
       294        90  statement
       299       100  statement
       29e       139  statement
       2a3       162  statement
       2a8       176  statement
       2ad       183  statement
       2b2       193  statement
       2b7       203  statement
       2bc       217  statement
       2c1       224  statement
       2c6       231  statement
       2cb       238  statement
       2d0       248  statement
       2d5       258  statement
       2da       268  statement
       2df       278  statement
       2e4       320  statement
       2f2       326  statement
       2f7       333  statement
       2fc       340  statement
       301       347  statement

Safepoints (entries = 1, byte size = 12)
0x8aec53fa62a    26a  slots (sp->fp): 0000000000000000

RelocInfo (size = 0)

--- End code ---
--- WebAssembly code ---
name: stackRestore
index: 39
kind: wasm function
compiler: Liftoff
Body (size = 64 = 64 + 0 padding)
Instructions (size = 52)
0x8aec53fa700     0  55                   push rbp
0x8aec53fa701     1  4889e5               REX.W movq rbp,rsp
0x8aec53fa704     4  6a08                 push 0x8
0x8aec53fa706     6  56                   push rsi
0x8aec53fa707     7  4881ec18000000       REX.W subq rsp,0x18
0x8aec53fa70e     e  488b4e27             REX.W movq rcx,[rsi+0x27]
0x8aec53fa712    12  483b21               REX.W cmpq rsp,[rcx]
0x8aec53fa715    15  0f860b000000         jna 0x8aec53fa726  <+0x26>
0x8aec53fa71b    1b  488b4e47             REX.W movq rcx,[rsi+0x47]
0x8aec53fa71f    1f  8901                 movl [rcx],rax
0x8aec53fa721    21  488be5               REX.W movq rsp,rbp
0x8aec53fa724    24  5d                   pop rbp
0x8aec53fa725    25  c3                   retl
0x8aec53fa726    26  50                   push rax
0x8aec53fa727    27  e844dcffff           call 0x8aec53f8370  (jump table)
0x8aec53fa72c    2c  58                   pop rax
0x8aec53fa72d    2d  488b75f0             REX.W movq rsi,[rbp-0x10]
0x8aec53fa731    31  ebe8                 jmp 0x8aec53fa71b  <+0x1b>
0x8aec53fa733    33  90                   nop

Source positions:
 pc offset  position
        27         0  statement

Safepoints (entries = 1, byte size = 10)
0x8aec53fa72c     2c  slots (sp->fp): 00000000

RelocInfo (size = 0)

--- End code ---
--- WebAssembly code ---
name: memset
index: 11
kind: wasm function
compiler: TurboFan
Body (size = 640 = 620 + 20 padding)
Instructions (size = 608)
0x8aec5401040     0  55                   push rbp
0x8aec5401041     1  4889e5               REX.W movq rbp,rsp
0x8aec5401044     4  6a08                 push 0x8
0x8aec5401046     6  56                   push rsi
0x8aec5401047     7  4883ec30             REX.W subq rsp,0x30
0x8aec540104b     b  488b5e17             REX.W movq rbx,[rsi+0x17]
0x8aec540104f     f  83f900               cmpl rcx,0x0
0x8aec5401052    12  0f8474010000         jz 0x8aec54011cc  <+0x18c>
0x8aec5401058    18  8d3c08               leal rdi,[rax+rcx*1]
0x8aec540105b    1b  448bc0               movl r8,rax
0x8aec540105e    1e  448d4fff             leal r9,[rdi-0x1]
0x8aec5401062    22  42881403             movb [rbx+r8*1],dl
0x8aec5401066    26  4288140b             movb [rbx+r9*1],dl
0x8aec540106a    2a  83f903               cmpl rcx,0x3
0x8aec540106d    2d  0f8259010000         jc 0x8aec54011cc  <+0x18c>
0x8aec5401073    33  4188541802           movb [r8+rbx*1+0x2],dl
0x8aec5401078    38  448d4ffd             leal r9,[rdi-0x3]
0x8aec540107c    3c  4188541801           movb [r8+rbx*1+0x1],dl
0x8aec5401081    41  448d5ffe             leal r11,[rdi-0x2]
0x8aec5401085    45  4288140b             movb [rbx+r9*1],dl
0x8aec5401089    49  4288141b             movb [rbx+r11*1],dl
0x8aec540108d    4d  83f907               cmpl rcx,0x7
0x8aec5401090    50  0f8236010000         jc 0x8aec54011cc  <+0x18c>
0x8aec5401096    56  83ef04               subl rdi,0x4
0x8aec5401099    59  4188541803           movb [r8+rbx*1+0x3],dl
0x8aec540109e    5e  88143b               movb [rbx+rdi*1],dl
0x8aec54010a1    61  83f909               cmpl rcx,0x9
0x8aec54010a4    64  0f8222010000         jc 0x8aec54011cc  <+0x18c>
0x8aec54010aa    6a  488bf8               REX.W movq rdi,rax
0x8aec54010ad    6d  f7df                 negl rdi
0x8aec54010af    6f  83e703               andl rdi,0x3
0x8aec54010b2    72  448d0438             leal r8,[rax+rdi*1]
0x8aec54010b6    76  0fb6d2               movzxbl rdx,rdx
0x8aec54010b9    79  69d201010101         imull rdx,rdx,0x1010101
0x8aec54010bf    7f  2bcf                 subl rcx,rdi
0x8aec54010c1    81  83e1fc               andl rcx,0xfc
0x8aec54010c4    84  418d3c08             leal rdi,[r8+rcx*1]
0x8aec54010c8    88  448d4ffc             leal r9,[rdi-0x4]
0x8aec54010cc    8c  42891403             movl [rbx+r8*1],rdx
0x8aec54010d0    90  4289140b             movl [rbx+r9*1],rdx
0x8aec54010d4    94  83f909               cmpl rcx,0x9
0x8aec54010d7    97  0f82ef000000         jc 0x8aec54011cc  <+0x18c>
0x8aec54010dd    9d  4189541808           movl [r8+rbx*1+0x8],rdx
0x8aec54010e2    a2  448d4ff8             leal r9,[rdi-0x8]
0x8aec54010e6    a6  4189541804           movl [r8+rbx*1+0x4],rdx
0x8aec54010eb    ab  448d5ff4             leal r11,[rdi-0xc]
0x8aec54010ef    af  4289140b             movl [rbx+r9*1],rdx
0x8aec54010f3    b3  4289141b             movl [rbx+r11*1],rdx
0x8aec54010f7    b7  83f919               cmpl rcx,0x19
0x8aec54010fa    ba  0f82cc000000         jc 0x8aec54011cc  <+0x18c>
0x8aec5401100    c0  4d8bc8               REX.W movq r9,r8
0x8aec5401103    c3  4183e104             andl r9,0x4
0x8aec5401107    c7  4183c918             orl r9,0x18
0x8aec540110b    cb  412bc9               subl rcx,r9
0x8aec540110e    ce  4189541818           movl [r8+rbx*1+0x18],rdx
0x8aec5401113    d3  4189541814           movl [r8+rbx*1+0x14],rdx
0x8aec5401118    d8  4189541810           movl [r8+rbx*1+0x10],rdx
0x8aec540111d    dd  448d5ff0             leal r11,[rdi-0x10]
0x8aec5401121    e1  418954180c           movl [r8+rbx*1+0xc],rdx
0x8aec5401126    e6  448d67ec             leal r12,[rdi-0x14]
0x8aec540112a    ea  4289141b             movl [rbx+r11*1],rdx
0x8aec540112e    ee  448d5fe8             leal r11,[rdi-0x18]
0x8aec5401132    f2  42891423             movl [rbx+r12*1],rdx
0x8aec5401136    f6  83ef1c               subl rdi,0x1c
0x8aec5401139    f9  4289141b             movl [rbx+r11*1],rdx
0x8aec540113d    fd  89143b               movl [rbx+rdi*1],rdx
0x8aec5401140   100  83f920               cmpl rcx,0x20
0x8aec5401143   103  0f8283000000         jc 0x8aec54011cc  <+0x18c>
0x8aec5401149   109  438d3c08             leal rdi,[r8+r9*1]
0x8aec540114d   10d  488b7627             REX.W movq rsi,[rsi+0x27]
0x8aec5401151   111  49b80100000001000000 REX.W movq r8,0x100000001
0x8aec540115b   11b  4c0fafc2             REX.W imulq r8,rdx
0x8aec540115f   11f  e922000000           jmp 0x8aec5401186  <+0x146>
0x8aec5401164   124  660f1f840000000000   nop
0x8aec540116d   12d  660f1f840000000000   nop
0x8aec5401176   136  660f1f840000000000   nop
0x8aec540117f   13f  90                   nop
0x8aec5401180   140  8d7920               leal rdi,[rcx+0x20]
0x8aec5401183   143  488bca               REX.W movq rcx,rdx
0x8aec5401186   146  483b26               REX.W cmpq rsp,[rsi]
0x8aec5401189   149  0f8642000000         jna 0x8aec54011d1  <+0x191>
0x8aec540118f   14f  4c89441f18           REX.W movq [rdi+rbx*1+0x18],r8
0x8aec5401194   154  4c89441f10           REX.W movq [rdi+rbx*1+0x10],r8
0x8aec5401199   159  4c89441f08           REX.W movq [rdi+rbx*1+0x8],r8
0x8aec540119e   15e  4c89043b             REX.W movq [rbx+rdi*1],r8
0x8aec54011a2   162  8d51e0               leal rdx,[rcx-0x20]
0x8aec54011a5   165  83fa1f               cmpl rdx,0x1f
0x8aec54011a8   168  0f861e000000         jna 0x8aec54011cc  <+0x18c>
0x8aec54011ae   16e  8d4f20               leal rcx,[rdi+0x20]
0x8aec54011b1   171  4c89441918           REX.W movq [rcx+rbx*1+0x18],r8
0x8aec54011b6   176  4c89441910           REX.W movq [rcx+rbx*1+0x10],r8
0x8aec54011bb   17b  4c89441908           REX.W movq [rcx+rbx*1+0x8],r8
0x8aec54011c0   180  4c89040b             REX.W movq [rbx+rcx*1],r8
0x8aec54011c4   184  83ea20               subl rdx,0x20
0x8aec54011c7   187  83fa1f               cmpl rdx,0x1f
0x8aec54011ca   18a  77b4                 ja 0x8aec5401180  <+0x140>
0x8aec54011cc   18c  488be5               REX.W movq rsp,rbp
0x8aec54011cf   18f  5d                   pop rbp
0x8aec54011d0   190  c3                   retl
0x8aec54011d1   191  488945e8             REX.W movq [rbp-0x18],rax
0x8aec54011d5   195  48895de0             REX.W movq [rbp-0x20],rbx
0x8aec54011d9   199  4c8945d8             REX.W movq [rbp-0x28],r8
0x8aec54011dd   19d  48897dd0             REX.W movq [rbp-0x30],rdi
0x8aec54011e1   1a1  48894dc8             REX.W movq [rbp-0x38],rcx
0x8aec54011e5   1a5  488975c0             REX.W movq [rbp-0x40],rsi
0x8aec54011e9   1a9  e88271ffff           call 0x8aec53f8370  (jump table)    ;; wasm stub: WasmStackGuard
0x8aec54011ee   1ae  488b45e8             REX.W movq rax,[rbp-0x18]
0x8aec54011f2   1b2  488b5de0             REX.W movq rbx,[rbp-0x20]
0x8aec54011f6   1b6  4c8b45d8             REX.W movq r8,[rbp-0x28]
0x8aec54011fa   1ba  488b7dd0             REX.W movq rdi,[rbp-0x30]
0x8aec54011fe   1be  488b4dc8             REX.W movq rcx,[rbp-0x38]
0x8aec5401202   1c2  488b75c0             REX.W movq rsi,[rbp-0x40]
0x8aec5401206   1c6  eb87                 jmp 0x8aec540118f  <+0x14f>
0x8aec5401208   1c8  e8036fffff           call 0x8aec53f8110  (jump table)    ;; wasm stub: ThrowWasmTrapMemOutOfBounds
0x8aec540120d   1cd  e8fe6effff           call 0x8aec53f8110  (jump table)    ;; wasm stub: ThrowWasmTrapMemOutOfBounds
0x8aec5401212   1d2  e8f96effff           call 0x8aec53f8110  (jump table)    ;; wasm stub: ThrowWasmTrapMemOutOfBounds
0x8aec5401217   1d7  e8f46effff           call 0x8aec53f8110  (jump table)    ;; wasm stub: ThrowWasmTrapMemOutOfBounds
0x8aec540121c   1dc  e8ef6effff           call 0x8aec53f8110  (jump table)    ;; wasm stub: ThrowWasmTrapMemOutOfBounds
0x8aec5401221   1e1  e8ea6effff           call 0x8aec53f8110  (jump table)    ;; wasm stub: ThrowWasmTrapMemOutOfBounds
0x8aec5401226   1e6  e8e56effff           call 0x8aec53f8110  (jump table)    ;; wasm stub: ThrowWasmTrapMemOutOfBounds
0x8aec540122b   1eb  e8e06effff           call 0x8aec53f8110  (jump table)    ;; wasm stub: ThrowWasmTrapMemOutOfBounds
0x8aec5401230   1f0  e8db6effff           call 0x8aec53f8110  (jump table)    ;; wasm stub: ThrowWasmTrapMemOutOfBounds
0x8aec5401235   1f5  e8d66effff           call 0x8aec53f8110  (jump table)    ;; wasm stub: ThrowWasmTrapMemOutOfBounds
0x8aec540123a   1fa  e8d16effff           call 0x8aec53f8110  (jump table)    ;; wasm stub: ThrowWasmTrapMemOutOfBounds
0x8aec540123f   1ff  e8cc6effff           call 0x8aec53f8110  (jump table)    ;; wasm stub: ThrowWasmTrapMemOutOfBounds
0x8aec5401244   204  e8c76effff           call 0x8aec53f8110  (jump table)    ;; wasm stub: ThrowWasmTrapMemOutOfBounds
0x8aec5401249   209  e8c26effff           call 0x8aec53f8110  (jump table)    ;; wasm stub: ThrowWasmTrapMemOutOfBounds
0x8aec540124e   20e  e8bd6effff           call 0x8aec53f8110  (jump table)    ;; wasm stub: ThrowWasmTrapMemOutOfBounds
0x8aec5401253   213  e8b86effff           call 0x8aec53f8110  (jump table)    ;; wasm stub: ThrowWasmTrapMemOutOfBounds
0x8aec5401258   218  e8b36effff           call 0x8aec53f8110  (jump table)    ;; wasm stub: ThrowWasmTrapMemOutOfBounds
0x8aec540125d   21d  e8ae6effff           call 0x8aec53f8110  (jump table)    ;; wasm stub: ThrowWasmTrapMemOutOfBounds
0x8aec5401262   222  e8a96effff           call 0x8aec53f8110  (jump table)    ;; wasm stub: ThrowWasmTrapMemOutOfBounds
0x8aec5401267   227  e8a46effff           call 0x8aec53f8110  (jump table)    ;; wasm stub: ThrowWasmTrapMemOutOfBounds
0x8aec540126c   22c  e89f6effff           call 0x8aec53f8110  (jump table)    ;; wasm stub: ThrowWasmTrapMemOutOfBounds
0x8aec5401271   231  e89a6effff           call 0x8aec53f8110  (jump table)    ;; wasm stub: ThrowWasmTrapMemOutOfBounds
0x8aec5401276   236  e8956effff           call 0x8aec53f8110  (jump table)    ;; wasm stub: ThrowWasmTrapMemOutOfBounds
0x8aec540127b   23b  e8906effff           call 0x8aec53f8110  (jump table)    ;; wasm stub: ThrowWasmTrapMemOutOfBounds
0x8aec5401280   240  e88b6effff           call 0x8aec53f8110  (jump table)    ;; wasm stub: ThrowWasmTrapMemOutOfBounds
0x8aec5401285   245  e8866effff           call 0x8aec53f8110  (jump table)    ;; wasm stub: ThrowWasmTrapMemOutOfBounds
0x8aec540128a   24a  e8816effff           call 0x8aec53f8110  (jump table)    ;; wasm stub: ThrowWasmTrapMemOutOfBounds
0x8aec540128f   24f  e87c6effff           call 0x8aec53f8110  (jump table)    ;; wasm stub: ThrowWasmTrapMemOutOfBounds
0x8aec5401294   254  e8776effff           call 0x8aec53f8110  (jump table)    ;; wasm stub: ThrowWasmTrapMemOutOfBounds
0x8aec5401299   259  e8726effff           call 0x8aec53f8110  (jump table)    ;; wasm stub: ThrowWasmTrapMemOutOfBounds
0x8aec540129e   25e  90                   nop
0x8aec540129f   25f  90                   nop

Protected instructions:
 pc offset  land pad
       180       1c8
       17b       1cd
       176       1d2
       171       1d7
       15e       1dc
       159       1e1
       154       1e6
       14f       1eb
        fd       1f0
        f9       1f5
        f2       1fa
        ea       1ff
        e1       204
        d8       209
        d3       20e
        ce       213
        b3       218
        af       21d
        a6       222
        9d       227
        90       22c
        8c       231
        5e       236
        59       23b
        49       240
        45       245
        3c       24a
        33       24f
        26       254
        22       259

Source positions:
 pc offset  position
        22        20
        26        35
        33        49
        3c        56
        45        66
        49        76
        59        90
        5e       100
        8c       139
        90       162
        9d       176
        a6       183
        af       193
        b3       203
        ce       217
        d3       224
        d8       231
        e1       238
        ea       248
        f2       258
        f9       268
        fd       278
       14f       326
       154       333
       159       340
       15e       347
       171       326
       176       333
       17b       340
       180       347
       191       320
       1c8       347
       1cd       340
       1d2       333
       1d7       326
       1dc       347
       1e1       340
       1e6       333
       1eb       326
       1f0       278
       1f5       268
       1fa       258
       1ff       248
       204       238
       209       231
       20e       224
       213       217
       218       203
       21d       193
       222       183
       227       176
       22c       162
       231       139
       236       100
       23b        90
       240        76
       245        66
       24a        56
       24f        49
       254        35
       259        20

Safepoints (entries = 1, byte size = 12)
0x8aec54011ee    1ae  slots (sp->fp): 0000000000000000

RelocInfo (size = 33)
0x8aec54011ea  wasm stub call
0x8aec5401209  wasm stub call
0x8aec540120e  wasm stub call
0x8aec5401213  wasm stub call
0x8aec5401218  wasm stub call
0x8aec540121d  wasm stub call
0x8aec5401222  wasm stub call
0x8aec5401227  wasm stub call
0x8aec540122c  wasm stub call
0x8aec5401231  wasm stub call
0x8aec5401236  wasm stub call
0x8aec540123b  wasm stub call
0x8aec5401240  wasm stub call
0x8aec5401245  wasm stub call
0x8aec540124a  wasm stub call
0x8aec540124f  wasm stub call
0x8aec5401254  wasm stub call
0x8aec5401259  wasm stub call
0x8aec540125e  wasm stub call
0x8aec5401263  wasm stub call
0x8aec5401268  wasm stub call
0x8aec540126d  wasm stub call
0x8aec5401272  wasm stub call
0x8aec5401277  wasm stub call
0x8aec540127c  wasm stub call
0x8aec5401281  wasm stub call
0x8aec5401286  wasm stub call
0x8aec540128b  wasm stub call
0x8aec5401290  wasm stub call
0x8aec5401295  wasm stub call
0x8aec540129a  wasm stub call

--- End code ---
--- WebAssembly code ---
name: isdigit
index: 15
kind: wasm function
compiler: Liftoff
Body (size = 128 = 84 + 44 padding)
Instructions (size = 72)
0x8aec53fbd40     0  55                   push rbp
0x8aec53fbd41     1  4889e5               REX.W movq rbp,rsp
0x8aec53fbd44     4  6a08                 push 0x8
0x8aec53fbd46     6  56                   push rsi
0x8aec53fbd47     7  4881ec18000000       REX.W subq rsp,0x18
0x8aec53fbd4e     e  488b4e27             REX.W movq rcx,[rsi+0x27]
0x8aec53fbd52    12  483b21               REX.W cmpq rsp,[rcx]
0x8aec53fbd55    15  0f861d000000         jna 0x8aec53fbd78  <+0x38>
0x8aec53fbd5b    1b  b930000000           movl rcx,0x30
0x8aec53fbd60    20  f7d9                 negl rcx
0x8aec53fbd62    22  03c8                 addl rcx,rax
0x8aec53fbd64    24  ba0a000000           movl rdx,0xa
0x8aec53fbd69    29  3bca                 cmpl rcx,rdx
0x8aec53fbd6b    2b  0f92c1               setcl cl
0x8aec53fbd6e    2e  0fb6c9               movzxbl rcx,rcx
0x8aec53fbd71    31  8bc1                 movl rax,rcx
0x8aec53fbd73    33  488be5               REX.W movq rsp,rbp
0x8aec53fbd76    36  5d                   pop rbp
0x8aec53fbd77    37  c3                   retl
0x8aec53fbd78    38  50                   push rax
0x8aec53fbd79    39  e8f2c5ffff           call 0x8aec53f8370  (jump table)
0x8aec53fbd7e    3e  58                   pop rax
0x8aec53fbd7f    3f  488b75f0             REX.W movq rsi,[rbp-0x10]
0x8aec53fbd83    43  ebd6                 jmp 0x8aec53fbd5b  <+0x1b>
0x8aec53fbd85    45  0f1f00               nop

Source positions:
 pc offset  position
        39         0  statement

Safepoints (entries = 1, byte size = 10)
0x8aec53fbd7e     3e  slots (sp->fp): 00000000

RelocInfo (size = 0)

--- End code ---
--- WebAssembly code ---
name: __lockfile
index: 12
kind: wasm function
compiler: Liftoff
Body (size = 64 = 64 + 0 padding)
Instructions (size = 52)
0x8aec53fe280     0  55                   push rbp
0x8aec53fe281     1  4889e5               REX.W movq rbp,rsp
0x8aec53fe284     4  6a08                 push 0x8
0x8aec53fe286     6  56                   push rsi
0x8aec53fe287     7  4881ec18000000       REX.W subq rsp,0x18
0x8aec53fe28e     e  488b4e27             REX.W movq rcx,[rsi+0x27]
0x8aec53fe292    12  483b21               REX.W cmpq rsp,[rcx]
0x8aec53fe295    15  0f860a000000         jna 0x8aec53fe2a5  <+0x25>
0x8aec53fe29b    1b  b801000000           movl rax,0x1
0x8aec53fe2a0    20  488be5               REX.W movq rsp,rbp
0x8aec53fe2a3    23  5d                   pop rbp
0x8aec53fe2a4    24  c3                   retl
0x8aec53fe2a5    25  50                   push rax
0x8aec53fe2a6    26  e8c5a0ffff           call 0x8aec53f8370  (jump table)
0x8aec53fe2ab    2b  58                   pop rax
0x8aec53fe2ac    2c  488b75f0             REX.W movq rsi,[rbp-0x10]
0x8aec53fe2b0    30  ebe9                 jmp 0x8aec53fe29b  <+0x1b>
0x8aec53fe2b2    32  6690                 nop

Source positions:
 pc offset  position
        26         0  statement

Safepoints (entries = 1, byte size = 10)
0x8aec53fe2ab     2b  slots (sp->fp): 00000000

RelocInfo (size = 0)

--- End code ---
--- WebAssembly code ---
name: wasm-to-js:i:-setTempRet0
index: 3
kind: wasm-to-js
Body (size = 256 = 212 + 44 padding)
Instructions (size = 200)
0x8aec53fe2c0     0  55                   push rbp
0x8aec53fe2c1     1  4889e5               REX.W movq rbp,rsp
0x8aec53fe2c4     4  6a0a                 push 0xa
0x8aec53fe2c6     6  56                   push rsi
0x8aec53fe2c7     7  4883ec28             REX.W subq rsp,0x28
0x8aec53fe2cb     b  8b5e0b               movl rbx,[rsi+0xb]
0x8aec53fe2ce     e  4903de               REX.W addq rbx,r14
0x8aec53fe2d1    11  8b7e0f               movl rdi,[rsi+0xf]
0x8aec53fe2d4    14  4903fe               REX.W addq rdi,r14
0x8aec53fe2d7    17  488b4e03             REX.W movq rcx,[rsi+0x3]
0x8aec53fe2db    1b  4c8b4603             REX.W movq r8,[rsi+0x3]
0x8aec53fe2df    1f  4d8b8048450000       REX.W movq r8,[r8+0x4548]
0x8aec53fe2e6    26  41c70000000000       movl [r8],0x0
0x8aec53fe2ed    2d  448b470f             movl r8,[rdi+0xf]
0x8aec53fe2f1    31  4d03c6               REX.W addq r8,r14
0x8aec53fe2f4    34  448b4f0b             movl r9,[rdi+0xb]
0x8aec53fe2f8    38  4d03ce               REX.W addq r9,r14
0x8aec53fe2fb    3b  488b9170010000       REX.W movq rdx,[rcx+0x170]
0x8aec53fe302    42  488975e8             REX.W movq [rbp-0x18],rsi
0x8aec53fe306    46  41f6411b60           testb [r9+0x1b],0x60
0x8aec53fe30b    4b  0f850b000000         jnz 0x8aec53fe31c  <+0x5c>
0x8aec53fe311    51  8b5b13               movl rbx,[rbx+0x13]
0x8aec53fe314    54  4903de               REX.W addq rbx,r14
0x8aec53fe317    57  e903000000           jmp 0x8aec53fe31f  <+0x5f>
0x8aec53fe31c    5c  488bda               REX.W movq rbx,rdx
0x8aec53fe31f    5f  488bc8               REX.W movq rcx,rax
0x8aec53fe322    62  03c8                 addl rcx,rax
0x8aec53fe324    64  0f8033000000         jo 0x8aec53fe35d  <+0x9d>
0x8aec53fe32a    6a  4863c9               REX.W movsxlq rcx,rcx
0x8aec53fe32d    6d  51                   push rcx
0x8aec53fe32e    6e  53                   push rbx
0x8aec53fe32f    6f  b802000000           movl rax,0x2
0x8aec53fe334    74  498bf0               REX.W movq rsi,r8
0x8aec53fe337    77  8b4f17               movl rcx,[rdi+0x17]
0x8aec53fe33a    7a  4903ce               REX.W addq rcx,r14
0x8aec53fe33d    7d  488b490f             REX.W movq rcx,[rcx+0xf]
0x8aec53fe341    81  ffd1                 call rcx
0x8aec53fe343    83  488b5de8             REX.W movq rbx,[rbp-0x18]
0x8aec53fe347    87  488b5b03             REX.W movq rbx,[rbx+0x3]
0x8aec53fe34b    8b  488b9b48450000       REX.W movq rbx,[rbx+0x4548]
0x8aec53fe352    92  c70301000000         movl [rbx],0x1
0x8aec53fe358    98  488be5               REX.W movq rsp,rbp
0x8aec53fe35b    9b  5d                   pop rbp
0x8aec53fe35c    9c  c3                   retl
0x8aec53fe35d    9d  48897de0             REX.W movq [rbp-0x20],rdi
0x8aec53fe361    a1  48895dd8             REX.W movq [rbp-0x28],rbx
0x8aec53fe365    a5  488955d0             REX.W movq [rbp-0x30],rdx
0x8aec53fe369    a9  4c8945c8             REX.W movq [rbp-0x38],r8
0x8aec53fe36d    ad  e8be9effff           call 0x8aec53f8230  (jump table)    ;; wasm stub: WasmInt32ToHeapNumber
0x8aec53fe372    b2  488bc8               REX.W movq rcx,rax
0x8aec53fe375    b5  488b7de0             REX.W movq rdi,[rbp-0x20]
0x8aec53fe379    b9  488b5dd8             REX.W movq rbx,[rbp-0x28]
0x8aec53fe37d    bd  488b55d0             REX.W movq rdx,[rbp-0x30]
0x8aec53fe381    c1  4c8b45c8             REX.W movq r8,[rbp-0x38]
0x8aec53fe385    c5  eba6                 jmp 0x8aec53fe32d  <+0x6d>
0x8aec53fe387    c7  90                   nop

Safepoints (entries = 2, byte size = 12)
0x8aec53fe343     83  slots (sp->fp): 00001000
0x8aec53fe372     b2  slots (sp->fp): 10111000

RelocInfo (size = 3)
0x8aec53fe36e  wasm stub call

--- End code ---
--- WebAssembly code ---
name: __unlockfile
index: 13
kind: wasm function
compiler: Liftoff
Body (size = 64 = 60 + 4 padding)
Instructions (size = 48)
0x8aec53fe5c0     0  55                   push rbp
0x8aec53fe5c1     1  4889e5               REX.W movq rbp,rsp
0x8aec53fe5c4     4  6a08                 push 0x8
0x8aec53fe5c6     6  56                   push rsi
0x8aec53fe5c7     7  4881ec18000000       REX.W subq rsp,0x18
0x8aec53fe5ce     e  488b4e27             REX.W movq rcx,[rsi+0x27]
0x8aec53fe5d2    12  483b21               REX.W cmpq rsp,[rcx]
0x8aec53fe5d5    15  0f8605000000         jna 0x8aec53fe5e0  <+0x20>
0x8aec53fe5db    1b  488be5               REX.W movq rsp,rbp
0x8aec53fe5de    1e  5d                   pop rbp
0x8aec53fe5df    1f  c3                   retl
0x8aec53fe5e0    20  50                   push rax
0x8aec53fe5e1    21  e88a9dffff           call 0x8aec53f8370  (jump table)
0x8aec53fe5e6    26  58                   pop rax
0x8aec53fe5e7    27  488b75f0             REX.W movq rsi,[rbp-0x10]
0x8aec53fe5eb    2b  ebee                 jmp 0x8aec53fe5db  <+0x1b>
0x8aec53fe5ed    2d  0f1f00               nop

Source positions:
 pc offset  position
        21         0  statement

Safepoints (entries = 1, byte size = 10)
0x8aec53fe5e6     26  slots (sp->fp): 00000000

RelocInfo (size = 0)

--- End code ---
--- WebAssembly code ---
name: __stdio_write
index: 8
kind: wasm function
compiler: TurboFan
Body (size = 960 = 904 + 56 padding)
Instructions (size = 884)
0x8aec54037c0     0  55                   push rbp
0x8aec54037c1     1  4889e5               REX.W movq rbp,rsp
0x8aec54037c4     4  6a08                 push 0x8
0x8aec54037c6     6  56                   push rsi
0x8aec54037c7     7  4883ec70             REX.W subq rsp,0x70
0x8aec54037cb     b  488b7e27             REX.W movq rdi,[rsi+0x27]
0x8aec54037cf     f  48894dd8             REX.W movq [rbp-0x28],rcx
0x8aec54037d3    13  48897d80             REX.W movq [rbp-0x80],rdi
0x8aec54037d7    17  483b27               REX.W cmpq rsp,[rdi]
0x8aec54037da    1a  0f8685020000         jna 0x8aec5403a65  <+0x2a5>
0x8aec54037e0    20  4c8b4617             REX.W movq r8,[rsi+0x17]
0x8aec54037e4    24  448bc8               movl r9,rax
0x8aec54037e7    27  4c8b5e47             REX.W movq r11,[rsi+0x47]
0x8aec54037eb    2b  458b23               movl r12,[r11]
0x8aec54037ee    2e  4183ec20             subl r12,0x20
0x8aec54037f2    32  458923               movl [r11],r12
0x8aec54037f5    35  478b7c011c           movl r15,[r9+r8*1+0x1c]
0x8aec54037fa    3a  47897c0410           movl [r12+r8*1+0x10],r15
0x8aec54037ff    3f  438b440114           movl rax,[r9+r8*1+0x14]
0x8aec5403804    44  412bc7               subl rax,r15
0x8aec5403807    47  448d3c08             leal r15,[rax+rcx*1]
0x8aec540380b    4b  8b5e0b               movl rbx,[rsi+0xb]
0x8aec540380e    4e  4903de               REX.W addq rbx,r14
0x8aec5403811    51  488b7e2f             REX.W movq rdi,[rsi+0x2f]
0x8aec5403815    55  4c895de8             REX.W movq [rbp-0x18],r11
0x8aec5403819    59  458d5c240c           leal r11,[r12+0xc]
0x8aec540381e    5e  43894c041c           movl [r12+r8*1+0x1c],rcx
0x8aec5403823    63  4389540418           movl [r12+r8*1+0x18],rdx
0x8aec5403828    68  4389440414           movl [r12+r8*1+0x14],rax
0x8aec540382d    6d  438b44013c           movl rax,[r9+r8*1+0x3c]
0x8aec5403832    72  8b530b               movl rdx,[rbx+0xb]
0x8aec5403835    75  4903d6               REX.W addq rdx,r14
0x8aec5403838    78  4c8945c8             REX.W movq [rbp-0x38],r8
0x8aec540383c    7c  4c8b4708             REX.W movq r8,[rdi+0x8]
0x8aec5403840    80  48897d90             REX.W movq [rbp-0x70],rdi
0x8aec5403844    84  418d7c2410           leal rdi,[r12+0x10]
0x8aec5403849    89  4c894dd0             REX.W movq [rbp-0x30],r9
0x8aec540384d    8d  4c8965e0             REX.W movq [rbp-0x20],r12
0x8aec5403851    91  4c897db0             REX.W movq [rbp-0x50],r15
0x8aec5403855    95  48895d88             REX.W movq [rbp-0x78],rbx
0x8aec5403859    99  4c895da0             REX.W movq [rbp-0x60],r11
0x8aec540385d    9d  48897db8             REX.W movq [rbp-0x48],rdi
0x8aec5403861    a1  488bf2               REX.W movq rsi,rdx
0x8aec5403864    a4  488bd7               REX.W movq rdx,rdi
0x8aec5403867    a7  b902000000           movl rcx,0x2
0x8aec540386c    ac  498bdb               REX.W movq rbx,r11
0x8aec540386f    af  41ffd0               call r8
0x8aec5403872    b2  488b75f0             REX.W movq rsi,[rbp-0x10]
0x8aec5403876    b6  e81448ffff           call 0x8aec53f808f  (jump table)    ;; internal wasm call
0x8aec540387b    bb  83f800               cmpl rax,0x0
0x8aec540387e    be  0f840b000000         jz 0x8aec540388f  <+0xcf>
0x8aec5403884    c4  41b802000000         movl r8,0x2
0x8aec540388a    ca  e92b010000           jmp 0x8aec54039ba  <+0x1fa>
0x8aec540388f    cf  48c745c002000000     REX.W movq [rbp-0x40],0x2
0x8aec5403897    d7  660f1f840000000000   nop
0x8aec54038a0    e0  660f1f840000000000   nop
0x8aec54038a9    e9  660f1f840000000000   nop
0x8aec54038b2    f2  660f1f840000000000   nop
0x8aec54038bb    fb  0f1f440000           nop
0x8aec54038c0   100  488b7db8             REX.W movq rdi,[rbp-0x48]
0x8aec54038c4   104  4c8b7db0             REX.W movq r15,[rbp-0x50]
0x8aec54038c8   108  4c8b5de0             REX.W movq r11,[rbp-0x20]
0x8aec54038cc   10c  488b55d0             REX.W movq rdx,[rbp-0x30]
0x8aec54038d0   110  4c8b65c8             REX.W movq r12,[rbp-0x38]
0x8aec54038d4   114  488b4d88             REX.W movq rcx,[rbp-0x78]
0x8aec54038d8   118  bb0c000000           movl rbx,0xc
0x8aec54038dd   11d  4c8b4d80             REX.W movq r9,[rbp-0x80]
0x8aec54038e1   121  493b21               REX.W cmpq rsp,[r9]
0x8aec54038e4   124  0f869d010000         jna 0x8aec5403a87  <+0x2c7>
0x8aec54038ea   12a  478b44230c           movl r8,[r11+r12*1+0xc]
0x8aec54038ef   12f  453bf8               cmpl r15,r8
0x8aec54038f2   132  0f843a010000         jz 0x8aec5403a32  <+0x272>
0x8aec54038f8   138  4183f800             cmpl r8,0x0
0x8aec54038fc   13c  0f8ce0000000         jl 0x8aec54039e2  <+0x222>
0x8aec5403902   142  452bf8               subl r15,r8
0x8aec5403905   145  448bcf               movl r9,rdi
0x8aec5403908   148  478b4c2104           movl r9,[r9+r12*1+0x4]
0x8aec540390d   14d  453bc8               cmpl r9,r8
0x8aec5403910   150  410f92c3             setcl r11l
0x8aec5403914   154  450fb6db             movzxbl r11,r11
0x8aec5403918   158  4c897db0             REX.W movq [rbp-0x50],r15
0x8aec540391c   15c  468d3cdf             leal r15,[rdi+r11*8]
0x8aec5403920   160  4c895d98             REX.W movq [rbp-0x68],r11
0x8aec5403924   164  4533db               xorl r11,r11
0x8aec5403927   167  453bc8               cmpl r9,r8
0x8aec540392a   16a  450f42d9             cmovcl r11,r9
0x8aec540392e   16e  438b043c             movl rax,[r12+r15*1]
0x8aec5403932   172  498bf0               REX.W movq rsi,r8
0x8aec5403935   175  412bf3               subl rsi,r11
0x8aec5403938   178  41bb04000000         movl r11,0x4
0x8aec540393e   17e  453bc8               cmpl r9,r8
0x8aec5403941   181  440f42db             cmovcl r11,rbx
0x8aec5403945   185  03c6                 addl rax,rsi
0x8aec5403947   187  4403df               addl r11,rdi
0x8aec540394a   18a  4389043c             movl [r12+r15*1],rax
0x8aec540394e   18e  478b3c1c             movl r15,[r12+r11*1]
0x8aec5403952   192  442bfe               subl r15,rsi
0x8aec5403955   195  47893c1c             movl [r12+r11*1],r15
0x8aec5403959   199  428b44223c           movl rax,[rdx+r12*1+0x3c]
0x8aec540395e   19e  8b710b               movl rsi,[rcx+0xb]
0x8aec5403961   1a1  4903f6               REX.W addq rsi,r14
0x8aec5403964   1a4  448d5f08             leal r11,[rdi+0x8]
0x8aec5403968   1a8  48897db8             REX.W movq [rbp-0x48],rdi
0x8aec540396c   1ac  4c8b7d90             REX.W movq r15,[rbp-0x70]
0x8aec5403970   1b0  498b7f08             REX.W movq rdi,[r15+0x8]
0x8aec5403974   1b4  48897da8             REX.W movq [rbp-0x58],rdi
0x8aec5403978   1b8  488b7dc0             REX.W movq rdi,[rbp-0x40]
0x8aec540397c   1bc  2b7d98               subl rdi,[rbp-0x68]
0x8aec540397f   1bf  48897dc0             REX.W movq [rbp-0x40],rdi
0x8aec5403983   1c3  488b7db8             REX.W movq rdi,[rbp-0x48]
0x8aec5403987   1c7  453bc8               cmpl r9,r8
0x8aec540398a   1ca  410f42fb             cmovcl rdi,r11
0x8aec540398e   1ce  48897db8             REX.W movq [rbp-0x48],rdi
0x8aec5403992   1d2  488bd7               REX.W movq rdx,rdi
0x8aec5403995   1d5  488b4dc0             REX.W movq rcx,[rbp-0x40]
0x8aec5403999   1d9  488b5da0             REX.W movq rbx,[rbp-0x60]
0x8aec540399d   1dd  4c8b45a8             REX.W movq r8,[rbp-0x58]
0x8aec54039a1   1e1  41ffd0               call r8
0x8aec54039a4   1e4  488b75f0             REX.W movq rsi,[rbp-0x10]
0x8aec54039a8   1e8  e8e246ffff           call 0x8aec53f808f  (jump table)    ;; internal wasm call
0x8aec54039ad   1ed  83f800               cmpl rax,0x0
0x8aec54039b0   1f0  0f840affffff         jz 0x8aec54038c0  <+0x100>
0x8aec54039b6   1f6  4c8b45c0             REX.W movq r8,[rbp-0x40]
0x8aec54039ba   1fa  4c8b7db0             REX.W movq r15,[rbp-0x50]
0x8aec54039be   1fe  4183ffff             cmpl r15,0xff
0x8aec54039c2   202  0f8511000000         jnz 0x8aec54039d9  <+0x219>
0x8aec54039c8   208  4c8b5de0             REX.W movq r11,[rbp-0x20]
0x8aec54039cc   20c  488b55d0             REX.W movq rdx,[rbp-0x30]
0x8aec54039d0   210  4c8b65c8             REX.W movq r12,[rbp-0x38]
0x8aec54039d4   214  e959000000           jmp 0x8aec5403a32  <+0x272>
0x8aec54039d9   219  488b7db8             REX.W movq rdi,[rbp-0x48]
0x8aec54039dd   21d  e904000000           jmp 0x8aec54039e6  <+0x226>
0x8aec54039e2   222  4c8b45c0             REX.W movq r8,[rbp-0x40]
0x8aec54039e6   226  4c8b4dd0             REX.W movq r9,[rbp-0x30]
0x8aec54039ea   22a  4c8b5dc8             REX.W movq r11,[rbp-0x38]
0x8aec54039ee   22e  43c744191c00000000   movl [r9+r11*1+0x1c],0x0
0x8aec54039f7   237  4bc744191000000000   REX.W movq [r9+r11*1+0x10],0x0
0x8aec5403a00   240  478b240b             movl r12,[r11+r9*1]
0x8aec5403a04   244  4183cc20             orl r12,0x20
0x8aec5403a08   248  4789240b             movl [r11+r9*1],r12
0x8aec5403a0c   24c  4183f802             cmpl r8,0x2
0x8aec5403a10   250  0f8415000000         jz 0x8aec5403a2b  <+0x26b>
0x8aec5403a16   256  8bff                 movl rdi,rdi
0x8aec5403a18   258  428b7c1f04           movl rdi,[rdi+r11*1+0x4]
0x8aec5403a1d   25d  488b4dd8             REX.W movq rcx,[rbp-0x28]
0x8aec5403a21   261  2bcf                 subl rcx,rdi
0x8aec5403a23   263  488bc1               REX.W movq rax,rcx
0x8aec5403a26   266  e927000000           jmp 0x8aec5403a52  <+0x292>
0x8aec5403a2b   26b  33c0                 xorl rax,rax
0x8aec5403a2d   26d  e920000000           jmp 0x8aec5403a52  <+0x292>
0x8aec5403a32   272  428b7c222c           movl rdi,[rdx+r12*1+0x2c]
0x8aec5403a37   277  42897c221c           movl [rdx+r12*1+0x1c],rdi
0x8aec5403a3c   27c  42897c2214           movl [rdx+r12*1+0x14],rdi
0x8aec5403a41   281  468b442230           movl r8,[rdx+r12*1+0x30]
0x8aec5403a46   286  4103f8               addl rdi,r8
0x8aec5403a49   289  42897c2210           movl [rdx+r12*1+0x10],rdi
0x8aec5403a4e   28e  488b45d8             REX.W movq rax,[rbp-0x28]
0x8aec5403a52   292  488b7de0             REX.W movq rdi,[rbp-0x20]
0x8aec5403a56   296  83c720               addl rdi,0x20
0x8aec5403a59   299  4c8b45e8             REX.W movq r8,[rbp-0x18]
0x8aec5403a5d   29d  418938               movl [r8],rdi
0x8aec5403a60   2a0  488be5               REX.W movq rsp,rbp
0x8aec5403a63   2a3  5d                   pop rbp
0x8aec5403a64   2a4  c3                   retl
0x8aec5403a65   2a5  488955c0             REX.W movq [rbp-0x40],rdx
0x8aec5403a69   2a9  488945e8             REX.W movq [rbp-0x18],rax
0x8aec5403a6d   2ad  e8fe48ffff           call 0x8aec53f8370  (jump table)    ;; wasm stub: WasmStackGuard
0x8aec5403a72   2b2  488b4dd8             REX.W movq rcx,[rbp-0x28]
0x8aec5403a76   2b6  488b75f0             REX.W movq rsi,[rbp-0x10]
0x8aec5403a7a   2ba  488b55c0             REX.W movq rdx,[rbp-0x40]
0x8aec5403a7e   2be  488b45e8             REX.W movq rax,[rbp-0x18]
0x8aec5403a82   2c2  e959fdffff           jmp 0x8aec54037e0  <+0x20>
0x8aec5403a87   2c7  4c897db0             REX.W movq [rbp-0x50],r15
0x8aec5403a8b   2cb  48897db8             REX.W movq [rbp-0x48],rdi
0x8aec5403a8f   2cf  e8dc48ffff           call 0x8aec53f8370  (jump table)    ;; wasm stub: WasmStackGuard
0x8aec5403a94   2d4  4c8b5de0             REX.W movq r11,[rbp-0x20]
0x8aec5403a98   2d8  488b55d0             REX.W movq rdx,[rbp-0x30]
0x8aec5403a9c   2dc  4c8b65c8             REX.W movq r12,[rbp-0x38]
0x8aec5403aa0   2e0  488b7db8             REX.W movq rdi,[rbp-0x48]
0x8aec5403aa4   2e4  488b4d88             REX.W movq rcx,[rbp-0x78]
0x8aec5403aa8   2e8  bb0c000000           movl rbx,0xc
0x8aec5403aad   2ed  4c8b7db0             REX.W movq r15,[rbp-0x50]
0x8aec5403ab1   2f1  4c8b4d80             REX.W movq r9,[rbp-0x80]
0x8aec5403ab5   2f5  e930feffff           jmp 0x8aec54038ea  <+0x12a>
0x8aec5403aba   2fa  e85146ffff           call 0x8aec53f8110  (jump table)    ;; wasm stub: ThrowWasmTrapMemOutOfBounds
0x8aec5403abf   2ff  e84c46ffff           call 0x8aec53f8110  (jump table)    ;; wasm stub: ThrowWasmTrapMemOutOfBounds
0x8aec5403ac4   304  e84746ffff           call 0x8aec53f8110  (jump table)    ;; wasm stub: ThrowWasmTrapMemOutOfBounds
0x8aec5403ac9   309  e84246ffff           call 0x8aec53f8110  (jump table)    ;; wasm stub: ThrowWasmTrapMemOutOfBounds
0x8aec5403ace   30e  e83d46ffff           call 0x8aec53f8110  (jump table)    ;; wasm stub: ThrowWasmTrapMemOutOfBounds
0x8aec5403ad3   313  e83846ffff           call 0x8aec53f8110  (jump table)    ;; wasm stub: ThrowWasmTrapMemOutOfBounds
0x8aec5403ad8   318  e83346ffff           call 0x8aec53f8110  (jump table)    ;; wasm stub: ThrowWasmTrapMemOutOfBounds
0x8aec5403add   31d  e82e46ffff           call 0x8aec53f8110  (jump table)    ;; wasm stub: ThrowWasmTrapMemOutOfBounds
0x8aec5403ae2   322  e82946ffff           call 0x8aec53f8110  (jump table)    ;; wasm stub: ThrowWasmTrapMemOutOfBounds
0x8aec5403ae7   327  e82446ffff           call 0x8aec53f8110  (jump table)    ;; wasm stub: ThrowWasmTrapMemOutOfBounds
0x8aec5403aec   32c  e81f46ffff           call 0x8aec53f8110  (jump table)    ;; wasm stub: ThrowWasmTrapMemOutOfBounds
0x8aec5403af1   331  e81a46ffff           call 0x8aec53f8110  (jump table)    ;; wasm stub: ThrowWasmTrapMemOutOfBounds
0x8aec5403af6   336  e81546ffff           call 0x8aec53f8110  (jump table)    ;; wasm stub: ThrowWasmTrapMemOutOfBounds
0x8aec5403afb   33b  e81046ffff           call 0x8aec53f8110  (jump table)    ;; wasm stub: ThrowWasmTrapMemOutOfBounds
0x8aec5403b00   340  e80b46ffff           call 0x8aec53f8110  (jump table)    ;; wasm stub: ThrowWasmTrapMemOutOfBounds
0x8aec5403b05   345  e80646ffff           call 0x8aec53f8110  (jump table)    ;; wasm stub: ThrowWasmTrapMemOutOfBounds
0x8aec5403b0a   34a  e80146ffff           call 0x8aec53f8110  (jump table)    ;; wasm stub: ThrowWasmTrapMemOutOfBounds
0x8aec5403b0f   34f  e8fc45ffff           call 0x8aec53f8110  (jump table)    ;; wasm stub: ThrowWasmTrapMemOutOfBounds
0x8aec5403b14   354  e8f745ffff           call 0x8aec53f8110  (jump table)    ;; wasm stub: ThrowWasmTrapMemOutOfBounds
0x8aec5403b19   359  e8f245ffff           call 0x8aec53f8110  (jump table)    ;; wasm stub: ThrowWasmTrapMemOutOfBounds
0x8aec5403b1e   35e  e8ed45ffff           call 0x8aec53f8110  (jump table)    ;; wasm stub: ThrowWasmTrapMemOutOfBounds
0x8aec5403b23   363  e8e845ffff           call 0x8aec53f8110  (jump table)    ;; wasm stub: ThrowWasmTrapMemOutOfBounds
0x8aec5403b28   368  e8e345ffff           call 0x8aec53f8110  (jump table)    ;; wasm stub: ThrowWasmTrapMemOutOfBounds
0x8aec5403b2d   36d  e8de45ffff           call 0x8aec53f8110  (jump table)    ;; wasm stub: ThrowWasmTrapMemOutOfBounds
0x8aec5403b32   372  90                   nop
0x8aec5403b33   373  90                   nop

Protected instructions:
 pc offset  land pad
       289       2fa
       281       2ff
       27c       304
       277       309
       272       30e
       258       313
       248       318
       240       31d
       237       322
       22e       327
       199       32c
       195       331
       18e       336
       18a       33b
       16e       340
       148       345
       12a       34a
        6d       34f
        68       354
        63       359
        5e       35e
        3f       363
        3a       368
        35       36d

Source positions:
 pc offset  position
        35        28
        3a        33
        3f        38
        5e        47
        63        54
        68        66
        6d        95
        89       110
        b2       112
       12a       123
       148       144
       16e       172
       18a       176
       18e       193
       195       199
       199       211
       1ce       238
       1e4       240
       226       296
       237       303
       240       310
       248       316
       258       335
       272       259
       277       264
       27c       271
       281       280
       289       284
       2a5         0
       2c7       117
       2fa       284
       2ff       280
       304       271
       309       264
       30e       259
       313       335
       318       316
       31d       310
       322       303
       327       296
       32c       211
       331       199
       336       193
       33b       176
       340       172
       345       144
       34a       123
       34f        95
       354        66
       359        54
       35e        47
       363        38
       368        33
       36d        28

Safepoints (entries = 4, byte size = 20)
0x8aec5403872     b2  slots (sp->fp): 01000000
0x8aec5403a72    2b2  slots (sp->fp): 00000000
0x8aec5403a94    2d4  slots (sp->fp): 01000000
0x8aec5403abf    2ff  slots (sp->fp): 00000000

RelocInfo (size = 36)
0x8aec5403877  internal wasm call
0x8aec54039a9  internal wasm call
0x8aec5403a6e  wasm stub call
0x8aec5403a90  wasm stub call
0x8aec5403abb  wasm stub call
0x8aec5403ac0  wasm stub call
0x8aec5403ac5  wasm stub call
0x8aec5403aca  wasm stub call
0x8aec5403acf  wasm stub call
0x8aec5403ad4  wasm stub call
0x8aec5403ad9  wasm stub call
0x8aec5403ade  wasm stub call
0x8aec5403ae3  wasm stub call
0x8aec5403ae8  wasm stub call
0x8aec5403aed  wasm stub call
0x8aec5403af2  wasm stub call
0x8aec5403af7  wasm stub call
0x8aec5403afc  wasm stub call
0x8aec5403b01  wasm stub call
0x8aec5403b06  wasm stub call
0x8aec5403b0b  wasm stub call
0x8aec5403b10  wasm stub call
0x8aec5403b15  wasm stub call
0x8aec5403b1a  wasm stub call
0x8aec5403b1f  wasm stub call
0x8aec5403b24  wasm stub call
0x8aec5403b29  wasm stub call
0x8aec5403b2e  wasm stub call

--- End code ---
--- WebAssembly code ---
name: main
index: 6
kind: wasm function
compiler: TurboFan
Body (size = 768 = 724 + 44 padding)
Instructions (size = 704)
0x8aec53feb40     0  55                   push rbp
0x8aec53feb41     1  4889e5               REX.W movq rbp,rsp
0x8aec53feb44     4  6a08                 push 0x8
0x8aec53feb46     6  56                   push rsi
0x8aec53feb47     7  4883ec50             REX.W subq rsp,0x50
0x8aec53feb4b     b  488b7e27             REX.W movq rdi,[rsi+0x27]
0x8aec53feb4f     f  48897da0             REX.W movq [rbp-0x60],rdi
0x8aec53feb53    13  483b27               REX.W cmpq rsp,[rdi]
0x8aec53feb56    16  0f8615020000         jna 0x8aec53fed71  <+0x231>
0x8aec53feb5c    1c  4c8b4617             REX.W movq r8,[rsi+0x17]
0x8aec53feb60    20  4c8b4e47             REX.W movq r9,[rsi+0x47]
0x8aec53feb64    24  458b19               movl r11,[r9]
0x8aec53feb67    27  418d93c0d8ffff       leal rdx,[r11-0x2740]
0x8aec53feb6e    2e  418911               movl [r9],rdx
0x8aec53feb71    31  8d82b0130000         leal rax,[rdx+0x13b0]
0x8aec53feb77    37  4c8945d8             REX.W movq [rbp-0x28],r8
0x8aec53feb7b    3b  4c894de8             REX.W movq [rbp-0x18],r9
0x8aec53feb7f    3f  488955e0             REX.W movq [rbp-0x20],rdx
0x8aec53feb83    43  4533db               xorl r11,r11
0x8aec53feb86    46  488945b8             REX.W movq [rbp-0x48],rax
0x8aec53feb8a    4a  4d8be3               REX.W movq r12,r11
0x8aec53feb8d    4d  e935000000           jmp 0x8aec53febc7  <+0x87>
0x8aec53feb92    52  660f1f840000000000   nop
0x8aec53feb9b    5b  660f1f840000000000   nop
0x8aec53feba4    64  660f1f840000000000   nop
0x8aec53febad    6d  660f1f840000000000   nop
0x8aec53febb6    76  660f1f840000000000   nop
0x8aec53febbf    7f  90                   nop
0x8aec53febc0    80  4d8be7               REX.W movq r12,r15
0x8aec53febc3    83  488b7da0             REX.W movq rdi,[rbp-0x60]
0x8aec53febc7    87  483b27               REX.W cmpq rsp,[rdi]
0x8aec53febca    8a  0f86b3010000         jna 0x8aec53fed83  <+0x243>
0x8aec53febd0    90  458d7c2408           leal r15,[r12+0x8]
0x8aec53febd5    95  428d1c20             leal rbx,[rax+r12*1]
0x8aec53febd9    99  4c89e1               REX.W movq rcx,r12
0x8aec53febdc    9c  83c901               orl rcx,0x1
0x8aec53febdf    9f  8d3c08               leal rdi,[rax+rcx*1]
0x8aec53febe2    a2  4d89e1               REX.W movq r9,r12
0x8aec53febe5    a5  4183c902             orl r9,0x2
0x8aec53febe9    a9  41880c18             movb [r8+rbx*1],cl
0x8aec53febed    ad  428d1c08             leal rbx,[rax+r9*1]
0x8aec53febf1    b1  4c89e1               REX.W movq rcx,r12
0x8aec53febf4    b4  83c903               orl rcx,0x3
0x8aec53febf7    b7  45880c38             movb [r8+rdi*1],r9l
0x8aec53febfb    bb  8d3c08               leal rdi,[rax+rcx*1]
0x8aec53febfe    be  4d89e1               REX.W movq r9,r12
0x8aec53fec01    c1  4183c904             orl r9,0x4
0x8aec53fec05    c5  41880c18             movb [r8+rbx*1],cl
0x8aec53fec09    c9  428d1c08             leal rbx,[rax+r9*1]
0x8aec53fec0d    cd  4c89e1               REX.W movq rcx,r12
0x8aec53fec10    d0  83c905               orl rcx,0x5
0x8aec53fec13    d3  45880c38             movb [r8+rdi*1],r9l
0x8aec53fec17    d7  8d3c08               leal rdi,[rax+rcx*1]
0x8aec53fec1a    da  4d89e1               REX.W movq r9,r12
0x8aec53fec1d    dd  4183c906             orl r9,0x6
0x8aec53fec21    e1  41880c18             movb [r8+rbx*1],cl
0x8aec53fec25    e5  428d1c08             leal rbx,[rax+r9*1]
0x8aec53fec29    e9  4183cc07             orl r12,0x7
0x8aec53fec2d    ed  45880c38             movb [r8+rdi*1],r9l
0x8aec53fec31    f1  428d3c20             leal rdi,[rax+r12*1]
0x8aec53fec35    f5  45882418             movb [r8+rbx*1],r12l
0x8aec53fec39    f9  45883c38             movb [r8+rdi*1],r15l
0x8aec53fec3d    fd  4181ff88130000       cmpl r15,0x1388
0x8aec53fec44   104  0f8576ffffff         jnz 0x8aec53febc0  <+0x80>
0x8aec53fec4a   10a  8b7e0b               movl rdi,[rsi+0xb]
0x8aec53fec4d   10d  4903fe               REX.W addq rdi,r14
0x8aec53fec50   110  448b4f07             movl r9,[rdi+0x7]
0x8aec53fec54   114  4d03ce               REX.W addq r9,r14
0x8aec53fec57   117  4c8b662f             REX.W movq r12,[rsi+0x2f]
0x8aec53fec5b   11b  4d8b3c24             REX.W movq r15,[r12]
0x8aec53fec5f   11f  8d5a18               leal rbx,[rdx+0x18]
0x8aec53fec62   122  48897dc8             REX.W movq [rbp-0x38],rdi
0x8aec53fec66   126  4c8965d0             REX.W movq [rbp-0x30],r12
0x8aec53fec6a   12a  498bf1               REX.W movq rsi,r9
0x8aec53fec6d   12d  488bc3               REX.W movq rax,rbx
0x8aec53fec70   130  498bd3               REX.W movq rdx,r11
0x8aec53fec73   133  41ffd7               call r15
0x8aec53fec76   136  488b55e0             REX.W movq rdx,[rbp-0x20]
0x8aec53fec7a   13a  8d7a20               leal rdi,[rdx+0x20]
0x8aec53fec7d   13d  48897db0             REX.W movq [rbp-0x50],rdi
0x8aec53fec81   141  33c9                 xorl rcx,rcx
0x8aec53fec83   143  e944000000           jmp 0x8aec53feccc  <+0x18c>
0x8aec53fec88   148  660f1f840000000000   nop
0x8aec53fec91   151  660f1f840000000000   nop
0x8aec53fec9a   15a  660f1f840000000000   nop
0x8aec53feca3   163  660f1f840000000000   nop
0x8aec53fecac   16c  660f1f840000000000   nop
0x8aec53fecb5   175  660f1f840000000000   nop
0x8aec53fecbe   17e  6690                 nop
0x8aec53fecc0   180  488b4dc0             REX.W movq rcx,[rbp-0x40]
0x8aec53fecc4   184  488b55e0             REX.W movq rdx,[rbp-0x20]
0x8aec53fecc8   188  488b7db0             REX.W movq rdi,[rbp-0x50]
0x8aec53feccc   18c  4c8b45a0             REX.W movq r8,[rbp-0x60]
0x8aec53fecd0   190  493b20               REX.W cmpq rsp,[r8]
0x8aec53fecd3   193  0f86cf000000         jna 0x8aec53feda8  <+0x268>
0x8aec53fecd9   199  448d4901             leal r9,[rcx+0x1]
0x8aec53fecdd   19d  4c894dc0             REX.W movq [rbp-0x40],r9
0x8aec53fece1   1a1  488b75f0             REX.W movq rsi,[rbp-0x10]
0x8aec53fece5   1a5  488b45b8             REX.W movq rax,[rbp-0x48]
0x8aec53fece9   1a9  488bd7               REX.W movq rdx,rdi
0x8aec53fecec   1ac  bb88130000           movl rbx,0x1388
0x8aec53fecf1   1b1  e80f93ffff           call 0x8aec53f8005  (jump table)    ;; internal wasm call
0x8aec53fecf6   1b6  817dc010270000       cmpl [rbp-0x40],0x2710
0x8aec53fecfd   1bd  75c1                 jnz 0x8aec53fecc0  <+0x180>
0x8aec53fecff   1bf  488b7dc8             REX.W movq rdi,[rbp-0x38]
0x8aec53fed03   1c3  8b7707               movl rsi,[rdi+0x7]
0x8aec53fed06   1c6  4903f6               REX.W addq rsi,r14
0x8aec53fed09   1c9  488b7dd0             REX.W movq rdi,[rbp-0x30]
0x8aec53fed0d   1cd  488b3f               REX.W movq rdi,[rdi]
0x8aec53fed10   1d0  488b55e0             REX.W movq rdx,[rbp-0x20]
0x8aec53fed14   1d4  8d4210               leal rax,[rdx+0x10]
0x8aec53fed17   1d7  33d2                 xorl rdx,rdx
0x8aec53fed19   1d9  ffd7                 call rdi
0x8aec53fed1b   1db  488b55e0             REX.W movq rdx,[rbp-0x20]
0x8aec53fed1f   1df  488b7dd8             REX.W movq rdi,[rbp-0x28]
0x8aec53fed23   1e3  448b443a14           movl r8,[rdx+rdi*1+0x14]
0x8aec53fed28   1e8  448b4c3a1c           movl r9,[rdx+rdi*1+0x1c]
0x8aec53fed2d   1ed  448b5c3a10           movl r11,[rdx+rdi*1+0x10]
0x8aec53fed32   1f2  448b643a18           movl r12,[rdx+rdi*1+0x18]
0x8aec53fed37   1f7  4529e3               subl r11,r12
0x8aec53fed3a   1fa  4569db40420f00       imull r11,r11,0xf4240
0x8aec53fed41   201  452bc1               subl r8,r9
0x8aec53fed44   204  4503c3               addl r8,r11
0x8aec53fed47   207  44890417             movl [rdi+rdx*1],r8
0x8aec53fed4b   20b  b811040000           movl rax,0x411
0x8aec53fed50   210  488b75f0             REX.W movq rsi,[rbp-0x10]
0x8aec53fed54   214  e8b692ffff           call 0x8aec53f800f  (jump table)    ;; internal wasm call
0x8aec53fed59   219  488b7de0             REX.W movq rdi,[rbp-0x20]
0x8aec53fed5d   21d  81c740270000         addl rdi,0x2740
0x8aec53fed63   223  4c8b45e8             REX.W movq r8,[rbp-0x18]
0x8aec53fed67   227  418938               movl [r8],rdi
0x8aec53fed6a   22a  33c0                 xorl rax,rax
0x8aec53fed6c   22c  488be5               REX.W movq rsp,rbp
0x8aec53fed6f   22f  5d                   pop rbp
0x8aec53fed70   230  c3                   retl
0x8aec53fed71   231  e8fa95ffff           call 0x8aec53f8370  (jump table)    ;; wasm stub: WasmStackGuard
0x8aec53fed76   236  488b75f0             REX.W movq rsi,[rbp-0x10]
0x8aec53fed7a   23a  488b7da0             REX.W movq rdi,[rbp-0x60]
0x8aec53fed7e   23e  e9d9fdffff           jmp 0x8aec53feb5c  <+0x1c>
0x8aec53fed83   243  4c8965d0             REX.W movq [rbp-0x30],r12
0x8aec53fed87   247  e8e495ffff           call 0x8aec53f8370  (jump table)    ;; wasm stub: WasmStackGuard
0x8aec53fed8c   24c  4533db               xorl r11,r11
0x8aec53fed8f   24f  488b55e0             REX.W movq rdx,[rbp-0x20]
0x8aec53fed93   253  488b75f0             REX.W movq rsi,[rbp-0x10]
0x8aec53fed97   257  4c8b45d8             REX.W movq r8,[rbp-0x28]
0x8aec53fed9b   25b  488b45b8             REX.W movq rax,[rbp-0x48]
0x8aec53fed9f   25f  4c8b65d0             REX.W movq r12,[rbp-0x30]
0x8aec53feda3   263  e928feffff           jmp 0x8aec53febd0  <+0x90>
0x8aec53feda8   268  48894da8             REX.W movq [rbp-0x58],rcx
0x8aec53fedac   26c  e8bf95ffff           call 0x8aec53f8370  (jump table)    ;; wasm stub: WasmStackGuard
0x8aec53fedb1   271  488b7db0             REX.W movq rdi,[rbp-0x50]
0x8aec53fedb5   275  488b4da8             REX.W movq rcx,[rbp-0x58]
0x8aec53fedb9   279  e91bffffff           jmp 0x8aec53fecd9  <+0x199>
0x8aec53fedbe   27e  e84d93ffff           call 0x8aec53f8110  (jump table)    ;; wasm stub: ThrowWasmTrapMemOutOfBounds
0x8aec53fedc3   283  e84893ffff           call 0x8aec53f8110  (jump table)    ;; wasm stub: ThrowWasmTrapMemOutOfBounds
0x8aec53fedc8   288  e84393ffff           call 0x8aec53f8110  (jump table)    ;; wasm stub: ThrowWasmTrapMemOutOfBounds
0x8aec53fedcd   28d  e83e93ffff           call 0x8aec53f8110  (jump table)    ;; wasm stub: ThrowWasmTrapMemOutOfBounds
0x8aec53fedd2   292  e83993ffff           call 0x8aec53f8110  (jump table)    ;; wasm stub: ThrowWasmTrapMemOutOfBounds
0x8aec53fedd7   297  e83493ffff           call 0x8aec53f8110  (jump table)    ;; wasm stub: ThrowWasmTrapMemOutOfBounds
0x8aec53feddc   29c  e82f93ffff           call 0x8aec53f8110  (jump table)    ;; wasm stub: ThrowWasmTrapMemOutOfBounds
0x8aec53fede1   2a1  e82a93ffff           call 0x8aec53f8110  (jump table)    ;; wasm stub: ThrowWasmTrapMemOutOfBounds
0x8aec53fede6   2a6  e82593ffff           call 0x8aec53f8110  (jump table)    ;; wasm stub: ThrowWasmTrapMemOutOfBounds
0x8aec53fedeb   2ab  e82093ffff           call 0x8aec53f8110  (jump table)    ;; wasm stub: ThrowWasmTrapMemOutOfBounds
0x8aec53fedf0   2b0  e81b93ffff           call 0x8aec53f8110  (jump table)    ;; wasm stub: ThrowWasmTrapMemOutOfBounds
0x8aec53fedf5   2b5  e81693ffff           call 0x8aec53f8110  (jump table)    ;; wasm stub: ThrowWasmTrapMemOutOfBounds
0x8aec53fedfa   2ba  e81193ffff           call 0x8aec53f8110  (jump table)    ;; wasm stub: ThrowWasmTrapMemOutOfBounds
0x8aec53fedff   2bf  90                   nop

Protected instructions:
 pc offset  land pad
       207       27e
       1f2       283
       1ed       288
       1e8       28d
       1e3       292
        f9       297
        f5       29c
        ed       2a1
        e1       2a6
        d3       2ab
        c5       2b0
        b7       2b5
        a9       2ba

Source positions:
 pc offset  position
        a9        36
        b7        55
        c5        74
        d3        93
        e1       112
        ed       131
        f5       150
        f9       169
       122       192
       19d       213
       1d7       237
       1db       244
       1e8       249
       1ed       255
       1f2       260
       207       270
       20b       278
       231         0
       243        18
       268       195
       27e       270
       283       260
       288       255
       28d       249
       292       244
       297       169
       29c       150
       2a1       131
       2a6       112
       2ab        93
       2b0        74
       2b5        55
       2ba        36

Safepoints (entries = 4, byte size = 20)
0x8aec53fec76    136  slots (sp->fp): 00000100
0x8aec53fed1b    1db  slots (sp->fp): 00000000
0x8aec53fedb1    271  slots (sp->fp): 00000100
0x8aec53fedc3    283  slots (sp->fp): 00000000

RelocInfo (size = 24)
0x8aec53fecf2  internal wasm call
0x8aec53fed55  internal wasm call
0x8aec53fed72  wasm stub call
0x8aec53fed88  wasm stub call
0x8aec53fedad  wasm stub call
0x8aec53fedbf  wasm stub call
0x8aec53fedc4  wasm stub call
0x8aec53fedc9  wasm stub call
0x8aec53fedce  wasm stub call
0x8aec53fedd3  wasm stub call
0x8aec53fedd8  wasm stub call
0x8aec53feddd  wasm stub call
0x8aec53fede2  wasm stub call
0x8aec53fede7  wasm stub call
0x8aec53fedec  wasm stub call
0x8aec53fedf1  wasm stub call
0x8aec53fedf6  wasm stub call
0x8aec53fedfb  wasm stub call

--- End code ---
--- WebAssembly code ---
name: wctomb
index: 37
kind: wasm function
compiler: Liftoff
Body (size = 128 = 92 + 36 padding)
Instructions (size = 80)
0x8aec53f9900     0  55                   push rbp
0x8aec53f9901     1  4889e5               REX.W movq rbp,rsp
0x8aec53f9904     4  6a08                 push 0x8
0x8aec53f9906     6  56                   push rsi
0x8aec53f9907     7  4881ec28000000       REX.W subq rsp,0x28
0x8aec53f990e     e  488b4e27             REX.W movq rcx,[rsi+0x27]
0x8aec53f9912    12  483b21               REX.W cmpq rsp,[rcx]
0x8aec53f9915    15  0f8625000000         jna 0x8aec53f9940  <+0x40>
0x8aec53f991b    1b  85c0                 testl rax,rax
0x8aec53f991d    1d  0f8507000000         jnz 0x8aec53f992a  <+0x2a>
0x8aec53f9923    23  33c0                 xorl rax,rax
0x8aec53f9925    25  488be5               REX.W movq rsp,rbp
0x8aec53f9928    28  5d                   pop rbp
0x8aec53f9929    29  c3                   retl
0x8aec53f992a    2a  8955d0               movl [rbp-0x30],rdx
0x8aec53f992d    2d  8945d4               movl [rbp-0x2c],rax
0x8aec53f9930    30  33c9                 xorl rcx,rcx
0x8aec53f9932    32  488b75f0             REX.W movq rsi,[rbp-0x10]
0x8aec53f9936    36  e86de7ffff           call 0x8aec53f80a8  (jump table)
0x8aec53f993b    3b  488be5               REX.W movq rsp,rbp
0x8aec53f993e    3e  5d                   pop rbp
0x8aec53f993f    3f  c3                   retl
0x8aec53f9940    40  50                   push rax
0x8aec53f9941    41  52                   push rdx
0x8aec53f9942    42  e829eaffff           call 0x8aec53f8370  (jump table)
0x8aec53f9947    47  5a                   pop rdx
0x8aec53f9948    48  58                   pop rax
0x8aec53f9949    49  488b75f0             REX.W movq rsi,[rbp-0x10]
0x8aec53f994d    4d  ebcc                 jmp 0x8aec53f991b  <+0x1b>
0x8aec53f994f    4f  90                   nop

Source positions:
 pc offset  position
        36        16  statement
        42         0  statement

Safepoints (entries = 1, byte size = 11)
0x8aec53f993b     3b  slots (sp->fp): 0000000000000000

RelocInfo (size = 0)

--- End code ---
--- WebAssembly code ---
name: iprintf
index: 7
kind: wasm function
compiler: Liftoff
Body (size = 192 = 136 + 56 padding)
Instructions (size = 124)
0x8aec53f9e40     0  55                   push rbp
0x8aec53f9e41     1  4889e5               REX.W movq rbp,rsp
0x8aec53f9e44     4  6a08                 push 0x8
0x8aec53f9e46     6  56                   push rsi
0x8aec53f9e47     7  4881ec28000000       REX.W subq rsp,0x28
0x8aec53f9e4e     e  488b4e27             REX.W movq rcx,[rsi+0x27]
0x8aec53f9e52    12  483b21               REX.W cmpq rsp,[rcx]
0x8aec53f9e55    15  0f864b000000         jna 0x8aec53f9ea6  <+0x66>
0x8aec53f9e5b    1b  488b4e47             REX.W movq rcx,[rsi+0x47]
0x8aec53f9e5f    1f  8b19                 movl rbx,[rcx]
0x8aec53f9e61    21  b910000000           movl rcx,0x10
0x8aec53f9e66    26  2bd9                 subl rbx,rcx
0x8aec53f9e68    28  488b4e47             REX.W movq rcx,[rsi+0x47]
0x8aec53f9e6c    2c  8919                 movl [rcx],rbx
0x8aec53f9e6e    2e  488b4e17             REX.W movq rcx,[rsi+0x17]
0x8aec53f9e72    32  8954190c             movl [rcx+rbx*1+0xc],rdx
0x8aec53f9e76    36  895dcc               movl [rbp-0x34],rbx
0x8aec53f9e79    39  8955d0               movl [rbp-0x30],rdx
0x8aec53f9e7c    3c  8945d4               movl [rbp-0x2c],rax
0x8aec53f9e7f    3f  8bca                 movl rcx,rdx
0x8aec53f9e81    41  8bd0                 movl rdx,rax
0x8aec53f9e83    43  b800060000           movl rax,0x600
0x8aec53f9e88    48  488b75f0             REX.W movq rsi,[rbp-0x10]
0x8aec53f9e8c    4c  e8f9e1ffff           call 0x8aec53f808a  (jump table)
0x8aec53f9e91    51  8b4dcc               movl rcx,[rbp-0x34]
0x8aec53f9e94    54  83c110               addl rcx,0x10
0x8aec53f9e97    57  488b75f0             REX.W movq rsi,[rbp-0x10]
0x8aec53f9e9b    5b  488b5647             REX.W movq rdx,[rsi+0x47]
0x8aec53f9e9f    5f  890a                 movl [rdx],rcx
0x8aec53f9ea1    61  488be5               REX.W movq rsp,rbp
0x8aec53f9ea4    64  5d                   pop rbp
0x8aec53f9ea5    65  c3                   retl
0x8aec53f9ea6    66  50                   push rax
0x8aec53f9ea7    67  52                   push rdx
0x8aec53f9ea8    68  e8c3e4ffff           call 0x8aec53f8370  (jump table)
0x8aec53f9ead    6d  5a                   pop rdx
0x8aec53f9eae    6e  58                   pop rax
0x8aec53f9eaf    6f  488b75f0             REX.W movq rsi,[rbp-0x10]
0x8aec53f9eb3    73  eba6                 jmp 0x8aec53f9e5b  <+0x1b>
0x8aec53f9eb5    75  e856e2ffff           call 0x8aec53f8110  (jump table)
0x8aec53f9eba    7a  6690                 nop

Protected instructions:
 pc offset  land pad
        32        75

Source positions:
 pc offset  position
        4c        26  statement
        68         0  statement
        75        16  statement

Safepoints (entries = 1, byte size = 11)
0x8aec53f9e91     51  slots (sp->fp): 0000000000000000

RelocInfo (size = 0)

--- End code ---
--- WebAssembly code ---
name: out
index: 23
kind: wasm function
compiler: TurboFan
Body (size = 128 = 124 + 4 padding)
Instructions (size = 112)
0x8aec53ffd00     0  55                   push rbp
0x8aec53ffd01     1  4889e5               REX.W movq rbp,rsp
0x8aec53ffd04     4  6a08                 push 0x8
0x8aec53ffd06     6  56                   push rsi
0x8aec53ffd07     7  4883ec18             REX.W subq rsp,0x18
0x8aec53ffd0b     b  488b5e27             REX.W movq rbx,[rsi+0x27]
0x8aec53ffd0f     f  483b23               REX.W cmpq rsp,[rbx]
0x8aec53ffd12    12  0f862f000000         jna 0x8aec53ffd47  <+0x47>
0x8aec53ffd18    18  488b5e17             REX.W movq rbx,[rsi+0x17]
0x8aec53ffd1c    1c  8bf8                 movl rdi,rax
0x8aec53ffd1e    1e  0fb61c3b             movzxbl rbx,[rbx+rdi*1]
0x8aec53ffd22    22  f6c320               testb rbx,0x20
0x8aec53ffd25    25  0f8517000000         jnz 0x8aec53ffd42  <+0x42>
0x8aec53ffd2b    2b  4c8bd2               REX.W movq r10,rdx
0x8aec53ffd2e    2e  488bd0               REX.W movq rdx,rax
0x8aec53ffd31    31  498bc2               REX.W movq rax,r10
0x8aec53ffd34    34  4c8bd1               REX.W movq r10,rcx
0x8aec53ffd37    37  488bca               REX.W movq rcx,rdx
0x8aec53ffd3a    3a  498bd2               REX.W movq rdx,r10
0x8aec53ffd3d    3d  e81283ffff           call 0x8aec53f8054  (jump table)    ;; internal wasm call
0x8aec53ffd42    42  488be5               REX.W movq rsp,rbp
0x8aec53ffd45    45  5d                   pop rbp
0x8aec53ffd46    46  c3                   retl
0x8aec53ffd47    47  488955e8             REX.W movq [rbp-0x18],rdx
0x8aec53ffd4b    4b  48894de0             REX.W movq [rbp-0x20],rcx
0x8aec53ffd4f    4f  488945d8             REX.W movq [rbp-0x28],rax
0x8aec53ffd53    53  e81886ffff           call 0x8aec53f8370  (jump table)    ;; wasm stub: WasmStackGuard
0x8aec53ffd58    58  488b75f0             REX.W movq rsi,[rbp-0x10]
0x8aec53ffd5c    5c  488b55e8             REX.W movq rdx,[rbp-0x18]
0x8aec53ffd60    60  488b4de0             REX.W movq rcx,[rbp-0x20]
0x8aec53ffd64    64  488b45d8             REX.W movq rax,[rbp-0x28]
0x8aec53ffd68    68  ebae                 jmp 0x8aec53ffd18  <+0x18>
0x8aec53ffd6a    6a  e8a183ffff           call 0x8aec53f8110  (jump table)    ;; wasm stub: ThrowWasmTrapMemOutOfBounds
0x8aec53ffd6f    6f  90                   nop

Protected instructions:
 pc offset  land pad
        1e        6a

Source positions:
 pc offset  position
        1e         3
        2b        18
        47         0
        6a         3

Safepoints (entries = 1, byte size = 10)
0x8aec53ffd42     42  slots (sp->fp): 00000000

RelocInfo (size = 4)
0x8aec53ffd3e  internal wasm call
0x8aec53ffd54  wasm stub call
0x8aec53ffd6b  wasm stub call

--- End code ---
--- WebAssembly code ---
name: legalstub$dynCall_jiji
index: 42
kind: wasm function
compiler: TurboFan
Body (size = 192 = 160 + 32 padding)
Instructions (size = 148)
0x8aec53ffd80     0  55                   push rbp
0x8aec53ffd81     1  4889e5               REX.W movq rbp,rsp
0x8aec53ffd84     4  6a08                 push 0x8
0x8aec53ffd86     6  56                   push rsi
0x8aec53ffd87     7  4883ec28             REX.W subq rsp,0x28
0x8aec53ffd8b     b  488b7e27             REX.W movq rdi,[rsi+0x27]
0x8aec53ffd8f     f  483b27               REX.W cmpq rsp,[rdi]
0x8aec53ffd92    12  0f8646000000         jna 0x8aec53ffdde  <+0x5e>
0x8aec53ffd98    18  48c1e320             REX.W shlq rbx, 32
0x8aec53ffd9c    1c  8bf9                 movl rdi,rcx
0x8aec53ffd9e    1e  480bdf               REX.W orq rbx,rdi
0x8aec53ffda1    21  488bcb               REX.W movq rcx,rbx
0x8aec53ffda4    24  498bd9               REX.W movq rbx,r9
0x8aec53ffda7    27  e81983ffff           call 0x8aec53f80c5  (jump table)    ;; internal wasm call
0x8aec53ffdac    2c  488b7df0             REX.W movq rdi,[rbp-0x10]
0x8aec53ffdb0    30  448b470b             movl r8,[rdi+0xb]
0x8aec53ffdb4    34  4d03c6               REX.W addq r8,r14
0x8aec53ffdb7    37  418b7013             movl rsi,[r8+0x13]
0x8aec53ffdbb    3b  4903f6               REX.W addq rsi,r14
0x8aec53ffdbe    3e  488b7f2f             REX.W movq rdi,[rdi+0x2f]
0x8aec53ffdc2    42  488b7f18             REX.W movq rdi,[rdi+0x18]
0x8aec53ffdc6    46  4c8bc0               REX.W movq r8,rax
0x8aec53ffdc9    49  49c1e820             REX.W shrq r8, 32
0x8aec53ffdcd    4d  488945e8             REX.W movq [rbp-0x18],rax
0x8aec53ffdd1    51  498bc0               REX.W movq rax,r8
0x8aec53ffdd4    54  ffd7                 call rdi
0x8aec53ffdd6    56  8b45e8               movl rax,[rbp-0x18]
0x8aec53ffdd9    59  488be5               REX.W movq rsp,rbp
0x8aec53ffddc    5c  5d                   pop rbp
0x8aec53ffddd    5d  c3                   retl
0x8aec53ffdde    5e  488945e8             REX.W movq [rbp-0x18],rax
0x8aec53ffde2    62  488955e0             REX.W movq [rbp-0x20],rdx
0x8aec53ffde6    66  4c894dd8             REX.W movq [rbp-0x28],r9
0x8aec53ffdea    6a  48894dd0             REX.W movq [rbp-0x30],rcx
0x8aec53ffdee    6e  48895dc8             REX.W movq [rbp-0x38],rbx
0x8aec53ffdf2    72  e87985ffff           call 0x8aec53f8370  (jump table)    ;; wasm stub: WasmStackGuard
0x8aec53ffdf7    77  488b75f0             REX.W movq rsi,[rbp-0x10]
0x8aec53ffdfb    7b  488b45e8             REX.W movq rax,[rbp-0x18]
0x8aec53ffdff    7f  488b55e0             REX.W movq rdx,[rbp-0x20]
0x8aec53ffe03    83  4c8b4dd8             REX.W movq r9,[rbp-0x28]
0x8aec53ffe07    87  488b4dd0             REX.W movq rcx,[rbp-0x30]
0x8aec53ffe0b    8b  488b5dc8             REX.W movq rbx,[rbp-0x38]
0x8aec53ffe0f    8f  eb87                 jmp 0x8aec53ffd98  <+0x18>
0x8aec53ffe11    91  90                   nop
0x8aec53ffe12    92  6690                 nop

Source positions:
 pc offset  position
        21        19
        4d        27
        5e         0

Safepoints (entries = 1, byte size = 11)
0x8aec53ffdac     2c  slots (sp->fp): 0000000000000000

RelocInfo (size = 5)
0x8aec53ffda8  internal wasm call
0x8aec53ffdf3  wasm stub call

--- End code ---
--- WebAssembly code ---
name: dynCall_jiji
index: 41
kind: wasm function
compiler: TurboFan
Body (size = 192 = 164 + 28 padding)
Instructions (size = 152)
0x8aec53ffe40     0  55                   push rbp
0x8aec53ffe41     1  4889e5               REX.W movq rbp,rsp
0x8aec53ffe44     4  6a08                 push 0x8
0x8aec53ffe46     6  56                   push rsi
0x8aec53ffe47     7  4883ec20             REX.W subq rsp,0x20
0x8aec53ffe4b     b  488b7e27             REX.W movq rdi,[rsi+0x27]
0x8aec53ffe4f     f  483b27               REX.W cmpq rsp,[rdi]
0x8aec53ffe52    12  0f864a000000         jna 0x8aec53ffea2  <+0x62>
0x8aec53ffe58    18  488b7e3f             REX.W movq rdi,[rsi+0x3f]
0x8aec53ffe5c    1c  4c8b4637             REX.W movq r8,[rsi+0x37]
0x8aec53ffe60    20  448b4e0f             movl r9,[rsi+0xf]
0x8aec53ffe64    24  4d03ce               REX.W addq r9,r14
0x8aec53ffe67    27  448d1c8500000000     leal r11,[rax*4+0x0]
0x8aec53ffe6f    2f  83f804               cmpl rax,0x4
0x8aec53ffe72    32  0f835a000000         jnc 0x8aec53ffed2  <+0x92>
0x8aec53ffe78    38  448be0               movl r12,rax
0x8aec53ffe7b    3b  42833c1f07           cmpl [rdi+r11*1],0x7
0x8aec53ffe80    40  0f8547000000         jnz 0x8aec53ffecd  <+0x8d>
0x8aec53ffe86    46  438b74a107           movl rsi,[r9+r12*4+0x7]
0x8aec53ffe8b    4b  4903f6               REX.W addq rsi,r14
0x8aec53ffe8e    4e  4b8b3ce0             REX.W movq rdi,[r8+r12*8]
0x8aec53ffe92    52  488bc2               REX.W movq rax,rdx
0x8aec53ffe95    55  488bd1               REX.W movq rdx,rcx
0x8aec53ffe98    58  488bcb               REX.W movq rcx,rbx
0x8aec53ffe9b    5b  ffd7                 call rdi
0x8aec53ffe9d    5d  488be5               REX.W movq rsp,rbp
0x8aec53ffea0    60  5d                   pop rbp
0x8aec53ffea1    61  c3                   retl
0x8aec53ffea2    62  488955e8             REX.W movq [rbp-0x18],rdx
0x8aec53ffea6    66  48894de0             REX.W movq [rbp-0x20],rcx
0x8aec53ffeaa    6a  48895dd8             REX.W movq [rbp-0x28],rbx
0x8aec53ffeae    6e  488945d0             REX.W movq [rbp-0x30],rax
0x8aec53ffeb2    72  e8b984ffff           call 0x8aec53f8370  (jump table)    ;; wasm stub: WasmStackGuard
0x8aec53ffeb7    77  488b55e8             REX.W movq rdx,[rbp-0x18]
0x8aec53ffebb    7b  488b4de0             REX.W movq rcx,[rbp-0x20]
0x8aec53ffebf    7f  488b5dd8             REX.W movq rbx,[rbp-0x28]
0x8aec53ffec3    83  488b45d0             REX.W movq rax,[rbp-0x30]
0x8aec53ffec7    87  488b75f0             REX.W movq rsi,[rbp-0x10]
0x8aec53ffecb    8b  eb8b                 jmp 0x8aec53ffe58  <+0x18>
0x8aec53ffecd    8d  e89e82ffff           call 0x8aec53f8170  (jump table)    ;; wasm stub: ThrowWasmTrapFuncSigMismatch
0x8aec53ffed2    92  e8c982ffff           call 0x8aec53f81a0  (jump table)    ;; wasm stub: ThrowWasmTrapTableOutOfBounds
0x8aec53ffed7    97  90                   nop

Source positions:
 pc offset  position
        52         9
        62         0
        8d         9

Safepoints (entries = 1, byte size = 10)
0x8aec53ffe9d     5d  slots (sp->fp): 00000000

RelocInfo (size = 5)
0x8aec53ffeb3  wasm stub call
0x8aec53ffece  wasm stub call
0x8aec53ffed3  wasm stub call

--- End code ---
--- WebAssembly code ---
name: stackAlloc
index: 40
kind: wasm function
compiler: TurboFan
Body (size = 64 = 40 + 24 padding)
Instructions (size = 32)
0x8aec53fff00     0  55                   push rbp
0x8aec53fff01     1  4889e5               REX.W movq rbp,rsp
0x8aec53fff04     4  6a08                 push 0x8
0x8aec53fff06     6  56                   push rsi
0x8aec53fff07     7  488b5e47             REX.W movq rbx,[rsi+0x47]
0x8aec53fff0b     b  8b13                 movl rdx,[rbx]
0x8aec53fff0d     d  2bd0                 subl rdx,rax
0x8aec53fff0f     f  83e2f0               andl rdx,0xf0
0x8aec53fff12    12  8913                 movl [rbx],rdx
0x8aec53fff14    14  488bc2               REX.W movq rax,rdx
0x8aec53fff17    17  488be5               REX.W movq rsp,rbp
0x8aec53fff1a    1a  5d                   pop rbp
0x8aec53fff1b    1b  c3                   retl
0x8aec53fff1c    1c  90                   nop
0x8aec53fff1d    1d  0f1f00               nop

Safepoints (entries = 0, byte size = 8)

RelocInfo (size = 0)

--- End code ---
--- WebAssembly code ---
name: stackRestore
index: 39
kind: wasm function
compiler: TurboFan
Body (size = 64 = 28 + 36 padding)
Instructions (size = 20)
0x8aec53fff40     0  55                   push rbp
0x8aec53fff41     1  4889e5               REX.W movq rbp,rsp
0x8aec53fff44     4  6a08                 push 0x8
0x8aec53fff46     6  56                   push rsi
0x8aec53fff47     7  488b5e47             REX.W movq rbx,[rsi+0x47]
0x8aec53fff4b     b  8903                 movl [rbx],rax
0x8aec53fff4d     d  488be5               REX.W movq rsp,rbp
0x8aec53fff50    10  5d                   pop rbp
0x8aec53fff51    11  c3                   retl
0x8aec53fff52    12  90                   nop
0x8aec53fff53    13  90                   nop

Safepoints (entries = 0, byte size = 8)

RelocInfo (size = 0)

--- End code ---
--- WebAssembly code ---
name: stackSave
index: 38
kind: wasm function
compiler: TurboFan
Body (size = 64 = 28 + 36 padding)
Instructions (size = 20)
0x8aec53fff80     0  55                   push rbp
0x8aec53fff81     1  4889e5               REX.W movq rbp,rsp
0x8aec53fff84     4  6a08                 push 0x8
0x8aec53fff86     6  56                   push rsi
0x8aec53fff87     7  488b5e47             REX.W movq rbx,[rsi+0x47]
0x8aec53fff8b     b  8b03                 movl rax,[rbx]
0x8aec53fff8d     d  488be5               REX.W movq rsp,rbp
0x8aec53fff90    10  5d                   pop rbp
0x8aec53fff91    11  c3                   retl
0x8aec53fff92    12  90                   nop
0x8aec53fff93    13  90                   nop

Safepoints (entries = 0, byte size = 8)

RelocInfo (size = 0)

--- End code ---
--- WebAssembly code ---
name: wctomb
index: 37
kind: wasm function
compiler: TurboFan
Body (size = 128 = 92 + 36 padding)
Instructions (size = 80)
0x8aec53fffc0     0  55                   push rbp
0x8aec53fffc1     1  4889e5               REX.W movq rbp,rsp
0x8aec53fffc4     4  6a08                 push 0x8
0x8aec53fffc6     6  56                   push rsi
0x8aec53fffc7     7  4883ec10             REX.W subq rsp,0x10
0x8aec53fffcb     b  488b5e27             REX.W movq rbx,[rsi+0x27]
0x8aec53fffcf     f  483b23               REX.W cmpq rsp,[rbx]
0x8aec53fffd2    12  0f8619000000         jna 0x8aec53ffff1  <+0x31>
0x8aec53fffd8    18  83f800               cmpl rax,0x0
0x8aec53fffdb    1b  0f840c000000         jz 0x8aec53fffed  <+0x2d>
0x8aec53fffe1    21  33c9                 xorl rcx,rcx
0x8aec53fffe3    23  e8c080ffff           call 0x8aec53f80a8  (jump table)    ;; internal wasm call
0x8aec53fffe8    28  488be5               REX.W movq rsp,rbp
0x8aec53fffeb    2b  5d                   pop rbp
0x8aec53fffec    2c  c3                   retl
0x8aec53fffed    2d  33c0                 xorl rax,rax
0x8aec53fffef    2f  ebf7                 jmp 0x8aec53fffe8  <+0x28>
0x8aec53ffff1    31  488945e8             REX.W movq [rbp-0x18],rax
0x8aec53ffff5    35  488955e0             REX.W movq [rbp-0x20],rdx
0x8aec53ffff9    39  e87283ffff           call 0x8aec53f8370  (jump table)    ;; wasm stub: WasmStackGuard
0x8aec53ffffe    3e  488b75f0             REX.W movq rsi,[rbp-0x10]
0x8aec5400002    42  488b45e8             REX.W movq rax,[rbp-0x18]
0x8aec5400006    46  488b55e0             REX.W movq rdx,[rbp-0x20]
0x8aec540000a    4a  ebcc                 jmp 0x8aec53fffd8  <+0x18>
0x8aec540000c    4c  90                   nop
0x8aec540000d    4d  0f1f00               nop

Source positions:
 pc offset  position
        21        16
        31         0

Safepoints (entries = 1, byte size = 10)
0x8aec53fffe8     28  slots (sp->fp): 00000000

RelocInfo (size = 3)
0x8aec53fffe4  internal wasm call
0x8aec53ffffa  wasm stub call

--- End code ---
--- WebAssembly code ---
name: wcrtomb
index: 36
kind: wasm function
compiler: TurboFan
Body (size = 640 = 588 + 52 padding)
Instructions (size = 576)
0x8aec5400040     0  55                   push rbp
0x8aec5400041     1  4889e5               REX.W movq rbp,rsp
0x8aec5400044     4  6a08                 push 0x8
0x8aec5400046     6  56                   push rsi
0x8aec5400047     7  4883ec18             REX.W subq rsp,0x18
0x8aec540004b     b  488b5e27             REX.W movq rbx,[rsi+0x27]
0x8aec540004f     f  488945d8             REX.W movq [rbp-0x28],rax
0x8aec5400053    13  488955e0             REX.W movq [rbp-0x20],rdx
0x8aec5400057    17  483b23               REX.W cmpq rsp,[rbx]
0x8aec540005a    1a  0f86c1010000         jna 0x8aec5400221  <+0x1e1>
0x8aec5400060    20  488b5e17             REX.W movq rbx,[rsi+0x17]
0x8aec5400064    24  48895de8             REX.W movq [rbp-0x18],rbx
0x8aec5400068    28  83f800               cmpl rax,0x0
0x8aec540006b    2b  0f850a000000         jnz 0x8aec540007b  <+0x3b>
0x8aec5400071    31  b801000000           movl rax,0x1
0x8aec5400076    36  488be5               REX.W movq rsp,rbp
0x8aec5400079    39  5d                   pop rbp
0x8aec540007a    3a  c3                   retl
0x8aec540007b    3b  83fa7f               cmpl rdx,0x7f
0x8aec540007e    3e  0f868e010000         jna 0x8aec5400212  <+0x1d2>
0x8aec5400084    44  e81580ffff           call 0x8aec53f809e  (jump table)    ;; internal wasm call
0x8aec5400089    49  8bd8                 movl rbx,rax
0x8aec540008b    4b  488b55e8             REX.W movq rdx,[rbp-0x18]
0x8aec540008f    4f  8b5c1358             movl rbx,[rbx+rdx*1+0x58]
0x8aec5400093    53  8b1c1a               movl rbx,[rdx+rbx*1]
0x8aec5400096    56  83fb00               cmpl rbx,0x0
0x8aec5400099    59  0f8435010000         jz 0x8aec54001d4  <+0x194>
0x8aec540009f    5f  817de0ff070000       cmpl [rbp-0x20],0x7ff
0x8aec54000a6    66  0f86f9000000         jna 0x8aec54001a5  <+0x165>
0x8aec54000ac    6c  488b5de0             REX.W movq rbx,[rbp-0x20]
0x8aec54000b0    70  81e300e0ffff         andl rbx,0xffffe000
0x8aec54000b6    76  817de000d80000       cmpl [rbp-0x20],0xd800
0x8aec54000bd    7d  0f93c1               setncl cl
0x8aec54000c0    80  0fb6c9               movzxbl rcx,rcx
0x8aec54000c3    83  81fb00e00000         cmpl rbx,0xe000
0x8aec54000c9    89  0f95c3               setnzl bl
0x8aec54000cc    8c  0fb6db               movzxbl rbx,rbx
0x8aec54000cf    8f  85cb                 testl rcx,rbx
0x8aec54000d1    91  0f8488000000         jz 0x8aec540015f  <+0x11f>
0x8aec54000d7    97  488b5de0             REX.W movq rbx,[rbp-0x20]
0x8aec54000db    9b  8d8b0000ffff         leal rcx,[rbx-0x10000]
0x8aec54000e1    a1  81f9ffff0f00         cmpl rcx,0xfffff
0x8aec54000e7    a7  0f861b000000         jna 0x8aec5400108  <+0xc8>
0x8aec54000ed    ad  488b75f0             REX.W movq rsi,[rbp-0x10]
0x8aec54000f1    b1  e8547fffff           call 0x8aec53f804a  (jump table)    ;; internal wasm call
0x8aec54000f6    b6  8bd8                 movl rbx,rax
0x8aec54000f8    b8  488b55e8             REX.W movq rdx,[rbp-0x18]
0x8aec54000fc    bc  c7041a19000000       movl [rdx+rbx*1],0x19
0x8aec5400103    c3  e9f5000000           jmp 0x8aec54001fd  <+0x1bd>
0x8aec5400108    c8  8b4dd8               movl rcx,[rbp-0x28]
0x8aec540010b    cb  488bfb               REX.W movq rdi,rbx
0x8aec540010e    ce  83e73f               andl rdi,0x3f
0x8aec5400111    d1  4c8bc3               REX.W movq r8,rbx
0x8aec5400114    d4  41c1e806             shrl r8, 6
0x8aec5400118    d8  4183e03f             andl r8,0x3f
0x8aec540011c    dc  81cf80000000         orl rdi,0x80
0x8aec5400122    e2  4c8bcb               REX.W movq r9,rbx
0x8aec5400125    e5  41c1e912             shrl r9, 18
0x8aec5400129    e9  40887c1103           movb [rcx+rdx*1+0x3],dil
0x8aec540012e    ee  4181c9f0000000       orl r9,0xf0
0x8aec5400135    f5  c1eb0c               shrl rbx, 12
0x8aec5400138    f8  44880c0a             movb [rdx+rcx*1],r9l
0x8aec540013c    fc  4181c880000000       orl r8,0x80
0x8aec5400143   103  83e33f               andl rbx,0x3f
0x8aec5400146   106  4488441102           movb [rcx+rdx*1+0x2],r8l
0x8aec540014b   10b  81cb80000000         orl rbx,0x80
0x8aec5400151   111  885c1101             movb [rcx+rdx*1+0x1],bl
0x8aec5400155   115  b804000000           movl rax,0x4
0x8aec540015a   11a  e917ffffff           jmp 0x8aec5400076  <+0x36>
0x8aec540015f   11f  8b5dd8               movl rbx,[rbp-0x28]
0x8aec5400162   122  488b4de0             REX.W movq rcx,[rbp-0x20]
0x8aec5400166   126  83e13f               andl rcx,0x3f
0x8aec5400169   129  488b7de0             REX.W movq rdi,[rbp-0x20]
0x8aec540016d   12d  c1ef06               shrl rdi, 6
0x8aec5400170   130  81c980000000         orl rcx,0x80
0x8aec5400176   136  83e73f               andl rdi,0x3f
0x8aec5400179   139  4c8b45e0             REX.W movq r8,[rbp-0x20]
0x8aec540017d   13d  41c1e80c             shrl r8, 12
0x8aec5400181   141  81cf80000000         orl rdi,0x80
0x8aec5400187   147  884c1302             movb [rbx+rdx*1+0x2],cl
0x8aec540018b   14b  4181c8e0000000       orl r8,0xe0
0x8aec5400192   152  4488041a             movb [rdx+rbx*1],r8l
0x8aec5400196   156  40887c1301           movb [rbx+rdx*1+0x1],dil
0x8aec540019b   15b  b803000000           movl rax,0x3
0x8aec54001a0   160  e9d1feffff           jmp 0x8aec5400076  <+0x36>
0x8aec54001a5   165  8b5dd8               movl rbx,[rbp-0x28]
0x8aec54001a8   168  488b4de0             REX.W movq rcx,[rbp-0x20]
0x8aec54001ac   16c  c1e906               shrl rcx, 6
0x8aec54001af   16f  488b7de0             REX.W movq rdi,[rbp-0x20]
0x8aec54001b3   173  83e73f               andl rdi,0x3f
0x8aec54001b6   176  81cf80000000         orl rdi,0x80
0x8aec54001bc   17c  40887c1301           movb [rbx+rdx*1+0x1],dil
0x8aec54001c1   181  81c9c0000000         orl rcx,0xc0
0x8aec54001c7   187  880c1a               movb [rdx+rbx*1],cl
0x8aec54001ca   18a  b802000000           movl rax,0x2
0x8aec54001cf   18f  e9a2feffff           jmp 0x8aec5400076  <+0x36>
0x8aec54001d4   194  488b5de0             REX.W movq rbx,[rbp-0x20]
0x8aec54001d8   198  83e380               andl rbx,0x80
0x8aec54001db   19b  81fb80df0000         cmpl rbx,0xdf80
0x8aec54001e1   1a1  0f8420000000         jz 0x8aec5400207  <+0x1c7>
0x8aec54001e7   1a7  488b75f0             REX.W movq rsi,[rbp-0x10]
0x8aec54001eb   1ab  e85a7effff           call 0x8aec53f804a  (jump table)    ;; internal wasm call
0x8aec54001f0   1b0  8bd8                 movl rbx,rax
0x8aec54001f2   1b2  488b55e8             REX.W movq rdx,[rbp-0x18]
0x8aec54001f6   1b6  c7041a19000000       movl [rdx+rbx*1],0x19
0x8aec54001fd   1bd  b8ffffffff           movl rax,0xffffffff
0x8aec5400202   1c2  e96ffeffff           jmp 0x8aec5400076  <+0x36>
0x8aec5400207   1c7  488bda               REX.W movq rbx,rdx
0x8aec540020a   1ca  488b55e0             REX.W movq rdx,[rbp-0x20]
0x8aec540020e   1ce  488b45d8             REX.W movq rax,[rbp-0x28]
0x8aec5400212   1d2  8bc8                 movl rcx,rax
0x8aec5400214   1d4  88140b               movb [rbx+rcx*1],dl
0x8aec5400217   1d7  b801000000           movl rax,0x1
0x8aec540021c   1dc  e955feffff           jmp 0x8aec5400076  <+0x36>
0x8aec5400221   1e1  e84a81ffff           call 0x8aec53f8370  (jump table)    ;; wasm stub: WasmStackGuard
0x8aec5400226   1e6  488b55e0             REX.W movq rdx,[rbp-0x20]
0x8aec540022a   1ea  488b45d8             REX.W movq rax,[rbp-0x28]
0x8aec540022e   1ee  488b75f0             REX.W movq rsi,[rbp-0x10]
0x8aec5400232   1f2  e929feffff           jmp 0x8aec5400060  <+0x20>
0x8aec5400237   1f7  e8d47effff           call 0x8aec53f8110  (jump table)    ;; wasm stub: ThrowWasmTrapMemOutOfBounds
0x8aec540023c   1fc  e8cf7effff           call 0x8aec53f8110  (jump table)    ;; wasm stub: ThrowWasmTrapMemOutOfBounds
0x8aec5400241   201  e8ca7effff           call 0x8aec53f8110  (jump table)    ;; wasm stub: ThrowWasmTrapMemOutOfBounds
0x8aec5400246   206  e8c57effff           call 0x8aec53f8110  (jump table)    ;; wasm stub: ThrowWasmTrapMemOutOfBounds
0x8aec540024b   20b  e8c07effff           call 0x8aec53f8110  (jump table)    ;; wasm stub: ThrowWasmTrapMemOutOfBounds
0x8aec5400250   210  e8bb7effff           call 0x8aec53f8110  (jump table)    ;; wasm stub: ThrowWasmTrapMemOutOfBounds
0x8aec5400255   215  e8b67effff           call 0x8aec53f8110  (jump table)    ;; wasm stub: ThrowWasmTrapMemOutOfBounds
0x8aec540025a   21a  e8b17effff           call 0x8aec53f8110  (jump table)    ;; wasm stub: ThrowWasmTrapMemOutOfBounds
0x8aec540025f   21f  e8ac7effff           call 0x8aec53f8110  (jump table)    ;; wasm stub: ThrowWasmTrapMemOutOfBounds
0x8aec5400264   224  e8a77effff           call 0x8aec53f8110  (jump table)    ;; wasm stub: ThrowWasmTrapMemOutOfBounds
0x8aec5400269   229  e8a27effff           call 0x8aec53f8110  (jump table)    ;; wasm stub: ThrowWasmTrapMemOutOfBounds
0x8aec540026e   22e  e89d7effff           call 0x8aec53f8110  (jump table)    ;; wasm stub: ThrowWasmTrapMemOutOfBounds
0x8aec5400273   233  e8987effff           call 0x8aec53f8110  (jump table)    ;; wasm stub: ThrowWasmTrapMemOutOfBounds
0x8aec5400278   238  e8937effff           call 0x8aec53f8110  (jump table)    ;; wasm stub: ThrowWasmTrapMemOutOfBounds
0x8aec540027d   23d  90                   nop
0x8aec540027e   23e  6690                 nop

Protected instructions:
 pc offset  land pad
       1d4       1f7
       1b6       1fc
       187       201
       17c       206
       156       20b
       152       210
       147       215
       111       21a
       106       21f
        f8       224
        e9       229
        bc       22e
        53       233
        4f       238

Source positions:
 pc offset  position
        44        23
        4b        25
        53        28
        ad       248
        b8       252
        e9       193
        f8       207
       106       224
       111       241
       147       130
       152       144
       156       161
       17c        76
       187        90
       1a7        47
       1b2        51
       1d4       269
       1e1         0
       1f7       269
       1fc        51
       201        90
       206        76
       20b       161
       210       144
       215       130
       21a       241
       21f       224
       224       207
       229       193
       22e       252
       233        28
       238        25

Safepoints (entries = 1, byte size = 10)
0x8aec5400089     49  slots (sp->fp): 00000000

RelocInfo (size = 27)
0x8aec5400085  internal wasm call
0x8aec54000f2  internal wasm call
0x8aec54001ec  internal wasm call
0x8aec5400222  wasm stub call
0x8aec5400238  wasm stub call
0x8aec540023d  wasm stub call
0x8aec5400242  wasm stub call
0x8aec5400247  wasm stub call
0x8aec540024c  wasm stub call
0x8aec5400251  wasm stub call
0x8aec5400256  wasm stub call
0x8aec540025b  wasm stub call
0x8aec5400260  wasm stub call
0x8aec5400265  wasm stub call
0x8aec540026a  wasm stub call
0x8aec540026f  wasm stub call
0x8aec5400274  wasm stub call
0x8aec5400279  wasm stub call

--- End code ---
--- WebAssembly code ---
name: pad
index: 29
kind: wasm function
compiler: TurboFan
Body (size = 384 = 384 + 0 padding)
Instructions (size = 372)
0x8aec54002c0     0  55                   push rbp
0x8aec54002c1     1  4889e5               REX.W movq rbp,rsp
0x8aec54002c4     4  6a08                 push 0x8
0x8aec54002c6     6  56                   push rsi
0x8aec54002c7     7  4883ec40             REX.W subq rsp,0x40
0x8aec54002cb     b  488b7e27             REX.W movq rdi,[rsi+0x27]
0x8aec54002cf     f  488945d8             REX.W movq [rbp-0x28],rax
0x8aec54002d3    13  48897dc8             REX.W movq [rbp-0x38],rdi
0x8aec54002d7    17  483b27               REX.W cmpq rsp,[rdi]
0x8aec54002da    1a  0f860a010000         jna 0x8aec54003ea  <+0x12a>
0x8aec54002e0    20  4c8b4647             REX.W movq r8,[rsi+0x47]
0x8aec54002e4    24  458b18               movl r11,[r8]
0x8aec54002e7    27  4181eb00010000       subl r11,0x100
0x8aec54002ee    2e  458918               movl [r8],r11
0x8aec54002f1    31  4c8945e8             REX.W movq [rbp-0x18],r8
0x8aec54002f5    35  4c895de0             REX.W movq [rbp-0x20],r11
0x8aec54002f9    39  3bcb                 cmpl rcx,rbx
0x8aec54002fb    3b  0f8ed6000000         jle 0x8aec54003d7  <+0x117>
0x8aec5400301    41  41f7c100200100       testl r9,0x12000
0x8aec5400308    48  0f85c9000000         jnz 0x8aec54003d7  <+0x117>
0x8aec540030e    4e  2bcb                 subl rcx,rbx
0x8aec5400310    50  41b900010000         movl r9,0x100
0x8aec5400316    56  81f900010000         cmpl rcx,0x100
0x8aec540031c    5c  440f42c9             cmovcl r9,rcx
0x8aec5400320    60  0fb6d2               movzxbl rdx,rdx
0x8aec5400323    63  bb00010000           movl rbx,0x100
0x8aec5400328    68  48894dd0             REX.W movq [rbp-0x30],rcx
0x8aec540032c    6c  498bc3               REX.W movq rax,r11
0x8aec540032f    6f  498bc9               REX.W movq rcx,r9
0x8aec5400332    72  e8ec7cffff           call 0x8aec53f8023  (jump table)    ;; internal wasm call
0x8aec5400337    77  817dd000010000       cmpl [rbp-0x30],0x100
0x8aec540033e    7e  0f8276000000         jc 0x8aec54003ba  <+0xfa>
0x8aec5400344    84  660f1f840000000000   nop
0x8aec540034d    8d  660f1f840000000000   nop
0x8aec5400356    96  660f1f840000000000   nop
0x8aec540035f    9f  660f1f840000000000   nop
0x8aec5400368    a8  660f1f840000000000   nop
0x8aec5400371    b1  660f1f840000000000   nop
0x8aec540037a    ba  660f1f440000         nop
0x8aec5400380    c0  488b4dd0             REX.W movq rcx,[rbp-0x30]
0x8aec5400384    c4  488b5dc8             REX.W movq rbx,[rbp-0x38]
0x8aec5400388    c8  483b23               REX.W cmpq rsp,[rbx]
0x8aec540038b    cb  0f868f000000         jna 0x8aec5400420  <+0x160>
0x8aec5400391    d1  81e900010000         subl rcx,0x100
0x8aec5400397    d7  48894dd0             REX.W movq [rbp-0x30],rcx
0x8aec540039b    db  488b75f0             REX.W movq rsi,[rbp-0x10]
0x8aec540039f    df  488b45d8             REX.W movq rax,[rbp-0x28]
0x8aec54003a3    e3  488b55e0             REX.W movq rdx,[rbp-0x20]
0x8aec54003a7    e7  b900010000           movl rcx,0x100
0x8aec54003ac    ec  e8b27cffff           call 0x8aec53f8063  (jump table)    ;; internal wasm call
0x8aec54003b1    f1  817dd0ff000000       cmpl [rbp-0x30],0xff
0x8aec54003b8    f8  77c6                 ja 0x8aec5400380  <+0xc0>
0x8aec54003ba    fa  488b75f0             REX.W movq rsi,[rbp-0x10]
0x8aec54003be    fe  488b45d8             REX.W movq rax,[rbp-0x28]
0x8aec54003c2   102  488b55e0             REX.W movq rdx,[rbp-0x20]
0x8aec54003c6   106  488b4dd0             REX.W movq rcx,[rbp-0x30]
0x8aec54003ca   10a  e8947cffff           call 0x8aec53f8063  (jump table)    ;; internal wasm call
0x8aec54003cf   10f  4c8b45e8             REX.W movq r8,[rbp-0x18]
0x8aec54003d3   113  4c8b5de0             REX.W movq r11,[rbp-0x20]
0x8aec54003d7   117  498bdb               REX.W movq rbx,r11
0x8aec54003da   11a  81c300010000         addl rbx,0x100
0x8aec54003e0   120  498bf8               REX.W movq rdi,r8
0x8aec54003e3   123  891f                 movl [rdi],rbx
0x8aec54003e5   125  488be5               REX.W movq rsp,rbp
0x8aec54003e8   128  5d                   pop rbp
0x8aec54003e9   129  c3                   retl
0x8aec54003ea   12a  488955c0             REX.W movq [rbp-0x40],rdx
0x8aec54003ee   12e  48894dd0             REX.W movq [rbp-0x30],rcx
0x8aec54003f2   132  48895db8             REX.W movq [rbp-0x48],rbx
0x8aec54003f6   136  4c894db0             REX.W movq [rbp-0x50],r9
0x8aec54003fa   13a  e8717fffff           call 0x8aec53f8370  (jump table)    ;; wasm stub: WasmStackGuard
0x8aec54003ff   13f  488b75f0             REX.W movq rsi,[rbp-0x10]
0x8aec5400403   143  488b45d8             REX.W movq rax,[rbp-0x28]
0x8aec5400407   147  488b7dc8             REX.W movq rdi,[rbp-0x38]
0x8aec540040b   14b  488b55c0             REX.W movq rdx,[rbp-0x40]
0x8aec540040f   14f  488b4dd0             REX.W movq rcx,[rbp-0x30]
0x8aec5400413   153  488b5db8             REX.W movq rbx,[rbp-0x48]
0x8aec5400417   157  4c8b4db0             REX.W movq r9,[rbp-0x50]
0x8aec540041b   15b  e9c0feffff           jmp 0x8aec54002e0  <+0x20>
0x8aec5400420   160  48894dd0             REX.W movq [rbp-0x30],rcx
0x8aec5400424   164  e8477fffff           call 0x8aec53f8370  (jump table)    ;; wasm stub: WasmStackGuard
0x8aec5400429   169  488b4dd0             REX.W movq rcx,[rbp-0x30]
0x8aec540042d   16d  e95fffffff           jmp 0x8aec5400391  <+0xd1>
0x8aec5400432   172  90                   nop
0x8aec5400433   173  90                   nop

Source positions:
 pc offset  position
        63        58
        d7        75
        fa        99
       12a         0
       160        66

Safepoints (entries = 1, byte size = 11)
0x8aec5400337     77  slots (sp->fp): 0000000000000000

RelocInfo (size = 12)
0x8aec5400333  internal wasm call
0x8aec54003ad  internal wasm call
0x8aec54003cb  internal wasm call
0x8aec54003fb  wasm stub call
0x8aec5400425  wasm stub call

--- End code ---
--- WebAssembly code ---
name: fmt_u
index: 28
kind: wasm function
compiler: TurboFan
Body (size = 576 = 516 + 60 padding)
Instructions (size = 504)
0x8aec5400440     0  55                   push rbp
0x8aec5400441     1  4889e5               REX.W movq rbp,rsp
0x8aec5400444     4  6a08                 push 0x8
0x8aec5400446     6  56                   push rsi
0x8aec5400447     7  4883ec20             REX.W subq rsp,0x20
0x8aec540044b     b  488b5e17             REX.W movq rbx,[rsi+0x17]
0x8aec540044f     f  48b90000000001000000 REX.W movq rcx,0x100000000
0x8aec5400459    19  483bc1               REX.W cmpq rax,rcx
0x8aec540045c    1c  0f8283000000         jc 0x8aec54004e5  <+0xa5>
0x8aec5400462    22  488b4e27             REX.W movq rcx,[rsi+0x27]
0x8aec5400466    26  4c8bc2               REX.W movq r8,rdx
0x8aec5400469    29  41b90a000000         movl r9,0xa
0x8aec540046f    2f  49bbffffffff09000000 REX.W movq r11,0x9ffffffff
0x8aec5400479    39  0f1f8000000000       nop
0x8aec5400480    40  488bf8               REX.W movq rdi,rax
0x8aec5400483    43  483b21               REX.W cmpq rsp,[rcx]
0x8aec5400486    46  0f862b010000         jna 0x8aec54005b7  <+0x177>
0x8aec540048c    4c  488bc7               REX.W movq rax,rdi
0x8aec540048f    4f  33d2                 xorl rdx,rdx
0x8aec5400491    51  49f7f1               REX.W divq r9
0x8aec5400494    54  4c8be0               REX.W movq r12,rax
0x8aec5400497    57  496bd40a             REX.W imulq rdx,r12,0xa
0x8aec540049b    5b  4c8bff               REX.W movq r15,rdi
0x8aec540049e    5e  4c2bfa               REX.W subq r15,rdx
0x8aec54004a1    61  418bd7               movl rdx,r15
0x8aec54004a4    64  4183e801             subl r8,0x1
0x8aec54004a8    68  83ca30               orl rdx,0x30
0x8aec54004ab    6b  42881403             movb [rbx+r8*1],dl
0x8aec54004af    6f  4c3bdf               REX.W cmpq r11,rdi
0x8aec54004b2    72  0f8327000000         jnc 0x8aec54004df  <+0x9f>
0x8aec54004b8    78  4c89e0               REX.W movq rax,r12
0x8aec54004bb    7b  33d2                 xorl rdx,rdx
0x8aec54004bd    7d  49f7f1               REX.W divq r9
0x8aec54004c0    80  486bd00a             REX.W imulq rdx,rax,0xa
0x8aec54004c4    84  4c89e7               REX.W movq rdi,r12
0x8aec54004c7    87  482bfa               REX.W subq rdi,rdx
0x8aec54004ca    8a  8bd7                 movl rdx,rdi
0x8aec54004cc    8c  4183e801             subl r8,0x1
0x8aec54004d0    90  83ca30               orl rdx,0x30
0x8aec54004d3    93  42881403             movb [rbx+r8*1],dl
0x8aec54004d7    97  4d39e3               REX.W cmpq r11,r12
0x8aec54004da    9a  72a4                 jc 0x8aec5400480  <+0x40>
0x8aec54004dc    9c  4c8be0               REX.W movq r12,rax
0x8aec54004df    9f  498bd0               REX.W movq rdx,r8
0x8aec54004e2    a2  4c89e0               REX.W movq rax,r12
0x8aec54004e5    a5  8bc8                 movl rcx,rax
0x8aec54004e7    a7  83f900               cmpl rcx,0x0
0x8aec54004ea    aa  0f8508000000         jnz 0x8aec54004f8  <+0xb8>
0x8aec54004f0    b0  488bc2               REX.W movq rax,rdx
0x8aec54004f3    b3  488be5               REX.W movq rsp,rbp
0x8aec54004f6    b6  5d                   pop rbp
0x8aec54004f7    b7  c3                   retl
0x8aec54004f8    b8  488b7627             REX.W movq rsi,[rsi+0x27]
0x8aec54004fc    bc  488bfa               REX.W movq rdi,rdx
0x8aec54004ff    bf  41b867666666         movl r8,0x66666667
0x8aec5400505    c5  e939000000           jmp 0x8aec5400543  <+0x103>
0x8aec540050a    ca  660f1f840000000000   nop
0x8aec5400513    d3  660f1f840000000000   nop
0x8aec540051c    dc  660f1f840000000000   nop
0x8aec5400525    e5  660f1f840000000000   nop
0x8aec540052e    ee  660f1f840000000000   nop
0x8aec5400537    f7  660f1f840000000000   nop
0x8aec5400540   100  488bca               REX.W movq rcx,rdx
0x8aec5400543   103  483b26               REX.W cmpq rsp,[rsi]
0x8aec5400546   106  0f86a6000000         jna 0x8aec54005f2  <+0x1b2>
0x8aec540054c   10c  488bd1               REX.W movq rdx,rcx
0x8aec540054f   10f  d1ea                 shrl rdx, 1
0x8aec5400551   111  488bc2               REX.W movq rax,rdx
0x8aec5400554   114  41f7e0               mull r8
0x8aec5400557   117  4c8bca               REX.W movq r9,rdx
0x8aec540055a   11a  41d1e9               shrl r9, 1
0x8aec540055d   11d  416bd10a             imull rdx,r9,0xa
0x8aec5400561   121  4c8bd9               REX.W movq r11,rcx
0x8aec5400564   124  442bda               subl r11,rdx
0x8aec5400567   127  83ef01               subl rdi,0x1
0x8aec540056a   12a  4183cb30             orl r11,0x30
0x8aec540056e   12e  44881c3b             movb [rbx+rdi*1],r11l
0x8aec5400572   132  83f909               cmpl rcx,0x9
0x8aec5400575   135  0f862c000000         jna 0x8aec54005a7  <+0x167>
0x8aec540057b   13b  498bd1               REX.W movq rdx,r9
0x8aec540057e   13e  d1ea                 shrl rdx, 1
0x8aec5400580   140  488bc2               REX.W movq rax,rdx
0x8aec5400583   143  41f7e0               mull r8
0x8aec5400586   146  d1ea                 shrl rdx, 1
0x8aec5400588   148  6bca0a               imull rcx,rdx,0xa
0x8aec540058b   14b  4d8bd9               REX.W movq r11,r9
0x8aec540058e   14e  442bd9               subl r11,rcx
0x8aec5400591   151  83ef01               subl rdi,0x1
0x8aec5400594   154  4183cb30             orl r11,0x30
0x8aec5400598   158  44881c3b             movb [rbx+rdi*1],r11l
0x8aec540059c   15c  4183f909             cmpl r9,0x9
0x8aec54005a0   160  779e                 ja 0x8aec5400540  <+0x100>
0x8aec54005a2   162  e908000000           jmp 0x8aec54005af  <+0x16f>
0x8aec54005a7   167  488bc7               REX.W movq rax,rdi
0x8aec54005aa   16a  e944ffffff           jmp 0x8aec54004f3  <+0xb3>
0x8aec54005af   16f  488bc7               REX.W movq rax,rdi
0x8aec54005b2   172  e93cffffff           jmp 0x8aec54004f3  <+0xb3>
0x8aec54005b7   177  48895de8             REX.W movq [rbp-0x18],rbx
0x8aec54005bb   17b  48897de0             REX.W movq [rbp-0x20],rdi
0x8aec54005bf   17f  4c8945d0             REX.W movq [rbp-0x30],r8
0x8aec54005c3   183  48894dd8             REX.W movq [rbp-0x28],rcx
0x8aec54005c7   187  e8a47dffff           call 0x8aec53f8370  (jump table)    ;; wasm stub: WasmStackGuard
0x8aec54005cc   18c  488b5de8             REX.W movq rbx,[rbp-0x18]
0x8aec54005d0   190  488b75f0             REX.W movq rsi,[rbp-0x10]
0x8aec54005d4   194  4c8b1d96feffff       REX.W movq r11,[rip+0xfffffe96]
0x8aec54005db   19b  41b90a000000         movl r9,0xa
0x8aec54005e1   1a1  488b7de0             REX.W movq rdi,[rbp-0x20]
0x8aec54005e5   1a5  4c8b45d0             REX.W movq r8,[rbp-0x30]
0x8aec54005e9   1a9  488b4dd8             REX.W movq rcx,[rbp-0x28]
0x8aec54005ed   1ad  e99afeffff           jmp 0x8aec540048c  <+0x4c>
0x8aec54005f2   1b2  48895de8             REX.W movq [rbp-0x18],rbx
0x8aec54005f6   1b6  48894de0             REX.W movq [rbp-0x20],rcx
0x8aec54005fa   1ba  48897dd0             REX.W movq [rbp-0x30],rdi
0x8aec54005fe   1be  488975d8             REX.W movq [rbp-0x28],rsi
0x8aec5400602   1c2  e8697dffff           call 0x8aec53f8370  (jump table)    ;; wasm stub: WasmStackGuard
0x8aec5400607   1c7  488b5de8             REX.W movq rbx,[rbp-0x18]
0x8aec540060b   1cb  41b867666666         movl r8,0x66666667
0x8aec5400611   1d1  488b4de0             REX.W movq rcx,[rbp-0x20]
0x8aec5400615   1d5  488b7dd0             REX.W movq rdi,[rbp-0x30]
0x8aec5400619   1d9  488b75d8             REX.W movq rsi,[rbp-0x28]
0x8aec540061d   1dd  e92affffff           jmp 0x8aec540054c  <+0x10c>
0x8aec5400622   1e2  e8e97affff           call 0x8aec53f8110  (jump table)    ;; wasm stub: ThrowWasmTrapMemOutOfBounds
0x8aec5400627   1e7  e8e47affff           call 0x8aec53f8110  (jump table)    ;; wasm stub: ThrowWasmTrapMemOutOfBounds
0x8aec540062c   1ec  e8df7affff           call 0x8aec53f8110  (jump table)    ;; wasm stub: ThrowWasmTrapMemOutOfBounds
0x8aec5400631   1f1  e8da7affff           call 0x8aec53f8110  (jump table)    ;; wasm stub: ThrowWasmTrapMemOutOfBounds
0x8aec5400636   1f6  90                   nop
0x8aec5400637   1f7  90                   nop

Protected instructions:
 pc offset  land pad
       158       1e2
       12e       1e7
        93       1ec
        6b       1f1

Source positions:
 pc offset  position
        6b        55
       12e       112
       177        29
       1b2        87
       1e2       112
       1ec        55

Safepoints (entries = 1, byte size = 11)
0x8aec54005cc    18c  slots (sp->fp): 00000000

RelocInfo (size = 8)
0x8aec54005c8  wasm stub call
0x8aec5400603  wasm stub call
0x8aec5400623  wasm stub call
0x8aec5400628  wasm stub call
0x8aec540062d  wasm stub call
0x8aec5400632  wasm stub call

--- End code ---
--- WebAssembly code ---
name: fmt_o
index: 27
kind: wasm function
compiler: TurboFan
Body (size = 256 = 204 + 52 padding)
Instructions (size = 192)
0x8aec5400680     0  55                   push rbp
0x8aec5400681     1  4889e5               REX.W movq rbp,rsp
0x8aec5400684     4  6a08                 push 0x8
0x8aec5400686     6  56                   push rsi
0x8aec5400687     7  4883ec20             REX.W subq rsp,0x20
0x8aec540068b     b  488b5e17             REX.W movq rbx,[rsi+0x17]
0x8aec540068f     f  4883f800             REX.W cmpq rax,0x0
0x8aec5400693    13  0f8508000000         jnz 0x8aec54006a1  <+0x21>
0x8aec5400699    19  488bc2               REX.W movq rax,rdx
0x8aec540069c    1c  488be5               REX.W movq rsp,rbp
0x8aec540069f    1f  5d                   pop rbp
0x8aec54006a0    20  c3                   retl
0x8aec54006a1    21  488b4e27             REX.W movq rcx,[rsi+0x27]
0x8aec54006a5    25  e91a000000           jmp 0x8aec54006c4  <+0x44>
0x8aec54006aa    2a  660f1f840000000000   nop
0x8aec54006b3    33  660f1f840000000000   nop
0x8aec54006bc    3c  0f1f4000             nop
0x8aec54006c0    40  48c1e803             REX.W shrq rax, 3
0x8aec54006c4    44  483b21               REX.W cmpq rsp,[rcx]
0x8aec54006c7    47  0f8641000000         jna 0x8aec540070e  <+0x8e>
0x8aec54006cd    4d  8bf0                 movl rsi,rax
0x8aec54006cf    4f  83e607               andl rsi,0x7
0x8aec54006d2    52  83ea01               subl rdx,0x1
0x8aec54006d5    55  83ce30               orl rsi,0x30
0x8aec54006d8    58  40883413             movb [rbx+rdx*1],sil
0x8aec54006dc    5c  4883f807             REX.W cmpq rax,0x7
0x8aec54006e0    60  0f861e000000         jna 0x8aec5400704  <+0x84>
0x8aec54006e6    66  48c1e803             REX.W shrq rax, 3
0x8aec54006ea    6a  8bf0                 movl rsi,rax
0x8aec54006ec    6c  83e607               andl rsi,0x7
0x8aec54006ef    6f  83ea01               subl rdx,0x1
0x8aec54006f2    72  83ce30               orl rsi,0x30
0x8aec54006f5    75  40883413             movb [rbx+rdx*1],sil
0x8aec54006f9    79  4883f807             REX.W cmpq rax,0x7
0x8aec54006fd    7d  77c1                 ja 0x8aec54006c0  <+0x40>
0x8aec54006ff    7f  e905000000           jmp 0x8aec5400709  <+0x89>
0x8aec5400704    84  488bc2               REX.W movq rax,rdx
0x8aec5400707    87  eb93                 jmp 0x8aec540069c  <+0x1c>
0x8aec5400709    89  488bc2               REX.W movq rax,rdx
0x8aec540070c    8c  eb8e                 jmp 0x8aec540069c  <+0x1c>
0x8aec540070e    8e  48895de8             REX.W movq [rbp-0x18],rbx
0x8aec5400712    92  488945e0             REX.W movq [rbp-0x20],rax
0x8aec5400716    96  488955d8             REX.W movq [rbp-0x28],rdx
0x8aec540071a    9a  48894dd0             REX.W movq [rbp-0x30],rcx
0x8aec540071e    9e  e84d7cffff           call 0x8aec53f8370  (jump table)    ;; wasm stub: WasmStackGuard
0x8aec5400723    a3  488b5de8             REX.W movq rbx,[rbp-0x18]
0x8aec5400727    a7  488b45e0             REX.W movq rax,[rbp-0x20]
0x8aec540072b    ab  488b55d8             REX.W movq rdx,[rbp-0x28]
0x8aec540072f    af  488b4dd0             REX.W movq rcx,[rbp-0x30]
0x8aec5400733    b3  eb98                 jmp 0x8aec54006cd  <+0x4d>
0x8aec5400735    b5  e8d679ffff           call 0x8aec53f8110  (jump table)    ;; wasm stub: ThrowWasmTrapMemOutOfBounds
0x8aec540073a    ba  e8d179ffff           call 0x8aec53f8110  (jump table)    ;; wasm stub: ThrowWasmTrapMemOutOfBounds
0x8aec540073f    bf  90                   nop

Protected instructions:
 pc offset  land pad
        75        b5
        58        ba

Source positions:
 pc offset  position
        58        27
        8e         9
        b5        27

Safepoints (entries = 1, byte size = 10)
0x8aec5400723     a3  slots (sp->fp): 00000000

RelocInfo (size = 5)
0x8aec540071f  wasm stub call
0x8aec5400736  wasm stub call
0x8aec540073b  wasm stub call

--- End code ---
--- WebAssembly code ---
name: fmt_x
index: 26
kind: wasm function
compiler: TurboFan
Body (size = 256 = 256 + 0 padding)
Instructions (size = 244)
0x8aec5400780     0  55                   push rbp
0x8aec5400781     1  4889e5               REX.W movq rbp,rsp
0x8aec5400784     4  6a08                 push 0x8
0x8aec5400786     6  56                   push rsi
0x8aec5400787     7  4883ec28             REX.W subq rsp,0x28
0x8aec540078b     b  488b5e17             REX.W movq rbx,[rsi+0x17]
0x8aec540078f     f  4883f800             REX.W cmpq rax,0x0
0x8aec5400793    13  0f8508000000         jnz 0x8aec54007a1  <+0x21>
0x8aec5400799    19  488bc2               REX.W movq rax,rdx
0x8aec540079c    1c  488be5               REX.W movq rsp,rbp
0x8aec540079f    1f  5d                   pop rbp
0x8aec54007a0    20  c3                   retl
0x8aec54007a1    21  488b7627             REX.W movq rsi,[rsi+0x27]
0x8aec54007a5    25  e91a000000           jmp 0x8aec54007c4  <+0x44>
0x8aec54007aa    2a  660f1f840000000000   nop
0x8aec54007b3    33  660f1f840000000000   nop
0x8aec54007bc    3c  0f1f4000             nop
0x8aec54007c0    40  48c1e804             REX.W shrq rax, 4
0x8aec54007c4    44  483b26               REX.W cmpq rsp,[rsi]
0x8aec54007c7    47  0f865d000000         jna 0x8aec540082a  <+0xaa>
0x8aec54007cd    4d  8bf8                 movl rdi,rax
0x8aec54007cf    4f  83e70f               andl rdi,0xf
0x8aec54007d2    52  81c7f0050000         addl rdi,0x5f0
0x8aec54007d8    58  0fb63c3b             movzxbl rdi,[rbx+rdi*1]
0x8aec54007dc    5c  83ea01               subl rdx,0x1
0x8aec54007df    5f  0bf9                 orl rdi,rcx
0x8aec54007e1    61  40883c13             movb [rbx+rdx*1],dil
0x8aec54007e5    65  4883f80f             REX.W cmpq rax,0xf
0x8aec54007e9    69  0f862b000000         jna 0x8aec540081a  <+0x9a>
0x8aec54007ef    6f  48c1e804             REX.W shrq rax, 4
0x8aec54007f3    73  8bf8                 movl rdi,rax
0x8aec54007f5    75  83e70f               andl rdi,0xf
0x8aec54007f8    78  81c7f0050000         addl rdi,0x5f0
0x8aec54007fe    7e  0fb63c3b             movzxbl rdi,[rbx+rdi*1]
0x8aec5400802    82  83ea01               subl rdx,0x1
0x8aec5400805    85  4c8bc1               REX.W movq r8,rcx
0x8aec5400808    88  440bc7               orl r8,rdi
0x8aec540080b    8b  44880413             movb [rbx+rdx*1],r8l
0x8aec540080f    8f  4883f80f             REX.W cmpq rax,0xf
0x8aec5400813    93  77ab                 ja 0x8aec54007c0  <+0x40>
0x8aec5400815    95  e908000000           jmp 0x8aec5400822  <+0xa2>
0x8aec540081a    9a  488bc2               REX.W movq rax,rdx
0x8aec540081d    9d  e97affffff           jmp 0x8aec540079c  <+0x1c>
0x8aec5400822    a2  488bc2               REX.W movq rax,rdx
0x8aec5400825    a5  e972ffffff           jmp 0x8aec540079c  <+0x1c>
0x8aec540082a    aa  48895de8             REX.W movq [rbp-0x18],rbx
0x8aec540082e    ae  48894de0             REX.W movq [rbp-0x20],rcx
0x8aec5400832    b2  488945d8             REX.W movq [rbp-0x28],rax
0x8aec5400836    b6  488955d0             REX.W movq [rbp-0x30],rdx
0x8aec540083a    ba  488975c8             REX.W movq [rbp-0x38],rsi
0x8aec540083e    be  e82d7bffff           call 0x8aec53f8370  (jump table)    ;; wasm stub: WasmStackGuard
0x8aec5400843    c3  488b5de8             REX.W movq rbx,[rbp-0x18]
0x8aec5400847    c7  488b4de0             REX.W movq rcx,[rbp-0x20]
0x8aec540084b    cb  488b45d8             REX.W movq rax,[rbp-0x28]
0x8aec540084f    cf  488b55d0             REX.W movq rdx,[rbp-0x30]
0x8aec5400853    d3  488b75c8             REX.W movq rsi,[rbp-0x38]
0x8aec5400857    d7  e971ffffff           jmp 0x8aec54007cd  <+0x4d>
0x8aec540085c    dc  e8af78ffff           call 0x8aec53f8110  (jump table)    ;; wasm stub: ThrowWasmTrapMemOutOfBounds
0x8aec5400861    e1  e8aa78ffff           call 0x8aec53f8110  (jump table)    ;; wasm stub: ThrowWasmTrapMemOutOfBounds
0x8aec5400866    e6  e8a578ffff           call 0x8aec53f8110  (jump table)    ;; wasm stub: ThrowWasmTrapMemOutOfBounds
0x8aec540086b    eb  e8a078ffff           call 0x8aec53f8110  (jump table)    ;; wasm stub: ThrowWasmTrapMemOutOfBounds
0x8aec5400870    f0  90                   nop
0x8aec5400871    f1  0f1f00               nop

Protected instructions:
 pc offset  land pad
        8b        dc
        7e        e1
        61        e6
        58        eb

Source positions:
 pc offset  position
        58        28
        61        34
        7e        28
        8b        34
        aa         9
        dc        34
        e1        28
        e6        34
        eb        28

Safepoints (entries = 1, byte size = 11)
0x8aec5400843     c3  slots (sp->fp): 0000000000000000

RelocInfo (size = 7)
0x8aec540083f  wasm stub call
0x8aec540085d  wasm stub call
0x8aec5400862  wasm stub call
0x8aec5400867  wasm stub call
0x8aec540086c  wasm stub call

--- End code ---
--- WebAssembly code ---
name: getint
index: 24
kind: wasm function
compiler: TurboFan
Body (size = 384 = 364 + 20 padding)
Instructions (size = 352)
0x8aec5400880     0  55                   push rbp
0x8aec5400881     1  4889e5               REX.W movq rbp,rsp
0x8aec5400884     4  6a08                 push 0x8
0x8aec5400886     6  56                   push rsi
0x8aec5400887     7  4883ec20             REX.W subq rsp,0x20
0x8aec540088b     b  488b5e27             REX.W movq rbx,[rsi+0x27]
0x8aec540088f     f  48895dd0             REX.W movq [rbp-0x30],rbx
0x8aec5400893    13  483b23               REX.W cmpq rsp,[rbx]
0x8aec5400896    16  0f86e9000000         jna 0x8aec5400985  <+0x105>
0x8aec540089c    1c  488b5617             REX.W movq rdx,[rsi+0x17]
0x8aec54008a0    20  8bc8                 movl rcx,rax
0x8aec54008a2    22  8b3c0a               movl rdi,[rdx+rcx*1]
0x8aec54008a5    25  0fbe043a             movsxbl rax,[rdx+rdi*1]
0x8aec54008a9    29  488955e8             REX.W movq [rbp-0x18],rdx
0x8aec54008ad    2d  48894de0             REX.W movq [rbp-0x20],rcx
0x8aec54008b1    31  e88177ffff           call 0x8aec53f8037  (jump table)    ;; internal wasm call
0x8aec54008b6    36  83f800               cmpl rax,0x0
0x8aec54008b9    39  0f84c2000000         jz 0x8aec5400981  <+0x101>
0x8aec54008bf    3f  33c0                 xorl rax,rax
0x8aec54008c1    41  e93e000000           jmp 0x8aec5400904  <+0x84>
0x8aec54008c6    46  660f1f840000000000   nop
0x8aec54008cf    4f  660f1f840000000000   nop
0x8aec54008d8    58  660f1f840000000000   nop
0x8aec54008e1    61  660f1f840000000000   nop
0x8aec54008ea    6a  660f1f840000000000   nop
0x8aec54008f3    73  660f1f840000000000   nop
0x8aec54008fc    7c  0f1f4000             nop
0x8aec5400900    80  488b45d8             REX.W movq rax,[rbp-0x28]
0x8aec5400904    84  488b55e8             REX.W movq rdx,[rbp-0x18]
0x8aec5400908    88  488b4de0             REX.W movq rcx,[rbp-0x20]
0x8aec540090c    8c  bfffffffff           movl rdi,0xffffffff
0x8aec5400911    91  488b5dd0             REX.W movq rbx,[rbp-0x30]
0x8aec5400915    95  483b23               REX.W cmpq rsp,[rbx]
0x8aec5400918    98  0f867d000000         jna 0x8aec540099b  <+0x11b>
0x8aec540091e    9e  448b040a             movl r8,[rdx+rcx*1]
0x8aec5400922    a2  3dcccccc0c           cmp rax,0xccccccc
0x8aec5400927    a7  0f8608000000         jna 0x8aec5400935  <+0xb5>
0x8aec540092d    ad  4c8bcf               REX.W movq r9,rdi
0x8aec5400930    b0  e923000000           jmp 0x8aec5400958  <+0xd8>
0x8aec5400935    b5  460fbe0c02           movsxbl r9,[rdx+r8*1]
0x8aec540093a    ba  446bd80a             imull r11,rax,0xa
0x8aec540093e    be  4183e930             subl r9,0x30
0x8aec5400942    c2  41bcffffff7f         movl r12,0x7fffffff
0x8aec5400948    c8  452be3               subl r12,r11
0x8aec540094b    cb  4503d9               addl r11,r9
0x8aec540094e    ce  453be1               cmpl r12,r9
0x8aec5400951    d1  440f4cdf             cmovll r11,rdi
0x8aec5400955    d5  4d8bcb               REX.W movq r9,r11
0x8aec5400958    d8  458d5801             leal r11,[r8+0x1]
0x8aec540095c    dc  44891c0a             movl [rdx+rcx*1],r11
0x8aec5400960    e0  410fbe441001         movsxbl rax,[r8+rdx*1+0x1]
0x8aec5400966    e6  4c894dd8             REX.W movq [rbp-0x28],r9
0x8aec540096a    ea  488b75f0             REX.W movq rsi,[rbp-0x10]
0x8aec540096e    ee  e8c476ffff           call 0x8aec53f8037  (jump table)    ;; internal wasm call
0x8aec5400973    f3  83f800               cmpl rax,0x0
0x8aec5400976    f6  7588                 jnz 0x8aec5400900  <+0x80>
0x8aec5400978    f8  488b45d8             REX.W movq rax,[rbp-0x28]
0x8aec540097c    fc  488be5               REX.W movq rsp,rbp
0x8aec540097f    ff  5d                   pop rbp
0x8aec5400980   100  c3                   retl
0x8aec5400981   101  33c0                 xorl rax,rax
0x8aec5400983   103  ebf7                 jmp 0x8aec540097c  <+0xfc>
0x8aec5400985   105  488945e0             REX.W movq [rbp-0x20],rax
0x8aec5400989   109  e8e279ffff           call 0x8aec53f8370  (jump table)    ;; wasm stub: WasmStackGuard
0x8aec540098e   10e  488b75f0             REX.W movq rsi,[rbp-0x10]
0x8aec5400992   112  488b45e0             REX.W movq rax,[rbp-0x20]
0x8aec5400996   116  e901ffffff           jmp 0x8aec540089c  <+0x1c>
0x8aec540099b   11b  488945d8             REX.W movq [rbp-0x28],rax
0x8aec540099f   11f  e8cc79ffff           call 0x8aec53f8370  (jump table)    ;; wasm stub: WasmStackGuard
0x8aec54009a4   124  488b55e8             REX.W movq rdx,[rbp-0x18]
0x8aec54009a8   128  488b4de0             REX.W movq rcx,[rbp-0x20]
0x8aec54009ac   12c  bfffffffff           movl rdi,0xffffffff
0x8aec54009b1   131  488b45d8             REX.W movq rax,[rbp-0x28]
0x8aec54009b5   135  488b5dd0             REX.W movq rbx,[rbp-0x30]
0x8aec54009b9   139  e960ffffff           jmp 0x8aec540091e  <+0x9e>
0x8aec54009be   13e  e84d77ffff           call 0x8aec53f8110  (jump table)    ;; wasm stub: ThrowWasmTrapMemOutOfBounds
0x8aec54009c3   143  e84877ffff           call 0x8aec53f8110  (jump table)    ;; wasm stub: ThrowWasmTrapMemOutOfBounds
0x8aec54009c8   148  e84377ffff           call 0x8aec53f8110  (jump table)    ;; wasm stub: ThrowWasmTrapMemOutOfBounds
0x8aec54009cd   14d  e83e77ffff           call 0x8aec53f8110  (jump table)    ;; wasm stub: ThrowWasmTrapMemOutOfBounds
0x8aec54009d2   152  e83977ffff           call 0x8aec53f8110  (jump table)    ;; wasm stub: ThrowWasmTrapMemOutOfBounds
0x8aec54009d7   157  e83477ffff           call 0x8aec53f8110  (jump table)    ;; wasm stub: ThrowWasmTrapMemOutOfBounds
0x8aec54009dc   15c  90                   nop
0x8aec54009dd   15d  0f1f00               nop

Protected instructions:
 pc offset  land pad
        e0       13e
        dc       143
        b5       148
        9e       14d
        25       152
        22       157

Source positions:
 pc offset  position
        22         9
        25        12
        29        15
        9e        28
        b5        52
        dc        91
        e0       100
        e6       103
       105         0
       11b        24
       13e       100
       143        91
       148        52
       14d        28
       152        12
       157         9

Safepoints (entries = 1, byte size = 10)
0x8aec54008b6     36  slots (sp->fp): 00000000

RelocInfo (size = 14)
0x8aec54008b2  internal wasm call
0x8aec540096f  internal wasm call
0x8aec540098a  wasm stub call
0x8aec54009a0  wasm stub call
0x8aec54009bf  wasm stub call
0x8aec54009c4  wasm stub call
0x8aec54009c9  wasm stub call
0x8aec54009ce  wasm stub call
0x8aec54009d3  wasm stub call
0x8aec54009d8  wasm stub call

--- End code ---
--- WebAssembly code ---
name: __memcpy
index: 19
kind: wasm function
compiler: TurboFan
Body (size = 1600 = 1588 + 12 padding)
Instructions (size = 1576)
0x8aec5400a00     0  55                   push rbp
0x8aec5400a01     1  4889e5               REX.W movq rbp,rsp
0x8aec5400a04     4  6a08                 push 0x8
0x8aec5400a06     6  56                   push rsi
0x8aec5400a07     7  4883ec40             REX.W subq rsp,0x40
0x8aec5400a0b     b  488b5e27             REX.W movq rbx,[rsi+0x27]
0x8aec5400a0f     f  488945e8             REX.W movq [rbp-0x18],rax
0x8aec5400a13    13  483b23               REX.W cmpq rsp,[rbx]
0x8aec5400a16    16  0f8687030000         jna 0x8aec5400da3  <+0x3a3>
0x8aec5400a1c    1c  488b7e17             REX.W movq rdi,[rsi+0x17]
0x8aec5400a20    20  81f900020000         cmpl rcx,0x200
0x8aec5400a26    26  0f8358030000         jnc 0x8aec5400d84  <+0x384>
0x8aec5400a2c    2c  448d0408             leal r8,[rax+rcx*1]
0x8aec5400a30    30  4c8bc8               REX.W movq r9,rax
0x8aec5400a33    33  4433ca               xorl r9,rdx
0x8aec5400a36    36  41f6c103             testb r9,0x3
0x8aec5400a3a    3a  0f84dd000000         jz 0x8aec5400b1d  <+0x11d>
0x8aec5400a40    40  4183f804             cmpl r8,0x4
0x8aec5400a44    44  0f82cb000000         jc 0x8aec5400b15  <+0x115>
0x8aec5400a4a    4a  458d48fc             leal r9,[r8-0x4]
0x8aec5400a4e    4e  443bc8               cmpl r9,rax
0x8aec5400a51    51  0f82b6000000         jc 0x8aec5400b0d  <+0x10d>
0x8aec5400a57    57  4c8bd8               REX.W movq r11,rax
0x8aec5400a5a    5a  660f1f840000000000   nop
0x8aec5400a63    63  660f1f840000000000   nop
0x8aec5400a6c    6c  660f1f840000000000   nop
0x8aec5400a75    75  660f1f840000000000   nop
0x8aec5400a7e    7e  6690                 nop
0x8aec5400a80    80  483b23               REX.W cmpq rsp,[rbx]
0x8aec5400a83    83  0f8644030000         jna 0x8aec5400dcd  <+0x3cd>
0x8aec5400a89    89  448d6204             leal r12,[rdx+0x4]
0x8aec5400a8d    8d  448bfa               movl r15,rdx
0x8aec5400a90    90  420fb6143f           movzxbl rdx,[rdi+r15*1]
0x8aec5400a95    95  418bcb               movl rcx,r11
0x8aec5400a98    98  88140f               movb [rdi+rcx*1],dl
0x8aec5400a9b    9b  410fb6543f01         movzxbl rdx,[r15+rdi*1+0x1]
0x8aec5400aa1    a1  88543901             movb [rcx+rdi*1+0x1],dl
0x8aec5400aa5    a5  410fb6543f02         movzxbl rdx,[r15+rdi*1+0x2]
0x8aec5400aab    ab  88543902             movb [rcx+rdi*1+0x2],dl
0x8aec5400aaf    af  450fb67c3f03         movzxbl r15,[r15+rdi*1+0x3]
0x8aec5400ab5    b5  44887c3903           movb [rcx+rdi*1+0x3],r15l
0x8aec5400aba    ba  4183c304             addl r11,0x4
0x8aec5400abe    be  453bd9               cmpl r11,r9
0x8aec5400ac1    c1  0f873b000000         ja 0x8aec5400b02  <+0x102>
0x8aec5400ac7    c7  418d542404           leal rdx,[r12+0x4]
0x8aec5400acc    cc  460fb63c27           movzxbl r15,[rdi+r12*1]
0x8aec5400ad1    d1  46883c1f             movb [rdi+r11*1],r15l
0x8aec5400ad5    d5  450fb67c3c01         movzxbl r15,[r12+rdi*1+0x1]
0x8aec5400adb    db  45887c3b01           movb [r11+rdi*1+0x1],r15l
0x8aec5400ae0    e0  450fb67c3c02         movzxbl r15,[r12+rdi*1+0x2]
0x8aec5400ae6    e6  45887c3b02           movb [r11+rdi*1+0x2],r15l
0x8aec5400aeb    eb  450fb6643c03         movzxbl r12,[r12+rdi*1+0x3]
0x8aec5400af1    f1  4588643b03           movb [r11+rdi*1+0x3],r12l
0x8aec5400af6    f6  4183c304             addl r11,0x4
0x8aec5400afa    fa  453bd9               cmpl r11,r9
0x8aec5400afd    fd  7681                 jna 0x8aec5400a80  <+0x80>
0x8aec5400aff    ff  4c8be2               REX.W movq r12,rdx
0x8aec5400b02   102  4c89e2               REX.W movq rdx,r12
0x8aec5400b05   105  4d8bcb               REX.W movq r9,r11
0x8aec5400b08   108  e9f7010000           jmp 0x8aec5400d04  <+0x304>
0x8aec5400b0d   10d  4c8bc8               REX.W movq r9,rax
0x8aec5400b10   110  e9ef010000           jmp 0x8aec5400d04  <+0x304>
0x8aec5400b15   115  4c8bc8               REX.W movq r9,rax
0x8aec5400b18   118  e9e7010000           jmp 0x8aec5400d04  <+0x304>
0x8aec5400b1d   11d  a803                 test al,0x3
0x8aec5400b1f   11f  0f848c000000         jz 0x8aec5400bb1  <+0x1b1>
0x8aec5400b25   125  83f900               cmpl rcx,0x0
0x8aec5400b28   128  0f847b000000         jz 0x8aec5400ba9  <+0x1a9>
0x8aec5400b2e   12e  4c8bc8               REX.W movq r9,rax
0x8aec5400b31   131  660f1f840000000000   nop
0x8aec5400b3a   13a  660f1f440000         nop
0x8aec5400b40   140  483b23               REX.W cmpq rsp,[rbx]
0x8aec5400b43   143  0f86c2020000         jna 0x8aec5400e0b  <+0x40b>
0x8aec5400b49   149  448d5a01             leal r11,[rdx+0x1]
0x8aec5400b4d   14d  448be2               movl r12,rdx
0x8aec5400b50   150  460fb62427           movzxbl r12,[rdi+r12*1]
0x8aec5400b55   155  458bf9               movl r15,r9
0x8aec5400b58   158  4688243f             movb [rdi+r15*1],r12l
0x8aec5400b5c   15c  4183c101             addl r9,0x1
0x8aec5400b60   160  41f6c103             testb r9,0x3
0x8aec5400b64   164  0f8437000000         jz 0x8aec5400ba1  <+0x1a1>
0x8aec5400b6a   16a  453bc8               cmpl r9,r8
0x8aec5400b6d   16d  0f8323000000         jnc 0x8aec5400b96  <+0x196>
0x8aec5400b73   173  418d5301             leal rdx,[r11+0x1]
0x8aec5400b77   177  460fb61c1f           movzxbl r11,[rdi+r11*1]
0x8aec5400b7c   17c  46881c0f             movb [rdi+r9*1],r11l
0x8aec5400b80   180  4183c101             addl r9,0x1
0x8aec5400b84   184  41f6c103             testb r9,0x3
0x8aec5400b88   188  0f8410000000         jz 0x8aec5400b9e  <+0x19e>
0x8aec5400b8e   18e  453bc8               cmpl r9,r8
0x8aec5400b91   191  72ad                 jc 0x8aec5400b40  <+0x140>
0x8aec5400b93   193  4c8bda               REX.W movq r11,rdx
0x8aec5400b96   196  498bd3               REX.W movq rdx,r11
0x8aec5400b99   199  e916000000           jmp 0x8aec5400bb4  <+0x1b4>
0x8aec5400b9e   19e  4c8bda               REX.W movq r11,rdx
0x8aec5400ba1   1a1  498bd3               REX.W movq rdx,r11
0x8aec5400ba4   1a4  e90b000000           jmp 0x8aec5400bb4  <+0x1b4>
0x8aec5400ba9   1a9  4c8bc8               REX.W movq r9,rax
0x8aec5400bac   1ac  e903000000           jmp 0x8aec5400bb4  <+0x1b4>
0x8aec5400bb1   1b1  4c8bc8               REX.W movq r9,rax
0x8aec5400bb4   1b4  4d8bd8               REX.W movq r11,r8
0x8aec5400bb7   1b7  4183e3fc             andl r11,0xfc
0x8aec5400bbb   1bb  4183fb40             cmpl r11,0x40
0x8aec5400bbf   1bf  0f82de000000         jc 0x8aec5400ca3  <+0x2a3>
0x8aec5400bc5   1c5  458d63c0             leal r12,[r11-0x40]
0x8aec5400bc9   1c9  453be1               cmpl r12,r9
0x8aec5400bcc   1cc  0f82d1000000         jc 0x8aec5400ca3  <+0x2a3>
0x8aec5400bd2   1d2  e92c000000           jmp 0x8aec5400c03  <+0x203>
0x8aec5400bd7   1d7  660f1f840000000000   nop
0x8aec5400be0   1e0  660f1f840000000000   nop
0x8aec5400be9   1e9  660f1f840000000000   nop
0x8aec5400bf2   1f2  660f1f840000000000   nop
0x8aec5400bfb   1fb  0f1f440000           nop
0x8aec5400c00   200  498bd7               REX.W movq rdx,r15
0x8aec5400c03   203  483b23               REX.W cmpq rsp,[rbx]
0x8aec5400c06   206  0f8635020000         jna 0x8aec5400e41  <+0x441>
0x8aec5400c0c   20c  448d7a40             leal r15,[rdx+0x40]
0x8aec5400c10   210  8bd2                 movl rdx,rdx
0x8aec5400c12   212  8b0c17               movl rcx,[rdi+rdx*1]
0x8aec5400c15   215  418bf1               movl rsi,r9
0x8aec5400c18   218  890c37               movl [rdi+rsi*1],rcx
0x8aec5400c1b   21b  8b4c3a04             movl rcx,[rdx+rdi*1+0x4]
0x8aec5400c1f   21f  894c3e04             movl [rsi+rdi*1+0x4],rcx
0x8aec5400c23   223  8b4c3a08             movl rcx,[rdx+rdi*1+0x8]
0x8aec5400c27   227  894c3e08             movl [rsi+rdi*1+0x8],rcx
0x8aec5400c2b   22b  8b4c3a0c             movl rcx,[rdx+rdi*1+0xc]
0x8aec5400c2f   22f  894c3e0c             movl [rsi+rdi*1+0xc],rcx
0x8aec5400c33   233  8b4c3a10             movl rcx,[rdx+rdi*1+0x10]
0x8aec5400c37   237  894c3e10             movl [rsi+rdi*1+0x10],rcx
0x8aec5400c3b   23b  8b4c3a14             movl rcx,[rdx+rdi*1+0x14]
0x8aec5400c3f   23f  894c3e14             movl [rsi+rdi*1+0x14],rcx
0x8aec5400c43   243  8b4c3a18             movl rcx,[rdx+rdi*1+0x18]
0x8aec5400c47   247  894c3e18             movl [rsi+rdi*1+0x18],rcx
0x8aec5400c4b   24b  8b4c3a1c             movl rcx,[rdx+rdi*1+0x1c]
0x8aec5400c4f   24f  894c3e1c             movl [rsi+rdi*1+0x1c],rcx
0x8aec5400c53   253  8b4c3a20             movl rcx,[rdx+rdi*1+0x20]
0x8aec5400c57   257  894c3e20             movl [rsi+rdi*1+0x20],rcx
0x8aec5400c5b   25b  8b4c3a24             movl rcx,[rdx+rdi*1+0x24]
0x8aec5400c5f   25f  894c3e24             movl [rsi+rdi*1+0x24],rcx
0x8aec5400c63   263  8b4c3a28             movl rcx,[rdx+rdi*1+0x28]
0x8aec5400c67   267  894c3e28             movl [rsi+rdi*1+0x28],rcx
0x8aec5400c6b   26b  8b4c3a2c             movl rcx,[rdx+rdi*1+0x2c]
0x8aec5400c6f   26f  894c3e2c             movl [rsi+rdi*1+0x2c],rcx
0x8aec5400c73   273  8b4c3a30             movl rcx,[rdx+rdi*1+0x30]
0x8aec5400c77   277  894c3e30             movl [rsi+rdi*1+0x30],rcx
0x8aec5400c7b   27b  8b4c3a34             movl rcx,[rdx+rdi*1+0x34]
0x8aec5400c7f   27f  894c3e34             movl [rsi+rdi*1+0x34],rcx
0x8aec5400c83   283  8b4c3a38             movl rcx,[rdx+rdi*1+0x38]
0x8aec5400c87   287  894c3e38             movl [rsi+rdi*1+0x38],rcx
0x8aec5400c8b   28b  8b543a3c             movl rdx,[rdx+rdi*1+0x3c]
0x8aec5400c8f   28f  89543e3c             movl [rsi+rdi*1+0x3c],rdx
0x8aec5400c93   293  4183c140             addl r9,0x40
0x8aec5400c97   297  4539e1               cmpl r9,r12
0x8aec5400c9a   29a  0f8660ffffff         jna 0x8aec5400c00  <+0x200>
0x8aec5400ca0   2a0  498bd7               REX.W movq rdx,r15
0x8aec5400ca3   2a3  453bd9               cmpl r11,r9
0x8aec5400ca6   2a6  0f8658000000         jna 0x8aec5400d04  <+0x304>
0x8aec5400cac   2ac  660f1f840000000000   nop
0x8aec5400cb5   2b5  660f1f840000000000   nop
0x8aec5400cbe   2be  6690                 nop
0x8aec5400cc0   2c0  483b23               REX.W cmpq rsp,[rbx]
0x8aec5400cc3   2c3  0f86be010000         jna 0x8aec5400e87  <+0x487>
0x8aec5400cc9   2c9  448d6204             leal r12,[rdx+0x4]
0x8aec5400ccd   2cd  448bfa               movl r15,rdx
0x8aec5400cd0   2d0  468b3c3f             movl r15,[rdi+r15*1]
0x8aec5400cd4   2d4  418bd1               movl rdx,r9
0x8aec5400cd7   2d7  44893c17             movl [rdi+rdx*1],r15
0x8aec5400cdb   2db  4183c104             addl r9,0x4
0x8aec5400cdf   2df  453bcb               cmpl r9,r11
0x8aec5400ce2   2e2  0f8319000000         jnc 0x8aec5400d01  <+0x301>
0x8aec5400ce8   2e8  418d542404           leal rdx,[r12+0x4]
0x8aec5400ced   2ed  468b2427             movl r12,[rdi+r12*1]
0x8aec5400cf1   2f1  4689240f             movl [rdi+r9*1],r12
0x8aec5400cf5   2f5  4183c104             addl r9,0x4
0x8aec5400cf9   2f9  453bcb               cmpl r9,r11
0x8aec5400cfc   2fc  72c2                 jc 0x8aec5400cc0  <+0x2c0>
0x8aec5400cfe   2fe  4c8be2               REX.W movq r12,rdx
0x8aec5400d01   301  4c89e2               REX.W movq rdx,r12
0x8aec5400d04   304  453bc8               cmpl r9,r8
0x8aec5400d07   307  0f8237000000         jc 0x8aec5400d44  <+0x344>
0x8aec5400d0d   30d  e96d000000           jmp 0x8aec5400d7f  <+0x37f>
0x8aec5400d12   312  660f1f840000000000   nop
0x8aec5400d1b   31b  660f1f840000000000   nop
0x8aec5400d24   324  660f1f840000000000   nop
0x8aec5400d2d   32d  660f1f840000000000   nop
0x8aec5400d36   336  660f1f840000000000   nop
0x8aec5400d3f   33f  90                   nop
0x8aec5400d40   340  418d5301             leal rdx,[r11+0x1]
0x8aec5400d44   344  483b23               REX.W cmpq rsp,[rbx]
0x8aec5400d47   347  0f8678010000         jna 0x8aec5400ec5  <+0x4c5>
0x8aec5400d4d   34d  448bda               movl r11,rdx
0x8aec5400d50   350  460fb61c1f           movzxbl r11,[rdi+r11*1]
0x8aec5400d55   355  458be1               movl r12,r9
0x8aec5400d58   358  46881c27             movb [rdi+r12*1],r11l
0x8aec5400d5c   35c  4183c101             addl r9,0x1
0x8aec5400d60   360  453bc8               cmpl r9,r8
0x8aec5400d63   363  0f8416000000         jz 0x8aec5400d7f  <+0x37f>
0x8aec5400d69   369  448d5a01             leal r11,[rdx+0x1]
0x8aec5400d6d   36d  460fb6241f           movzxbl r12,[rdi+r11*1]
0x8aec5400d72   372  4688240f             movb [rdi+r9*1],r12l
0x8aec5400d76   376  4183c101             addl r9,0x1
0x8aec5400d7a   37a  453bc1               cmpl r8,r9
0x8aec5400d7d   37d  75c1                 jnz 0x8aec5400d40  <+0x340>
0x8aec5400d7f   37f  488be5               REX.W movq rsp,rbp
0x8aec5400d82   382  5d                   pop rbp
0x8aec5400d83   383  c3                   retl
0x8aec5400d84   384  8b5e0b               movl rbx,[rsi+0xb]
0x8aec5400d87   387  4903de               REX.W addq rbx,r14
0x8aec5400d8a   38a  8b5b0f               movl rbx,[rbx+0xf]
0x8aec5400d8d   38d  4903de               REX.W addq rbx,r14
0x8aec5400d90   390  488b7e2f             REX.W movq rdi,[rsi+0x2f]
0x8aec5400d94   394  488b7f10             REX.W movq rdi,[rdi+0x10]
0x8aec5400d98   398  488bf3               REX.W movq rsi,rbx
0x8aec5400d9b   39b  ffd7                 call rdi
0x8aec5400d9d   39d  488b45e8             REX.W movq rax,[rbp-0x18]
0x8aec5400da1   3a1  ebdc                 jmp 0x8aec5400d7f  <+0x37f>
0x8aec5400da3   3a3  488955e0             REX.W movq [rbp-0x20],rdx
0x8aec5400da7   3a7  48894dd8             REX.W movq [rbp-0x28],rcx
0x8aec5400dab   3ab  48895dc0             REX.W movq [rbp-0x40],rbx
0x8aec5400daf   3af  e8bc75ffff           call 0x8aec53f8370  (jump table)    ;; wasm stub: WasmStackGuard
0x8aec5400db4   3b4  488b45e8             REX.W movq rax,[rbp-0x18]
0x8aec5400db8   3b8  488b55e0             REX.W movq rdx,[rbp-0x20]
0x8aec5400dbc   3bc  488b4dd8             REX.W movq rcx,[rbp-0x28]
0x8aec5400dc0   3c0  488b75f0             REX.W movq rsi,[rbp-0x10]
0x8aec5400dc4   3c4  488b5dc0             REX.W movq rbx,[rbp-0x40]
0x8aec5400dc8   3c8  e94ffcffff           jmp 0x8aec5400a1c  <+0x1c>
0x8aec5400dcd   3cd  4c8945d0             REX.W movq [rbp-0x30],r8
0x8aec5400dd1   3d1  48897dc8             REX.W movq [rbp-0x38],rdi
0x8aec5400dd5   3d5  48895dc0             REX.W movq [rbp-0x40],rbx
0x8aec5400dd9   3d9  4c894dd8             REX.W movq [rbp-0x28],r9
0x8aec5400ddd   3dd  4c895db0             REX.W movq [rbp-0x50],r11
0x8aec5400de1   3e1  488955e0             REX.W movq [rbp-0x20],rdx
0x8aec5400de5   3e5  e88675ffff           call 0x8aec53f8370  (jump table)    ;; wasm stub: WasmStackGuard
0x8aec5400dea   3ea  488b45e8             REX.W movq rax,[rbp-0x18]
0x8aec5400dee   3ee  4c8b45d0             REX.W movq r8,[rbp-0x30]
0x8aec5400df2   3f2  488b7dc8             REX.W movq rdi,[rbp-0x38]
0x8aec5400df6   3f6  488b5dc0             REX.W movq rbx,[rbp-0x40]
0x8aec5400dfa   3fa  4c8b4dd8             REX.W movq r9,[rbp-0x28]
0x8aec5400dfe   3fe  4c8b5db0             REX.W movq r11,[rbp-0x50]
0x8aec5400e02   402  488b55e0             REX.W movq rdx,[rbp-0x20]
0x8aec5400e06   406  e97efcffff           jmp 0x8aec5400a89  <+0x89>
0x8aec5400e0b   40b  4c8945d0             REX.W movq [rbp-0x30],r8
0x8aec5400e0f   40f  48897dc8             REX.W movq [rbp-0x38],rdi
0x8aec5400e13   413  48895dc0             REX.W movq [rbp-0x40],rbx
0x8aec5400e17   417  4c894db0             REX.W movq [rbp-0x50],r9
0x8aec5400e1b   41b  488955e0             REX.W movq [rbp-0x20],rdx
0x8aec5400e1f   41f  e84c75ffff           call 0x8aec53f8370  (jump table)    ;; wasm stub: WasmStackGuard
0x8aec5400e24   424  488b45e8             REX.W movq rax,[rbp-0x18]
0x8aec5400e28   428  4c8b45d0             REX.W movq r8,[rbp-0x30]
0x8aec5400e2c   42c  488b7dc8             REX.W movq rdi,[rbp-0x38]
0x8aec5400e30   430  488b5dc0             REX.W movq rbx,[rbp-0x40]
0x8aec5400e34   434  4c8b4db0             REX.W movq r9,[rbp-0x50]
0x8aec5400e38   438  488b55e0             REX.W movq rdx,[rbp-0x20]
0x8aec5400e3c   43c  e908fdffff           jmp 0x8aec5400b49  <+0x149>
0x8aec5400e41   441  4c8945d0             REX.W movq [rbp-0x30],r8
0x8aec5400e45   445  48897dc8             REX.W movq [rbp-0x38],rdi
0x8aec5400e49   449  48895dc0             REX.W movq [rbp-0x40],rbx
0x8aec5400e4d   44d  4c895de0             REX.W movq [rbp-0x20],r11
0x8aec5400e51   451  4c8965d8             REX.W movq [rbp-0x28],r12
0x8aec5400e55   455  4c894db0             REX.W movq [rbp-0x50],r9
0x8aec5400e59   459  488955b8             REX.W movq [rbp-0x48],rdx
0x8aec5400e5d   45d  e80e75ffff           call 0x8aec53f8370  (jump table)    ;; wasm stub: WasmStackGuard
0x8aec5400e62   462  488b45e8             REX.W movq rax,[rbp-0x18]
0x8aec5400e66   466  4c8b45d0             REX.W movq r8,[rbp-0x30]
0x8aec5400e6a   46a  488b7dc8             REX.W movq rdi,[rbp-0x38]
0x8aec5400e6e   46e  488b5dc0             REX.W movq rbx,[rbp-0x40]
0x8aec5400e72   472  4c8b5de0             REX.W movq r11,[rbp-0x20]
0x8aec5400e76   476  4c8b65d8             REX.W movq r12,[rbp-0x28]
0x8aec5400e7a   47a  4c8b4db0             REX.W movq r9,[rbp-0x50]
0x8aec5400e7e   47e  488b55b8             REX.W movq rdx,[rbp-0x48]
0x8aec5400e82   482  e985fdffff           jmp 0x8aec5400c0c  <+0x20c>
0x8aec5400e87   487  4c8945d0             REX.W movq [rbp-0x30],r8
0x8aec5400e8b   48b  48897dc8             REX.W movq [rbp-0x38],rdi
0x8aec5400e8f   48f  48895dc0             REX.W movq [rbp-0x40],rbx
0x8aec5400e93   493  4c895de0             REX.W movq [rbp-0x20],r11
0x8aec5400e97   497  4c894db0             REX.W movq [rbp-0x50],r9
0x8aec5400e9b   49b  488955d8             REX.W movq [rbp-0x28],rdx
0x8aec5400e9f   49f  e8cc74ffff           call 0x8aec53f8370  (jump table)    ;; wasm stub: WasmStackGuard
0x8aec5400ea4   4a4  488b45e8             REX.W movq rax,[rbp-0x18]
0x8aec5400ea8   4a8  4c8b45d0             REX.W movq r8,[rbp-0x30]
0x8aec5400eac   4ac  488b7dc8             REX.W movq rdi,[rbp-0x38]
0x8aec5400eb0   4b0  488b5dc0             REX.W movq rbx,[rbp-0x40]
0x8aec5400eb4   4b4  4c8b5de0             REX.W movq r11,[rbp-0x20]
0x8aec5400eb8   4b8  4c8b4db0             REX.W movq r9,[rbp-0x50]
0x8aec5400ebc   4bc  488b55d8             REX.W movq rdx,[rbp-0x28]
0x8aec5400ec0   4c0  e904feffff           jmp 0x8aec5400cc9  <+0x2c9>
0x8aec5400ec5   4c5  4c8945d0             REX.W movq [rbp-0x30],r8
0x8aec5400ec9   4c9  48897dc8             REX.W movq [rbp-0x38],rdi
0x8aec5400ecd   4cd  488955e0             REX.W movq [rbp-0x20],rdx
0x8aec5400ed1   4d1  4c894db0             REX.W movq [rbp-0x50],r9
0x8aec5400ed5   4d5  48895dc0             REX.W movq [rbp-0x40],rbx
0x8aec5400ed9   4d9  e89274ffff           call 0x8aec53f8370  (jump table)    ;; wasm stub: WasmStackGuard
0x8aec5400ede   4de  488b45e8             REX.W movq rax,[rbp-0x18]
0x8aec5400ee2   4e2  4c8b45d0             REX.W movq r8,[rbp-0x30]
0x8aec5400ee6   4e6  488b7dc8             REX.W movq rdi,[rbp-0x38]
0x8aec5400eea   4ea  488b55e0             REX.W movq rdx,[rbp-0x20]
0x8aec5400eee   4ee  4c8b4db0             REX.W movq r9,[rbp-0x50]
0x8aec5400ef2   4f2  488b5dc0             REX.W movq rbx,[rbp-0x40]
0x8aec5400ef6   4f6  e952feffff           jmp 0x8aec5400d4d  <+0x34d>
0x8aec5400efb   4fb  e81072ffff           call 0x8aec53f8110  (jump table)    ;; wasm stub: ThrowWasmTrapMemOutOfBounds
0x8aec5400f00   500  e80b72ffff           call 0x8aec53f8110  (jump table)    ;; wasm stub: ThrowWasmTrapMemOutOfBounds
0x8aec5400f05   505  e80672ffff           call 0x8aec53f8110  (jump table)    ;; wasm stub: ThrowWasmTrapMemOutOfBounds
0x8aec5400f0a   50a  e80172ffff           call 0x8aec53f8110  (jump table)    ;; wasm stub: ThrowWasmTrapMemOutOfBounds
0x8aec5400f0f   50f  e8fc71ffff           call 0x8aec53f8110  (jump table)    ;; wasm stub: ThrowWasmTrapMemOutOfBounds
0x8aec5400f14   514  e8f771ffff           call 0x8aec53f8110  (jump table)    ;; wasm stub: ThrowWasmTrapMemOutOfBounds
0x8aec5400f19   519  e8f271ffff           call 0x8aec53f8110  (jump table)    ;; wasm stub: ThrowWasmTrapMemOutOfBounds
0x8aec5400f1e   51e  e8ed71ffff           call 0x8aec53f8110  (jump table)    ;; wasm stub: ThrowWasmTrapMemOutOfBounds
0x8aec5400f23   523  e8e871ffff           call 0x8aec53f8110  (jump table)    ;; wasm stub: ThrowWasmTrapMemOutOfBounds
0x8aec5400f28   528  e8e371ffff           call 0x8aec53f8110  (jump table)    ;; wasm stub: ThrowWasmTrapMemOutOfBounds
0x8aec5400f2d   52d  e8de71ffff           call 0x8aec53f8110  (jump table)    ;; wasm stub: ThrowWasmTrapMemOutOfBounds
0x8aec5400f32   532  e8d971ffff           call 0x8aec53f8110  (jump table)    ;; wasm stub: ThrowWasmTrapMemOutOfBounds
0x8aec5400f37   537  e8d471ffff           call 0x8aec53f8110  (jump table)    ;; wasm stub: ThrowWasmTrapMemOutOfBounds
0x8aec5400f3c   53c  e8cf71ffff           call 0x8aec53f8110  (jump table)    ;; wasm stub: ThrowWasmTrapMemOutOfBounds
0x8aec5400f41   541  e8ca71ffff           call 0x8aec53f8110  (jump table)    ;; wasm stub: ThrowWasmTrapMemOutOfBounds
0x8aec5400f46   546  e8c571ffff           call 0x8aec53f8110  (jump table)    ;; wasm stub: ThrowWasmTrapMemOutOfBounds
0x8aec5400f4b   54b  e8c071ffff           call 0x8aec53f8110  (jump table)    ;; wasm stub: ThrowWasmTrapMemOutOfBounds
0x8aec5400f50   550  e8bb71ffff           call 0x8aec53f8110  (jump table)    ;; wasm stub: ThrowWasmTrapMemOutOfBounds
0x8aec5400f55   555  e8b671ffff           call 0x8aec53f8110  (jump table)    ;; wasm stub: ThrowWasmTrapMemOutOfBounds
0x8aec5400f5a   55a  e8b171ffff           call 0x8aec53f8110  (jump table)    ;; wasm stub: ThrowWasmTrapMemOutOfBounds
0x8aec5400f5f   55f  e8ac71ffff           call 0x8aec53f8110  (jump table)    ;; wasm stub: ThrowWasmTrapMemOutOfBounds
0x8aec5400f64   564  e8a771ffff           call 0x8aec53f8110  (jump table)    ;; wasm stub: ThrowWasmTrapMemOutOfBounds
0x8aec5400f69   569  e8a271ffff           call 0x8aec53f8110  (jump table)    ;; wasm stub: ThrowWasmTrapMemOutOfBounds
0x8aec5400f6e   56e  e89d71ffff           call 0x8aec53f8110  (jump table)    ;; wasm stub: ThrowWasmTrapMemOutOfBounds
0x8aec5400f73   573  e89871ffff           call 0x8aec53f8110  (jump table)    ;; wasm stub: ThrowWasmTrapMemOutOfBounds
0x8aec5400f78   578  e89371ffff           call 0x8aec53f8110  (jump table)    ;; wasm stub: ThrowWasmTrapMemOutOfBounds
0x8aec5400f7d   57d  e88e71ffff           call 0x8aec53f8110  (jump table)    ;; wasm stub: ThrowWasmTrapMemOutOfBounds
0x8aec5400f82   582  e88971ffff           call 0x8aec53f8110  (jump table)    ;; wasm stub: ThrowWasmTrapMemOutOfBounds
0x8aec5400f87   587  e88471ffff           call 0x8aec53f8110  (jump table)    ;; wasm stub: ThrowWasmTrapMemOutOfBounds
0x8aec5400f8c   58c  e87f71ffff           call 0x8aec53f8110  (jump table)    ;; wasm stub: ThrowWasmTrapMemOutOfBounds
0x8aec5400f91   591  e87a71ffff           call 0x8aec53f8110  (jump table)    ;; wasm stub: ThrowWasmTrapMemOutOfBounds
0x8aec5400f96   596  e87571ffff           call 0x8aec53f8110  (jump table)    ;; wasm stub: ThrowWasmTrapMemOutOfBounds
0x8aec5400f9b   59b  e87071ffff           call 0x8aec53f8110  (jump table)    ;; wasm stub: ThrowWasmTrapMemOutOfBounds
0x8aec5400fa0   5a0  e86b71ffff           call 0x8aec53f8110  (jump table)    ;; wasm stub: ThrowWasmTrapMemOutOfBounds
0x8aec5400fa5   5a5  e86671ffff           call 0x8aec53f8110  (jump table)    ;; wasm stub: ThrowWasmTrapMemOutOfBounds
0x8aec5400faa   5aa  e86171ffff           call 0x8aec53f8110  (jump table)    ;; wasm stub: ThrowWasmTrapMemOutOfBounds
0x8aec5400faf   5af  e85c71ffff           call 0x8aec53f8110  (jump table)    ;; wasm stub: ThrowWasmTrapMemOutOfBounds
0x8aec5400fb4   5b4  e85771ffff           call 0x8aec53f8110  (jump table)    ;; wasm stub: ThrowWasmTrapMemOutOfBounds
0x8aec5400fb9   5b9  e85271ffff           call 0x8aec53f8110  (jump table)    ;; wasm stub: ThrowWasmTrapMemOutOfBounds
0x8aec5400fbe   5be  e84d71ffff           call 0x8aec53f8110  (jump table)    ;; wasm stub: ThrowWasmTrapMemOutOfBounds
0x8aec5400fc3   5c3  e84871ffff           call 0x8aec53f8110  (jump table)    ;; wasm stub: ThrowWasmTrapMemOutOfBounds
0x8aec5400fc8   5c8  e84371ffff           call 0x8aec53f8110  (jump table)    ;; wasm stub: ThrowWasmTrapMemOutOfBounds
0x8aec5400fcd   5cd  e83e71ffff           call 0x8aec53f8110  (jump table)    ;; wasm stub: ThrowWasmTrapMemOutOfBounds
0x8aec5400fd2   5d2  e83971ffff           call 0x8aec53f8110  (jump table)    ;; wasm stub: ThrowWasmTrapMemOutOfBounds
0x8aec5400fd7   5d7  e83471ffff           call 0x8aec53f8110  (jump table)    ;; wasm stub: ThrowWasmTrapMemOutOfBounds
0x8aec5400fdc   5dc  e82f71ffff           call 0x8aec53f8110  (jump table)    ;; wasm stub: ThrowWasmTrapMemOutOfBounds
0x8aec5400fe1   5e1  e82a71ffff           call 0x8aec53f8110  (jump table)    ;; wasm stub: ThrowWasmTrapMemOutOfBounds
0x8aec5400fe6   5e6  e82571ffff           call 0x8aec53f8110  (jump table)    ;; wasm stub: ThrowWasmTrapMemOutOfBounds
0x8aec5400feb   5eb  e82071ffff           call 0x8aec53f8110  (jump table)    ;; wasm stub: ThrowWasmTrapMemOutOfBounds
0x8aec5400ff0   5f0  e81b71ffff           call 0x8aec53f8110  (jump table)    ;; wasm stub: ThrowWasmTrapMemOutOfBounds
0x8aec5400ff5   5f5  e81671ffff           call 0x8aec53f8110  (jump table)    ;; wasm stub: ThrowWasmTrapMemOutOfBounds
0x8aec5400ffa   5fa  e81171ffff           call 0x8aec53f8110  (jump table)    ;; wasm stub: ThrowWasmTrapMemOutOfBounds
0x8aec5400fff   5ff  e80c71ffff           call 0x8aec53f8110  (jump table)    ;; wasm stub: ThrowWasmTrapMemOutOfBounds
0x8aec5401004   604  e80771ffff           call 0x8aec53f8110  (jump table)    ;; wasm stub: ThrowWasmTrapMemOutOfBounds
0x8aec5401009   609  e80271ffff           call 0x8aec53f8110  (jump table)    ;; wasm stub: ThrowWasmTrapMemOutOfBounds
0x8aec540100e   60e  e8fd70ffff           call 0x8aec53f8110  (jump table)    ;; wasm stub: ThrowWasmTrapMemOutOfBounds
0x8aec5401013   613  e8f870ffff           call 0x8aec53f8110  (jump table)    ;; wasm stub: ThrowWasmTrapMemOutOfBounds
0x8aec5401018   618  e8f370ffff           call 0x8aec53f8110  (jump table)    ;; wasm stub: ThrowWasmTrapMemOutOfBounds
0x8aec540101d   61d  e8ee70ffff           call 0x8aec53f8110  (jump table)    ;; wasm stub: ThrowWasmTrapMemOutOfBounds
0x8aec5401022   622  e8e970ffff           call 0x8aec53f8110  (jump table)    ;; wasm stub: ThrowWasmTrapMemOutOfBounds
0x8aec5401027   627  90                   nop

Protected instructions:
 pc offset  land pad
       372       4fb
       36d       500
       358       505
       350       50a
       2f1       50f
       2ed       514
       2d7       519
       2d0       51e
       28f       523
       28b       528
       287       52d
       283       532
       27f       537
       27b       53c
       277       541
       273       546
       26f       54b
       26b       550
       267       555
       263       55a
       25f       55f
       25b       564
       257       569
       253       56e
       24f       573
       24b       578
       247       57d
       243       582
       23f       587
       23b       58c
       237       591
       233       596
       22f       59b
       22b       5a0
       227       5a5
       223       5aa
       21f       5af
       21b       5b4
       218       5b9
       212       5be
       17c       5c3
       177       5c8
       158       5cd
       150       5d2
        f1       5d7
        eb       5dc
        e6       5e1
        e0       5e6
        db       5eb
        d5       5f0
        d1       5f5
        cc       5fa
        b5       5ff
        af       604
        ab       609
        a5       60e
        a1       613
        9b       618
        98       61d
        90       622

Source positions:
 pc offset  position
        90       417
        98       420
        9b       427
        a1       430
        a5       437
        ab       440
        af       447
        b5       450
        cc       417
        d1       420
        d5       427
        db       430
        e0       437
        e6       440
        eb       447
        f1       450
       150        87
       158        90
       177        87
       17c        90
       212       155
       218       158
       21b       165
       21f       168
       223       175
       227       178
       22b       185
       22f       188
       233       195
       237       198
       23b       205
       23f       208
       243       215
       247       218
       24b       225
       24f       228
       253       235
       257       238
       25b       245
       25f       248
       263       255
       267       258
       26b       265
       26f       268
       273       275
       277       278
       27b       285
       27f       288
       283       295
       287       298
       28b       305
       28f       308
       2d0       345
       2d7       348
       2ed       345
       2f1       348
       350       487
       358       490
       36d       487
       372       490
       398        21
       3a3         0
       3cd       411
       40b        81
       441       149
       487       339
       4c5       481
       4fb       490
       500       487
       505       490
       50a       487
       50f       348
       514       345
       519       348
       51e       345
       523       308
       528       305
       52d       298
       532       295
       537       288
       53c       285
       541       278
       546       275
       54b       268
       550       265
       555       258
       55a       255
       55f       248
       564       245
       569       238
       56e       235
       573       228
       578       225
       57d       218
       582       215
       587       208
       58c       205
       591       198
       596       195
       59b       188
       5a0       185
       5a5       178
       5aa       175
       5af       168
       5b4       165
       5b9       158
       5be       155
       5c3        90
       5c8        87
       5cd        90
       5d2        87
       5d7       450
       5dc       447
       5e1       440
       5e6       437
       5eb       430
       5f0       427
       5f5       420
       5fa       417
       5ff       450
       604       447
       609       440
       60e       437
       613       430
       618       427
       61d       420
       622       417

Safepoints (entries = 1, byte size = 12)
0x8aec5400d9d    39d  slots (sp->fp): 0000000000000000

RelocInfo (size = 70)
0x8aec5400db0  wasm stub call
0x8aec5400de6  wasm stub call
0x8aec5400e20  wasm stub call
0x8aec5400e5e  wasm stub call
0x8aec5400ea0  wasm stub call
0x8aec5400eda  wasm stub call
0x8aec5400efc  wasm stub call
0x8aec5400f01  wasm stub call
0x8aec5400f06  wasm stub call
0x8aec5400f0b  wasm stub call
0x8aec5400f10  wasm stub call
0x8aec5400f15  wasm stub call
0x8aec5400f1a  wasm stub call
0x8aec5400f1f  wasm stub call
0x8aec5400f24  wasm stub call
0x8aec5400f29  wasm stub call
0x8aec5400f2e  wasm stub call
0x8aec5400f33  wasm stub call
0x8aec5400f38  wasm stub call
0x8aec5400f3d  wasm stub call
0x8aec5400f42  wasm stub call
0x8aec5400f47  wasm stub call
0x8aec5400f4c  wasm stub call
0x8aec5400f51  wasm stub call
0x8aec5400f56  wasm stub call
0x8aec5400f5b  wasm stub call
0x8aec5400f60  wasm stub call
0x8aec5400f65  wasm stub call
0x8aec5400f6a  wasm stub call
0x8aec5400f6f  wasm stub call
0x8aec5400f74  wasm stub call
0x8aec5400f79  wasm stub call
0x8aec5400f7e  wasm stub call
0x8aec5400f83  wasm stub call
0x8aec5400f88  wasm stub call
0x8aec5400f8d  wasm stub call
0x8aec5400f92  wasm stub call
0x8aec5400f97  wasm stub call
0x8aec5400f9c  wasm stub call
0x8aec5400fa1  wasm stub call
0x8aec5400fa6  wasm stub call
0x8aec5400fab  wasm stub call
0x8aec5400fb0  wasm stub call
0x8aec5400fb5  wasm stub call
0x8aec5400fba  wasm stub call
0x8aec5400fbf  wasm stub call
0x8aec5400fc4  wasm stub call
0x8aec5400fc9  wasm stub call
0x8aec5400fce  wasm stub call
0x8aec5400fd3  wasm stub call
0x8aec5400fd8  wasm stub call
0x8aec5400fdd  wasm stub call
0x8aec5400fe2  wasm stub call
0x8aec5400fe7  wasm stub call
0x8aec5400fec  wasm stub call
0x8aec5400ff1  wasm stub call
0x8aec5400ff6  wasm stub call
0x8aec5400ffb  wasm stub call
0x8aec5401000  wasm stub call
0x8aec5401005  wasm stub call
0x8aec540100a  wasm stub call
0x8aec540100f  wasm stub call
0x8aec5401014  wasm stub call
0x8aec5401019  wasm stub call
0x8aec540101e  wasm stub call
0x8aec5401023  wasm stub call

--- End code ---
--- WebAssembly code ---
name: __emscripten_stdout_close
index: 9
kind: wasm function
compiler: Liftoff
Body (size = 64 = 60 + 4 padding)
Instructions (size = 48)
0x8aec53fa740     0  55                   push rbp
0x8aec53fa741     1  4889e5               REX.W movq rbp,rsp
0x8aec53fa744     4  6a08                 push 0x8
0x8aec53fa746     6  56                   push rsi
0x8aec53fa747     7  4881ec18000000       REX.W subq rsp,0x18
0x8aec53fa74e     e  488b4e27             REX.W movq rcx,[rsi+0x27]
0x8aec53fa752    12  483b21               REX.W cmpq rsp,[rcx]
0x8aec53fa755    15  0f8607000000         jna 0x8aec53fa762  <+0x22>
0x8aec53fa75b    1b  33c0                 xorl rax,rax
0x8aec53fa75d    1d  488be5               REX.W movq rsp,rbp
0x8aec53fa760    20  5d                   pop rbp
0x8aec53fa761    21  c3                   retl
0x8aec53fa762    22  50                   push rax
0x8aec53fa763    23  e808dcffff           call 0x8aec53f8370  (jump table)
0x8aec53fa768    28  58                   pop rax
0x8aec53fa769    29  488b75f0             REX.W movq rsi,[rbp-0x10]
0x8aec53fa76d    2d  ebec                 jmp 0x8aec53fa75b  <+0x1b>
0x8aec53fa76f    2f  90                   nop

Source positions:
 pc offset  position
        23         0  statement

Safepoints (entries = 1, byte size = 10)
0x8aec53fa768     28  slots (sp->fp): 00000000

RelocInfo (size = 0)

--- End code ---
--- WebAssembly code ---
name: __unlockfile
index: 13
kind: wasm function
compiler: TurboFan
Body (size = 64 = 24 + 40 padding)
Instructions (size = 16)
0x8aec5401340     0  55                   push rbp
0x8aec5401341     1  4889e5               REX.W movq rbp,rsp
0x8aec5401344     4  6a08                 push 0x8
0x8aec5401346     6  56                   push rsi
0x8aec5401347     7  488be5               REX.W movq rsp,rbp
0x8aec540134a     a  5d                   pop rbp
0x8aec540134b     b  c3                   retl
0x8aec540134c     c  90                   nop
0x8aec540134d     d  0f1f00               nop

Safepoints (entries = 0, byte size = 8)

RelocInfo (size = 0)

--- End code ---
--- WebAssembly code ---
name: __memcpy
index: 19
kind: wasm function
compiler: Liftoff
Body (size = 1408 = 1396 + 12 padding)
Instructions (size = 1384)
0x8aec53fbdc0     0  55                   push rbp
0x8aec53fbdc1     1  4889e5               REX.W movq rbp,rsp
0x8aec53fbdc4     4  6a08                 push 0x8
0x8aec53fbdc6     6  56                   push rsi
0x8aec53fbdc7     7  4881ec38000000       REX.W subq rsp,0x38
0x8aec53fbdce     e  488b5e27             REX.W movq rbx,[rsi+0x27]
0x8aec53fbdd2    12  483b23               REX.W cmpq rsp,[rbx]
0x8aec53fbdd5    15  0f860a040000         jna 0x8aec53fc1e5  <+0x425>
0x8aec53fbddb    1b  81f900020000         cmpl rcx,0x200
0x8aec53fbde1    21  0f822a000000         jc 0x8aec53fbe11  <+0x51>
0x8aec53fbde7    27  488b5e2f             REX.W movq rbx,[rsi+0x2f]
0x8aec53fbdeb    2b  488b7b10             REX.W movq rdi,[rbx+0x10]
0x8aec53fbdef    2f  8b5e0b               movl rbx,[rsi+0xb]
0x8aec53fbdf2    32  4903de               REX.W addq rbx,r14
0x8aec53fbdf5    35  8b5b0f               movl rbx,[rbx+0xf]
0x8aec53fbdf8    38  4903de               REX.W addq rbx,r14
0x8aec53fbdfb    3b  894dcc               movl [rbp-0x34],rcx
0x8aec53fbdfe    3e  8955d0               movl [rbp-0x30],rdx
0x8aec53fbe01    41  8945d4               movl [rbp-0x2c],rax
0x8aec53fbe04    44  488bf3               REX.W movq rsi,rbx
0x8aec53fbe07    47  ffd7                 call rdi
0x8aec53fbe09    49  8b45d4               movl rax,[rbp-0x2c]
0x8aec53fbe0c    4c  488be5               REX.W movq rsp,rbp
0x8aec53fbe0f    4f  5d                   pop rbp
0x8aec53fbe10    50  c3                   retl
0x8aec53fbe11    51  8d1c08               leal rbx,[rax+rcx*1]
0x8aec53fbe14    54  8bf8                 movl rdi,rax
0x8aec53fbe16    56  33fa                 xorl rdi,rdx
0x8aec53fbe18    58  83e703               andl rdi,0x3
0x8aec53fbe1b    5b  85ff                 testl rdi,rdi
0x8aec53fbe1d    5d  0f858c020000         jnz 0x8aec53fc0af  <+0x2ef>
0x8aec53fbe23    63  8bf8                 movl rdi,rax
0x8aec53fbe25    65  83e703               andl rdi,0x3
0x8aec53fbe28    68  85ff                 testl rdi,rdi
0x8aec53fbe2a    6a  0f850c000000         jnz 0x8aec53fbe3c  <+0x7c>
0x8aec53fbe30    70  8bc8                 movl rcx,rax
0x8aec53fbe32    72  33ff                 xorl rdi,rdi
0x8aec53fbe34    74  4533c9               xorl r9,r9
0x8aec53fbe37    77  e99b000000           jmp 0x8aec53fbed7  <+0x117>
0x8aec53fbe3c    7c  85c9                 testl rcx,rcx
0x8aec53fbe3e    7e  0f850c000000         jnz 0x8aec53fbe50  <+0x90>
0x8aec53fbe44    84  8bc8                 movl rcx,rax
0x8aec53fbe46    86  33ff                 xorl rdi,rdi
0x8aec53fbe48    88  4533c9               xorl r9,r9
0x8aec53fbe4b    8b  e987000000           jmp 0x8aec53fbed7  <+0x117>
0x8aec53fbe50    90  8945d4               movl [rbp-0x2c],rax
0x8aec53fbe53    93  8955d0               movl [rbp-0x30],rdx
0x8aec53fbe56    96  8945cc               movl [rbp-0x34],rax
0x8aec53fbe59    99  895dc8               movl [rbp-0x38],rbx
0x8aec53fbe5c    9c  c745c400000000       movl [rbp-0x3c],0x0
0x8aec53fbe63    a3  c745c000000000       movl [rbp-0x40],0x0
0x8aec53fbe6a    aa  488b4627             REX.W movq rax,[rsi+0x27]
0x8aec53fbe6e    ae  483b20               REX.W cmpq rsp,[rax]
0x8aec53fbe71    b1  0f8682030000         jna 0x8aec53fc1f9  <+0x439>
0x8aec53fbe77    b7  8b45cc               movl rax,[rbp-0x34]
0x8aec53fbe7a    ba  8b4dd0               movl rcx,[rbp-0x30]
0x8aec53fbe7d    bd  488b5617             REX.W movq rdx,[rsi+0x17]
0x8aec53fbe81    c1  0fb61c0a             movzxbl rbx,[rdx+rcx*1]
0x8aec53fbe85    c5  881c02               movb [rdx+rax*1],bl
0x8aec53fbe88    c8  8b45d0               movl rax,[rbp-0x30]
0x8aec53fbe8b    cb  83c001               addl rax,0x1
0x8aec53fbe8e    ce  8b4dcc               movl rcx,[rbp-0x34]
0x8aec53fbe91    d1  83c101               addl rcx,0x1
0x8aec53fbe94    d4  8bd9                 movl rbx,rcx
0x8aec53fbe96    d6  83e303               andl rbx,0x3
0x8aec53fbe99    d9  85db                 testl rbx,rbx
0x8aec53fbe9b    db  0f8514000000         jnz 0x8aec53fbeb5  <+0xf5>
0x8aec53fbea1    e1  8bd0                 movl rdx,rax
0x8aec53fbea3    e3  8b45d4               movl rax,[rbp-0x2c]
0x8aec53fbea6    e6  8b5dc8               movl rbx,[rbp-0x38]
0x8aec53fbea9    e9  8b7dc4               movl rdi,[rbp-0x3c]
0x8aec53fbeac    ec  448b4dc0             movl r9,[rbp-0x40]
0x8aec53fbeb0    f0  e922000000           jmp 0x8aec53fbed7  <+0x117>
0x8aec53fbeb5    f5  8b5dc8               movl rbx,[rbp-0x38]
0x8aec53fbeb8    f8  3bcb                 cmpl rcx,rbx
0x8aec53fbeba    fa  0f8308000000         jnc 0x8aec53fbec8  <+0x108>
0x8aec53fbec0   100  8945d0               movl [rbp-0x30],rax
0x8aec53fbec3   103  894dcc               movl [rbp-0x34],rcx
0x8aec53fbec6   106  eba2                 jmp 0x8aec53fbe6a  <+0xaa>
0x8aec53fbec8   108  8bd0                 movl rdx,rax
0x8aec53fbeca   10a  8b45d4               movl rax,[rbp-0x2c]
0x8aec53fbecd   10d  8b5dc8               movl rbx,[rbp-0x38]
0x8aec53fbed0   110  8b7dc4               movl rdi,[rbp-0x3c]
0x8aec53fbed3   113  448b4dc0             movl r9,[rbp-0x40]
0x8aec53fbed7   117  8bf3                 movl rsi,rbx
0x8aec53fbed9   119  83e6fc               andl rsi,0xfc
0x8aec53fbedc   11c  83fe40               cmpl rsi,0x40
0x8aec53fbedf   11f  0f8305000000         jnc 0x8aec53fbeea  <+0x12a>
0x8aec53fbee5   125  e951010000           jmp 0x8aec53fc03b  <+0x27b>
0x8aec53fbeea   12a  8d7ec0               leal rdi,[rsi-0x40]
0x8aec53fbeed   12d  3bcf                 cmpl rcx,rdi
0x8aec53fbeef   12f  0f8608000000         jna 0x8aec53fbefd  <+0x13d>
0x8aec53fbef5   135  448bcf               movl r9,rdi
0x8aec53fbef8   138  e93e010000           jmp 0x8aec53fc03b  <+0x27b>
0x8aec53fbefd   13d  8945d4               movl [rbp-0x2c],rax
0x8aec53fbf00   140  8955d0               movl [rbp-0x30],rdx
0x8aec53fbf03   143  894dcc               movl [rbp-0x34],rcx
0x8aec53fbf06   146  895dc8               movl [rbp-0x38],rbx
0x8aec53fbf09   149  8975c4               movl [rbp-0x3c],rsi
0x8aec53fbf0c   14c  897dc0               movl [rbp-0x40],rdi
0x8aec53fbf0f   14f  488b75f0             REX.W movq rsi,[rbp-0x10]
0x8aec53fbf13   153  488b4627             REX.W movq rax,[rsi+0x27]
0x8aec53fbf17   157  483b20               REX.W cmpq rsp,[rax]
0x8aec53fbf1a   15a  0f86f1020000         jna 0x8aec53fc211  <+0x451>
0x8aec53fbf20   160  8b45cc               movl rax,[rbp-0x34]
0x8aec53fbf23   163  8b4dd0               movl rcx,[rbp-0x30]
0x8aec53fbf26   166  488b5617             REX.W movq rdx,[rsi+0x17]
0x8aec53fbf2a   16a  8b1c0a               movl rbx,[rdx+rcx*1]
0x8aec53fbf2d   16d  891c02               movl [rdx+rax*1],rbx
0x8aec53fbf30   170  8b45cc               movl rax,[rbp-0x34]
0x8aec53fbf33   173  8b4dd0               movl rcx,[rbp-0x30]
0x8aec53fbf36   176  8b5c0a04             movl rbx,[rdx+rcx*1+0x4]
0x8aec53fbf3a   17a  895c0204             movl [rdx+rax*1+0x4],rbx
0x8aec53fbf3e   17e  8b45cc               movl rax,[rbp-0x34]
0x8aec53fbf41   181  8b4dd0               movl rcx,[rbp-0x30]
0x8aec53fbf44   184  8b5c0a08             movl rbx,[rdx+rcx*1+0x8]
0x8aec53fbf48   188  895c0208             movl [rdx+rax*1+0x8],rbx
0x8aec53fbf4c   18c  8b45cc               movl rax,[rbp-0x34]
0x8aec53fbf4f   18f  8b4dd0               movl rcx,[rbp-0x30]
0x8aec53fbf52   192  8b5c0a0c             movl rbx,[rdx+rcx*1+0xc]
0x8aec53fbf56   196  895c020c             movl [rdx+rax*1+0xc],rbx
0x8aec53fbf5a   19a  8b45cc               movl rax,[rbp-0x34]
0x8aec53fbf5d   19d  8b4dd0               movl rcx,[rbp-0x30]
0x8aec53fbf60   1a0  8b5c0a10             movl rbx,[rdx+rcx*1+0x10]
0x8aec53fbf64   1a4  895c0210             movl [rdx+rax*1+0x10],rbx
0x8aec53fbf68   1a8  8b45cc               movl rax,[rbp-0x34]
0x8aec53fbf6b   1ab  8b4dd0               movl rcx,[rbp-0x30]
0x8aec53fbf6e   1ae  8b5c0a14             movl rbx,[rdx+rcx*1+0x14]
0x8aec53fbf72   1b2  895c0214             movl [rdx+rax*1+0x14],rbx
0x8aec53fbf76   1b6  8b45cc               movl rax,[rbp-0x34]
0x8aec53fbf79   1b9  8b4dd0               movl rcx,[rbp-0x30]
0x8aec53fbf7c   1bc  8b5c0a18             movl rbx,[rdx+rcx*1+0x18]
0x8aec53fbf80   1c0  895c0218             movl [rdx+rax*1+0x18],rbx
0x8aec53fbf84   1c4  8b45cc               movl rax,[rbp-0x34]
0x8aec53fbf87   1c7  8b4dd0               movl rcx,[rbp-0x30]
0x8aec53fbf8a   1ca  8b5c0a1c             movl rbx,[rdx+rcx*1+0x1c]
0x8aec53fbf8e   1ce  895c021c             movl [rdx+rax*1+0x1c],rbx
0x8aec53fbf92   1d2  8b45cc               movl rax,[rbp-0x34]
0x8aec53fbf95   1d5  8b4dd0               movl rcx,[rbp-0x30]
0x8aec53fbf98   1d8  8b5c0a20             movl rbx,[rdx+rcx*1+0x20]
0x8aec53fbf9c   1dc  895c0220             movl [rdx+rax*1+0x20],rbx
0x8aec53fbfa0   1e0  8b45cc               movl rax,[rbp-0x34]
0x8aec53fbfa3   1e3  8b4dd0               movl rcx,[rbp-0x30]
0x8aec53fbfa6   1e6  8b5c0a24             movl rbx,[rdx+rcx*1+0x24]
0x8aec53fbfaa   1ea  895c0224             movl [rdx+rax*1+0x24],rbx
0x8aec53fbfae   1ee  8b45cc               movl rax,[rbp-0x34]
0x8aec53fbfb1   1f1  8b4dd0               movl rcx,[rbp-0x30]
0x8aec53fbfb4   1f4  8b5c0a28             movl rbx,[rdx+rcx*1+0x28]
0x8aec53fbfb8   1f8  895c0228             movl [rdx+rax*1+0x28],rbx
0x8aec53fbfbc   1fc  8b45cc               movl rax,[rbp-0x34]
0x8aec53fbfbf   1ff  8b4dd0               movl rcx,[rbp-0x30]
0x8aec53fbfc2   202  8b5c0a2c             movl rbx,[rdx+rcx*1+0x2c]
0x8aec53fbfc6   206  895c022c             movl [rdx+rax*1+0x2c],rbx
0x8aec53fbfca   20a  8b45cc               movl rax,[rbp-0x34]
0x8aec53fbfcd   20d  8b4dd0               movl rcx,[rbp-0x30]
0x8aec53fbfd0   210  8b5c0a30             movl rbx,[rdx+rcx*1+0x30]
0x8aec53fbfd4   214  895c0230             movl [rdx+rax*1+0x30],rbx
0x8aec53fbfd8   218  8b45cc               movl rax,[rbp-0x34]
0x8aec53fbfdb   21b  8b4dd0               movl rcx,[rbp-0x30]
0x8aec53fbfde   21e  8b5c0a34             movl rbx,[rdx+rcx*1+0x34]
0x8aec53fbfe2   222  895c0234             movl [rdx+rax*1+0x34],rbx
0x8aec53fbfe6   226  8b45cc               movl rax,[rbp-0x34]
0x8aec53fbfe9   229  8b4dd0               movl rcx,[rbp-0x30]
0x8aec53fbfec   22c  8b5c0a38             movl rbx,[rdx+rcx*1+0x38]
0x8aec53fbff0   230  895c0238             movl [rdx+rax*1+0x38],rbx
0x8aec53fbff4   234  8b45cc               movl rax,[rbp-0x34]
0x8aec53fbff7   237  8b4dd0               movl rcx,[rbp-0x30]
0x8aec53fbffa   23a  8b5c0a3c             movl rbx,[rdx+rcx*1+0x3c]
0x8aec53fbffe   23e  895c023c             movl [rdx+rax*1+0x3c],rbx
0x8aec53fc002   242  8b45d0               movl rax,[rbp-0x30]
0x8aec53fc005   245  b9c0ffffff           movl rcx,0xffffffc0
0x8aec53fc00a   24a  2bc1                 subl rax,rcx
0x8aec53fc00c   24c  8b4dcc               movl rcx,[rbp-0x34]
0x8aec53fc00f   24f  bbc0ffffff           movl rbx,0xffffffc0
0x8aec53fc014   254  2bcb                 subl rcx,rbx
0x8aec53fc016   256  8b5dc0               movl rbx,[rbp-0x40]
0x8aec53fc019   259  3bcb                 cmpl rcx,rbx
0x8aec53fc01b   25b  0f870b000000         ja 0x8aec53fc02c  <+0x26c>
0x8aec53fc021   261  8945d0               movl [rbp-0x30],rax
0x8aec53fc024   264  894dcc               movl [rbp-0x34],rcx
0x8aec53fc027   267  e9e3feffff           jmp 0x8aec53fbf0f  <+0x14f>
0x8aec53fc02c   26c  8bd0                 movl rdx,rax
0x8aec53fc02e   26e  8b45d4               movl rax,[rbp-0x2c]
0x8aec53fc031   271  8b5dc8               movl rbx,[rbp-0x38]
0x8aec53fc034   274  8b75c4               movl rsi,[rbp-0x3c]
0x8aec53fc037   277  448b4dc0             movl r9,[rbp-0x40]
0x8aec53fc03b   27b  3bce                 cmpl rcx,rsi
0x8aec53fc03d   27d  0f8205000000         jc 0x8aec53fc048  <+0x288>
0x8aec53fc043   283  e928010000           jmp 0x8aec53fc170  <+0x3b0>
0x8aec53fc048   288  8945d4               movl [rbp-0x2c],rax
0x8aec53fc04b   28b  8955d0               movl [rbp-0x30],rdx
0x8aec53fc04e   28e  894dcc               movl [rbp-0x34],rcx
0x8aec53fc051   291  895dc8               movl [rbp-0x38],rbx
0x8aec53fc054   294  8975c4               movl [rbp-0x3c],rsi
0x8aec53fc057   297  44894dc0             movl [rbp-0x40],r9
0x8aec53fc05b   29b  488b75f0             REX.W movq rsi,[rbp-0x10]
0x8aec53fc05f   29f  488b4627             REX.W movq rax,[rsi+0x27]
0x8aec53fc063   2a3  483b20               REX.W cmpq rsp,[rax]
0x8aec53fc066   2a6  0f8653020000         jna 0x8aec53fc2bf  <+0x4ff>
0x8aec53fc06c   2ac  8b45cc               movl rax,[rbp-0x34]
0x8aec53fc06f   2af  8b4dd0               movl rcx,[rbp-0x30]
0x8aec53fc072   2b2  488b5617             REX.W movq rdx,[rsi+0x17]
0x8aec53fc076   2b6  8b1c0a               movl rbx,[rdx+rcx*1]
0x8aec53fc079   2b9  891c02               movl [rdx+rax*1],rbx
0x8aec53fc07c   2bc  8b45d0               movl rax,[rbp-0x30]
0x8aec53fc07f   2bf  83c004               addl rax,0x4
0x8aec53fc082   2c2  8b4dcc               movl rcx,[rbp-0x34]
0x8aec53fc085   2c5  83c104               addl rcx,0x4
0x8aec53fc088   2c8  8b5dc4               movl rbx,[rbp-0x3c]
0x8aec53fc08b   2cb  3bcb                 cmpl rcx,rbx
0x8aec53fc08d   2cd  0f8308000000         jnc 0x8aec53fc09b  <+0x2db>
0x8aec53fc093   2d3  8945d0               movl [rbp-0x30],rax
0x8aec53fc096   2d6  894dcc               movl [rbp-0x34],rcx
0x8aec53fc099   2d9  ebc0                 jmp 0x8aec53fc05b  <+0x29b>
0x8aec53fc09b   2db  8bd0                 movl rdx,rax
0x8aec53fc09d   2dd  8b45d4               movl rax,[rbp-0x2c]
0x8aec53fc0a0   2e0  8b5dc8               movl rbx,[rbp-0x38]
0x8aec53fc0a3   2e3  8b75c4               movl rsi,[rbp-0x3c]
0x8aec53fc0a6   2e6  448b4dc0             movl r9,[rbp-0x40]
0x8aec53fc0aa   2ea  e9c1000000           jmp 0x8aec53fc170  <+0x3b0>
0x8aec53fc0af   2ef  83fb04               cmpl rbx,0x4
0x8aec53fc0b2   2f2  0f830c000000         jnc 0x8aec53fc0c4  <+0x304>
0x8aec53fc0b8   2f8  8bc8                 movl rcx,rax
0x8aec53fc0ba   2fa  33f6                 xorl rsi,rsi
0x8aec53fc0bc   2fc  4533c9               xorl r9,r9
0x8aec53fc0bf   2ff  e9ac000000           jmp 0x8aec53fc170  <+0x3b0>
0x8aec53fc0c4   304  bf04000000           movl rdi,0x4
0x8aec53fc0c9   309  f7df                 negl rdi
0x8aec53fc0cb   30b  03fb                 addl rdi,rbx
0x8aec53fc0cd   30d  3bc7                 cmpl rax,rdi
0x8aec53fc0cf   30f  0f860c000000         jna 0x8aec53fc0e1  <+0x321>
0x8aec53fc0d5   315  8bc8                 movl rcx,rax
0x8aec53fc0d7   317  8bf7                 movl rsi,rdi
0x8aec53fc0d9   319  4533c9               xorl r9,r9
0x8aec53fc0dc   31c  e98f000000           jmp 0x8aec53fc170  <+0x3b0>
0x8aec53fc0e1   321  8945d4               movl [rbp-0x2c],rax
0x8aec53fc0e4   324  8955d0               movl [rbp-0x30],rdx
0x8aec53fc0e7   327  8945cc               movl [rbp-0x34],rax
0x8aec53fc0ea   32a  895dc8               movl [rbp-0x38],rbx
0x8aec53fc0ed   32d  897dc4               movl [rbp-0x3c],rdi
0x8aec53fc0f0   330  c745c000000000       movl [rbp-0x40],0x0
0x8aec53fc0f7   337  488b4627             REX.W movq rax,[rsi+0x27]
0x8aec53fc0fb   33b  483b20               REX.W cmpq rsp,[rax]
0x8aec53fc0fe   33e  0f86d3010000         jna 0x8aec53fc2d7  <+0x517>
0x8aec53fc104   344  8b45cc               movl rax,[rbp-0x34]
0x8aec53fc107   347  8b4dd0               movl rcx,[rbp-0x30]
0x8aec53fc10a   34a  488b5617             REX.W movq rdx,[rsi+0x17]
0x8aec53fc10e   34e  0fb61c0a             movzxbl rbx,[rdx+rcx*1]
0x8aec53fc112   352  881c02               movb [rdx+rax*1],bl
0x8aec53fc115   355  8b45cc               movl rax,[rbp-0x34]
0x8aec53fc118   358  8b4dd0               movl rcx,[rbp-0x30]
0x8aec53fc11b   35b  0fb65c0a01           movzxbl rbx,[rdx+rcx*1+0x1]
0x8aec53fc120   360  885c0201             movb [rdx+rax*1+0x1],bl
0x8aec53fc124   364  8b45cc               movl rax,[rbp-0x34]
0x8aec53fc127   367  8b4dd0               movl rcx,[rbp-0x30]
0x8aec53fc12a   36a  0fb65c0a02           movzxbl rbx,[rdx+rcx*1+0x2]
0x8aec53fc12f   36f  885c0202             movb [rdx+rax*1+0x2],bl
0x8aec53fc133   373  8b45cc               movl rax,[rbp-0x34]
0x8aec53fc136   376  8b4dd0               movl rcx,[rbp-0x30]
0x8aec53fc139   379  0fb65c0a03           movzxbl rbx,[rdx+rcx*1+0x3]
0x8aec53fc13e   37e  885c0203             movb [rdx+rax*1+0x3],bl
0x8aec53fc142   382  8b45d0               movl rax,[rbp-0x30]
0x8aec53fc145   385  83c004               addl rax,0x4
0x8aec53fc148   388  8b4dcc               movl rcx,[rbp-0x34]
0x8aec53fc14b   38b  83c104               addl rcx,0x4
0x8aec53fc14e   38e  8b5dc4               movl rbx,[rbp-0x3c]
0x8aec53fc151   391  3bcb                 cmpl rcx,rbx
0x8aec53fc153   393  0f8708000000         ja 0x8aec53fc161  <+0x3a1>
0x8aec53fc159   399  8945d0               movl [rbp-0x30],rax
0x8aec53fc15c   39c  894dcc               movl [rbp-0x34],rcx
0x8aec53fc15f   39f  eb96                 jmp 0x8aec53fc0f7  <+0x337>
0x8aec53fc161   3a1  8bd0                 movl rdx,rax
0x8aec53fc163   3a3  8b45d4               movl rax,[rbp-0x2c]
0x8aec53fc166   3a6  8b5dc8               movl rbx,[rbp-0x38]
0x8aec53fc169   3a9  8b75c4               movl rsi,[rbp-0x3c]
0x8aec53fc16c   3ac  448b4dc0             movl r9,[rbp-0x40]
0x8aec53fc170   3b0  3bcb                 cmpl rcx,rbx
0x8aec53fc172   3b2  0f8368000000         jnc 0x8aec53fc1e0  <+0x420>
0x8aec53fc178   3b8  8945d4               movl [rbp-0x2c],rax
0x8aec53fc17b   3bb  8955d0               movl [rbp-0x30],rdx
0x8aec53fc17e   3be  894dcc               movl [rbp-0x34],rcx
0x8aec53fc181   3c1  895dc8               movl [rbp-0x38],rbx
0x8aec53fc184   3c4  8975c4               movl [rbp-0x3c],rsi
0x8aec53fc187   3c7  44894dc0             movl [rbp-0x40],r9
0x8aec53fc18b   3cb  488b75f0             REX.W movq rsi,[rbp-0x10]
0x8aec53fc18f   3cf  488b4627             REX.W movq rax,[rsi+0x27]
0x8aec53fc193   3d3  483b20               REX.W cmpq rsp,[rax]
0x8aec53fc196   3d6  0f8671010000         jna 0x8aec53fc30d  <+0x54d>
0x8aec53fc19c   3dc  8b45cc               movl rax,[rbp-0x34]
0x8aec53fc19f   3df  8b4dd0               movl rcx,[rbp-0x30]
0x8aec53fc1a2   3e2  488b5617             REX.W movq rdx,[rsi+0x17]
0x8aec53fc1a6   3e6  0fb61c0a             movzxbl rbx,[rdx+rcx*1]
0x8aec53fc1aa   3ea  881c02               movb [rdx+rax*1],bl
0x8aec53fc1ad   3ed  8b45d0               movl rax,[rbp-0x30]
0x8aec53fc1b0   3f0  83c001               addl rax,0x1
0x8aec53fc1b3   3f3  8b4dcc               movl rcx,[rbp-0x34]
0x8aec53fc1b6   3f6  83c101               addl rcx,0x1
0x8aec53fc1b9   3f9  8b5dc8               movl rbx,[rbp-0x38]
0x8aec53fc1bc   3fc  3bcb                 cmpl rcx,rbx
0x8aec53fc1be   3fe  0f8408000000         jz 0x8aec53fc1cc  <+0x40c>
0x8aec53fc1c4   404  8945d0               movl [rbp-0x30],rax
0x8aec53fc1c7   407  894dcc               movl [rbp-0x34],rcx
0x8aec53fc1ca   40a  ebbf                 jmp 0x8aec53fc18b  <+0x3cb>
0x8aec53fc1cc   40c  8bd0                 movl rdx,rax
0x8aec53fc1ce   40e  8b45d4               movl rax,[rbp-0x2c]
0x8aec53fc1d1   411  8b5dc8               movl rbx,[rbp-0x38]
0x8aec53fc1d4   414  8b75c4               movl rsi,[rbp-0x3c]
0x8aec53fc1d7   417  448b4dc0             movl r9,[rbp-0x40]
0x8aec53fc1db   41b  e900000000           jmp 0x8aec53fc1e0  <+0x420>
0x8aec53fc1e0   420  488be5               REX.W movq rsp,rbp
0x8aec53fc1e3   423  5d                   pop rbp
0x8aec53fc1e4   424  c3                   retl
0x8aec53fc1e5   425  50                   push rax
0x8aec53fc1e6   426  51                   push rcx
0x8aec53fc1e7   427  52                   push rdx
0x8aec53fc1e8   428  e883c1ffff           call 0x8aec53f8370  (jump table)
0x8aec53fc1ed   42d  5a                   pop rdx
0x8aec53fc1ee   42e  59                   pop rcx
0x8aec53fc1ef   42f  58                   pop rax
0x8aec53fc1f0   430  488b75f0             REX.W movq rsi,[rbp-0x10]
0x8aec53fc1f4   434  e9e2fbffff           jmp 0x8aec53fbddb  <+0x1b>
0x8aec53fc1f9   439  e872c1ffff           call 0x8aec53f8370  (jump table)
0x8aec53fc1fe   43e  488b75f0             REX.W movq rsi,[rbp-0x10]
0x8aec53fc202   442  e970fcffff           jmp 0x8aec53fbe77  <+0xb7>
0x8aec53fc207   447  e804bfffff           call 0x8aec53f8110  (jump table)
0x8aec53fc20c   44c  e8ffbeffff           call 0x8aec53f8110  (jump table)
0x8aec53fc211   451  e85ac1ffff           call 0x8aec53f8370  (jump table)
0x8aec53fc216   456  488b75f0             REX.W movq rsi,[rbp-0x10]
0x8aec53fc21a   45a  e901fdffff           jmp 0x8aec53fbf20  <+0x160>
0x8aec53fc21f   45f  e8ecbeffff           call 0x8aec53f8110  (jump table)
0x8aec53fc224   464  e8e7beffff           call 0x8aec53f8110  (jump table)
0x8aec53fc229   469  e8e2beffff           call 0x8aec53f8110  (jump table)
0x8aec53fc22e   46e  e8ddbeffff           call 0x8aec53f8110  (jump table)
0x8aec53fc233   473  e8d8beffff           call 0x8aec53f8110  (jump table)
0x8aec53fc238   478  e8d3beffff           call 0x8aec53f8110  (jump table)
0x8aec53fc23d   47d  e8cebeffff           call 0x8aec53f8110  (jump table)
0x8aec53fc242   482  e8c9beffff           call 0x8aec53f8110  (jump table)
0x8aec53fc247   487  e8c4beffff           call 0x8aec53f8110  (jump table)
0x8aec53fc24c   48c  e8bfbeffff           call 0x8aec53f8110  (jump table)
0x8aec53fc251   491  e8babeffff           call 0x8aec53f8110  (jump table)
0x8aec53fc256   496  e8b5beffff           call 0x8aec53f8110  (jump table)
0x8aec53fc25b   49b  e8b0beffff           call 0x8aec53f8110  (jump table)
0x8aec53fc260   4a0  e8abbeffff           call 0x8aec53f8110  (jump table)
0x8aec53fc265   4a5  e8a6beffff           call 0x8aec53f8110  (jump table)
0x8aec53fc26a   4aa  e8a1beffff           call 0x8aec53f8110  (jump table)
0x8aec53fc26f   4af  e89cbeffff           call 0x8aec53f8110  (jump table)
0x8aec53fc274   4b4  e897beffff           call 0x8aec53f8110  (jump table)
0x8aec53fc279   4b9  e892beffff           call 0x8aec53f8110  (jump table)
0x8aec53fc27e   4be  e88dbeffff           call 0x8aec53f8110  (jump table)
0x8aec53fc283   4c3  e888beffff           call 0x8aec53f8110  (jump table)
0x8aec53fc288   4c8  e883beffff           call 0x8aec53f8110  (jump table)
0x8aec53fc28d   4cd  e87ebeffff           call 0x8aec53f8110  (jump table)
0x8aec53fc292   4d2  e879beffff           call 0x8aec53f8110  (jump table)
0x8aec53fc297   4d7  e874beffff           call 0x8aec53f8110  (jump table)
0x8aec53fc29c   4dc  e86fbeffff           call 0x8aec53f8110  (jump table)
0x8aec53fc2a1   4e1  e86abeffff           call 0x8aec53f8110  (jump table)
0x8aec53fc2a6   4e6  e865beffff           call 0x8aec53f8110  (jump table)
0x8aec53fc2ab   4eb  e860beffff           call 0x8aec53f8110  (jump table)
0x8aec53fc2b0   4f0  e85bbeffff           call 0x8aec53f8110  (jump table)
0x8aec53fc2b5   4f5  e856beffff           call 0x8aec53f8110  (jump table)
0x8aec53fc2ba   4fa  e851beffff           call 0x8aec53f8110  (jump table)
0x8aec53fc2bf   4ff  e8acc0ffff           call 0x8aec53f8370  (jump table)
0x8aec53fc2c4   504  488b75f0             REX.W movq rsi,[rbp-0x10]
0x8aec53fc2c8   508  e99ffdffff           jmp 0x8aec53fc06c  <+0x2ac>
0x8aec53fc2cd   50d  e83ebeffff           call 0x8aec53f8110  (jump table)
0x8aec53fc2d2   512  e839beffff           call 0x8aec53f8110  (jump table)
0x8aec53fc2d7   517  e894c0ffff           call 0x8aec53f8370  (jump table)
0x8aec53fc2dc   51c  488b75f0             REX.W movq rsi,[rbp-0x10]
0x8aec53fc2e0   520  e91ffeffff           jmp 0x8aec53fc104  <+0x344>
0x8aec53fc2e5   525  e826beffff           call 0x8aec53f8110  (jump table)
0x8aec53fc2ea   52a  e821beffff           call 0x8aec53f8110  (jump table)
0x8aec53fc2ef   52f  e81cbeffff           call 0x8aec53f8110  (jump table)
0x8aec53fc2f4   534  e817beffff           call 0x8aec53f8110  (jump table)
0x8aec53fc2f9   539  e812beffff           call 0x8aec53f8110  (jump table)
0x8aec53fc2fe   53e  e80dbeffff           call 0x8aec53f8110  (jump table)
0x8aec53fc303   543  e808beffff           call 0x8aec53f8110  (jump table)
0x8aec53fc308   548  e803beffff           call 0x8aec53f8110  (jump table)
0x8aec53fc30d   54d  e85ec0ffff           call 0x8aec53f8370  (jump table)
0x8aec53fc312   552  488b75f0             REX.W movq rsi,[rbp-0x10]
0x8aec53fc316   556  e981feffff           jmp 0x8aec53fc19c  <+0x3dc>
0x8aec53fc31b   55b  e8f0bdffff           call 0x8aec53f8110  (jump table)
0x8aec53fc320   560  e8ebbdffff           call 0x8aec53f8110  (jump table)
0x8aec53fc325   565  0f1f00               nop

Protected instructions:
 pc offset  land pad
        c1       447
        c5       44c
       16a       45f
       16d       464
       176       469
       17a       46e
       184       473
       188       478
       192       47d
       196       482
       1a0       487
       1a4       48c
       1ae       491
       1b2       496
       1bc       49b
       1c0       4a0
       1ca       4a5
       1ce       4aa
       1d8       4af
       1dc       4b4
       1e6       4b9
       1ea       4be
       1f4       4c3
       1f8       4c8
       202       4cd
       206       4d2
       210       4d7
       214       4dc
       21e       4e1
       222       4e6
       22c       4eb
       230       4f0
       23a       4f5
       23e       4fa
       2b6       50d
       2b9       512
       34e       525
       352       52a
       35b       52f
       360       534
       36a       539
       36f       53e
       379       543
       37e       548
       3e6       55b
       3ea       560

Source positions:
 pc offset  position
        47        21  statement
       428         0  statement
       439        81  statement
       447        87  statement
       44c        90  statement
       451       149  statement
       45f       155  statement
       464       158  statement
       469       165  statement
       46e       168  statement
       473       175  statement
       478       178  statement
       47d       185  statement
       482       188  statement
       487       195  statement
       48c       198  statement
       491       205  statement
       496       208  statement
       49b       215  statement
       4a0       218  statement
       4a5       225  statement
       4aa       228  statement
       4af       235  statement
       4b4       238  statement
       4b9       245  statement
       4be       248  statement
       4c3       255  statement
       4c8       258  statement
       4cd       265  statement
       4d2       268  statement
       4d7       275  statement
       4dc       278  statement
       4e1       285  statement
       4e6       288  statement
       4eb       295  statement
       4f0       298  statement
       4f5       305  statement
       4fa       308  statement
       4ff       339  statement
       50d       345  statement
       512       348  statement
       517       411  statement
       525       417  statement
       52a       420  statement
       52f       427  statement
       534       430  statement
       539       437  statement
       53e       440  statement
       543       447  statement
       548       450  statement
       54d       481  statement
       55b       487  statement
       560       490  statement

Safepoints (entries = 1, byte size = 11)
0x8aec53fbe09     49  slots (sp->fp): 0000000000000000

RelocInfo (size = 0)

--- End code ---
--- WebAssembly code ---
name: __errno_location
index: 18
kind: wasm function
compiler: Liftoff
Body (size = 64 = 60 + 4 padding)
Instructions (size = 48)
0x8aec53fc340     0  55                   push rbp
0x8aec53fc341     1  4889e5               REX.W movq rbp,rsp
0x8aec53fc344     4  6a08                 push 0x8
0x8aec53fc346     6  56                   push rsi
0x8aec53fc347     7  4881ec18000000       REX.W subq rsp,0x18
0x8aec53fc34e     e  488b4627             REX.W movq rax,[rsi+0x27]
0x8aec53fc352    12  483b20               REX.W cmpq rsp,[rax]
0x8aec53fc355    15  0f860a000000         jna 0x8aec53fc365  <+0x25>
0x8aec53fc35b    1b  b8980a0000           movl rax,0xa98
0x8aec53fc360    20  488be5               REX.W movq rsp,rbp
0x8aec53fc363    23  5d                   pop rbp
0x8aec53fc364    24  c3                   retl
0x8aec53fc365    25  e806c0ffff           call 0x8aec53f8370  (jump table)
0x8aec53fc36a    2a  488b75f0             REX.W movq rsi,[rbp-0x10]
0x8aec53fc36e    2e  ebeb                 jmp 0x8aec53fc35b  <+0x1b>

Source positions:
 pc offset  position
        25         0  statement

Safepoints (entries = 1, byte size = 10)
0x8aec53fc36a     2a  slots (sp->fp): 00000000

RelocInfo (size = 0)

--- End code ---
--- WebAssembly code ---
name: strnlen
index: 17
kind: wasm function
compiler: Liftoff
Body (size = 128 = 96 + 32 padding)
Instructions (size = 84)
0x8aec53fc380     0  55                   push rbp
0x8aec53fc381     1  4889e5               REX.W movq rbp,rsp
0x8aec53fc384     4  6a08                 push 0x8
0x8aec53fc386     6  56                   push rsi
0x8aec53fc387     7  4881ec28000000       REX.W subq rsp,0x28
0x8aec53fc38e     e  488b4e27             REX.W movq rcx,[rsi+0x27]
0x8aec53fc392    12  483b21               REX.W cmpq rsp,[rcx]
0x8aec53fc395    15  0f8629000000         jna 0x8aec53fc3c4  <+0x44>
0x8aec53fc39b    1b  8955d0               movl [rbp-0x30],rdx
0x8aec53fc39e    1e  8945d4               movl [rbp-0x2c],rax
0x8aec53fc3a1    21  8bca                 movl rcx,rdx
0x8aec53fc3a3    23  33d2                 xorl rdx,rdx
0x8aec53fc3a5    25  488b75f0             REX.W movq rsi,[rbp-0x10]
0x8aec53fc3a9    29  e892bcffff           call 0x8aec53f8040  (jump table)
0x8aec53fc3ae    2e  8b4dd4               movl rcx,[rbp-0x2c]
0x8aec53fc3b1    31  f7d9                 negl rcx
0x8aec53fc3b3    33  03c8                 addl rcx,rax
0x8aec53fc3b5    35  8b55d0               movl rdx,[rbp-0x30]
0x8aec53fc3b8    38  85c0                 testl rax,rax
0x8aec53fc3ba    3a  0f44ca               cmovzl rcx,rdx
0x8aec53fc3bd    3d  8bc1                 movl rax,rcx
0x8aec53fc3bf    3f  488be5               REX.W movq rsp,rbp
0x8aec53fc3c2    42  5d                   pop rbp
0x8aec53fc3c3    43  c3                   retl
0x8aec53fc3c4    44  50                   push rax
0x8aec53fc3c5    45  52                   push rdx
0x8aec53fc3c6    46  e8a5bfffff           call 0x8aec53f8370  (jump table)
0x8aec53fc3cb    4b  5a                   pop rdx
0x8aec53fc3cc    4c  58                   pop rax
0x8aec53fc3cd    4d  488b75f0             REX.W movq rsi,[rbp-0x10]
0x8aec53fc3d1    51  ebc8                 jmp 0x8aec53fc39b  <+0x1b>
0x8aec53fc3d3    53  90                   nop

Source positions:
 pc offset  position
        29         9  statement
        46         0  statement

Safepoints (entries = 1, byte size = 11)
0x8aec53fc3ae     2e  slots (sp->fp): 0000000000000000

RelocInfo (size = 0)

--- End code ---
--- WebAssembly code ---
name: memchr
index: 16
kind: wasm function
compiler: Liftoff
Body (size = 704 = 660 + 44 padding)
Instructions (size = 648)
0x8aec53fc400     0  55                   push rbp
0x8aec53fc401     1  4889e5               REX.W movq rbp,rsp
0x8aec53fc404     4  6a08                 push 0x8
0x8aec53fc406     6  56                   push rsi
0x8aec53fc407     7  4881ec30000000       REX.W subq rsp,0x30
0x8aec53fc40e     e  488b5e27             REX.W movq rbx,[rsi+0x27]
0x8aec53fc412    12  483b23               REX.W cmpq rsp,[rbx]
0x8aec53fc415    15  0f8614020000         jna 0x8aec53fc62f  <+0x22f>
0x8aec53fc41b    1b  33db                 xorl rbx,rbx
0x8aec53fc41d    1d  3bcb                 cmpl rcx,rbx
0x8aec53fc41f    1f  0f95c3               setnzl bl
0x8aec53fc422    22  0fb6db               movzxbl rbx,rbx
0x8aec53fc425    25  8bf8                 movl rdi,rax
0x8aec53fc427    27  83e703               andl rdi,0x3
0x8aec53fc42a    2a  4533c9               xorl r9,r9
0x8aec53fc42d    2d  85ff                 testl rdi,rdi
0x8aec53fc42f    2f  0f8505000000         jnz 0x8aec53fc43a  <+0x3a>
0x8aec53fc435    35  e9a5000000           jmp 0x8aec53fc4df  <+0xdf>
0x8aec53fc43a    3a  85c9                 testl rcx,rcx
0x8aec53fc43c    3c  0f8505000000         jnz 0x8aec53fc447  <+0x47>
0x8aec53fc442    42  e998000000           jmp 0x8aec53fc4df  <+0xdf>
0x8aec53fc447    47  8bfa                 movl rdi,rdx
0x8aec53fc449    49  81e7ff000000         andl rdi,0xff
0x8aec53fc44f    4f  8945d4               movl [rbp-0x2c],rax
0x8aec53fc452    52  8955d0               movl [rbp-0x30],rdx
0x8aec53fc455    55  894dcc               movl [rbp-0x34],rcx
0x8aec53fc458    58  895dc8               movl [rbp-0x38],rbx
0x8aec53fc45b    5b  897dc4               movl [rbp-0x3c],rdi
0x8aec53fc45e    5e  488b4627             REX.W movq rax,[rsi+0x27]
0x8aec53fc462    62  483b20               REX.W cmpq rsp,[rax]
0x8aec53fc465    65  0f86d8010000         jna 0x8aec53fc643  <+0x243>
0x8aec53fc46b    6b  8b45d4               movl rax,[rbp-0x2c]
0x8aec53fc46e    6e  488b4e17             REX.W movq rcx,[rsi+0x17]
0x8aec53fc472    72  0fb61401             movzxbl rdx,[rcx+rax*1]
0x8aec53fc476    76  8b45c4               movl rax,[rbp-0x3c]
0x8aec53fc479    79  3bd0                 cmpl rdx,rax
0x8aec53fc47b    7b  0f8505000000         jnz 0x8aec53fc486  <+0x86>
0x8aec53fc481    81  e976000000           jmp 0x8aec53fc4fc  <+0xfc>
0x8aec53fc486    86  8b45cc               movl rax,[rbp-0x34]
0x8aec53fc489    89  ba01000000           movl rdx,0x1
0x8aec53fc48e    8e  2bc2                 subl rax,rdx
0x8aec53fc490    90  33d2                 xorl rdx,rdx
0x8aec53fc492    92  3bc2                 cmpl rax,rdx
0x8aec53fc494    94  0f95c2               setnzl dl
0x8aec53fc497    97  0fb6d2               movzxbl rdx,rdx
0x8aec53fc49a    9a  8b5dd4               movl rbx,[rbp-0x2c]
0x8aec53fc49d    9d  83c301               addl rbx,0x1
0x8aec53fc4a0    a0  8bfb                 movl rdi,rbx
0x8aec53fc4a2    a2  83e703               andl rdi,0x3
0x8aec53fc4a5    a5  85ff                 testl rdi,rdi
0x8aec53fc4a7    a7  0f8512000000         jnz 0x8aec53fc4bf  <+0xbf>
0x8aec53fc4ad    ad  8bc8                 movl rcx,rax
0x8aec53fc4af    af  8bc3                 movl rax,rbx
0x8aec53fc4b1    b1  8bda                 movl rbx,rdx
0x8aec53fc4b3    b3  8b55d0               movl rdx,[rbp-0x30]
0x8aec53fc4b6    b6  448b4dc4             movl r9,[rbp-0x3c]
0x8aec53fc4ba    ba  e920000000           jmp 0x8aec53fc4df  <+0xdf>
0x8aec53fc4bf    bf  85c0                 testl rax,rax
0x8aec53fc4c1    c1  0f840b000000         jz 0x8aec53fc4d2  <+0xd2>
0x8aec53fc4c7    c7  895dd4               movl [rbp-0x2c],rbx
0x8aec53fc4ca    ca  8945cc               movl [rbp-0x34],rax
0x8aec53fc4cd    cd  8955c8               movl [rbp-0x38],rdx
0x8aec53fc4d0    d0  eb8c                 jmp 0x8aec53fc45e  <+0x5e>
0x8aec53fc4d2    d2  8bc8                 movl rcx,rax
0x8aec53fc4d4    d4  8bc3                 movl rax,rbx
0x8aec53fc4d6    d6  8bda                 movl rbx,rdx
0x8aec53fc4d8    d8  8b55d0               movl rdx,[rbp-0x30]
0x8aec53fc4db    db  448b4dc4             movl r9,[rbp-0x3c]
0x8aec53fc4df    df  85db                 testl rbx,rbx
0x8aec53fc4e1    e1  0f8505000000         jnz 0x8aec53fc4ec  <+0xec>
0x8aec53fc4e7    e7  e93c010000           jmp 0x8aec53fc628  <+0x228>
0x8aec53fc4ec    ec  8945d4               movl [rbp-0x2c],rax
0x8aec53fc4ef    ef  8955d0               movl [rbp-0x30],rdx
0x8aec53fc4f2    f2  894dcc               movl [rbp-0x34],rcx
0x8aec53fc4f5    f5  895dc8               movl [rbp-0x38],rbx
0x8aec53fc4f8    f8  44894dc4             movl [rbp-0x3c],r9
0x8aec53fc4fc    fc  8b45d4               movl rax,[rbp-0x2c]
0x8aec53fc4ff    ff  488b4e17             REX.W movq rcx,[rsi+0x17]
0x8aec53fc503   103  0fb61401             movzxbl rdx,[rcx+rax*1]
0x8aec53fc507   107  8b45d0               movl rax,[rbp-0x30]
0x8aec53fc50a   10a  25ff000000           and rax,0xff
0x8aec53fc50f   10f  3bd0                 cmpl rdx,rax
0x8aec53fc511   111  0f8505000000         jnz 0x8aec53fc51c  <+0x11c>
0x8aec53fc517   117  e98e000000           jmp 0x8aec53fc5aa  <+0x1aa>
0x8aec53fc51c   11c  8b45cc               movl rax,[rbp-0x34]
0x8aec53fc51f   11f  83f804               cmpl rax,0x4
0x8aec53fc522   122  0f8305000000         jnc 0x8aec53fc52d  <+0x12d>
0x8aec53fc528   128  e97d000000           jmp 0x8aec53fc5aa  <+0x1aa>
0x8aec53fc52d   12d  8b45d0               movl rax,[rbp-0x30]
0x8aec53fc530   130  25ff000000           and rax,0xff
0x8aec53fc535   135  ba01010101           movl rdx,0x1010101
0x8aec53fc53a   13a  0fafc2               imull rax,rdx
0x8aec53fc53d   13d  8945c4               movl [rbp-0x3c],rax
0x8aec53fc540   140  488b4627             REX.W movq rax,[rsi+0x27]
0x8aec53fc544   144  483b20               REX.W cmpq rsp,[rax]
0x8aec53fc547   147  0f860e010000         jna 0x8aec53fc65b  <+0x25b>
0x8aec53fc54d   14d  8b45d4               movl rax,[rbp-0x2c]
0x8aec53fc550   150  8b1401               movl rdx,[rcx+rax*1]
0x8aec53fc553   153  8b45c4               movl rax,[rbp-0x3c]
0x8aec53fc556   156  33d0                 xorl rdx,rax
0x8aec53fc558   158  8bc2                 movl rax,rdx
0x8aec53fc55a   15a  83f0ff               xorl rax,0xff
0x8aec53fc55d   15d  bb01010101           movl rbx,0x1010101
0x8aec53fc562   162  f7db                 negl rbx
0x8aec53fc564   164  03da                 addl rbx,rdx
0x8aec53fc566   166  23c3                 andl rax,rbx
0x8aec53fc568   168  2580808080           and rax,0x80808080
0x8aec53fc56d   16d  85c0                 testl rax,rax
0x8aec53fc56f   16f  0f8408000000         jz 0x8aec53fc57d  <+0x17d>
0x8aec53fc575   175  8955c8               movl [rbp-0x38],rdx
0x8aec53fc578   178  e92d000000           jmp 0x8aec53fc5aa  <+0x1aa>
0x8aec53fc57d   17d  8b45d4               movl rax,[rbp-0x2c]
0x8aec53fc580   180  83c004               addl rax,0x4
0x8aec53fc583   183  8b5dcc               movl rbx,[rbp-0x34]
0x8aec53fc586   186  bf04000000           movl rdi,0x4
0x8aec53fc58b   18b  2bdf                 subl rbx,rdi
0x8aec53fc58d   18d  83fb03               cmpl rbx,0x3
0x8aec53fc590   190  0f860b000000         jna 0x8aec53fc5a1  <+0x1a1>
0x8aec53fc596   196  8945d4               movl [rbp-0x2c],rax
0x8aec53fc599   199  895dcc               movl [rbp-0x34],rbx
0x8aec53fc59c   19c  8955c8               movl [rbp-0x38],rdx
0x8aec53fc59f   19f  eb9f                 jmp 0x8aec53fc540  <+0x140>
0x8aec53fc5a1   1a1  8945d4               movl [rbp-0x2c],rax
0x8aec53fc5a4   1a4  895dcc               movl [rbp-0x34],rbx
0x8aec53fc5a7   1a7  8955c8               movl [rbp-0x38],rdx
0x8aec53fc5aa   1aa  8b45cc               movl rax,[rbp-0x34]
0x8aec53fc5ad   1ad  85c0                 testl rax,rax
0x8aec53fc5af   1af  0f8515000000         jnz 0x8aec53fc5ca  <+0x1ca>
0x8aec53fc5b5   1b5  8b45d4               movl rax,[rbp-0x2c]
0x8aec53fc5b8   1b8  8b4dcc               movl rcx,[rbp-0x34]
0x8aec53fc5bb   1bb  8b55d0               movl rdx,[rbp-0x30]
0x8aec53fc5be   1be  8b5dc8               movl rbx,[rbp-0x38]
0x8aec53fc5c1   1c1  448b4dc4             movl r9,[rbp-0x3c]
0x8aec53fc5c5   1c5  e95e000000           jmp 0x8aec53fc628  <+0x228>
0x8aec53fc5ca   1ca  8b45d0               movl rax,[rbp-0x30]
0x8aec53fc5cd   1cd  25ff000000           and rax,0xff
0x8aec53fc5d2   1d2  8945c8               movl [rbp-0x38],rax
0x8aec53fc5d5   1d5  488b4627             REX.W movq rax,[rsi+0x27]
0x8aec53fc5d9   1d9  483b20               REX.W cmpq rsp,[rax]
0x8aec53fc5dc   1dc  0f868e000000         jna 0x8aec53fc670  <+0x270>
0x8aec53fc5e2   1e2  8b45c8               movl rax,[rbp-0x38]
0x8aec53fc5e5   1e5  8b55d4               movl rdx,[rbp-0x2c]
0x8aec53fc5e8   1e8  0fb61c11             movzxbl rbx,[rcx+rdx*1]
0x8aec53fc5ec   1ec  3bc3                 cmpl rax,rbx
0x8aec53fc5ee   1ee  0f8508000000         jnz 0x8aec53fc5fc  <+0x1fc>
0x8aec53fc5f4   1f4  8b45d4               movl rax,[rbp-0x2c]
0x8aec53fc5f7   1f7  488be5               REX.W movq rsp,rbp
0x8aec53fc5fa   1fa  5d                   pop rbp
0x8aec53fc5fb   1fb  c3                   retl
0x8aec53fc5fc   1fc  8b45d4               movl rax,[rbp-0x2c]
0x8aec53fc5ff   1ff  83c001               addl rax,0x1
0x8aec53fc602   202  8b55cc               movl rdx,[rbp-0x34]
0x8aec53fc605   205  bb01000000           movl rbx,0x1
0x8aec53fc60a   20a  2bd3                 subl rdx,rbx
0x8aec53fc60c   20c  85d2                 testl rdx,rdx
0x8aec53fc60e   20e  0f8408000000         jz 0x8aec53fc61c  <+0x21c>
0x8aec53fc614   214  8945d4               movl [rbp-0x2c],rax
0x8aec53fc617   217  8955cc               movl [rbp-0x34],rdx
0x8aec53fc61a   21a  ebb9                 jmp 0x8aec53fc5d5  <+0x1d5>
0x8aec53fc61c   21c  8bca                 movl rcx,rdx
0x8aec53fc61e   21e  8b55d0               movl rdx,[rbp-0x30]
0x8aec53fc621   221  8b5dc8               movl rbx,[rbp-0x38]
0x8aec53fc624   224  448b4dc4             movl r9,[rbp-0x3c]
0x8aec53fc628   228  33c0                 xorl rax,rax
0x8aec53fc62a   22a  488be5               REX.W movq rsp,rbp
0x8aec53fc62d   22d  5d                   pop rbp
0x8aec53fc62e   22e  c3                   retl
0x8aec53fc62f   22f  50                   push rax
0x8aec53fc630   230  51                   push rcx
0x8aec53fc631   231  52                   push rdx
0x8aec53fc632   232  e839bdffff           call 0x8aec53f8370  (jump table)
0x8aec53fc637   237  5a                   pop rdx
0x8aec53fc638   238  59                   pop rcx
0x8aec53fc639   239  58                   pop rax
0x8aec53fc63a   23a  488b75f0             REX.W movq rsi,[rbp-0x10]
0x8aec53fc63e   23e  e9d8fdffff           jmp 0x8aec53fc41b  <+0x1b>
0x8aec53fc643   243  e828bdffff           call 0x8aec53f8370  (jump table)
0x8aec53fc648   248  488b75f0             REX.W movq rsi,[rbp-0x10]
0x8aec53fc64c   24c  e91afeffff           jmp 0x8aec53fc46b  <+0x6b>
0x8aec53fc651   251  e8babaffff           call 0x8aec53f8110  (jump table)
0x8aec53fc656   256  e8b5baffff           call 0x8aec53f8110  (jump table)
0x8aec53fc65b   25b  51                   push rcx
0x8aec53fc65c   25c  e80fbdffff           call 0x8aec53f8370  (jump table)
0x8aec53fc661   261  59                   pop rcx
0x8aec53fc662   262  488b75f0             REX.W movq rsi,[rbp-0x10]
0x8aec53fc666   266  e9e2feffff           jmp 0x8aec53fc54d  <+0x14d>
0x8aec53fc66b   26b  e8a0baffff           call 0x8aec53f8110  (jump table)
0x8aec53fc670   270  51                   push rcx
0x8aec53fc671   271  e8fabcffff           call 0x8aec53f8370  (jump table)
0x8aec53fc676   276  59                   pop rcx
0x8aec53fc677   277  488b75f0             REX.W movq rsi,[rbp-0x10]
0x8aec53fc67b   27b  e962ffffff           jmp 0x8aec53fc5e2  <+0x1e2>
0x8aec53fc680   280  e88bbaffff           call 0x8aec53f8110  (jump table)
0x8aec53fc685   285  0f1f00               nop

Protected instructions:
 pc offset  land pad
        72       251
       103       256
       150       26b
       1e8       280

Source positions:
 pc offset  position
       232         0  statement
       243        39  statement
       251        43  statement
       256        92  statement
       25c       125  statement
       26b       129  statement
       271       192  statement
       280       198  statement

Safepoints (entries = 1, byte size = 12)
0x8aec53fc637    237  slots (sp->fp): 0000000000000000

RelocInfo (size = 0)

--- End code ---
--- WebAssembly code ---
name: iprintf
index: 7
kind: wasm function
compiler: TurboFan
Body (size = 192 = 140 + 52 padding)
Instructions (size = 128)
0x8aec5403b80     0  55                   push rbp
0x8aec5403b81     1  4889e5               REX.W movq rbp,rsp
0x8aec5403b84     4  6a08                 push 0x8
0x8aec5403b86     6  56                   push rsi
0x8aec5403b87     7  4883ec20             REX.W subq rsp,0x20
0x8aec5403b8b     b  488b5e27             REX.W movq rbx,[rsi+0x27]
0x8aec5403b8f     f  483b23               REX.W cmpq rsp,[rbx]
0x8aec5403b92    12  0f8644000000         jna 0x8aec5403bdc  <+0x5c>
0x8aec5403b98    18  488b5e17             REX.W movq rbx,[rsi+0x17]
0x8aec5403b9c    1c  488b7e47             REX.W movq rdi,[rsi+0x47]
0x8aec5403ba0    20  448b07               movl r8,[rdi]
0x8aec5403ba3    23  4183e810             subl r8,0x10
0x8aec5403ba7    27  448907               movl [rdi],r8
0x8aec5403baa    2a  418954180c           movl [r8+rbx*1+0xc],rdx
0x8aec5403baf    2f  48897de8             REX.W movq [rbp-0x18],rdi
0x8aec5403bb3    33  4c8945e0             REX.W movq [rbp-0x20],r8
0x8aec5403bb7    37  488bca               REX.W movq rcx,rdx
0x8aec5403bba    3a  488bd0               REX.W movq rdx,rax
0x8aec5403bbd    3d  b800060000           movl rax,0x600
0x8aec5403bc2    42  488bd8               REX.W movq rbx,rax
0x8aec5403bc5    45  e8c044ffff           call 0x8aec53f808a  (jump table)    ;; internal wasm call
0x8aec5403bca    4a  488b5de0             REX.W movq rbx,[rbp-0x20]
0x8aec5403bce    4e  83c310               addl rbx,0x10
0x8aec5403bd1    51  488b7de8             REX.W movq rdi,[rbp-0x18]
0x8aec5403bd5    55  891f                 movl [rdi],rbx
0x8aec5403bd7    57  488be5               REX.W movq rsp,rbp
0x8aec5403bda    5a  5d                   pop rbp
0x8aec5403bdb    5b  c3                   retl
0x8aec5403bdc    5c  488945d8             REX.W movq [rbp-0x28],rax
0x8aec5403be0    60  488955d0             REX.W movq [rbp-0x30],rdx
0x8aec5403be4    64  e88747ffff           call 0x8aec53f8370  (jump table)    ;; wasm stub: WasmStackGuard
0x8aec5403be9    69  488b75f0             REX.W movq rsi,[rbp-0x10]
0x8aec5403bed    6d  488b45d8             REX.W movq rax,[rbp-0x28]
0x8aec5403bf1    71  488b55d0             REX.W movq rdx,[rbp-0x30]
0x8aec5403bf5    75  eba1                 jmp 0x8aec5403b98  <+0x18>
0x8aec5403bf7    77  e81445ffff           call 0x8aec53f8110  (jump table)    ;; wasm stub: ThrowWasmTrapMemOutOfBounds
0x8aec5403bfc    7c  90                   nop
0x8aec5403bfd    7d  0f1f00               nop

Protected instructions:
 pc offset  land pad
        2a        77

Source positions:
 pc offset  position
        2a        16
        2f        26
        5c         0
        77        16

Safepoints (entries = 1, byte size = 10)
0x8aec5403bca     4a  slots (sp->fp): 00000000

RelocInfo (size = 6)
0x8aec5403bc6  internal wasm call
0x8aec5403be5  wasm stub call
0x8aec5403bf8  wasm stub call

--- End code ---
--- WebAssembly code ---
name: isdigit
index: 15
kind: wasm function
compiler: TurboFan
Body (size = 64 = 36 + 28 padding)
Instructions (size = 28)
0x8aec53fee40     0  55                   push rbp
0x8aec53fee41     1  4889e5               REX.W movq rbp,rsp
0x8aec53fee44     4  6a08                 push 0x8
0x8aec53fee46     6  56                   push rsi
0x8aec53fee47     7  8d58d0               leal rbx,[rax-0x30]
0x8aec53fee4a     a  83fb0a               cmpl rbx,0xa
0x8aec53fee4d     d  0f92c0               setcl al
0x8aec53fee50    10  0fb6c0               movzxbl rax,rax
0x8aec53fee53    13  488be5               REX.W movq rsp,rbp
0x8aec53fee56    16  5d                   pop rbp
0x8aec53fee57    17  c3                   retl
0x8aec53fee58    18  90                   nop
0x8aec53fee59    19  0f1f00               nop

Safepoints (entries = 0, byte size = 8)

RelocInfo (size = 0)

--- End code ---
--- WebAssembly code ---
name: out
index: 23
kind: wasm function
compiler: Liftoff
Body (size = 128 = 128 + 0 padding)
Instructions (size = 116)
0x8aec53f9f00     0  55                   push rbp
0x8aec53f9f01     1  4889e5               REX.W movq rbp,rsp
0x8aec53f9f04     4  6a08                 push 0x8
0x8aec53f9f06     6  56                   push rsi
0x8aec53f9f07     7  4881ec38000000       REX.W subq rsp,0x38
0x8aec53f9f0e     e  488b5e27             REX.W movq rbx,[rsi+0x27]
0x8aec53f9f12    12  483b23               REX.W cmpq rsp,[rbx]
0x8aec53f9f15    15  0f8642000000         jna 0x8aec53f9f5d  <+0x5d>
0x8aec53f9f1b    1b  488b5e17             REX.W movq rbx,[rsi+0x17]
0x8aec53f9f1f    1f  0fb63c03             movzxbl rdi,[rbx+rax*1]
0x8aec53f9f23    23  83e720               andl rdi,0x20
0x8aec53f9f26    26  85ff                 testl rdi,rdi
0x8aec53f9f28    28  0f852a000000         jnz 0x8aec53f9f58  <+0x58>
0x8aec53f9f2e    2e  894dcc               movl [rbp-0x34],rcx
0x8aec53f9f31    31  8955d0               movl [rbp-0x30],rdx
0x8aec53f9f34    34  8945d4               movl [rbp-0x2c],rax
0x8aec53f9f37    37  8955bc               movl [rbp-0x44],rdx
0x8aec53f9f3a    3a  8bd1                 movl rdx,rcx
0x8aec53f9f3c    3c  8bc8                 movl rcx,rax
0x8aec53f9f3e    3e  8b45bc               movl rax,[rbp-0x44]
0x8aec53f9f41    41  488b75f0             REX.W movq rsi,[rbp-0x10]
0x8aec53f9f45    45  e80ae1ffff           call 0x8aec53f8054  (jump table)
0x8aec53f9f4a    4a  8b45d4               movl rax,[rbp-0x2c]
0x8aec53f9f4d    4d  8b4dcc               movl rcx,[rbp-0x34]
0x8aec53f9f50    50  8b55d0               movl rdx,[rbp-0x30]
0x8aec53f9f53    53  e900000000           jmp 0x8aec53f9f58  <+0x58>
0x8aec53f9f58    58  488be5               REX.W movq rsp,rbp
0x8aec53f9f5b    5b  5d                   pop rbp
0x8aec53f9f5c    5c  c3                   retl
0x8aec53f9f5d    5d  50                   push rax
0x8aec53f9f5e    5e  51                   push rcx
0x8aec53f9f5f    5f  52                   push rdx
0x8aec53f9f60    60  e80be4ffff           call 0x8aec53f8370  (jump table)
0x8aec53f9f65    65  5a                   pop rdx
0x8aec53f9f66    66  59                   pop rcx
0x8aec53f9f67    67  58                   pop rax
0x8aec53f9f68    68  488b75f0             REX.W movq rsi,[rbp-0x10]
0x8aec53f9f6c    6c  ebad                 jmp 0x8aec53f9f1b  <+0x1b>
0x8aec53f9f6e    6e  e89de1ffff           call 0x8aec53f8110  (jump table)
0x8aec53f9f73    73  90                   nop

Protected instructions:
 pc offset  land pad
        1f        6e

Source positions:
 pc offset  position
        45        18  statement
        60         0  statement
        6e         3  statement

Safepoints (entries = 1, byte size = 11)
0x8aec53f9f4a     4a  slots (sp->fp): 0000000000000000

RelocInfo (size = 0)

--- End code ---
--- WebAssembly code ---
name: getint
index: 24
kind: wasm function
compiler: Liftoff
Body (size = 384 = 328 + 56 padding)
Instructions (size = 316)
0x8aec53f9f80     0  55                   push rbp
0x8aec53f9f81     1  4889e5               REX.W movq rbp,rsp
0x8aec53f9f84     4  6a08                 push 0x8
0x8aec53f9f86     6  56                   push rsi
0x8aec53f9f87     7  4881ec30000000       REX.W subq rsp,0x30
0x8aec53f9f8e     e  488b4e27             REX.W movq rcx,[rsi+0x27]
0x8aec53f9f92    12  483b21               REX.W cmpq rsp,[rcx]
0x8aec53f9f95    15  0f86e4000000         jna 0x8aec53fa07f  <+0xff>
0x8aec53f9f9b    1b  488b4e17             REX.W movq rcx,[rsi+0x17]
0x8aec53f9f9f    1f  8b1401               movl rdx,[rcx+rax*1]
0x8aec53f9fa2    22  0fbe1c11             movsxbl rbx,[rcx+rdx*1]
0x8aec53f9fa6    26  8945d4               movl [rbp-0x2c],rax
0x8aec53f9fa9    29  8bc3                 movl rax,rbx
0x8aec53f9fab    2b  488b75f0             REX.W movq rsi,[rbp-0x10]
0x8aec53f9faf    2f  e883e0ffff           call 0x8aec53f8037  (jump table)
0x8aec53f9fb4    34  85c0                 testl rax,rax
0x8aec53f9fb6    36  0f8507000000         jnz 0x8aec53f9fc3  <+0x43>
0x8aec53f9fbc    3c  33c0                 xorl rax,rax
0x8aec53f9fbe    3e  488be5               REX.W movq rsp,rbp
0x8aec53f9fc1    41  5d                   pop rbp
0x8aec53f9fc2    42  c3                   retl
0x8aec53f9fc3    43  c745d000000000       movl [rbp-0x30],0x0
0x8aec53f9fca    4a  c745cc00000000       movl [rbp-0x34],0x0
0x8aec53f9fd1    51  c745c800000000       movl [rbp-0x38],0x0
0x8aec53f9fd8    58  488b75f0             REX.W movq rsi,[rbp-0x10]
0x8aec53f9fdc    5c  488b4627             REX.W movq rax,[rsi+0x27]
0x8aec53f9fe0    60  483b20               REX.W cmpq rsp,[rax]
0x8aec53f9fe3    63  0f86b0000000         jna 0x8aec53fa099  <+0x119>
0x8aec53f9fe9    69  8b45d4               movl rax,[rbp-0x2c]
0x8aec53f9fec    6c  488b4e17             REX.W movq rcx,[rsi+0x17]
0x8aec53f9ff0    70  8b1401               movl rdx,[rcx+rax*1]
0x8aec53f9ff3    73  8b45cc               movl rax,[rbp-0x34]
0x8aec53f9ff6    76  3dcccccc0c           cmp rax,0xccccccc
0x8aec53f9ffb    7b  0f8742000000         ja 0x8aec53fa043  <+0xc3>
0x8aec53fa001    81  0fbe0411             movsxbl rax,[rcx+rdx*1]
0x8aec53fa005    85  bb30000000           movl rbx,0x30
0x8aec53fa00a    8a  2bc3                 subl rax,rbx
0x8aec53fa00c    8c  8b5dcc               movl rbx,[rbp-0x34]
0x8aec53fa00f    8f  bf0a000000           movl rdi,0xa
0x8aec53fa014    94  0fafdf               imull rbx,rdi
0x8aec53fa017    97  8d3c18               leal rdi,[rax+rbx*1]
0x8aec53fa01a    9a  41b9ffffff7f         movl r9,0x7fffffff
0x8aec53fa020    a0  442bcb               subl r9,rbx
0x8aec53fa023    a3  413bc1               cmpl rax,r9
0x8aec53fa026    a6  410f9fc1             setgl r9l
0x8aec53fa02a    aa  450fb6c9             movzxbl r9,r9
0x8aec53fa02e    ae  beffffffff           movl rsi,0xffffffff
0x8aec53fa033    b3  4585c9               testl r9,r9
0x8aec53fa036    b6  0f44f7               cmovzl rsi,rdi
0x8aec53fa039    b9  895dcc               movl [rbp-0x34],rbx
0x8aec53fa03c    bc  8bc6                 movl rax,rsi
0x8aec53fa03e    be  e905000000           jmp 0x8aec53fa048  <+0xc8>
0x8aec53fa043    c3  b8ffffffff           movl rax,0xffffffff
0x8aec53fa048    c8  8b5dd4               movl rbx,[rbp-0x2c]
0x8aec53fa04b    cb  8d7201               leal rsi,[rdx+0x1]
0x8aec53fa04e    ce  893419               movl [rcx+rbx*1],rsi
0x8aec53fa051    d1  0fbe5c1101           movsxbl rbx,[rcx+rdx*1+0x1]
0x8aec53fa056    d6  8955c8               movl [rbp-0x38],rdx
0x8aec53fa059    d9  8945cc               movl [rbp-0x34],rax
0x8aec53fa05c    dc  8945d0               movl [rbp-0x30],rax
0x8aec53fa05f    df  8bc3                 movl rax,rbx
0x8aec53fa061    e1  488b75f0             REX.W movq rsi,[rbp-0x10]
0x8aec53fa065    e5  e8cddfffff           call 0x8aec53f8037  (jump table)
0x8aec53fa06a    ea  85c0                 testl rax,rax
0x8aec53fa06c    ec  0f8405000000         jz 0x8aec53fa077  <+0xf7>
0x8aec53fa072    f2  e961ffffff           jmp 0x8aec53f9fd8  <+0x58>
0x8aec53fa077    f7  8b45d0               movl rax,[rbp-0x30]
0x8aec53fa07a    fa  488be5               REX.W movq rsp,rbp
0x8aec53fa07d    fd  5d                   pop rbp
0x8aec53fa07e    fe  c3                   retl
0x8aec53fa07f    ff  50                   push rax
0x8aec53fa080   100  e8ebe2ffff           call 0x8aec53f8370  (jump table)
0x8aec53fa085   105  58                   pop rax
0x8aec53fa086   106  488b75f0             REX.W movq rsi,[rbp-0x10]
0x8aec53fa08a   10a  e90cffffff           jmp 0x8aec53f9f9b  <+0x1b>
0x8aec53fa08f   10f  e87ce0ffff           call 0x8aec53f8110  (jump table)
0x8aec53fa094   114  e877e0ffff           call 0x8aec53f8110  (jump table)
0x8aec53fa099   119  e8d2e2ffff           call 0x8aec53f8370  (jump table)
0x8aec53fa09e   11e  488b75f0             REX.W movq rsi,[rbp-0x10]
0x8aec53fa0a2   122  e942ffffff           jmp 0x8aec53f9fe9  <+0x69>
0x8aec53fa0a7   127  e864e0ffff           call 0x8aec53f8110  (jump table)
0x8aec53fa0ac   12c  e85fe0ffff           call 0x8aec53f8110  (jump table)
0x8aec53fa0b1   131  e85ae0ffff           call 0x8aec53f8110  (jump table)
0x8aec53fa0b6   136  e855e0ffff           call 0x8aec53f8110  (jump table)
0x8aec53fa0bb   13b  90                   nop

Protected instructions:
 pc offset  land pad
        1f       10f
        22       114
        70       127
        81       12c
        ce       131
        d1       136

Source positions:
 pc offset  position
        2f        15  statement
        e5       103  statement
       100         0  statement
       10f         9  statement
       114        12  statement
       119        24  statement
       127        28  statement
       12c        52  statement
       131        91  statement
       136       100  statement

Safepoints (entries = 1, byte size = 11)
0x8aec53f9fb4     34  slots (sp->fp): 0000000000000000

RelocInfo (size = 0)

--- End code ---
--- WebAssembly code ---
name: __emscripten_stdout_seek
index: 10
kind: wasm function
compiler: TurboFan
Body (size = 64 = 24 + 40 padding)
Instructions (size = 16)
0x8aec5401300     0  55                   push rbp
0x8aec5401301     1  4889e5               REX.W movq rbp,rsp
0x8aec5401304     4  6a08                 push 0x8
0x8aec5401306     6  56                   push rsi
0x8aec5401307     7  33c0                 xorl rax,rax
0x8aec5401309     9  488be5               REX.W movq rsp,rbp
0x8aec540130c     c  5d                   pop rbp
0x8aec540130d     d  c3                   retl
0x8aec540130e     e  90                   nop
0x8aec540130f     f  90                   nop

Safepoints (entries = 0, byte size = 8)

RelocInfo (size = 0)

--- End code ---
--- WebAssembly code ---
name: stackSave
index: 38
kind: wasm function
compiler: Liftoff
Body (size = 64 = 64 + 0 padding)
Instructions (size = 52)
0x8aec53fa780     0  55                   push rbp
0x8aec53fa781     1  4889e5               REX.W movq rbp,rsp
0x8aec53fa784     4  6a08                 push 0x8
0x8aec53fa786     6  56                   push rsi
0x8aec53fa787     7  4881ec18000000       REX.W subq rsp,0x18
0x8aec53fa78e     e  488b4627             REX.W movq rax,[rsi+0x27]
0x8aec53fa792    12  483b20               REX.W cmpq rsp,[rax]
0x8aec53fa795    15  0f860d000000         jna 0x8aec53fa7a8  <+0x28>
0x8aec53fa79b    1b  488b4647             REX.W movq rax,[rsi+0x47]
0x8aec53fa79f    1f  8b08                 movl rcx,[rax]
0x8aec53fa7a1    21  8bc1                 movl rax,rcx
0x8aec53fa7a3    23  488be5               REX.W movq rsp,rbp
0x8aec53fa7a6    26  5d                   pop rbp
0x8aec53fa7a7    27  c3                   retl
0x8aec53fa7a8    28  e8c3dbffff           call 0x8aec53f8370  (jump table)
0x8aec53fa7ad    2d  488b75f0             REX.W movq rsi,[rbp-0x10]
0x8aec53fa7b1    31  ebe8                 jmp 0x8aec53fa79b  <+0x1b>
0x8aec53fa7b3    33  90                   nop

Source positions:
 pc offset  position
        28         0  statement

Safepoints (entries = 1, byte size = 10)
0x8aec53fa7ad     2d  slots (sp->fp): 00000000

RelocInfo (size = 0)

--- End code ---
--- WebAssembly code ---
name: __get_tp
index: 34
kind: wasm function
compiler: Liftoff
Body (size = 64 = 60 + 4 padding)
Instructions (size = 48)
0x8aec53fa7c0     0  55                   push rbp
0x8aec53fa7c1     1  4889e5               REX.W movq rbp,rsp
0x8aec53fa7c4     4  6a08                 push 0x8
0x8aec53fa7c6     6  56                   push rsi
0x8aec53fa7c7     7  4881ec18000000       REX.W subq rsp,0x18
0x8aec53fa7ce     e  488b4627             REX.W movq rax,[rsi+0x27]
0x8aec53fa7d2    12  483b20               REX.W cmpq rsp,[rax]
0x8aec53fa7d5    15  0f860a000000         jna 0x8aec53fa7e5  <+0x25>
0x8aec53fa7db    1b  b8d40a0000           movl rax,0xad4
0x8aec53fa7e0    20  488be5               REX.W movq rsp,rbp
0x8aec53fa7e3    23  5d                   pop rbp
0x8aec53fa7e4    24  c3                   retl
0x8aec53fa7e5    25  e886dbffff           call 0x8aec53f8370  (jump table)
0x8aec53fa7ea    2a  488b75f0             REX.W movq rsi,[rbp-0x10]
0x8aec53fa7ee    2e  ebeb                 jmp 0x8aec53fa7db  <+0x1b>

Source positions:
 pc offset  position
        25         0  statement

Safepoints (entries = 1, byte size = 10)
0x8aec53fa7ea     2a  slots (sp->fp): 00000000

RelocInfo (size = 0)

--- End code ---
--- WebAssembly code ---
name: shl_simd(unsigned char*, unsigned char*, unsigned int, int)
index: 5
kind: wasm function
compiler: TurboFan
Body (size = 3392 = 3368 + 24 padding)
Instructions (size = 3352)
0x8aec5403c40     0  55                   push rbp
0x8aec5403c41     1  4889e5               REX.W movq rbp,rsp
0x8aec5403c44     4  6a08                 push 0x8
0x8aec5403c46     6  56                   push rsi
0x8aec5403c47     7  4881ece0000000       REX.W subq rsp,0xe0
0x8aec5403c4e     e  4c8b4617             REX.W movq r8,[rsi+0x17]
0x8aec5403c52    12  48895de8             REX.W movq [rbp-0x18],rbx
0x8aec5403c56    16  488945c0             REX.W movq [rbp-0x40],rax
0x8aec5403c5a    1a  488bf9               REX.W movq rdi,rcx
0x8aec5403c5d    1d  48894dd8             REX.W movq [rbp-0x28],rcx
0x8aec5403c61    21  83fb10               cmpl rbx,0x10
0x8aec5403c64    24  0f8cc9090000         jl 0x8aec5404633  <+0x9f3>
0x8aec5403c6a    2a  448d4bf0             leal r9,[rbx-0x10]
0x8aec5403c6e    2e  4d8bd9               REX.W movq r11,r9
0x8aec5403c71    31  41c1eb04             shrl r11, 4
0x8aec5403c75    35  4183c301             addl r11,0x1
0x8aec5403c79    39  4c895dc8             REX.W movq [rbp-0x38],r11
0x8aec5403c7d    3d  4183f930             cmpl r9,0x30
0x8aec5403c81    41  0f8308000000         jnc 0x8aec5403c8f  <+0x4f>
0x8aec5403c87    47  4531e4               xorl r12,r12
0x8aec5403c8a    4a  e9ec060000           jmp 0x8aec540437b  <+0x73b>
0x8aec5403c8f    4f  4c8b4e27             REX.W movq r9,[rsi+0x27]
0x8aec5403c93    53  4c8be7               REX.W movq r12,rdi
0x8aec5403c96    56  4183e407             andl r12,0x7
0x8aec5403c9a    5a  c441796efc           vmovd xmm15,r12
0x8aec5403c9f    5f  c4c27978c7           vpbroadcastb xmm0,xmm15
0x8aec5403ca4    64  c4c37914c400         vpextrb r12l,xmm0,0x0
0x8aec5403caa    6a  c4c37914c701         vpextrb r15l,xmm0,0x1
0x8aec5403cb0    70  c4e37914c102         vpextrb cl,xmm0,0x2
0x8aec5403cb6    76  c4e37914c703         vpextrb dil,xmm0,0x3
0x8aec5403cbc    7c  c4e37914c304         vpextrb bl,xmm0,0x4
0x8aec5403cc2    82  c4e37914c605         vpextrb sil,xmm0,0x5
0x8aec5403cc8    88  c4c37914c306         vpextrb r11l,xmm0,0x6
0x8aec5403cce    8e  48899d50ffffff       REX.W movq [rbp-0xb0],rbx
0x8aec5403cd5    95  c4e37914c307         vpextrb bl,xmm0,0x7
0x8aec5403cdb    9b  48899d68ffffff       REX.W movq [rbp-0x98],rbx
0x8aec5403ce2    a2  c4e37914c308         vpextrb bl,xmm0,0x8
0x8aec5403ce8    a8  48899d70ffffff       REX.W movq [rbp-0x90],rbx
0x8aec5403cef    af  c4e37914c309         vpextrb bl,xmm0,0x9
0x8aec5403cf5    b5  48899d78ffffff       REX.W movq [rbp-0x88],rbx
0x8aec5403cfc    bc  c4e37914c30a         vpextrb bl,xmm0,0xa
0x8aec5403d02    c2  48895d80             REX.W movq [rbp-0x80],rbx
0x8aec5403d06    c6  c4e37914c30b         vpextrb bl,xmm0,0xb
0x8aec5403d0c    cc  48895d88             REX.W movq [rbp-0x78],rbx
0x8aec5403d10    d0  c4e37914c30c         vpextrb bl,xmm0,0xc
0x8aec5403d16    d6  48895d90             REX.W movq [rbp-0x70],rbx
0x8aec5403d1a    da  c4e37914c30d         vpextrb bl,xmm0,0xd
0x8aec5403d20    e0  48895d98             REX.W movq [rbp-0x68],rbx
0x8aec5403d24    e4  c4e37914c30e         vpextrb bl,xmm0,0xe
0x8aec5403d2a    ea  48895da0             REX.W movq [rbp-0x60],rbx
0x8aec5403d2e    ee  c4e37914c30f         vpextrb bl,xmm0,0xf
0x8aec5403d34    f4  4c899d60ffffff       REX.W movq [rbp-0xa0],r11
0x8aec5403d3b    fb  4c8b5dc8             REX.W movq r11,[rbp-0x38]
0x8aec5403d3f    ff  4181e3fcffff1f       andl r11,0x1ffffffc
0x8aec5403d46   106  4c898d10ffffff       REX.W movq [rbp-0xf0],r9
0x8aec5403d4d   10d  4c89a530ffffff       REX.W movq [rbp-0xd0],r12
0x8aec5403d54   114  4c89bd38ffffff       REX.W movq [rbp-0xc8],r15
0x8aec5403d5b   11b  48898d40ffffff       REX.W movq [rbp-0xc0],rcx
0x8aec5403d62   122  4889bd48ffffff       REX.W movq [rbp-0xb8],rdi
0x8aec5403d69   129  4889b558ffffff       REX.W movq [rbp-0xa8],rsi
0x8aec5403d70   130  48895da8             REX.W movq [rbp-0x58],rbx
0x8aec5403d74   134  33db                 xorl rbx,rbx
0x8aec5403d76   136  488bf3               REX.W movq rsi,rbx
0x8aec5403d79   139  e91e000000           jmp 0x8aec5403d9c  <+0x15c>
0x8aec5403d7e   13e  6690                 nop
0x8aec5403d80   140  4c8b8d10ffffff       REX.W movq r9,[rbp-0xf0]
0x8aec5403d87   147  488bb518ffffff       REX.W movq rsi,[rbp-0xe8]
0x8aec5403d8e   14e  4c8bbd38ffffff       REX.W movq r15,[rbp-0xc8]
0x8aec5403d95   155  4c8ba530ffffff       REX.W movq r12,[rbp-0xd0]
0x8aec5403d9c   15c  493b21               REX.W cmpq rsp,[r9]
0x8aec5403d9f   15f  0f86170a0000         jna 0x8aec54047bc  <+0xb7c>
0x8aec5403da5   165  8d7e40               leal rdi,[rsi+0x40]
0x8aec5403da8   168  4889bd18ffffff       REX.W movq [rbp-0xe8],rdi
0x8aec5403daf   16f  8d3c30               leal rdi,[rax+rsi*1]
0x8aec5403db2   172  c4c17a6f0438         vmovdqu xmm0,[r8+rdi*1]
0x8aec5403db8   178  c4e37914c700         vpextrb dil,xmm0,0x0
0x8aec5403dbe   17e  c4c37914c101         vpextrb r9l,xmm0,0x1
0x8aec5403dc4   184  4c89e1               REX.W movq rcx,r12
0x8aec5403dc7   187  d3e7                 shll rdi, cl
0x8aec5403dc9   189  c4e37914c102         vpextrb cl,xmm0,0x2
0x8aec5403dcf   18f  48898d20ffffff       REX.W movq [rbp-0xe0],rcx
0x8aec5403dd6   196  498bcf               REX.W movq rcx,r15
0x8aec5403dd9   199  41d3e1               shll r9, cl
0x8aec5403ddc   19c  c5796eff             vmovd xmm15,rdi
0x8aec5403de0   1a0  c4c27978cf           vpbroadcastb xmm1,xmm15
0x8aec5403de5   1a5  c4e37914c703         vpextrb dil,xmm0,0x3
0x8aec5403deb   1ab  488b8d40ffffff       REX.W movq rcx,[rbp-0xc0]
0x8aec5403df2   1b2  4c8ba520ffffff       REX.W movq r12,[rbp-0xe0]
0x8aec5403df9   1b9  41d3e4               shll r12, cl
0x8aec5403dfc   1bc  c4c37120c901         vpinsrb xmm1,xmm1,r9l,0x1
0x8aec5403e02   1c2  c4c37914c104         vpextrb r9l,xmm0,0x4
0x8aec5403e08   1c8  488b8d48ffffff       REX.W movq rcx,[rbp-0xb8]
0x8aec5403e0f   1cf  d3e7                 shll rdi, cl
0x8aec5403e11   1d1  c4c37120cc02         vpinsrb xmm1,xmm1,r12l,0x2
0x8aec5403e17   1d7  c4c37914c405         vpextrb r12l,xmm0,0x5
0x8aec5403e1d   1dd  488b8d50ffffff       REX.W movq rcx,[rbp-0xb0]
0x8aec5403e24   1e4  41d3e1               shll r9, cl
0x8aec5403e27   1e7  c4e37120cf03         vpinsrb xmm1,xmm1,dil,0x3
0x8aec5403e2d   1ed  c4e37914c706         vpextrb dil,xmm0,0x6
0x8aec5403e33   1f3  488b8d58ffffff       REX.W movq rcx,[rbp-0xa8]
0x8aec5403e3a   1fa  41d3e4               shll r12, cl
0x8aec5403e3d   1fd  c4c37120c904         vpinsrb xmm1,xmm1,r9l,0x4
0x8aec5403e43   203  c4c37914c107         vpextrb r9l,xmm0,0x7
0x8aec5403e49   209  488b8d60ffffff       REX.W movq rcx,[rbp-0xa0]
0x8aec5403e50   210  d3e7                 shll rdi, cl
0x8aec5403e52   212  c4c37120cc05         vpinsrb xmm1,xmm1,r12l,0x5
0x8aec5403e58   218  c4c37914c408         vpextrb r12l,xmm0,0x8
0x8aec5403e5e   21e  488b8d68ffffff       REX.W movq rcx,[rbp-0x98]
0x8aec5403e65   225  41d3e1               shll r9, cl
0x8aec5403e68   228  c4e37120cf06         vpinsrb xmm1,xmm1,dil,0x6
0x8aec5403e6e   22e  c4e37914c709         vpextrb dil,xmm0,0x9
0x8aec5403e74   234  488b8d70ffffff       REX.W movq rcx,[rbp-0x90]
0x8aec5403e7b   23b  41d3e4               shll r12, cl
0x8aec5403e7e   23e  c4c37120c907         vpinsrb xmm1,xmm1,r9l,0x7
0x8aec5403e84   244  c4c37914c10a         vpextrb r9l,xmm0,0xa
0x8aec5403e8a   24a  488b8d78ffffff       REX.W movq rcx,[rbp-0x88]
0x8aec5403e91   251  d3e7                 shll rdi, cl
0x8aec5403e93   253  c4c37120cc08         vpinsrb xmm1,xmm1,r12l,0x8
0x8aec5403e99   259  c4c37914c40b         vpextrb r12l,xmm0,0xb
0x8aec5403e9f   25f  488b4d80             REX.W movq rcx,[rbp-0x80]
0x8aec5403ea3   263  41d3e1               shll r9, cl
0x8aec5403ea6   266  c4e37120cf09         vpinsrb xmm1,xmm1,dil,0x9
0x8aec5403eac   26c  c4e37914c70c         vpextrb dil,xmm0,0xc
0x8aec5403eb2   272  488b4d88             REX.W movq rcx,[rbp-0x78]
0x8aec5403eb6   276  41d3e4               shll r12, cl
0x8aec5403eb9   279  c4c37120c90a         vpinsrb xmm1,xmm1,r9l,0xa
0x8aec5403ebf   27f  c4c37914c10d         vpextrb r9l,xmm0,0xd
0x8aec5403ec5   285  488b4d90             REX.W movq rcx,[rbp-0x70]
0x8aec5403ec9   289  d3e7                 shll rdi, cl
0x8aec5403ecb   28b  c4c37120cc0b         vpinsrb xmm1,xmm1,r12l,0xb
0x8aec5403ed1   291  c4c37914c40e         vpextrb r12l,xmm0,0xe
0x8aec5403ed7   297  488b4d98             REX.W movq rcx,[rbp-0x68]
0x8aec5403edb   29b  41d3e1               shll r9, cl
0x8aec5403ede   29e  c4e37120cf0c         vpinsrb xmm1,xmm1,dil,0xc
0x8aec5403ee4   2a4  c4e37914c70f         vpextrb dil,xmm0,0xf
0x8aec5403eea   2aa  488b4da0             REX.W movq rcx,[rbp-0x60]
0x8aec5403eee   2ae  41d3e4               shll r12, cl
0x8aec5403ef1   2b1  c4c37120c90d         vpinsrb xmm1,xmm1,r9l,0xd
0x8aec5403ef7   2b7  488b4da8             REX.W movq rcx,[rbp-0x58]
0x8aec5403efb   2bb  d3e7                 shll rdi, cl
0x8aec5403efd   2bd  c4c37120cc0e         vpinsrb xmm1,xmm1,r12l,0xe
0x8aec5403f03   2c3  c4e37120cf0f         vpinsrb xmm1,xmm1,dil,0xf
0x8aec5403f09   2c9  8d3c32               leal rdi,[rdx+rsi*1]
0x8aec5403f0c   2cc  4c8bce               REX.W movq r9,rsi
0x8aec5403f0f   2cf  4183c910             orl r9,0x10
0x8aec5403f13   2d3  c5f1fcc0             vpaddb xmm0,xmm1,xmm0
0x8aec5403f17   2d7  468d2408             leal r12,[rax+r9*1]
0x8aec5403f1b   2db  c4c17a7f0438         vmovdqu [r8+rdi*1],xmm0
0x8aec5403f21   2e1  c4817a6f0420         vmovdqu xmm0,[r8+r12*1]
0x8aec5403f27   2e7  c4e37914c700         vpextrb dil,xmm0,0x0
0x8aec5403f2d   2ed  c4c37914c401         vpextrb r12l,xmm0,0x1
0x8aec5403f33   2f3  488b8d30ffffff       REX.W movq rcx,[rbp-0xd0]
0x8aec5403f3a   2fa  d3e7                 shll rdi, cl
0x8aec5403f3c   2fc  c4e37914c102         vpextrb cl,xmm0,0x2
0x8aec5403f42   302  48898d20ffffff       REX.W movq [rbp-0xe0],rcx
0x8aec5403f49   309  498bcf               REX.W movq rcx,r15
0x8aec5403f4c   30c  41d3e4               shll r12, cl
0x8aec5403f4f   30f  c5796eff             vmovd xmm15,rdi
0x8aec5403f53   313  c4c27978cf           vpbroadcastb xmm1,xmm15
0x8aec5403f58   318  c4e37914c703         vpextrb dil,xmm0,0x3
0x8aec5403f5e   31e  488b8d40ffffff       REX.W movq rcx,[rbp-0xc0]
0x8aec5403f65   325  4c8bbd20ffffff       REX.W movq r15,[rbp-0xe0]
0x8aec5403f6c   32c  41d3e7               shll r15, cl
0x8aec5403f6f   32f  c4c37120cc01         vpinsrb xmm1,xmm1,r12l,0x1
0x8aec5403f75   335  c4c37914c404         vpextrb r12l,xmm0,0x4
0x8aec5403f7b   33b  488b8d48ffffff       REX.W movq rcx,[rbp-0xb8]
0x8aec5403f82   342  d3e7                 shll rdi, cl
0x8aec5403f84   344  c4c37120cf02         vpinsrb xmm1,xmm1,r15l,0x2
0x8aec5403f8a   34a  c4c37914c705         vpextrb r15l,xmm0,0x5
0x8aec5403f90   350  488b8d50ffffff       REX.W movq rcx,[rbp-0xb0]
0x8aec5403f97   357  41d3e4               shll r12, cl
0x8aec5403f9a   35a  c4e37120cf03         vpinsrb xmm1,xmm1,dil,0x3
0x8aec5403fa0   360  c4e37914c706         vpextrb dil,xmm0,0x6
0x8aec5403fa6   366  488b8d58ffffff       REX.W movq rcx,[rbp-0xa8]
0x8aec5403fad   36d  41d3e7               shll r15, cl
0x8aec5403fb0   370  c4c37120cc04         vpinsrb xmm1,xmm1,r12l,0x4
0x8aec5403fb6   376  c4c37914c407         vpextrb r12l,xmm0,0x7
0x8aec5403fbc   37c  488b8d60ffffff       REX.W movq rcx,[rbp-0xa0]
0x8aec5403fc3   383  d3e7                 shll rdi, cl
0x8aec5403fc5   385  c4c37120cf05         vpinsrb xmm1,xmm1,r15l,0x5
0x8aec5403fcb   38b  c4c37914c708         vpextrb r15l,xmm0,0x8
0x8aec5403fd1   391  488b8d68ffffff       REX.W movq rcx,[rbp-0x98]
0x8aec5403fd8   398  41d3e4               shll r12, cl
0x8aec5403fdb   39b  c4e37120cf06         vpinsrb xmm1,xmm1,dil,0x6
0x8aec5403fe1   3a1  c4e37914c709         vpextrb dil,xmm0,0x9
0x8aec5403fe7   3a7  488b8d70ffffff       REX.W movq rcx,[rbp-0x90]
0x8aec5403fee   3ae  41d3e7               shll r15, cl
0x8aec5403ff1   3b1  c4c37120cc07         vpinsrb xmm1,xmm1,r12l,0x7
0x8aec5403ff7   3b7  c4c37914c40a         vpextrb r12l,xmm0,0xa
0x8aec5403ffd   3bd  488b8d78ffffff       REX.W movq rcx,[rbp-0x88]
0x8aec5404004   3c4  d3e7                 shll rdi, cl
0x8aec5404006   3c6  c4c37120cf08         vpinsrb xmm1,xmm1,r15l,0x8
0x8aec540400c   3cc  c4c37914c70b         vpextrb r15l,xmm0,0xb
0x8aec5404012   3d2  488b4d80             REX.W movq rcx,[rbp-0x80]
0x8aec5404016   3d6  41d3e4               shll r12, cl
0x8aec5404019   3d9  c4e37120cf09         vpinsrb xmm1,xmm1,dil,0x9
0x8aec540401f   3df  c4e37914c70c         vpextrb dil,xmm0,0xc
0x8aec5404025   3e5  488b4d88             REX.W movq rcx,[rbp-0x78]
0x8aec5404029   3e9  41d3e7               shll r15, cl
0x8aec540402c   3ec  c4c37120cc0a         vpinsrb xmm1,xmm1,r12l,0xa
0x8aec5404032   3f2  c4c37914c40d         vpextrb r12l,xmm0,0xd
0x8aec5404038   3f8  488b4d90             REX.W movq rcx,[rbp-0x70]
0x8aec540403c   3fc  d3e7                 shll rdi, cl
0x8aec540403e   3fe  c4c37120cf0b         vpinsrb xmm1,xmm1,r15l,0xb
0x8aec5404044   404  c4c37914c70e         vpextrb r15l,xmm0,0xe
0x8aec540404a   40a  488b4d98             REX.W movq rcx,[rbp-0x68]
0x8aec540404e   40e  41d3e4               shll r12, cl
0x8aec5404051   411  c4e37120cf0c         vpinsrb xmm1,xmm1,dil,0xc
0x8aec5404057   417  c4e37914c70f         vpextrb dil,xmm0,0xf
0x8aec540405d   41d  488b4da0             REX.W movq rcx,[rbp-0x60]
0x8aec5404061   421  41d3e7               shll r15, cl
0x8aec5404064   424  c4c37120cc0d         vpinsrb xmm1,xmm1,r12l,0xd
0x8aec540406a   42a  488b4da8             REX.W movq rcx,[rbp-0x58]
0x8aec540406e   42e  d3e7                 shll rdi, cl
0x8aec5404070   430  c4c37120cf0e         vpinsrb xmm1,xmm1,r15l,0xe
0x8aec5404076   436  c4e37120cf0f         vpinsrb xmm1,xmm1,dil,0xf
0x8aec540407c   43c  428d3c0a             leal rdi,[rdx+r9*1]
0x8aec5404080   440  4c8bce               REX.W movq r9,rsi
0x8aec5404083   443  4183c920             orl r9,0x20
0x8aec5404087   447  c5f1fcc0             vpaddb xmm0,xmm1,xmm0
0x8aec540408b   44b  468d2408             leal r12,[rax+r9*1]
0x8aec540408f   44f  c4c17a7f0438         vmovdqu [r8+rdi*1],xmm0
0x8aec5404095   455  c4817a6f0420         vmovdqu xmm0,[r8+r12*1]
0x8aec540409b   45b  c4e37914c700         vpextrb dil,xmm0,0x0
0x8aec54040a1   461  c4c37914c401         vpextrb r12l,xmm0,0x1
0x8aec54040a7   467  488b8d30ffffff       REX.W movq rcx,[rbp-0xd0]
0x8aec54040ae   46e  d3e7                 shll rdi, cl
0x8aec54040b0   470  c4c37914c702         vpextrb r15l,xmm0,0x2
0x8aec54040b6   476  488b8d38ffffff       REX.W movq rcx,[rbp-0xc8]
0x8aec54040bd   47d  41d3e4               shll r12, cl
0x8aec54040c0   480  c5796eff             vmovd xmm15,rdi
0x8aec54040c4   484  c4c27978cf           vpbroadcastb xmm1,xmm15
0x8aec54040c9   489  c4e37914c703         vpextrb dil,xmm0,0x3
0x8aec54040cf   48f  488b8d40ffffff       REX.W movq rcx,[rbp-0xc0]
0x8aec54040d6   496  41d3e7               shll r15, cl
0x8aec54040d9   499  c4c37120cc01         vpinsrb xmm1,xmm1,r12l,0x1
0x8aec54040df   49f  c4c37914c404         vpextrb r12l,xmm0,0x4
0x8aec54040e5   4a5  488b8d48ffffff       REX.W movq rcx,[rbp-0xb8]
0x8aec54040ec   4ac  d3e7                 shll rdi, cl
0x8aec54040ee   4ae  c4c37120cf02         vpinsrb xmm1,xmm1,r15l,0x2
0x8aec54040f4   4b4  c4c37914c705         vpextrb r15l,xmm0,0x5
0x8aec54040fa   4ba  488b8d50ffffff       REX.W movq rcx,[rbp-0xb0]
0x8aec5404101   4c1  41d3e4               shll r12, cl
0x8aec5404104   4c4  c4e37120cf03         vpinsrb xmm1,xmm1,dil,0x3
0x8aec540410a   4ca  c4e37914c706         vpextrb dil,xmm0,0x6
0x8aec5404110   4d0  488b8d58ffffff       REX.W movq rcx,[rbp-0xa8]
0x8aec5404117   4d7  41d3e7               shll r15, cl
0x8aec540411a   4da  c4c37120cc04         vpinsrb xmm1,xmm1,r12l,0x4
0x8aec5404120   4e0  c4c37914c407         vpextrb r12l,xmm0,0x7
0x8aec5404126   4e6  488b8d60ffffff       REX.W movq rcx,[rbp-0xa0]
0x8aec540412d   4ed  d3e7                 shll rdi, cl
0x8aec540412f   4ef  c4c37120cf05         vpinsrb xmm1,xmm1,r15l,0x5
0x8aec5404135   4f5  c4c37914c708         vpextrb r15l,xmm0,0x8
0x8aec540413b   4fb  488b8d68ffffff       REX.W movq rcx,[rbp-0x98]
0x8aec5404142   502  41d3e4               shll r12, cl
0x8aec5404145   505  c4e37120cf06         vpinsrb xmm1,xmm1,dil,0x6
0x8aec540414b   50b  c4e37914c709         vpextrb dil,xmm0,0x9
0x8aec5404151   511  488b8d70ffffff       REX.W movq rcx,[rbp-0x90]
0x8aec5404158   518  41d3e7               shll r15, cl
0x8aec540415b   51b  c4c37120cc07         vpinsrb xmm1,xmm1,r12l,0x7
0x8aec5404161   521  c4c37914c40a         vpextrb r12l,xmm0,0xa
0x8aec5404167   527  488b8d78ffffff       REX.W movq rcx,[rbp-0x88]
0x8aec540416e   52e  d3e7                 shll rdi, cl
0x8aec5404170   530  c4c37120cf08         vpinsrb xmm1,xmm1,r15l,0x8
0x8aec5404176   536  c4c37914c70b         vpextrb r15l,xmm0,0xb
0x8aec540417c   53c  488b4d80             REX.W movq rcx,[rbp-0x80]
0x8aec5404180   540  41d3e4               shll r12, cl
0x8aec5404183   543  c4e37120cf09         vpinsrb xmm1,xmm1,dil,0x9
0x8aec5404189   549  c4e37914c70c         vpextrb dil,xmm0,0xc
0x8aec540418f   54f  488b4d88             REX.W movq rcx,[rbp-0x78]
0x8aec5404193   553  41d3e7               shll r15, cl
0x8aec5404196   556  c4c37120cc0a         vpinsrb xmm1,xmm1,r12l,0xa
0x8aec540419c   55c  c4c37914c40d         vpextrb r12l,xmm0,0xd
0x8aec54041a2   562  488b4d90             REX.W movq rcx,[rbp-0x70]
0x8aec54041a6   566  d3e7                 shll rdi, cl
0x8aec54041a8   568  c4c37120cf0b         vpinsrb xmm1,xmm1,r15l,0xb
0x8aec54041ae   56e  c4c37914c70e         vpextrb r15l,xmm0,0xe
0x8aec54041b4   574  488b4d98             REX.W movq rcx,[rbp-0x68]
0x8aec54041b8   578  41d3e4               shll r12, cl
0x8aec54041bb   57b  c4e37120cf0c         vpinsrb xmm1,xmm1,dil,0xc
0x8aec54041c1   581  c4e37914c70f         vpextrb dil,xmm0,0xf
0x8aec54041c7   587  488b4da0             REX.W movq rcx,[rbp-0x60]
0x8aec54041cb   58b  41d3e7               shll r15, cl
0x8aec54041ce   58e  c4c37120cc0d         vpinsrb xmm1,xmm1,r12l,0xd
0x8aec54041d4   594  488b4da8             REX.W movq rcx,[rbp-0x58]
0x8aec54041d8   598  d3e7                 shll rdi, cl
0x8aec54041da   59a  c4c37120cf0e         vpinsrb xmm1,xmm1,r15l,0xe
0x8aec54041e0   5a0  c4e37120cf0f         vpinsrb xmm1,xmm1,dil,0xf
0x8aec54041e6   5a6  428d3c0a             leal rdi,[rdx+r9*1]
0x8aec54041ea   5aa  83ce30               orl rsi,0x30
0x8aec54041ed   5ad  c5f1fcc0             vpaddb xmm0,xmm1,xmm0
0x8aec54041f1   5b1  448d0c30             leal r9,[rax+rsi*1]
0x8aec54041f5   5b5  c4c17a7f0438         vmovdqu [r8+rdi*1],xmm0
0x8aec54041fb   5bb  c4817a6f0408         vmovdqu xmm0,[r8+r9*1]
0x8aec5404201   5c1  c4e37914c700         vpextrb dil,xmm0,0x0
0x8aec5404207   5c7  c4c37914c101         vpextrb r9l,xmm0,0x1
0x8aec540420d   5cd  488b8d30ffffff       REX.W movq rcx,[rbp-0xd0]
0x8aec5404214   5d4  d3e7                 shll rdi, cl
0x8aec5404216   5d6  c4c37914c402         vpextrb r12l,xmm0,0x2
0x8aec540421c   5dc  488b8d38ffffff       REX.W movq rcx,[rbp-0xc8]
0x8aec5404223   5e3  41d3e1               shll r9, cl
0x8aec5404226   5e6  c5796eff             vmovd xmm15,rdi
0x8aec540422a   5ea  c4c27978cf           vpbroadcastb xmm1,xmm15
0x8aec540422f   5ef  c4e37914c703         vpextrb dil,xmm0,0x3
0x8aec5404235   5f5  488b8d40ffffff       REX.W movq rcx,[rbp-0xc0]
0x8aec540423c   5fc  41d3e4               shll r12, cl
0x8aec540423f   5ff  c4c37120c901         vpinsrb xmm1,xmm1,r9l,0x1
0x8aec5404245   605  c4c37914c104         vpextrb r9l,xmm0,0x4
0x8aec540424b   60b  488b8d48ffffff       REX.W movq rcx,[rbp-0xb8]
0x8aec5404252   612  d3e7                 shll rdi, cl
0x8aec5404254   614  c4c37120cc02         vpinsrb xmm1,xmm1,r12l,0x2
0x8aec540425a   61a  c4c37914c405         vpextrb r12l,xmm0,0x5
0x8aec5404260   620  488b8d50ffffff       REX.W movq rcx,[rbp-0xb0]
0x8aec5404267   627  41d3e1               shll r9, cl
0x8aec540426a   62a  c4e37120cf03         vpinsrb xmm1,xmm1,dil,0x3
0x8aec5404270   630  c4e37914c706         vpextrb dil,xmm0,0x6
0x8aec5404276   636  488b8d58ffffff       REX.W movq rcx,[rbp-0xa8]
0x8aec540427d   63d  41d3e4               shll r12, cl
0x8aec5404280   640  c4c37120c904         vpinsrb xmm1,xmm1,r9l,0x4
0x8aec5404286   646  c4c37914c107         vpextrb r9l,xmm0,0x7
0x8aec540428c   64c  488b8d60ffffff       REX.W movq rcx,[rbp-0xa0]
0x8aec5404293   653  d3e7                 shll rdi, cl
0x8aec5404295   655  c4c37120cc05         vpinsrb xmm1,xmm1,r12l,0x5
0x8aec540429b   65b  c4c37914c408         vpextrb r12l,xmm0,0x8
0x8aec54042a1   661  488b8d68ffffff       REX.W movq rcx,[rbp-0x98]
0x8aec54042a8   668  41d3e1               shll r9, cl
0x8aec54042ab   66b  c4e37120cf06         vpinsrb xmm1,xmm1,dil,0x6
0x8aec54042b1   671  c4e37914c709         vpextrb dil,xmm0,0x9
0x8aec54042b7   677  488b8d70ffffff       REX.W movq rcx,[rbp-0x90]
0x8aec54042be   67e  41d3e4               shll r12, cl
0x8aec54042c1   681  c4c37120c907         vpinsrb xmm1,xmm1,r9l,0x7
0x8aec54042c7   687  c4c37914c10a         vpextrb r9l,xmm0,0xa
0x8aec54042cd   68d  488b8d78ffffff       REX.W movq rcx,[rbp-0x88]
0x8aec54042d4   694  d3e7                 shll rdi, cl
0x8aec54042d6   696  c4c37120cc08         vpinsrb xmm1,xmm1,r12l,0x8
0x8aec54042dc   69c  c4c37914c40b         vpextrb r12l,xmm0,0xb
0x8aec54042e2   6a2  488b4d80             REX.W movq rcx,[rbp-0x80]
0x8aec54042e6   6a6  41d3e1               shll r9, cl
0x8aec54042e9   6a9  c4e37120cf09         vpinsrb xmm1,xmm1,dil,0x9
0x8aec54042ef   6af  c4e37914c70c         vpextrb dil,xmm0,0xc
0x8aec54042f5   6b5  488b4d88             REX.W movq rcx,[rbp-0x78]
0x8aec54042f9   6b9  41d3e4               shll r12, cl
0x8aec54042fc   6bc  c4c37120c90a         vpinsrb xmm1,xmm1,r9l,0xa
0x8aec5404302   6c2  c4c37914c10d         vpextrb r9l,xmm0,0xd
0x8aec5404308   6c8  488b4d90             REX.W movq rcx,[rbp-0x70]
0x8aec540430c   6cc  d3e7                 shll rdi, cl
0x8aec540430e   6ce  c4c37120cc0b         vpinsrb xmm1,xmm1,r12l,0xb
0x8aec5404314   6d4  c4c37914c40e         vpextrb r12l,xmm0,0xe
0x8aec540431a   6da  488b4d98             REX.W movq rcx,[rbp-0x68]
0x8aec540431e   6de  41d3e1               shll r9, cl
0x8aec5404321   6e1  c4e37120cf0c         vpinsrb xmm1,xmm1,dil,0xc
0x8aec5404327   6e7  c4e37914c70f         vpextrb dil,xmm0,0xf
0x8aec540432d   6ed  488b4da0             REX.W movq rcx,[rbp-0x60]
0x8aec5404331   6f1  41d3e4               shll r12, cl
0x8aec5404334   6f4  c4c37120c90d         vpinsrb xmm1,xmm1,r9l,0xd
0x8aec540433a   6fa  488b4da8             REX.W movq rcx,[rbp-0x58]
0x8aec540433e   6fe  d3e7                 shll rdi, cl
0x8aec5404340   700  c4c37120cc0e         vpinsrb xmm1,xmm1,r12l,0xe
0x8aec5404346   706  c4e37120cf0f         vpinsrb xmm1,xmm1,dil,0xf
0x8aec540434c   70c  03f2                 addl rsi,rdx
0x8aec540434e   70e  c5f1fcc0             vpaddb xmm0,xmm1,xmm0
0x8aec5404352   712  c4c17a7f0430         vmovdqu [r8+rsi*1],xmm0
0x8aec5404358   718  83c304               addl rbx,0x4
0x8aec540435b   71b  443bdb               cmpl r11,rbx
0x8aec540435e   71e  0f851cfaffff         jnz 0x8aec5403d80  <+0x140>
0x8aec5404364   724  4c8ba518ffffff       REX.W movq r12,[rbp-0xe8]
0x8aec540436b   72b  488b5de8             REX.W movq rbx,[rbp-0x18]
0x8aec540436f   72f  488b7dd8             REX.W movq rdi,[rbp-0x28]
0x8aec5404373   733  488b75f0             REX.W movq rsi,[rbp-0x10]
0x8aec5404377   737  4c8b5dc8             REX.W movq r11,[rbp-0x38]
0x8aec540437b   73b  4533c9               xorl r9,r9
0x8aec540437e   73e  4c89a518ffffff       REX.W movq [rbp-0xe8],r12
0x8aec5404385   745  4183e303             andl r11,0x3
0x8aec5404389   749  0f849c020000         jz 0x8aec540462b  <+0x9eb>
0x8aec540438f   74f  4c8b7e27             REX.W movq r15,[rsi+0x27]
0x8aec5404393   753  488bcf               REX.W movq rcx,rdi
0x8aec5404396   756  83e107               andl rcx,0x7
0x8aec5404399   759  c5796ef9             vmovd xmm15,rcx
0x8aec540439d   75d  c4c27978c7           vpbroadcastb xmm0,xmm15
0x8aec54043a2   762  c4e37914c100         vpextrb cl,xmm0,0x0
0x8aec54043a8   768  c4e37914c701         vpextrb dil,xmm0,0x1
0x8aec54043ae   76e  c4e37914c602         vpextrb sil,xmm0,0x2
0x8aec54043b4   774  c4e37914c303         vpextrb bl,xmm0,0x3
0x8aec54043ba   77a  c4c37914c404         vpextrb r12l,xmm0,0x4
0x8aec54043c0   780  48899d48ffffff       REX.W movq [rbp-0xb8],rbx
0x8aec54043c7   787  c4e37914c305         vpextrb bl,xmm0,0x5
0x8aec54043cd   78d  48899d58ffffff       REX.W movq [rbp-0xa8],rbx
0x8aec54043d4   794  c4e37914c306         vpextrb bl,xmm0,0x6
0x8aec54043da   79a  48899d60ffffff       REX.W movq [rbp-0xa0],rbx
0x8aec54043e1   7a1  c4e37914c307         vpextrb bl,xmm0,0x7
0x8aec54043e7   7a7  48899d68ffffff       REX.W movq [rbp-0x98],rbx
0x8aec54043ee   7ae  c4e37914c308         vpextrb bl,xmm0,0x8
0x8aec54043f4   7b4  48899d70ffffff       REX.W movq [rbp-0x90],rbx
0x8aec54043fb   7bb  c4e37914c309         vpextrb bl,xmm0,0x9
0x8aec5404401   7c1  48899d78ffffff       REX.W movq [rbp-0x88],rbx
0x8aec5404408   7c8  c4e37914c30a         vpextrb bl,xmm0,0xa
0x8aec540440e   7ce  48895d80             REX.W movq [rbp-0x80],rbx
0x8aec5404412   7d2  c4e37914c30b         vpextrb bl,xmm0,0xb
0x8aec5404418   7d8  48895d88             REX.W movq [rbp-0x78],rbx
0x8aec540441c   7dc  c4e37914c30c         vpextrb bl,xmm0,0xc
0x8aec5404422   7e2  48895d90             REX.W movq [rbp-0x70],rbx
0x8aec5404426   7e6  c4e37914c30d         vpextrb bl,xmm0,0xd
0x8aec540442c   7ec  48895d98             REX.W movq [rbp-0x68],rbx
0x8aec5404430   7f0  c4e37914c30e         vpextrb bl,xmm0,0xe
0x8aec5404436   7f6  48895da0             REX.W movq [rbp-0x60],rbx
0x8aec540443a   7fa  c4e37914c30f         vpextrb bl,xmm0,0xf
0x8aec5404440   800  48898d28ffffff       REX.W movq [rbp-0xd8],rcx
0x8aec5404447   807  4889bd30ffffff       REX.W movq [rbp-0xd0],rdi
0x8aec540444e   80e  4889b538ffffff       REX.W movq [rbp-0xc8],rsi
0x8aec5404455   815  48895da8             REX.W movq [rbp-0x58],rbx
0x8aec5404459   819  e934000000           jmp 0x8aec5404492  <+0x852>
0x8aec540445e   81e  660f1f840000000000   nop
0x8aec5404467   827  660f1f840000000000   nop
0x8aec5404470   830  660f1f840000000000   nop
0x8aec5404479   839  0f1f8000000000       nop
0x8aec5404480   840  488b8d28ffffff       REX.W movq rcx,[rbp-0xd8]
0x8aec5404487   847  488bb538ffffff       REX.W movq rsi,[rbp-0xc8]
0x8aec540448e   84e  488b45c0             REX.W movq rax,[rbp-0x40]
0x8aec5404492   852  488b9d18ffffff       REX.W movq rbx,[rbp-0xe8]
0x8aec5404499   859  493b27               REX.W cmpq rsp,[r15]
0x8aec540449c   85c  0f8664030000         jna 0x8aec5404806  <+0xbc6>
0x8aec54044a2   862  8d7b10               leal rdi,[rbx+0x10]
0x8aec54044a5   865  4889bd18ffffff       REX.W movq [rbp-0xe8],rdi
0x8aec54044ac   86c  8d3c18               leal rdi,[rax+rbx*1]
0x8aec54044af   86f  c4c17a6f0438         vmovdqu xmm0,[r8+rdi*1]
0x8aec54044b5   875  c4e37914c700         vpextrb dil,xmm0,0x0
0x8aec54044bb   87b  c4e37914c001         vpextrb al,xmm0,0x1
0x8aec54044c1   881  d3e7                 shll rdi, cl
0x8aec54044c3   883  c4e37914c102         vpextrb cl,xmm0,0x2
0x8aec54044c9   889  48898d40ffffff       REX.W movq [rbp-0xc0],rcx
0x8aec54044d0   890  488b8d30ffffff       REX.W movq rcx,[rbp-0xd0]
0x8aec54044d7   897  d3e0                 shll rax, cl
0x8aec54044d9   899  c5796eff             vmovd xmm15,rdi
0x8aec54044dd   89d  c4c27978cf           vpbroadcastb xmm1,xmm15
0x8aec54044e2   8a2  c4e37914c703         vpextrb dil,xmm0,0x3
0x8aec54044e8   8a8  488bce               REX.W movq rcx,rsi
0x8aec54044eb   8ab  488bb540ffffff       REX.W movq rsi,[rbp-0xc0]
0x8aec54044f2   8b2  d3e6                 shll rsi, cl
0x8aec54044f4   8b4  c4e37120c801         vpinsrb xmm1,xmm1,al,0x1
0x8aec54044fa   8ba  c4e37914c004         vpextrb al,xmm0,0x4
0x8aec5404500   8c0  488b8d48ffffff       REX.W movq rcx,[rbp-0xb8]
0x8aec5404507   8c7  d3e7                 shll rdi, cl
0x8aec5404509   8c9  c4e37120ce02         vpinsrb xmm1,xmm1,sil,0x2
0x8aec540450f   8cf  c4e37914c605         vpextrb sil,xmm0,0x5
0x8aec5404515   8d5  4c89e1               REX.W movq rcx,r12
0x8aec5404518   8d8  d3e0                 shll rax, cl
0x8aec540451a   8da  c4e37120cf03         vpinsrb xmm1,xmm1,dil,0x3
0x8aec5404520   8e0  c4e37914c706         vpextrb dil,xmm0,0x6
0x8aec5404526   8e6  488b8d58ffffff       REX.W movq rcx,[rbp-0xa8]
0x8aec540452d   8ed  d3e6                 shll rsi, cl
0x8aec540452f   8ef  c4e37120c804         vpinsrb xmm1,xmm1,al,0x4
0x8aec5404535   8f5  c4e37914c007         vpextrb al,xmm0,0x7
0x8aec540453b   8fb  488b8d60ffffff       REX.W movq rcx,[rbp-0xa0]
0x8aec5404542   902  d3e7                 shll rdi, cl
0x8aec5404544   904  c4e37120ce05         vpinsrb xmm1,xmm1,sil,0x5
0x8aec540454a   90a  c4e37914c608         vpextrb sil,xmm0,0x8
0x8aec5404550   910  488b8d68ffffff       REX.W movq rcx,[rbp-0x98]
0x8aec5404557   917  d3e0                 shll rax, cl
0x8aec5404559   919  c4e37120cf06         vpinsrb xmm1,xmm1,dil,0x6
0x8aec540455f   91f  c4e37914c709         vpextrb dil,xmm0,0x9
0x8aec5404565   925  488b8d70ffffff       REX.W movq rcx,[rbp-0x90]
0x8aec540456c   92c  d3e6                 shll rsi, cl
0x8aec540456e   92e  c4e37120c807         vpinsrb xmm1,xmm1,al,0x7
0x8aec5404574   934  c4e37914c00a         vpextrb al,xmm0,0xa
0x8aec540457a   93a  488b8d78ffffff       REX.W movq rcx,[rbp-0x88]
0x8aec5404581   941  d3e7                 shll rdi, cl
0x8aec5404583   943  c4e37120ce08         vpinsrb xmm1,xmm1,sil,0x8
0x8aec5404589   949  c4e37914c60b         vpextrb sil,xmm0,0xb
0x8aec540458f   94f  488b4d80             REX.W movq rcx,[rbp-0x80]
0x8aec5404593   953  d3e0                 shll rax, cl
0x8aec5404595   955  c4e37120cf09         vpinsrb xmm1,xmm1,dil,0x9
0x8aec540459b   95b  c4e37914c70c         vpextrb dil,xmm0,0xc
0x8aec54045a1   961  488b4d88             REX.W movq rcx,[rbp-0x78]
0x8aec54045a5   965  d3e6                 shll rsi, cl
0x8aec54045a7   967  c4e37120c80a         vpinsrb xmm1,xmm1,al,0xa
0x8aec54045ad   96d  c4e37914c00d         vpextrb al,xmm0,0xd
0x8aec54045b3   973  488b4d90             REX.W movq rcx,[rbp-0x70]
0x8aec54045b7   977  d3e7                 shll rdi, cl
0x8aec54045b9   979  c4e37120ce0b         vpinsrb xmm1,xmm1,sil,0xb
0x8aec54045bf   97f  c4e37914c60e         vpextrb sil,xmm0,0xe
0x8aec54045c5   985  488b4d98             REX.W movq rcx,[rbp-0x68]
0x8aec54045c9   989  d3e0                 shll rax, cl
0x8aec54045cb   98b  c4e37120cf0c         vpinsrb xmm1,xmm1,dil,0xc
0x8aec54045d1   991  c4e37914c70f         vpextrb dil,xmm0,0xf
0x8aec54045d7   997  488b4da0             REX.W movq rcx,[rbp-0x60]
0x8aec54045db   99b  d3e6                 shll rsi, cl
0x8aec54045dd   99d  c4e37120c80d         vpinsrb xmm1,xmm1,al,0xd
0x8aec54045e3   9a3  488b4da8             REX.W movq rcx,[rbp-0x58]
0x8aec54045e7   9a7  d3e7                 shll rdi, cl
0x8aec54045e9   9a9  c4e37120ce0e         vpinsrb xmm1,xmm1,sil,0xe
0x8aec54045ef   9af  c4e37120cf0f         vpinsrb xmm1,xmm1,dil,0xf
0x8aec54045f5   9b5  8d041a               leal rax,[rdx+rbx*1]
0x8aec54045f8   9b8  c5f1fcc0             vpaddb xmm0,xmm1,xmm0
0x8aec54045fc   9bc  c4c17a7f0400         vmovdqu [r8+rax*1],xmm0
0x8aec5404602   9c2  4183c101             addl r9,0x1
0x8aec5404606   9c6  453bd9               cmpl r11,r9
0x8aec5404609   9c9  0f8571feffff         jnz 0x8aec5404480  <+0x840>
0x8aec540460f   9cf  4c8b8d18ffffff       REX.W movq r9,[rbp-0xe8]
0x8aec5404616   9d6  488b5de8             REX.W movq rbx,[rbp-0x18]
0x8aec540461a   9da  488b45c0             REX.W movq rax,[rbp-0x40]
0x8aec540461e   9de  488b7dd8             REX.W movq rdi,[rbp-0x28]
0x8aec5404622   9e2  488b75f0             REX.W movq rsi,[rbp-0x10]
0x8aec5404626   9e6  e90b000000           jmp 0x8aec5404636  <+0x9f6>
0x8aec540462b   9eb  4d89e1               REX.W movq r9,r12
0x8aec540462e   9ee  e903000000           jmp 0x8aec5404636  <+0x9f6>
0x8aec5404633   9f3  4533c9               xorl r9,r9
0x8aec5404636   9f6  4c898d18ffffff       REX.W movq [rbp-0xe8],r9
0x8aec540463d   9fd  413bd9               cmpl rbx,r9
0x8aec5404640   a00  0f8e71010000         jle 0x8aec54047b7  <+0xb77>
0x8aec5404646   a06  4c8bdb               REX.W movq r11,rbx
0x8aec5404649   a09  452bd9               subl r11,r9
0x8aec540464c   a0c  4183e303             andl r11,0x3
0x8aec5404650   a10  0f8508000000         jnz 0x8aec540465e  <+0xa1e>
0x8aec5404656   a16  4d8bd9               REX.W movq r11,r9
0x8aec5404659   a19  e990000000           jmp 0x8aec54046ee  <+0xaae>
0x8aec540465e   a1e  4c8b6627             REX.W movq r12,[rsi+0x27]
0x8aec5404662   a22  4c8bff               REX.W movq r15,rdi
0x8aec5404665   a25  4183e707             andl r15,0x7
0x8aec5404669   a29  488bf8               REX.W movq rdi,rax
0x8aec540466c   a2c  33c0                 xorl rax,rax
0x8aec540466e   a2e  498bc9               REX.W movq rcx,r9
0x8aec5404671   a31  e90d000000           jmp 0x8aec5404683  <+0xa43>
0x8aec5404676   a36  660f1f840000000000   nop
0x8aec540467f   a3f  90                   nop
0x8aec5404680   a40  488bcb               REX.W movq rcx,rbx
0x8aec5404683   a43  493b2424             REX.W cmpq rsp,[r12]
0x8aec5404687   a47  0f86d9010000         jna 0x8aec5404866  <+0xc26>
0x8aec540468d   a4d  8d7101               leal rsi,[rcx+0x1]
0x8aec5404690   a50  8d1c0f               leal rbx,[rdi+rcx*1]
0x8aec5404693   a53  410fb61c18           movzxbl rbx,[r8+rbx*1]
0x8aec5404698   a58  03ca                 addl rcx,rdx
0x8aec540469a   a5a  4c8bc9               REX.W movq r9,rcx
0x8aec540469d   a5d  498bcf               REX.W movq rcx,r15
0x8aec54046a0   a60  d3e3                 shll rbx, cl
0x8aec54046a2   a62  43881c08             movb [r8+r9*1],bl
0x8aec54046a6   a66  83c001               addl rax,0x1
0x8aec54046a9   a69  413bc3               cmpl rax,r11
0x8aec54046ac   a6c  0f8423000000         jz 0x8aec54046d5  <+0xa95>
0x8aec54046b2   a72  8d5e01               leal rbx,[rsi+0x1]
0x8aec54046b5   a75  448d0c3e             leal r9,[rsi+rdi*1]
0x8aec54046b9   a79  470fb60c08           movzxbl r9,[r8+r9*1]
0x8aec54046be   a7e  03f2                 addl rsi,rdx
0x8aec54046c0   a80  498bcf               REX.W movq rcx,r15
0x8aec54046c3   a83  41d3e1               shll r9, cl
0x8aec54046c6   a86  45880c30             movb [r8+rsi*1],r9l
0x8aec54046ca   a8a  83c001               addl rax,0x1
0x8aec54046cd   a8d  443bd8               cmpl r11,rax
0x8aec54046d0   a90  75ae                 jnz 0x8aec5404680  <+0xa40>
0x8aec54046d2   a92  488bf3               REX.W movq rsi,rbx
0x8aec54046d5   a95  4c8bde               REX.W movq r11,rsi
0x8aec54046d8   a98  488b5de8             REX.W movq rbx,[rbp-0x18]
0x8aec54046dc   a9c  488bc7               REX.W movq rax,rdi
0x8aec54046df   a9f  488b7dd8             REX.W movq rdi,[rbp-0x28]
0x8aec54046e3   aa3  488b75f0             REX.W movq rsi,[rbp-0x10]
0x8aec54046e7   aa7  4c8b8d18ffffff       REX.W movq r9,[rbp-0xe8]
0x8aec54046ee   aae  41f7d1               notl r9
0x8aec54046f1   ab1  4403cb               addl r9,rbx
0x8aec54046f4   ab4  4183f903             cmpl r9,0x3
0x8aec54046f8   ab8  0f82b9000000         jc 0x8aec54047b7  <+0xb77>
0x8aec54046fe   abe  488b7627             REX.W movq rsi,[rsi+0x27]
0x8aec5404702   ac2  83e707               andl rdi,0x7
0x8aec5404705   ac5  e939000000           jmp 0x8aec5404743  <+0xb03>
0x8aec540470a   aca  660f1f840000000000   nop
0x8aec5404713   ad3  660f1f840000000000   nop
0x8aec540471c   adc  660f1f840000000000   nop
0x8aec5404725   ae5  660f1f840000000000   nop
0x8aec540472e   aee  660f1f840000000000   nop
0x8aec5404737   af7  660f1f840000000000   nop
0x8aec5404740   b00  4d8bd9               REX.W movq r11,r9
0x8aec5404743   b03  483b26               REX.W cmpq rsp,[rsi]
0x8aec5404746   b06  0f8660010000         jna 0x8aec54048ac  <+0xc6c>
0x8aec540474c   b0c  458d4b04             leal r9,[r11+0x4]
0x8aec5404750   b10  468d2418             leal r12,[rax+r11*1]
0x8aec5404754   b14  470fb62420           movzxbl r12,[r8+r12*1]
0x8aec5404759   b19  468d3c1a             leal r15,[rdx+r11*1]
0x8aec540475d   b1d  488bcf               REX.W movq rcx,rdi
0x8aec5404760   b20  41d3e4               shll r12, cl
0x8aec5404763   b23  428d4c1801           leal rcx,[rax+r11*1+0x1]
0x8aec5404768   b28  47882438             movb [r8+r15*1],r12l
0x8aec540476c   b2c  450fb62408           movzxbl r12,[r8+rcx*1]
0x8aec5404771   b31  468d7c1a01           leal r15,[rdx+r11*1+0x1]
0x8aec5404776   b36  488bcf               REX.W movq rcx,rdi
0x8aec5404779   b39  41d3e4               shll r12, cl
0x8aec540477c   b3c  428d4c1802           leal rcx,[rax+r11*1+0x2]
0x8aec5404781   b41  47882438             movb [r8+r15*1],r12l
0x8aec5404785   b45  450fb62408           movzxbl r12,[r8+rcx*1]
0x8aec540478a   b4a  468d7c1a02           leal r15,[rdx+r11*1+0x2]
0x8aec540478f   b4f  488bcf               REX.W movq rcx,rdi
0x8aec5404792   b52  41d3e4               shll r12, cl
0x8aec5404795   b55  428d4c1803           leal rcx,[rax+r11*1+0x3]
0x8aec540479a   b5a  47882438             movb [r8+r15*1],r12l
0x8aec540479e   b5e  450fb62408           movzxbl r12,[r8+rcx*1]
0x8aec54047a3   b63  468d5c1a03           leal r11,[rdx+r11*1+0x3]
0x8aec54047a8   b68  488bcf               REX.W movq rcx,rdi
0x8aec54047ab   b6b  41d3e4               shll r12, cl
0x8aec54047ae   b6e  47882418             movb [r8+r11*1],r12l
0x8aec54047b2   b72  413bd9               cmpl rbx,r9
0x8aec54047b5   b75  7589                 jnz 0x8aec5404740  <+0xb00>
0x8aec54047b7   b77  488be5               REX.W movq rsp,rbp
0x8aec54047ba   b7a  5d                   pop rbp
0x8aec54047bb   b7b  c3                   retl
0x8aec54047bc   b7c  4c8945e0             REX.W movq [rbp-0x20],r8
0x8aec54047c0   b80  488955d0             REX.W movq [rbp-0x30],rdx
0x8aec54047c4   b84  4c895db8             REX.W movq [rbp-0x48],r11
0x8aec54047c8   b88  48895db0             REX.W movq [rbp-0x50],rbx
0x8aec54047cc   b8c  4889b528ffffff       REX.W movq [rbp-0xd8],rsi
0x8aec54047d3   b93  e8983bffff           call 0x8aec53f8370  (jump table)    ;; wasm stub: WasmStackGuard
0x8aec54047d8   b98  4c8b45e0             REX.W movq r8,[rbp-0x20]
0x8aec54047dc   b9c  488b55d0             REX.W movq rdx,[rbp-0x30]
0x8aec54047e0   ba0  488b45c0             REX.W movq rax,[rbp-0x40]
0x8aec54047e4   ba4  4c8b5db8             REX.W movq r11,[rbp-0x48]
0x8aec54047e8   ba8  488b5db0             REX.W movq rbx,[rbp-0x50]
0x8aec54047ec   bac  4c8bbd38ffffff       REX.W movq r15,[rbp-0xc8]
0x8aec54047f3   bb3  4c8ba530ffffff       REX.W movq r12,[rbp-0xd0]
0x8aec54047fa   bba  488bb528ffffff       REX.W movq rsi,[rbp-0xd8]
0x8aec5404801   bc1  e99ff5ffff           jmp 0x8aec5403da5  <+0x165>
0x8aec5404806   bc6  4c8945e0             REX.W movq [rbp-0x20],r8
0x8aec540480a   bca  488955d0             REX.W movq [rbp-0x30],rdx
0x8aec540480e   bce  4c895dc8             REX.W movq [rbp-0x38],r11
0x8aec5404812   bd2  4c894db8             REX.W movq [rbp-0x48],r9
0x8aec5404816   bd6  48895db0             REX.W movq [rbp-0x50],rbx
0x8aec540481a   bda  4c89a550ffffff       REX.W movq [rbp-0xb0],r12
0x8aec5404821   be1  4c89bd20ffffff       REX.W movq [rbp-0xe0],r15
0x8aec5404828   be8  e8433bffff           call 0x8aec53f8370  (jump table)    ;; wasm stub: WasmStackGuard
0x8aec540482d   bed  4c8b45e0             REX.W movq r8,[rbp-0x20]
0x8aec5404831   bf1  488b55d0             REX.W movq rdx,[rbp-0x30]
0x8aec5404835   bf5  488b45c0             REX.W movq rax,[rbp-0x40]
0x8aec5404839   bf9  4c8b5dc8             REX.W movq r11,[rbp-0x38]
0x8aec540483d   bfd  4c8b4db8             REX.W movq r9,[rbp-0x48]
0x8aec5404841   c01  488b5db0             REX.W movq rbx,[rbp-0x50]
0x8aec5404845   c05  4c8ba550ffffff       REX.W movq r12,[rbp-0xb0]
0x8aec540484c   c0c  488bb538ffffff       REX.W movq rsi,[rbp-0xc8]
0x8aec5404853   c13  488b8d28ffffff       REX.W movq rcx,[rbp-0xd8]
0x8aec540485a   c1a  4c8bbd20ffffff       REX.W movq r15,[rbp-0xe0]
0x8aec5404861   c21  e93cfcffff           jmp 0x8aec54044a2  <+0x862>
0x8aec5404866   c26  4c8945e0             REX.W movq [rbp-0x20],r8
0x8aec540486a   c2a  488955d0             REX.W movq [rbp-0x30],rdx
0x8aec540486e   c2e  4c895dc8             REX.W movq [rbp-0x38],r11
0x8aec5404872   c32  4c897db8             REX.W movq [rbp-0x48],r15
0x8aec5404876   c36  488945b0             REX.W movq [rbp-0x50],rax
0x8aec540487a   c3a  48894da8             REX.W movq [rbp-0x58],rcx
0x8aec540487e   c3e  4c8965a0             REX.W movq [rbp-0x60],r12
0x8aec5404882   c42  e8e93affff           call 0x8aec53f8370  (jump table)    ;; wasm stub: WasmStackGuard
0x8aec5404887   c47  4c8b45e0             REX.W movq r8,[rbp-0x20]
0x8aec540488b   c4b  488b55d0             REX.W movq rdx,[rbp-0x30]
0x8aec540488f   c4f  488b7dc0             REX.W movq rdi,[rbp-0x40]
0x8aec5404893   c53  4c8b5dc8             REX.W movq r11,[rbp-0x38]
0x8aec5404897   c57  4c8b7db8             REX.W movq r15,[rbp-0x48]
0x8aec540489b   c5b  488b45b0             REX.W movq rax,[rbp-0x50]
0x8aec540489f   c5f  488b4da8             REX.W movq rcx,[rbp-0x58]
0x8aec54048a3   c63  4c8b65a0             REX.W movq r12,[rbp-0x60]
0x8aec54048a7   c67  e9e1fdffff           jmp 0x8aec540468d  <+0xa4d>
0x8aec54048ac   c6c  4c8945e0             REX.W movq [rbp-0x20],r8
0x8aec54048b0   c70  48897dd8             REX.W movq [rbp-0x28],rdi
0x8aec54048b4   c74  488955d0             REX.W movq [rbp-0x30],rdx
0x8aec54048b8   c78  4c895dc8             REX.W movq [rbp-0x38],r11
0x8aec54048bc   c7c  488975b8             REX.W movq [rbp-0x48],rsi
0x8aec54048c0   c80  e8ab3affff           call 0x8aec53f8370  (jump table)    ;; wasm stub: WasmStackGuard
0x8aec54048c5   c85  488b5de8             REX.W movq rbx,[rbp-0x18]
0x8aec54048c9   c89  4c8b45e0             REX.W movq r8,[rbp-0x20]
0x8aec54048cd   c8d  488b7dd8             REX.W movq rdi,[rbp-0x28]
0x8aec54048d1   c91  488b55d0             REX.W movq rdx,[rbp-0x30]
0x8aec54048d5   c95  4c8b5dc8             REX.W movq r11,[rbp-0x38]
0x8aec54048d9   c99  488b45c0             REX.W movq rax,[rbp-0x40]
0x8aec54048dd   c9d  488b75b8             REX.W movq rsi,[rbp-0x48]
0x8aec54048e1   ca1  e966feffff           jmp 0x8aec540474c  <+0xb0c>
0x8aec54048e6   ca6  e82538ffff           call 0x8aec53f8110  (jump table)    ;; wasm stub: ThrowWasmTrapMemOutOfBounds
0x8aec54048eb   cab  e82038ffff           call 0x8aec53f8110  (jump table)    ;; wasm stub: ThrowWasmTrapMemOutOfBounds
0x8aec54048f0   cb0  e81b38ffff           call 0x8aec53f8110  (jump table)    ;; wasm stub: ThrowWasmTrapMemOutOfBounds
0x8aec54048f5   cb5  e81638ffff           call 0x8aec53f8110  (jump table)    ;; wasm stub: ThrowWasmTrapMemOutOfBounds
0x8aec54048fa   cba  e81138ffff           call 0x8aec53f8110  (jump table)    ;; wasm stub: ThrowWasmTrapMemOutOfBounds
0x8aec54048ff   cbf  e80c38ffff           call 0x8aec53f8110  (jump table)    ;; wasm stub: ThrowWasmTrapMemOutOfBounds
0x8aec5404904   cc4  e80738ffff           call 0x8aec53f8110  (jump table)    ;; wasm stub: ThrowWasmTrapMemOutOfBounds
0x8aec5404909   cc9  e80238ffff           call 0x8aec53f8110  (jump table)    ;; wasm stub: ThrowWasmTrapMemOutOfBounds
0x8aec540490e   cce  e8fd37ffff           call 0x8aec53f8110  (jump table)    ;; wasm stub: ThrowWasmTrapMemOutOfBounds
0x8aec5404913   cd3  e8f837ffff           call 0x8aec53f8110  (jump table)    ;; wasm stub: ThrowWasmTrapMemOutOfBounds
0x8aec5404918   cd8  e8f337ffff           call 0x8aec53f8110  (jump table)    ;; wasm stub: ThrowWasmTrapMemOutOfBounds
0x8aec540491d   cdd  e8ee37ffff           call 0x8aec53f8110  (jump table)    ;; wasm stub: ThrowWasmTrapMemOutOfBounds
0x8aec5404922   ce2  e8e937ffff           call 0x8aec53f8110  (jump table)    ;; wasm stub: ThrowWasmTrapMemOutOfBounds
0x8aec5404927   ce7  e8e437ffff           call 0x8aec53f8110  (jump table)    ;; wasm stub: ThrowWasmTrapMemOutOfBounds
0x8aec540492c   cec  e8df37ffff           call 0x8aec53f8110  (jump table)    ;; wasm stub: ThrowWasmTrapMemOutOfBounds
0x8aec5404931   cf1  e8da37ffff           call 0x8aec53f8110  (jump table)    ;; wasm stub: ThrowWasmTrapMemOutOfBounds
0x8aec5404936   cf6  e8d537ffff           call 0x8aec53f8110  (jump table)    ;; wasm stub: ThrowWasmTrapMemOutOfBounds
0x8aec540493b   cfb  e8d037ffff           call 0x8aec53f8110  (jump table)    ;; wasm stub: ThrowWasmTrapMemOutOfBounds
0x8aec5404940   d00  e8cb37ffff           call 0x8aec53f8110  (jump table)    ;; wasm stub: ThrowWasmTrapMemOutOfBounds
0x8aec5404945   d05  e8c637ffff           call 0x8aec53f8110  (jump table)    ;; wasm stub: ThrowWasmTrapMemOutOfBounds
0x8aec540494a   d0a  e8c137ffff           call 0x8aec53f8110  (jump table)    ;; wasm stub: ThrowWasmTrapMemOutOfBounds
0x8aec540494f   d0f  e8bc37ffff           call 0x8aec53f8110  (jump table)    ;; wasm stub: ThrowWasmTrapMemOutOfBounds
0x8aec5404954   d14  90                   nop
0x8aec5404955   d15  0f1f00               nop

Protected instructions:
 pc offset  land pad
       b6e       ca6
       b5e       cab
       b5a       cb0
       b45       cb5
       b41       cba
       b2c       cbf
       b28       cc4
       b14       cc9
       a86       cce
       a79       cd3
       a62       cd8
       a53       cdd
       9bc       ce2
       86f       ce7
       712       cec
       5bb       cf1
       5b5       cf6
       455       cfb
       44f       d00
       2e1       d05
       2db       d0a
       172       d0f

Source positions:
 pc offset  position
       172       125
       2db       388
       2e1       407
       44f       590
       455       609
       5b5       792
       5bb       811
       712       994
       86f      1036
       9bc      1267
       a53      1339
       a62      1345
       a79      1339
       a86      1345
       b14      1388
       b28      1394
       b2c      1412
       b41      1418
       b45      1436
       b5a      1442
       b5e      1460
       b6e      1466
       b7c       113
       bc6      1024
       c26      1327
       c6c      1376
       ca6      1466
       cab      1460
       cb0      1442
       cb5      1436
       cba      1418
       cbf      1412
       cc4      1394
       cc9      1388
       cce      1345
       cd3      1339
       cd8      1345
       cdd      1339
       ce2      1267
       ce7      1036
       cec       994
       cf1       811
       cf6       792
       cfb       609
       d00       590
       d05       407
       d0a       388
       d0f       125

Safepoints (entries = 1, byte size = 14)
0x8aec54047d8    b98  slots (sp->fp): 00000000000000000000000000000000

RelocInfo (size = 32)
0x8aec54047d4  wasm stub call
0x8aec5404829  wasm stub call
0x8aec5404883  wasm stub call
0x8aec54048c1  wasm stub call
0x8aec54048e7  wasm stub call
0x8aec54048ec  wasm stub call
0x8aec54048f1  wasm stub call
0x8aec54048f6  wasm stub call
0x8aec54048fb  wasm stub call
0x8aec5404900  wasm stub call
0x8aec5404905  wasm stub call
0x8aec540490a  wasm stub call
0x8aec540490f  wasm stub call
0x8aec5404914  wasm stub call
0x8aec5404919  wasm stub call
0x8aec540491e  wasm stub call
0x8aec5404923  wasm stub call
0x8aec5404928  wasm stub call
0x8aec540492d  wasm stub call
0x8aec5404932  wasm stub call
0x8aec5404937  wasm stub call
0x8aec540493c  wasm stub call
0x8aec5404941  wasm stub call
0x8aec5404946  wasm stub call
0x8aec540494b  wasm stub call
0x8aec5404950  wasm stub call

--- End code ---
--- WebAssembly code ---
name: wasm-to-js:iii:i-emscripten_memcpy_big
index: 2
kind: wasm-to-js
Body (size = 512 = 460 + 52 padding)
Instructions (size = 432)
0x8aec53fe3c0     0  55                   push rbp
0x8aec53fe3c1     1  4889e5               REX.W movq rbp,rsp
0x8aec53fe3c4     4  6a0a                 push 0xa
0x8aec53fe3c6     6  56                   push rsi
0x8aec53fe3c7     7  4883ec48             REX.W subq rsp,0x48
0x8aec53fe3cb     b  8b5e0b               movl rbx,[rsi+0xb]
0x8aec53fe3ce     e  4903de               REX.W addq rbx,r14
0x8aec53fe3d1    11  8b7e0f               movl rdi,[rsi+0xf]
0x8aec53fe3d4    14  4903fe               REX.W addq rdi,r14
0x8aec53fe3d7    17  4c8b4603             REX.W movq r8,[rsi+0x3]
0x8aec53fe3db    1b  4c8b4e03             REX.W movq r9,[rsi+0x3]
0x8aec53fe3df    1f  4d8b8948450000       REX.W movq r9,[r9+0x4548]
0x8aec53fe3e6    26  41c70100000000       movl [r9],0x0
0x8aec53fe3ed    2d  448b4f0f             movl r9,[rdi+0xf]
0x8aec53fe3f1    31  4d03ce               REX.W addq r9,r14
0x8aec53fe3f4    34  448b5f0b             movl r11,[rdi+0xb]
0x8aec53fe3f8    38  4d03de               REX.W addq r11,r14
0x8aec53fe3fb    3b  4d8b8070010000       REX.W movq r8,[r8+0x170]
0x8aec53fe402    42  488975e8             REX.W movq [rbp-0x18],rsi
0x8aec53fe406    46  48895de0             REX.W movq [rbp-0x20],rbx
0x8aec53fe40a    4a  41f6431b60           testb [r11+0x1b],0x60
0x8aec53fe40f    4f  0f850c000000         jnz 0x8aec53fe421  <+0x61>
0x8aec53fe415    55  448b5b13             movl r11,[rbx+0x13]
0x8aec53fe419    59  4d03de               REX.W addq r11,r14
0x8aec53fe41c    5c  e903000000           jmp 0x8aec53fe424  <+0x64>
0x8aec53fe421    61  4d8bd8               REX.W movq r11,r8
0x8aec53fe424    64  4c8be0               REX.W movq r12,rax
0x8aec53fe427    67  4403e0               addl r12,rax
0x8aec53fe42a    6a  0f8062000000         jo 0x8aec53fe492  <+0xd2>
0x8aec53fe430    70  4d63e4               REX.W movsxlq r12,r12
0x8aec53fe433    73  4c8bfa               REX.W movq r15,rdx
0x8aec53fe436    76  4403fa               addl r15,rdx
0x8aec53fe439    79  0f8098000000         jo 0x8aec53fe4d7  <+0x117>
0x8aec53fe43f    7f  4d63ff               REX.W movsxlq r15,r15
0x8aec53fe442    82  488bc1               REX.W movq rax,rcx
0x8aec53fe445    85  03c1                 addl rax,rcx
0x8aec53fe447    87  0f80d2000000         jo 0x8aec53fe51f  <+0x15f>
0x8aec53fe44d    8d  4863c8               REX.W movsxlq rcx,rax
0x8aec53fe450    90  51                   push rcx
0x8aec53fe451    91  4157                 push r15
0x8aec53fe453    93  4154                 push r12
0x8aec53fe455    95  4153                 push r11
0x8aec53fe457    97  b804000000           movl rax,0x4
0x8aec53fe45c    9c  498bd0               REX.W movq rdx,r8
0x8aec53fe45f    9f  498bf1               REX.W movq rsi,r9
0x8aec53fe462    a2  8b4f17               movl rcx,[rdi+0x17]
0x8aec53fe465    a5  4903ce               REX.W addq rcx,r14
0x8aec53fe468    a8  488b490f             REX.W movq rcx,[rcx+0xf]
0x8aec53fe46c    ac  ffd1                 call rcx
0x8aec53fe46e    ae  a801                 test al,0x1
0x8aec53fe470    b0  0f85e9000000         jnz 0x8aec53fe55f  <+0x19f>
0x8aec53fe476    b6  d1f8                 sarl rax, 1
0x8aec53fe478    b8  488b5de8             REX.W movq rbx,[rbp-0x18]
0x8aec53fe47c    bc  488b5b03             REX.W movq rbx,[rbx+0x3]
0x8aec53fe480    c0  488b9b48450000       REX.W movq rbx,[rbx+0x4548]
0x8aec53fe487    c7  c70301000000         movl [rbx],0x1
0x8aec53fe48d    cd  488be5               REX.W movq rsp,rbp
0x8aec53fe490    d0  5d                   pop rbp
0x8aec53fe491    d1  c3                   retl
0x8aec53fe492    d2  48897dd8             REX.W movq [rbp-0x28],rdi
0x8aec53fe496    d6  4c895dd0             REX.W movq [rbp-0x30],r11
0x8aec53fe49a    da  4c8945b8             REX.W movq [rbp-0x48],r8
0x8aec53fe49e    de  4c894db0             REX.W movq [rbp-0x50],r9
0x8aec53fe4a2    e2  48894da8             REX.W movq [rbp-0x58],rcx
0x8aec53fe4a6    e6  488955c0             REX.W movq [rbp-0x40],rdx
0x8aec53fe4aa    ea  e8819dffff           call 0x8aec53f8230  (jump table)    ;; wasm stub: WasmInt32ToHeapNumber
0x8aec53fe4af    ef  4c8be0               REX.W movq r12,rax
0x8aec53fe4b2    f2  488b75e8             REX.W movq rsi,[rbp-0x18]
0x8aec53fe4b6    f6  488b5de0             REX.W movq rbx,[rbp-0x20]
0x8aec53fe4ba    fa  488b7dd8             REX.W movq rdi,[rbp-0x28]
0x8aec53fe4be    fe  4c8b5dd0             REX.W movq r11,[rbp-0x30]
0x8aec53fe4c2   102  4c8b45b8             REX.W movq r8,[rbp-0x48]
0x8aec53fe4c6   106  4c8b4db0             REX.W movq r9,[rbp-0x50]
0x8aec53fe4ca   10a  488b4da8             REX.W movq rcx,[rbp-0x58]
0x8aec53fe4ce   10e  488b55c0             REX.W movq rdx,[rbp-0x40]
0x8aec53fe4d2   112  e95cffffff           jmp 0x8aec53fe433  <+0x73>
0x8aec53fe4d7   117  48897dd8             REX.W movq [rbp-0x28],rdi
0x8aec53fe4db   11b  4c895dd0             REX.W movq [rbp-0x30],r11
0x8aec53fe4df   11f  4c8965c8             REX.W movq [rbp-0x38],r12
0x8aec53fe4e3   123  4c8945b8             REX.W movq [rbp-0x48],r8
0x8aec53fe4e7   127  4c894db0             REX.W movq [rbp-0x50],r9
0x8aec53fe4eb   12b  48894da8             REX.W movq [rbp-0x58],rcx
0x8aec53fe4ef   12f  488bc2               REX.W movq rax,rdx
0x8aec53fe4f2   132  e8399dffff           call 0x8aec53f8230  (jump table)    ;; wasm stub: WasmInt32ToHeapNumber
0x8aec53fe4f7   137  4c8bf8               REX.W movq r15,rax
0x8aec53fe4fa   13a  488b75e8             REX.W movq rsi,[rbp-0x18]
0x8aec53fe4fe   13e  488b5de0             REX.W movq rbx,[rbp-0x20]
0x8aec53fe502   142  488b7dd8             REX.W movq rdi,[rbp-0x28]
0x8aec53fe506   146  4c8b5dd0             REX.W movq r11,[rbp-0x30]
0x8aec53fe50a   14a  4c8b65c8             REX.W movq r12,[rbp-0x38]
0x8aec53fe50e   14e  4c8b45b8             REX.W movq r8,[rbp-0x48]
0x8aec53fe512   152  4c8b4db0             REX.W movq r9,[rbp-0x50]
0x8aec53fe516   156  488b4da8             REX.W movq rcx,[rbp-0x58]
0x8aec53fe51a   15a  e923ffffff           jmp 0x8aec53fe442  <+0x82>
0x8aec53fe51f   15f  48897dd8             REX.W movq [rbp-0x28],rdi
0x8aec53fe523   163  4c895dd0             REX.W movq [rbp-0x30],r11
0x8aec53fe527   167  4c8965c8             REX.W movq [rbp-0x38],r12
0x8aec53fe52b   16b  4c897dc0             REX.W movq [rbp-0x40],r15
0x8aec53fe52f   16f  4c8945b8             REX.W movq [rbp-0x48],r8
0x8aec53fe533   173  4c894db0             REX.W movq [rbp-0x50],r9
0x8aec53fe537   177  488bc1               REX.W movq rax,rcx
0x8aec53fe53a   17a  e8f19cffff           call 0x8aec53f8230  (jump table)    ;; wasm stub: WasmInt32ToHeapNumber
0x8aec53fe53f   17f  488bc8               REX.W movq rcx,rax
0x8aec53fe542   182  488b7dd8             REX.W movq rdi,[rbp-0x28]
0x8aec53fe546   186  4c8b5dd0             REX.W movq r11,[rbp-0x30]
0x8aec53fe54a   18a  4c8b65c8             REX.W movq r12,[rbp-0x38]
0x8aec53fe54e   18e  4c8b7dc0             REX.W movq r15,[rbp-0x40]
0x8aec53fe552   192  4c8b45b8             REX.W movq r8,[rbp-0x48]
0x8aec53fe556   196  4c8b4db0             REX.W movq r9,[rbp-0x50]
0x8aec53fe55a   19a  e9f1feffff           jmp 0x8aec53fe450  <+0x90>
0x8aec53fe55f   19f  488b75e0             REX.W movq rsi,[rbp-0x20]
0x8aec53fe563   1a3  e8d89cffff           call 0x8aec53f8240  (jump table)    ;; wasm stub: WasmTaggedNonSmiToInt32
0x8aec53fe568   1a8  e90bffffff           jmp 0x8aec53fe478  <+0xb8>
0x8aec53fe56d   1ad  90                   nop
0x8aec53fe56e   1ae  6690                 nop

Safepoints (entries = 5, byte size = 28)
0x8aec53fe46e     ae  slots (sp->fp): 0000000110000000
0x8aec53fe4af     ef  slots (sp->fp): 0100011110000000
0x8aec53fe4f7    137  slots (sp->fp): 0100111110000000
0x8aec53fe53f    17f  slots (sp->fp): 0101111110000000
0x8aec53fe568    1a8  slots (sp->fp): 0000000010000000

RelocInfo (size = 10)
0x8aec53fe4ab  wasm stub call
0x8aec53fe4f3  wasm stub call
0x8aec53fe53b  wasm stub call
0x8aec53fe564  wasm stub call

--- End code ---
--- WebAssembly code ---
name: __towrite
index: 14
kind: wasm function
compiler: Liftoff
Body (size = 256 = 196 + 60 padding)
Instructions (size = 184)
0x8aec53fe600     0  55                   push rbp
0x8aec53fe601     1  4889e5               REX.W movq rbp,rsp
0x8aec53fe604     4  6a08                 push 0x8
0x8aec53fe606     6  56                   push rsi
0x8aec53fe607     7  4881ec18000000       REX.W subq rsp,0x18
0x8aec53fe60e     e  488b4e27             REX.W movq rcx,[rsi+0x27]
0x8aec53fe612    12  483b21               REX.W cmpq rsp,[rcx]
0x8aec53fe615    15  0f865e000000         jna 0x8aec53fe679  <+0x79>
0x8aec53fe61b    1b  488b4e17             REX.W movq rcx,[rsi+0x17]
0x8aec53fe61f    1f  8b540148             movl rdx,[rcx+rax*1+0x48]
0x8aec53fe623    23  bb01000000           movl rbx,0x1
0x8aec53fe628    28  f7db                 negl rbx
0x8aec53fe62a    2a  03da                 addl rbx,rdx
0x8aec53fe62c    2c  0bda                 orl rbx,rdx
0x8aec53fe62e    2e  895c0148             movl [rcx+rax*1+0x48],rbx
0x8aec53fe632    32  8b1c01               movl rbx,[rcx+rax*1]
0x8aec53fe635    35  8bd3                 movl rdx,rbx
0x8aec53fe637    37  83e208               andl rdx,0x8
0x8aec53fe63a    3a  85d2                 testl rdx,rdx
0x8aec53fe63c    3c  0f8412000000         jz 0x8aec53fe654  <+0x54>
0x8aec53fe642    42  8bd3                 movl rdx,rbx
0x8aec53fe644    44  83ca20               orl rdx,0x20
0x8aec53fe647    47  891401               movl [rcx+rax*1],rdx
0x8aec53fe64a    4a  b8ffffffff           movl rax,0xffffffff
0x8aec53fe64f    4f  488be5               REX.W movq rsp,rbp
0x8aec53fe652    52  5d                   pop rbp
0x8aec53fe653    53  c3                   retl
0x8aec53fe654    54  33d2                 xorl rdx,rdx
0x8aec53fe656    56  4889540104           REX.W movq [rcx+rax*1+0x4],rdx
0x8aec53fe65b    5b  8b54012c             movl rdx,[rcx+rax*1+0x2c]
0x8aec53fe65f    5f  8954011c             movl [rcx+rax*1+0x1c],rdx
0x8aec53fe663    63  89540114             movl [rcx+rax*1+0x14],rdx
0x8aec53fe667    67  8b5c0130             movl rbx,[rcx+rax*1+0x30]
0x8aec53fe66b    6b  8d1c1a               leal rbx,[rdx+rbx*1]
0x8aec53fe66e    6e  895c0110             movl [rcx+rax*1+0x10],rbx
0x8aec53fe672    72  33c0                 xorl rax,rax
0x8aec53fe674    74  488be5               REX.W movq rsp,rbp
0x8aec53fe677    77  5d                   pop rbp
0x8aec53fe678    78  c3                   retl
0x8aec53fe679    79  50                   push rax
0x8aec53fe67a    7a  e8f19cffff           call 0x8aec53f8370  (jump table)
0x8aec53fe67f    7f  58                   pop rax
0x8aec53fe680    80  488b75f0             REX.W movq rsi,[rbp-0x10]
0x8aec53fe684    84  eb95                 jmp 0x8aec53fe61b  <+0x1b>
0x8aec53fe686    86  e8859affff           call 0x8aec53f8110  (jump table)
0x8aec53fe68b    8b  e8809affff           call 0x8aec53f8110  (jump table)
0x8aec53fe690    90  e87b9affff           call 0x8aec53f8110  (jump table)
0x8aec53fe695    95  e8769affff           call 0x8aec53f8110  (jump table)
0x8aec53fe69a    9a  e8719affff           call 0x8aec53f8110  (jump table)
0x8aec53fe69f    9f  e86c9affff           call 0x8aec53f8110  (jump table)
0x8aec53fe6a4    a4  e8679affff           call 0x8aec53f8110  (jump table)
0x8aec53fe6a9    a9  e8629affff           call 0x8aec53f8110  (jump table)
0x8aec53fe6ae    ae  e85d9affff           call 0x8aec53f8110  (jump table)
0x8aec53fe6b3    b3  e8589affff           call 0x8aec53f8110  (jump table)

Protected instructions:
 pc offset  land pad
        1f        86
        2e        8b
        32        90
        47        95
        56        9a
        5b        9f
        5f        a4
        63        a9
        67        ae
        6e        b3

Source positions:
 pc offset  position
        7a         0  statement
        86         7  statement
        8b        18  statement
        90        23  statement
        95        40  statement
        9a        51  statement
        9f        58  statement
        a4        63  statement
        a9        70  statement
        ae        79  statement
        b3        83  statement

Safepoints (entries = 1, byte size = 10)
0x8aec53fe67f     7f  slots (sp->fp): 00000000

RelocInfo (size = 0)

--- End code ---
--- WebAssembly code ---
name: __wasm_call_ctors
index: 4
kind: wasm function
compiler: Liftoff
Body (size = 64 = 64 + 0 padding)
Instructions (size = 52)
0x8aec53fe700     0  55                   push rbp
0x8aec53fe701     1  4889e5               REX.W movq rbp,rsp
0x8aec53fe704     4  6a08                 push 0x8
0x8aec53fe706     6  56                   push rsi
0x8aec53fe707     7  4881ec18000000       REX.W subq rsp,0x18
0x8aec53fe70e     e  488b4627             REX.W movq rax,[rsi+0x27]
0x8aec53fe712    12  483b20               REX.W cmpq rsp,[rax]
0x8aec53fe715    15  0f860e000000         jna 0x8aec53fe729  <+0x29>
0x8aec53fe71b    1b  488b75f0             REX.W movq rsi,[rbp-0x10]
0x8aec53fe71f    1f  e87f99ffff           call 0x8aec53f80a3  (jump table)
0x8aec53fe724    24  488be5               REX.W movq rsp,rbp
0x8aec53fe727    27  5d                   pop rbp
0x8aec53fe728    28  c3                   retl
0x8aec53fe729    29  e8429cffff           call 0x8aec53f8370  (jump table)
0x8aec53fe72e    2e  488b75f0             REX.W movq rsi,[rbp-0x10]
0x8aec53fe732    32  ebe7                 jmp 0x8aec53fe71b  <+0x1b>

Source positions:
 pc offset  position
        1f         1  statement
        29         0  statement

Safepoints (entries = 1, byte size = 10)
0x8aec53fe724     24  slots (sp->fp): 00000000

RelocInfo (size = 0)

--- End code ---
--- WebAssembly code ---
name: wasm-to-js:ii:i-gettimeofday
index: 0
kind: wasm-to-js
Body (size = 384 = 348 + 36 padding)
Instructions (size = 328)
0x8aec53fe740     0  55                   push rbp
0x8aec53fe741     1  4889e5               REX.W movq rbp,rsp
0x8aec53fe744     4  6a0a                 push 0xa
0x8aec53fe746     6  56                   push rsi
0x8aec53fe747     7  4883ec40             REX.W subq rsp,0x40
0x8aec53fe74b     b  8b5e0b               movl rbx,[rsi+0xb]
0x8aec53fe74e     e  4903de               REX.W addq rbx,r14
0x8aec53fe751    11  8b7e0f               movl rdi,[rsi+0xf]
0x8aec53fe754    14  4903fe               REX.W addq rdi,r14
0x8aec53fe757    17  488b4e03             REX.W movq rcx,[rsi+0x3]
0x8aec53fe75b    1b  4c8b4603             REX.W movq r8,[rsi+0x3]
0x8aec53fe75f    1f  4d8b8048450000       REX.W movq r8,[r8+0x4548]
0x8aec53fe766    26  41c70000000000       movl [r8],0x0
0x8aec53fe76d    2d  448b470f             movl r8,[rdi+0xf]
0x8aec53fe771    31  4d03c6               REX.W addq r8,r14
0x8aec53fe774    34  448b4f0b             movl r9,[rdi+0xb]
0x8aec53fe778    38  4d03ce               REX.W addq r9,r14
0x8aec53fe77b    3b  488b8970010000       REX.W movq rcx,[rcx+0x170]
0x8aec53fe782    42  488975e8             REX.W movq [rbp-0x18],rsi
0x8aec53fe786    46  48895de0             REX.W movq [rbp-0x20],rbx
0x8aec53fe78a    4a  41f6411b60           testb [r9+0x1b],0x60
0x8aec53fe78f    4f  0f850c000000         jnz 0x8aec53fe7a1  <+0x61>
0x8aec53fe795    55  448b4b13             movl r9,[rbx+0x13]
0x8aec53fe799    59  4d03ce               REX.W addq r9,r14
0x8aec53fe79c    5c  e903000000           jmp 0x8aec53fe7a4  <+0x64>
0x8aec53fe7a1    61  4c8bc9               REX.W movq r9,rcx
0x8aec53fe7a4    64  4c8bd8               REX.W movq r11,rax
0x8aec53fe7a7    67  4403d8               addl r11,rax
0x8aec53fe7aa    6a  0f8053000000         jo 0x8aec53fe803  <+0xc3>
0x8aec53fe7b0    70  4d63db               REX.W movsxlq r11,r11
0x8aec53fe7b3    73  4c8be2               REX.W movq r12,rdx
0x8aec53fe7b6    76  4403e2               addl r12,rdx
0x8aec53fe7b9    79  0f8081000000         jo 0x8aec53fe840  <+0x100>
0x8aec53fe7bf    7f  4d63e4               REX.W movsxlq r12,r12
0x8aec53fe7c2    82  4154                 push r12
0x8aec53fe7c4    84  4153                 push r11
0x8aec53fe7c6    86  4151                 push r9
0x8aec53fe7c8    88  b803000000           movl rax,0x3
0x8aec53fe7cd    8d  488bd1               REX.W movq rdx,rcx
0x8aec53fe7d0    90  498bf0               REX.W movq rsi,r8
0x8aec53fe7d3    93  8b4f17               movl rcx,[rdi+0x17]
0x8aec53fe7d6    96  4903ce               REX.W addq rcx,r14
0x8aec53fe7d9    99  488b490f             REX.W movq rcx,[rcx+0xf]
0x8aec53fe7dd    9d  ffd1                 call rcx
0x8aec53fe7df    9f  a801                 test al,0x1
0x8aec53fe7e1    a1  0f8591000000         jnz 0x8aec53fe878  <+0x138>
0x8aec53fe7e7    a7  d1f8                 sarl rax, 1
0x8aec53fe7e9    a9  488b5de8             REX.W movq rbx,[rbp-0x18]
0x8aec53fe7ed    ad  488b5b03             REX.W movq rbx,[rbx+0x3]
0x8aec53fe7f1    b1  488b9b48450000       REX.W movq rbx,[rbx+0x4548]
0x8aec53fe7f8    b8  c70301000000         movl [rbx],0x1
0x8aec53fe7fe    be  488be5               REX.W movq rsp,rbp
0x8aec53fe801    c1  5d                   pop rbp
0x8aec53fe802    c2  c3                   retl
0x8aec53fe803    c3  48897dd8             REX.W movq [rbp-0x28],rdi
0x8aec53fe807    c7  4c894dd0             REX.W movq [rbp-0x30],r9
0x8aec53fe80b    cb  48894dc0             REX.W movq [rbp-0x40],rcx
0x8aec53fe80f    cf  4c8945b8             REX.W movq [rbp-0x48],r8
0x8aec53fe813    d3  488955b0             REX.W movq [rbp-0x50],rdx
0x8aec53fe817    d7  e8149affff           call 0x8aec53f8230  (jump table)    ;; wasm stub: WasmInt32ToHeapNumber
0x8aec53fe81c    dc  4c8bd8               REX.W movq r11,rax
0x8aec53fe81f    df  488b75e8             REX.W movq rsi,[rbp-0x18]
0x8aec53fe823    e3  488b5de0             REX.W movq rbx,[rbp-0x20]
0x8aec53fe827    e7  488b7dd8             REX.W movq rdi,[rbp-0x28]
0x8aec53fe82b    eb  4c8b4dd0             REX.W movq r9,[rbp-0x30]
0x8aec53fe82f    ef  488b4dc0             REX.W movq rcx,[rbp-0x40]
0x8aec53fe833    f3  4c8b45b8             REX.W movq r8,[rbp-0x48]
0x8aec53fe837    f7  488b55b0             REX.W movq rdx,[rbp-0x50]
0x8aec53fe83b    fb  e973ffffff           jmp 0x8aec53fe7b3  <+0x73>
0x8aec53fe840   100  48897dd8             REX.W movq [rbp-0x28],rdi
0x8aec53fe844   104  4c894dd0             REX.W movq [rbp-0x30],r9
0x8aec53fe848   108  4c895dc8             REX.W movq [rbp-0x38],r11
0x8aec53fe84c   10c  48894dc0             REX.W movq [rbp-0x40],rcx
0x8aec53fe850   110  4c8945b8             REX.W movq [rbp-0x48],r8
0x8aec53fe854   114  488bc2               REX.W movq rax,rdx
0x8aec53fe857   117  e8d499ffff           call 0x8aec53f8230  (jump table)    ;; wasm stub: WasmInt32ToHeapNumber
0x8aec53fe85c   11c  4c8be0               REX.W movq r12,rax
0x8aec53fe85f   11f  488b7dd8             REX.W movq rdi,[rbp-0x28]
0x8aec53fe863   123  4c8b4dd0             REX.W movq r9,[rbp-0x30]
0x8aec53fe867   127  4c8b5dc8             REX.W movq r11,[rbp-0x38]
0x8aec53fe86b   12b  488b4dc0             REX.W movq rcx,[rbp-0x40]
0x8aec53fe86f   12f  4c8b45b8             REX.W movq r8,[rbp-0x48]
0x8aec53fe873   133  e94affffff           jmp 0x8aec53fe7c2  <+0x82>
0x8aec53fe878   138  488b75e0             REX.W movq rsi,[rbp-0x20]
0x8aec53fe87c   13c  e8bf99ffff           call 0x8aec53f8240  (jump table)    ;; wasm stub: WasmTaggedNonSmiToInt32
0x8aec53fe881   141  e963ffffff           jmp 0x8aec53fe7e9  <+0xa9>
0x8aec53fe886   146  90                   nop
0x8aec53fe887   147  90                   nop

Safepoints (entries = 4, byte size = 20)
0x8aec53fe7df     9f  slots (sp->fp): 00000011
0x8aec53fe81c     dc  slots (sp->fp): 01001111
0x8aec53fe85c    11c  slots (sp->fp): 01011111
0x8aec53fe881    141  slots (sp->fp): 00000001

RelocInfo (size = 7)
0x8aec53fe818  wasm stub call
0x8aec53fe858  wasm stub call
0x8aec53fe87d  wasm stub call

--- End code ---
--- WebAssembly code ---
name: vfiprintf
index: 30
kind: wasm function
compiler: TurboFan
Body (size = 128 = 88 + 40 padding)
Instructions (size = 76)
0x8aec53fee80     0  55                   push rbp
0x8aec53fee81     1  4889e5               REX.W movq rbp,rsp
0x8aec53fee84     4  6a08                 push 0x8
0x8aec53fee86     6  56                   push rsi
0x8aec53fee87     7  4883ec18             REX.W subq rsp,0x18
0x8aec53fee8b     b  488b7e27             REX.W movq rdi,[rsi+0x27]
0x8aec53fee8f     f  483b27               REX.W cmpq rsp,[rdi]
0x8aec53fee92    12  0f860f000000         jna 0x8aec53feea7  <+0x27>
0x8aec53fee98    18  33db                 xorl rbx,rbx
0x8aec53fee9a    1a  4c8bcb               REX.W movq r9,rbx
0x8aec53fee9d    1d  e8b791ffff           call 0x8aec53f8059  (jump table)    ;; internal wasm call
0x8aec53feea2    22  488be5               REX.W movq rsp,rbp
0x8aec53feea5    25  5d                   pop rbp
0x8aec53feea6    26  c3                   retl
0x8aec53feea7    27  488945e8             REX.W movq [rbp-0x18],rax
0x8aec53feeab    2b  488955e0             REX.W movq [rbp-0x20],rdx
0x8aec53feeaf    2f  48894dd8             REX.W movq [rbp-0x28],rcx
0x8aec53feeb3    33  e8b894ffff           call 0x8aec53f8370  (jump table)    ;; wasm stub: WasmStackGuard
0x8aec53feeb8    38  488b75f0             REX.W movq rsi,[rbp-0x10]
0x8aec53feebc    3c  488b45e8             REX.W movq rax,[rbp-0x18]
0x8aec53feec0    40  488b55e0             REX.W movq rdx,[rbp-0x20]
0x8aec53feec4    44  488b4dd8             REX.W movq rcx,[rbp-0x28]
0x8aec53feec8    48  ebce                 jmp 0x8aec53fee98  <+0x18>
0x8aec53feeca    4a  90                   nop
0x8aec53feecb    4b  90                   nop

Source positions:
 pc offset  position
        18        11
        27         0

Safepoints (entries = 1, byte size = 10)
0x8aec53feea2     22  slots (sp->fp): 00000000

RelocInfo (size = 3)
0x8aec53fee9e  internal wasm call
0x8aec53feeb4  wasm stub call

--- End code ---
--- WebAssembly code ---
name: init_pthread_self
index: 35
kind: wasm function
compiler: TurboFan
Body (size = 128 = 88 + 40 padding)
Instructions (size = 76)
0x8aec53fef00     0  55                   push rbp
0x8aec53fef01     1  4889e5               REX.W movq rbp,rsp
0x8aec53fef04     4  6a08                 push 0x8
0x8aec53fef06     6  56                   push rsi
0x8aec53fef07     7  4883ec08             REX.W subq rsp,0x8
0x8aec53fef0b     b  488b4627             REX.W movq rax,[rsi+0x27]
0x8aec53fef0f     f  483b20               REX.W cmpq rsp,[rax]
0x8aec53fef12    12  0f8626000000         jna 0x8aec53fef3e  <+0x3e>
0x8aec53fef18    18  488b4617             REX.W movq rax,[rsi+0x17]
0x8aec53fef1c    1c  c7802c0b0000bc0a0000 movl [rax+0xb2c],0xabc
0x8aec53fef26    26  488945e8             REX.W movq [rbp-0x18],rax
0x8aec53fef2a    2a  e86a91ffff           call 0x8aec53f8099  (jump table)    ;; internal wasm call
0x8aec53fef2f    2f  488b5de8             REX.W movq rbx,[rbp-0x18]
0x8aec53fef33    33  8983e40a0000         movl [rbx+0xae4],rax
0x8aec53fef39    39  488be5               REX.W movq rsp,rbp
0x8aec53fef3c    3c  5d                   pop rbp
0x8aec53fef3d    3d  c3                   retl
0x8aec53fef3e    3e  e82d94ffff           call 0x8aec53f8370  (jump table)    ;; wasm stub: WasmStackGuard
0x8aec53fef43    43  488b75f0             REX.W movq rsi,[rbp-0x10]
0x8aec53fef47    47  ebcf                 jmp 0x8aec53fef18  <+0x18>
0x8aec53fef49    49  90                   nop
0x8aec53fef4a    4a  6690                 nop

Source positions:
 pc offset  position
        26        13
        3e         0

Safepoints (entries = 1, byte size = 10)
0x8aec53fef2f     2f  slots (sp->fp): 00000000

RelocInfo (size = 3)
0x8aec53fef2b  internal wasm call
0x8aec53fef3f  wasm stub call

--- End code ---
--- WebAssembly code ---
name: __get_tp
index: 34
kind: wasm function
compiler: TurboFan
Body (size = 64 = 28 + 36 padding)
Instructions (size = 20)
0x8aec53fef80     0  55                   push rbp
0x8aec53fef81     1  4889e5               REX.W movq rbp,rsp
0x8aec53fef84     4  6a08                 push 0x8
0x8aec53fef86     6  56                   push rsi
0x8aec53fef87     7  b8d40a0000           movl rax,0xad4
0x8aec53fef8c     c  488be5               REX.W movq rsp,rbp
0x8aec53fef8f     f  5d                   pop rbp
0x8aec53fef90    10  c3                   retl
0x8aec53fef91    11  90                   nop
0x8aec53fef92    12  6690                 nop

Safepoints (entries = 0, byte size = 8)

RelocInfo (size = 0)

--- End code ---
--- WebAssembly code ---
name: getpid
index: 33
kind: wasm function
compiler: TurboFan
Body (size = 64 = 56 + 8 padding)
Instructions (size = 44)
0x8aec53fefc0     0  55                   push rbp
0x8aec53fefc1     1  4889e5               REX.W movq rbp,rsp
0x8aec53fefc4     4  6a08                 push 0x8
0x8aec53fefc6     6  56                   push rsi
0x8aec53fefc7     7  488b5e27             REX.W movq rbx,[rsi+0x27]
0x8aec53fefcb     b  483b23               REX.W cmpq rsp,[rbx]
0x8aec53fefce     e  0f860a000000         jna 0x8aec53fefde  <+0x1e>
0x8aec53fefd4    14  e8bb90ffff           call 0x8aec53f8094  (jump table)    ;; internal wasm call
0x8aec53fefd9    19  488be5               REX.W movq rsp,rbp
0x8aec53fefdc    1c  5d                   pop rbp
0x8aec53fefdd    1d  c3                   retl
0x8aec53fefde    1e  e88d93ffff           call 0x8aec53f8370  (jump table)    ;; wasm stub: WasmStackGuard
0x8aec53fefe3    23  488b75f0             REX.W movq rsi,[rbp-0x10]
0x8aec53fefe7    27  ebeb                 jmp 0x8aec53fefd4  <+0x14>
0x8aec53fefe9    29  90                   nop
0x8aec53fefea    2a  6690                 nop

Source positions:
 pc offset  position
        14         1
        1e         0

Safepoints (entries = 1, byte size = 10)
0x8aec53fefd9     19  slots (sp->fp): 00000000

RelocInfo (size = 3)
0x8aec53fefd5  internal wasm call
0x8aec53fefdf  wasm stub call

--- End code ---
--- WebAssembly code ---
name: __syscall_getpid
index: 32
kind: wasm function
compiler: TurboFan
Body (size = 64 = 28 + 36 padding)
Instructions (size = 20)
0x8aec53ff000     0  55                   push rbp
0x8aec53ff001     1  4889e5               REX.W movq rbp,rsp
0x8aec53ff004     4  6a08                 push 0x8
0x8aec53ff006     6  56                   push rsi
0x8aec53ff007     7  b82a000000           movl rax,0x2a
0x8aec53ff00c     c  488be5               REX.W movq rsp,rbp
0x8aec53ff00f     f  5d                   pop rbp
0x8aec53ff010    10  c3                   retl
0x8aec53ff011    11  90                   nop
0x8aec53ff012    12  6690                 nop

Safepoints (entries = 0, byte size = 8)

RelocInfo (size = 0)

--- End code ---
--- WebAssembly code ---
name: __wasi_syscall_ret
index: 31
kind: wasm function
compiler: TurboFan
Body (size = 128 = 112 + 16 padding)
Instructions (size = 100)
0x8aec53ff040     0  55                   push rbp
0x8aec53ff041     1  4889e5               REX.W movq rbp,rsp
0x8aec53ff044     4  6a08                 push 0x8
0x8aec53ff046     6  56                   push rsi
0x8aec53ff047     7  4883ec10             REX.W subq rsp,0x10
0x8aec53ff04b     b  488b5e27             REX.W movq rbx,[rsi+0x27]
0x8aec53ff04f     f  488945e0             REX.W movq [rbp-0x20],rax
0x8aec53ff053    13  483b23               REX.W cmpq rsp,[rbx]
0x8aec53ff056    16  0f8631000000         jna 0x8aec53ff08d  <+0x4d>
0x8aec53ff05c    1c  488b5e17             REX.W movq rbx,[rsi+0x17]
0x8aec53ff060    20  48895de8             REX.W movq [rbp-0x18],rbx
0x8aec53ff064    24  83f800               cmpl rax,0x0
0x8aec53ff067    27  0f841c000000         jz 0x8aec53ff089  <+0x49>
0x8aec53ff06d    2d  e8d88fffff           call 0x8aec53f804a  (jump table)    ;; internal wasm call
0x8aec53ff072    32  8bd8                 movl rbx,rax
0x8aec53ff074    34  488b55e8             REX.W movq rdx,[rbp-0x18]
0x8aec53ff078    38  488b4de0             REX.W movq rcx,[rbp-0x20]
0x8aec53ff07c    3c  890c1a               movl [rdx+rbx*1],rcx
0x8aec53ff07f    3f  b8ffffffff           movl rax,0xffffffff
0x8aec53ff084    44  488be5               REX.W movq rsp,rbp
0x8aec53ff087    47  5d                   pop rbp
0x8aec53ff088    48  c3                   retl
0x8aec53ff089    49  33c0                 xorl rax,rax
0x8aec53ff08b    4b  ebf7                 jmp 0x8aec53ff084  <+0x44>
0x8aec53ff08d    4d  e8de92ffff           call 0x8aec53f8370  (jump table)    ;; wasm stub: WasmStackGuard
0x8aec53ff092    52  488b45e0             REX.W movq rax,[rbp-0x20]
0x8aec53ff096    56  488b75f0             REX.W movq rsi,[rbp-0x10]
0x8aec53ff09a    5a  ebc0                 jmp 0x8aec53ff05c  <+0x1c>
0x8aec53ff09c    5c  e86f90ffff           call 0x8aec53f8110  (jump table)    ;; wasm stub: ThrowWasmTrapMemOutOfBounds
0x8aec53ff0a1    61  90                   nop
0x8aec53ff0a2    62  6690                 nop

Protected instructions:
 pc offset  land pad
        3c        5c

Source positions:
 pc offset  position
        2d        10
        34        14
        4d         0
        5c        14

Safepoints (entries = 1, byte size = 10)
0x8aec53ff072     32  slots (sp->fp): 00000000

RelocInfo (size = 4)
0x8aec53ff06e  internal wasm call
0x8aec53ff08e  wasm stub call
0x8aec53ff09d  wasm stub call

--- End code ---
--- WebAssembly code ---
name: __fwritex
index: 20
kind: wasm function
compiler: TurboFan
Body (size = 768 = 740 + 28 padding)
Instructions (size = 728)
0x8aec53ff0c0     0  55                   push rbp
0x8aec53ff0c1     1  4889e5               REX.W movq rbp,rsp
0x8aec53ff0c4     4  6a08                 push 0x8
0x8aec53ff0c6     6  56                   push rsi
0x8aec53ff0c7     7  4883ec40             REX.W subq rsp,0x40
0x8aec53ff0cb     b  488b5e27             REX.W movq rbx,[rsi+0x27]
0x8aec53ff0cf     f  48894de8             REX.W movq [rbp-0x18],rcx
0x8aec53ff0d3    13  488945e0             REX.W movq [rbp-0x20],rax
0x8aec53ff0d7    17  488955d8             REX.W movq [rbp-0x28],rdx
0x8aec53ff0db    1b  48895db0             REX.W movq [rbp-0x50],rbx
0x8aec53ff0df    1f  483b23               REX.W cmpq rsp,[rbx]
0x8aec53ff0e2    22  0f860f020000         jna 0x8aec53ff2f7  <+0x237>
0x8aec53ff0e8    28  488b7e17             REX.W movq rdi,[rsi+0x17]
0x8aec53ff0ec    2c  448bc1               movl r8,rcx
0x8aec53ff0ef    2f  458b4c3810           movl r9,[r8+rdi*1+0x10]
0x8aec53ff0f4    34  48897dc8             REX.W movq [rbp-0x38],rdi
0x8aec53ff0f8    38  4c8945d0             REX.W movq [rbp-0x30],r8
0x8aec53ff0fc    3c  4183f900             cmpl r9,0x0
0x8aec53ff100    40  0f8535000000         jnz 0x8aec53ff13b  <+0x7b>
0x8aec53ff106    46  488bc1               REX.W movq rax,rcx
0x8aec53ff109    49  e8248fffff           call 0x8aec53f8032  (jump table)    ;; internal wasm call
0x8aec53ff10e    4e  83f800               cmpl rax,0x0
0x8aec53ff111    51  0f85d9010000         jnz 0x8aec53ff2f0  <+0x230>
0x8aec53ff117    57  488b5dd0             REX.W movq rbx,[rbp-0x30]
0x8aec53ff11b    5b  488b7dc8             REX.W movq rdi,[rbp-0x38]
0x8aec53ff11f    5f  448b4c3b10           movl r9,[rbx+rdi*1+0x10]
0x8aec53ff124    64  4c8bc3               REX.W movq r8,rbx
0x8aec53ff127    67  488b5db0             REX.W movq rbx,[rbp-0x50]
0x8aec53ff12b    6b  488b4de8             REX.W movq rcx,[rbp-0x18]
0x8aec53ff12f    6f  488b45e0             REX.W movq rax,[rbp-0x20]
0x8aec53ff133    73  488b55d8             REX.W movq rdx,[rbp-0x28]
0x8aec53ff137    77  488b75f0             REX.W movq rsi,[rbp-0x10]
0x8aec53ff13b    7b  458b5c3814           movl r11,[r8+rdi*1+0x14]
0x8aec53ff140    80  452bcb               subl r9,r11
0x8aec53ff143    83  443bca               cmpl r9,rdx
0x8aec53ff146    86  0f824e010000         jc 0x8aec53ff29a  <+0x1da>
0x8aec53ff14c    8c  458b4c3850           movl r9,[r8+rdi*1+0x50]
0x8aec53ff151    91  4183f900             cmpl r9,0x0
0x8aec53ff155    95  0f8c02010000         jl 0x8aec53ff25d  <+0x19d>
0x8aec53ff15b    9b  4c8bcb               REX.W movq r9,rbx
0x8aec53ff15e    9e  488bda               REX.W movq rbx,rdx
0x8aec53ff161    a1  4c8be0               REX.W movq r12,rax
0x8aec53ff164    a4  660f1f840000000000   nop
0x8aec53ff16d    ad  660f1f840000000000   nop
0x8aec53ff176    b6  660f1f840000000000   nop
0x8aec53ff17f    bf  90                   nop
0x8aec53ff180    c0  493b21               REX.W cmpq rsp,[r9]
0x8aec53ff183    c3  0f868c010000         jna 0x8aec53ff315  <+0x255>
0x8aec53ff189    c9  83fb00               cmpl rbx,0x0
0x8aec53ff18c    cc  0f84c1000000         jz 0x8aec53ff253  <+0x193>
0x8aec53ff192    d2  448d7bff             leal r15,[rbx-0x1]
0x8aec53ff196    d6  438d0427             leal rax,[r15+r12*1]
0x8aec53ff19a    da  0fb60407             movzxbl rax,[rdi+rax*1]
0x8aec53ff19e    de  83f80a               cmpl rax,0xa
0x8aec53ff1a1    e1  0f841d000000         jz 0x8aec53ff1c4  <+0x104>
0x8aec53ff1a7    e7  83fb01               cmpl rbx,0x1
0x8aec53ff1aa    ea  0f84a3000000         jz 0x8aec53ff253  <+0x193>
0x8aec53ff1b0    f0  418d5fff             leal rbx,[r15-0x1]
0x8aec53ff1b4    f4  428d0423             leal rax,[rbx+r12*1]
0x8aec53ff1b8    f8  0fb60407             movzxbl rax,[rdi+rax*1]
0x8aec53ff1bc    fc  83f80a               cmpl rax,0xa
0x8aec53ff1bf    ff  75bf                 jnz 0x8aec53ff180  <+0xc0>
0x8aec53ff1c1   101  498bdf               REX.W movq rbx,r15
0x8aec53ff1c4   104  458b4c3824           movl r9,[r8+rdi*1+0x24]
0x8aec53ff1c9   109  4c8b5e3f             REX.W movq r11,[rsi+0x3f]
0x8aec53ff1cd   10d  4c8b7e37             REX.W movq r15,[rsi+0x37]
0x8aec53ff1d1   111  8b460f               movl rax,[rsi+0xf]
0x8aec53ff1d4   114  4903c6               REX.W addq rax,r14
0x8aec53ff1d7   117  428d0c8d00000000     leal rcx,[r9*4+0x0]
0x8aec53ff1df   11f  4183f904             cmpl r9,0x4
0x8aec53ff1e3   123  0f8385010000         jnc 0x8aec53ff36e  <+0x2ae>
0x8aec53ff1e9   129  41833c0b00           cmpl [r11+rcx*1],0x0
0x8aec53ff1ee   12e  0f8575010000         jnz 0x8aec53ff369  <+0x2a9>
0x8aec53ff1f4   134  468b5c8807           movl r11,[rax+r9*4+0x7]
0x8aec53ff1f9   139  4d03de               REX.W addq r11,r14
0x8aec53ff1fc   13c  4f8b0ccf             REX.W movq r9,[r15+r9*8]
0x8aec53ff200   140  48895dc0             REX.W movq [rbp-0x40],rbx
0x8aec53ff204   144  498bf3               REX.W movq rsi,r11
0x8aec53ff207   147  488b45e8             REX.W movq rax,[rbp-0x18]
0x8aec53ff20b   14b  4c89e2               REX.W movq rdx,r12
0x8aec53ff20e   14e  488bcb               REX.W movq rcx,rbx
0x8aec53ff211   151  41ffd1               call r9
0x8aec53ff214   154  3b45c0               cmpl rax,[rbp-0x40]
0x8aec53ff217   157  0f8231000000         jc 0x8aec53ff24e  <+0x18e>
0x8aec53ff21d   15d  488b55d8             REX.W movq rdx,[rbp-0x28]
0x8aec53ff221   161  2b55c0               subl rdx,[rbp-0x40]
0x8aec53ff224   164  488b5de0             REX.W movq rbx,[rbp-0x20]
0x8aec53ff228   168  488b7dc0             REX.W movq rdi,[rbp-0x40]
0x8aec53ff22c   16c  8d043b               leal rax,[rbx+rdi*1]
0x8aec53ff22f   16f  4c8b45d0             REX.W movq r8,[rbp-0x30]
0x8aec53ff233   173  4c8b4dc8             REX.W movq r9,[rbp-0x38]
0x8aec53ff237   177  478b5c0814           movl r11,[r8+r9*1+0x14]
0x8aec53ff23c   17c  488bd8               REX.W movq rbx,rax
0x8aec53ff23f   17f  488bc7               REX.W movq rax,rdi
0x8aec53ff242   182  498bf9               REX.W movq rdi,r9
0x8aec53ff245   185  488b75f0             REX.W movq rsi,[rbp-0x10]
0x8aec53ff249   189  e914000000           jmp 0x8aec53ff262  <+0x1a2>
0x8aec53ff24e   18e  488be5               REX.W movq rsp,rbp
0x8aec53ff251   191  5d                   pop rbp
0x8aec53ff252   192  c3                   retl
0x8aec53ff253   193  33c0                 xorl rax,rax
0x8aec53ff255   195  4c89e3               REX.W movq rbx,r12
0x8aec53ff258   198  e905000000           jmp 0x8aec53ff262  <+0x1a2>
0x8aec53ff25d   19d  488bd8               REX.W movq rbx,rax
0x8aec53ff260   1a0  33c0                 xorl rax,rax
0x8aec53ff262   1a2  488955d8             REX.W movq [rbp-0x28],rdx
0x8aec53ff266   1a6  488945c0             REX.W movq [rbp-0x40],rax
0x8aec53ff26a   1aa  498bc3               REX.W movq rax,r11
0x8aec53ff26d   1ad  488bca               REX.W movq rcx,rdx
0x8aec53ff270   1b0  488bd3               REX.W movq rdx,rbx
0x8aec53ff273   1b3  e8d78dffff           call 0x8aec53f804f  (jump table)    ;; internal wasm call
0x8aec53ff278   1b8  488b5dd0             REX.W movq rbx,[rbp-0x30]
0x8aec53ff27c   1bc  488b7dc8             REX.W movq rdi,[rbp-0x38]
0x8aec53ff280   1c0  448b443b14           movl r8,[rbx+rdi*1+0x14]
0x8aec53ff285   1c5  488b55d8             REX.W movq rdx,[rbp-0x28]
0x8aec53ff289   1c9  4403c2               addl r8,rdx
0x8aec53ff28c   1cc  4489443b14           movl [rbx+rdi*1+0x14],r8
0x8aec53ff291   1d1  488b5dc0             REX.W movq rbx,[rbp-0x40]
0x8aec53ff295   1d5  8d041a               leal rax,[rdx+rbx*1]
0x8aec53ff298   1d8  ebb4                 jmp 0x8aec53ff24e  <+0x18e>
0x8aec53ff29a   1da  418b5c3824           movl rbx,[r8+rdi*1+0x24]
0x8aec53ff29f   1df  488bfe               REX.W movq rdi,rsi
0x8aec53ff2a2   1e2  4c8b473f             REX.W movq r8,[rdi+0x3f]
0x8aec53ff2a6   1e6  4c8b4f37             REX.W movq r9,[rdi+0x37]
0x8aec53ff2aa   1ea  8b7f0f               movl rdi,[rdi+0xf]
0x8aec53ff2ad   1ed  4903fe               REX.W addq rdi,r14
0x8aec53ff2b0   1f0  448d1c9d00000000     leal r11,[rbx*4+0x0]
0x8aec53ff2b8   1f8  83fb04               cmpl rbx,0x4
0x8aec53ff2bb   1fb  0f838f000000         jnc 0x8aec53ff350  <+0x290>
0x8aec53ff2c1   201  43833c1800           cmpl [r8+r11*1],0x0
0x8aec53ff2c6   206  0f857f000000         jnz 0x8aec53ff34b  <+0x28b>
0x8aec53ff2cc   20c  8b749f07             movl rsi,[rdi+rbx*4+0x7]
0x8aec53ff2d0   210  4903f6               REX.W addq rsi,r14
0x8aec53ff2d3   213  498b1cd9             REX.W movq rbx,[r9+rbx*8]
0x8aec53ff2d7   217  4c8bd0               REX.W movq r10,rax
0x8aec53ff2da   21a  488bc2               REX.W movq rax,rdx
0x8aec53ff2dd   21d  498bd2               REX.W movq rdx,r10
0x8aec53ff2e0   220  4c8bd1               REX.W movq r10,rcx
0x8aec53ff2e3   223  488bc8               REX.W movq rcx,rax
0x8aec53ff2e6   226  498bc2               REX.W movq rax,r10
0x8aec53ff2e9   229  ffd3                 call rbx
0x8aec53ff2eb   22b  e95effffff           jmp 0x8aec53ff24e  <+0x18e>
0x8aec53ff2f0   230  33c0                 xorl rax,rax
0x8aec53ff2f2   232  e957ffffff           jmp 0x8aec53ff24e  <+0x18e>
0x8aec53ff2f7   237  e87490ffff           call 0x8aec53f8370  (jump table)    ;; wasm stub: WasmStackGuard
0x8aec53ff2fc   23c  488b4de8             REX.W movq rcx,[rbp-0x18]
0x8aec53ff300   240  488b45e0             REX.W movq rax,[rbp-0x20]
0x8aec53ff304   244  488b55d8             REX.W movq rdx,[rbp-0x28]
0x8aec53ff308   248  488b75f0             REX.W movq rsi,[rbp-0x10]
0x8aec53ff30c   24c  488b5db0             REX.W movq rbx,[rbp-0x50]
0x8aec53ff310   250  e9d3fdffff           jmp 0x8aec53ff0e8  <+0x28>
0x8aec53ff315   255  4c895dc0             REX.W movq [rbp-0x40],r11
0x8aec53ff319   259  48895db8             REX.W movq [rbp-0x48],rbx
0x8aec53ff31d   25d  e84e90ffff           call 0x8aec53f8370  (jump table)    ;; wasm stub: WasmStackGuard
0x8aec53ff322   262  488b4de8             REX.W movq rcx,[rbp-0x18]
0x8aec53ff326   266  4c8b65e0             REX.W movq r12,[rbp-0x20]
0x8aec53ff32a   26a  488b55d8             REX.W movq rdx,[rbp-0x28]
0x8aec53ff32e   26e  488b75f0             REX.W movq rsi,[rbp-0x10]
0x8aec53ff332   272  4c8b45d0             REX.W movq r8,[rbp-0x30]
0x8aec53ff336   276  488b7dc8             REX.W movq rdi,[rbp-0x38]
0x8aec53ff33a   27a  4c8b5dc0             REX.W movq r11,[rbp-0x40]
0x8aec53ff33e   27e  488b5db8             REX.W movq rbx,[rbp-0x48]
0x8aec53ff342   282  4c8b4db0             REX.W movq r9,[rbp-0x50]
0x8aec53ff346   286  e93efeffff           jmp 0x8aec53ff189  <+0xc9>
0x8aec53ff34b   28b  e8208effff           call 0x8aec53f8170  (jump table)    ;; wasm stub: ThrowWasmTrapFuncSigMismatch
0x8aec53ff350   290  e84b8effff           call 0x8aec53f81a0  (jump table)    ;; wasm stub: ThrowWasmTrapTableOutOfBounds
0x8aec53ff355   295  e8b68dffff           call 0x8aec53f8110  (jump table)    ;; wasm stub: ThrowWasmTrapMemOutOfBounds
0x8aec53ff35a   29a  e8b18dffff           call 0x8aec53f8110  (jump table)    ;; wasm stub: ThrowWasmTrapMemOutOfBounds
0x8aec53ff35f   29f  e8ac8dffff           call 0x8aec53f8110  (jump table)    ;; wasm stub: ThrowWasmTrapMemOutOfBounds
0x8aec53ff364   2a4  e8a78dffff           call 0x8aec53f8110  (jump table)    ;; wasm stub: ThrowWasmTrapMemOutOfBounds
0x8aec53ff369   2a9  e8028effff           call 0x8aec53f8170  (jump table)    ;; wasm stub: ThrowWasmTrapFuncSigMismatch
0x8aec53ff36e   2ae  e82d8effff           call 0x8aec53f81a0  (jump table)    ;; wasm stub: ThrowWasmTrapTableOutOfBounds
0x8aec53ff373   2b3  e8988dffff           call 0x8aec53f8110  (jump table)    ;; wasm stub: ThrowWasmTrapMemOutOfBounds
0x8aec53ff378   2b8  e8938dffff           call 0x8aec53f8110  (jump table)    ;; wasm stub: ThrowWasmTrapMemOutOfBounds
0x8aec53ff37d   2bd  e88e8dffff           call 0x8aec53f8110  (jump table)    ;; wasm stub: ThrowWasmTrapMemOutOfBounds
0x8aec53ff382   2c2  e8898dffff           call 0x8aec53f8110  (jump table)    ;; wasm stub: ThrowWasmTrapMemOutOfBounds
0x8aec53ff387   2c7  e8848dffff           call 0x8aec53f8110  (jump table)    ;; wasm stub: ThrowWasmTrapMemOutOfBounds
0x8aec53ff38c   2cc  e87f8dffff           call 0x8aec53f8110  (jump table)    ;; wasm stub: ThrowWasmTrapMemOutOfBounds
0x8aec53ff391   2d1  e87a8dffff           call 0x8aec53f8110  (jump table)    ;; wasm stub: ThrowWasmTrapMemOutOfBounds
0x8aec53ff396   2d6  90                   nop
0x8aec53ff397   2d7  90                   nop

Protected instructions:
 pc offset  land pad
       1da       295
       1cc       29a
       1c0       29f
       177       2a4
       104       2b3
        f8       2b8
        da       2bd
        8c       2c2
        7b       2c7
        5f       2cc
        2f       2d1

Source positions:
 pc offset  position
        2f        11
        46        21
        57        27
        7b        39
        8c        68
        da       113
       104       130
       140       133
       16f       159
       1a2       171
       1b8       178
       1cc       184
       1da        56
       217        59
       237         0
       255        87
       28b        59
       295        56
       29a       184
       29f       178
       2a4       159
       2a9       133
       2b3       130
       2b8       113
       2c2        68
       2c7        39
       2cc        27
       2d1        11

Safepoints (entries = 1, byte size = 11)
0x8aec53ff10e     4e  slots (sp->fp): 0000000000000000

RelocInfo (size = 27)
0x8aec53ff10a  internal wasm call
0x8aec53ff274  internal wasm call
0x8aec53ff2f8  wasm stub call
0x8aec53ff31e  wasm stub call
0x8aec53ff34c  wasm stub call
0x8aec53ff351  wasm stub call
0x8aec53ff356  wasm stub call
0x8aec53ff35b  wasm stub call
0x8aec53ff360  wasm stub call
0x8aec53ff365  wasm stub call
0x8aec53ff36a  wasm stub call
0x8aec53ff36f  wasm stub call
0x8aec53ff374  wasm stub call
0x8aec53ff379  wasm stub call
0x8aec53ff37e  wasm stub call
0x8aec53ff383  wasm stub call
0x8aec53ff388  wasm stub call
0x8aec53ff38d  wasm stub call
0x8aec53ff392  wasm stub call

--- End code ---
--- WebAssembly code ---
name: __vfprintf_internal
index: 21
kind: wasm function
compiler: TurboFan
Body (size = 960 = 904 + 56 padding)
Instructions (size = 892)
0x8aec53ff3c0     0  55                   push rbp
0x8aec53ff3c1     1  4889e5               REX.W movq rbp,rsp
0x8aec53ff3c4     4  6a08                 push 0x8
0x8aec53ff3c6     6  56                   push rsi
0x8aec53ff3c7     7  4883ec70             REX.W subq rsp,0x70
0x8aec53ff3cb     b  488b7e27             REX.W movq rdi,[rsi+0x27]
0x8aec53ff3cf     f  488945d0             REX.W movq [rbp-0x30],rax
0x8aec53ff3d3    13  488955b0             REX.W movq [rbp-0x50],rdx
0x8aec53ff3d7    17  48895d88             REX.W movq [rbp-0x78],rbx
0x8aec53ff3db    1b  4c894d80             REX.W movq [rbp-0x80],r9
0x8aec53ff3df    1f  483b27               REX.W cmpq rsp,[rdi]
0x8aec53ff3e2    22  0f86c2020000         jna 0x8aec53ff6aa  <+0x2ea>
0x8aec53ff3e8    28  488b7e17             REX.W movq rdi,[rsi+0x17]
0x8aec53ff3ec    2c  4c8b4647             REX.W movq r8,[rsi+0x47]
0x8aec53ff3f0    30  458b18               movl r11,[r8]
0x8aec53ff3f3    33  4181ebd0000000       subl r11,0xd0
0x8aec53ff3fa    3a  458918               movl [r8],r11
0x8aec53ff3fd    3d  41898c3bcc000000     movl [r11+rdi*1+0xcc],rcx
0x8aec53ff405    45  458da3a0000000       leal r12,[r11+0xa0]
0x8aec53ff40c    4c  48897dd8             REX.W movq [rbp-0x28],rdi
0x8aec53ff410    50  4c8945e8             REX.W movq [rbp-0x18],r8
0x8aec53ff414    54  4c895de0             REX.W movq [rbp-0x20],r11
0x8aec53ff418    58  33d2                 xorl rdx,rdx
0x8aec53ff41a    5a  b928000000           movl rcx,0x28
0x8aec53ff41f    5f  4c896590             REX.W movq [rbp-0x70],r12
0x8aec53ff423    63  4c89e0               REX.W movq rax,r12
0x8aec53ff426    66  4c8bfa               REX.W movq r15,rdx
0x8aec53ff429    69  e8f58bffff           call 0x8aec53f8023  (jump table)    ;; internal wasm call
0x8aec53ff42e    6e  488b7de0             REX.W movq rdi,[rbp-0x20]
0x8aec53ff432    72  4c8b45d8             REX.W movq r8,[rbp-0x28]
0x8aec53ff436    76  468b9c07cc000000     movl r11,[rdi+r8*1+0xcc]
0x8aec53ff43e    7e  46899c07c8000000     movl [rdi+r8*1+0xc8],r11
0x8aec53ff446    86  8d5f50               leal rbx,[rdi+0x50]
0x8aec53ff449    89  8d8fc8000000         leal rcx,[rdi+0xc8]
0x8aec53ff44f    8f  ff7580               push [rbp-0x80]
0x8aec53ff452    92  ff7588               push [rbp-0x78]
0x8aec53ff455    95  48895d98             REX.W movq [rbp-0x68],rbx
0x8aec53ff459    99  48894da0             REX.W movq [rbp-0x60],rcx
0x8aec53ff45d    9d  488b75f0             REX.W movq rsi,[rbp-0x10]
0x8aec53ff461    a1  33c0                 xorl rax,rax
0x8aec53ff463    a3  488b55b0             REX.W movq rdx,[rbp-0x50]
0x8aec53ff467    a7  4c8b4d90             REX.W movq r9,[rbp-0x70]
0x8aec53ff46b    ab  e8ee8bffff           call 0x8aec53f805e  (jump table)    ;; internal wasm call
0x8aec53ff470    b0  83f800               cmpl rax,0x0
0x8aec53ff473    b3  0f8c12020000         jl 0x8aec53ff68b  <+0x2cb>
0x8aec53ff479    b9  8b7dd0               movl rdi,[rbp-0x30]
0x8aec53ff47c    bc  4c8b45d8             REX.W movq r8,[rbp-0x28]
0x8aec53ff480    c0  468b5c074c           movl r11,[rdi+r8*1+0x4c]
0x8aec53ff485    c5  48897dc0             REX.W movq [rbp-0x40],rdi
0x8aec53ff489    c9  4183fb00             cmpl r11,0x0
0x8aec53ff48d    cd  0f8d07000000         jge 0x8aec53ff49a  <+0xda>
0x8aec53ff493    d3  33c0                 xorl rax,rax
0x8aec53ff495    d5  e915000000           jmp 0x8aec53ff4af  <+0xef>
0x8aec53ff49a    da  488b75f0             REX.W movq rsi,[rbp-0x10]
0x8aec53ff49e    de  488b45d0             REX.W movq rax,[rbp-0x30]
0x8aec53ff4a2    e2  e8818bffff           call 0x8aec53f8028  (jump table)    ;; internal wasm call
0x8aec53ff4a7    e7  488b7dc0             REX.W movq rdi,[rbp-0x40]
0x8aec53ff4ab    eb  4c8b45d8             REX.W movq r8,[rbp-0x28]
0x8aec53ff4af    ef  4d8bd0               REX.W movq r10,r8
0x8aec53ff4b2    f2  4c8bc7               REX.W movq r8,rdi
0x8aec53ff4b5    f5  498bfa               REX.W movq rdi,r10
0x8aec53ff4b8    f8  468b1c07             movl r11,[rdi+r8*1]
0x8aec53ff4bc    fc  458b643848           movl r12,[r8+rdi*1+0x48]
0x8aec53ff4c1   101  488945c8             REX.W movq [rbp-0x38],rax
0x8aec53ff4c5   105  4c895db8             REX.W movq [rbp-0x48],r11
0x8aec53ff4c9   109  4183fc00             cmpl r12,0x0
0x8aec53ff4cd   10d  0f8f0b000000         jg 0x8aec53ff4de  <+0x11e>
0x8aec53ff4d3   113  4d8be3               REX.W movq r12,r11
0x8aec53ff4d6   116  4183e4df             andl r12,0xdf
0x8aec53ff4da   11a  46892407             movl [rdi+r8*1],r12
0x8aec53ff4de   11e  458b643830           movl r12,[r8+rdi*1+0x30]
0x8aec53ff4e3   123  4183fc00             cmpl r12,0x0
0x8aec53ff4e7   127  0f841f000000         jz 0x8aec53ff50c  <+0x14c>
0x8aec53ff4ed   12d  458b643810           movl r12,[r8+rdi*1+0x10]
0x8aec53ff4f2   132  4183fc00             cmpl r12,0x0
0x8aec53ff4f6   136  0f8508000000         jnz 0x8aec53ff504  <+0x144>
0x8aec53ff4fc   13c  4531e4               xorl r12,r12
0x8aec53ff4ff   13f  e931000000           jmp 0x8aec53ff535  <+0x175>
0x8aec53ff504   144  4531e4               xorl r12,r12
0x8aec53ff507   147  e947000000           jmp 0x8aec53ff553  <+0x193>
0x8aec53ff50c   14c  41c744383050000000   movl [r8+rdi*1+0x30],0x50
0x8aec53ff515   155  41c744381c00000000   movl [r8+rdi*1+0x1c],0x0
0x8aec53ff51e   15e  49c744381000000000   REX.W movq [r8+rdi*1+0x10],0x0
0x8aec53ff527   167  458b64382c           movl r12,[r8+rdi*1+0x2c]
0x8aec53ff52c   16c  4c8b7de0             REX.W movq r15,[rbp-0x20]
0x8aec53ff530   170  45897c382c           movl [r8+rdi*1+0x2c],r15
0x8aec53ff535   175  4c8965a8             REX.W movq [rbp-0x58],r12
0x8aec53ff539   179  488b75f0             REX.W movq rsi,[rbp-0x10]
0x8aec53ff53d   17d  488b45d0             REX.W movq rax,[rbp-0x30]
0x8aec53ff541   181  e8ec8affff           call 0x8aec53f8032  (jump table)    ;; internal wasm call
0x8aec53ff546   186  83f800               cmpl rax,0x0
0x8aec53ff549   189  0f8530000000         jnz 0x8aec53ff57f  <+0x1bf>
0x8aec53ff54f   18f  4c8b65a8             REX.W movq r12,[rbp-0x58]
0x8aec53ff553   193  ff7580               push [rbp-0x80]
0x8aec53ff556   196  ff7588               push [rbp-0x78]
0x8aec53ff559   199  4c8965a8             REX.W movq [rbp-0x58],r12
0x8aec53ff55d   19d  488b75f0             REX.W movq rsi,[rbp-0x10]
0x8aec53ff561   1a1  488b45d0             REX.W movq rax,[rbp-0x30]
0x8aec53ff565   1a5  488b55b0             REX.W movq rdx,[rbp-0x50]
0x8aec53ff569   1a9  488b4da0             REX.W movq rcx,[rbp-0x60]
0x8aec53ff56d   1ad  488b5d98             REX.W movq rbx,[rbp-0x68]
0x8aec53ff571   1b1  4c8b4d90             REX.W movq r9,[rbp-0x70]
0x8aec53ff575   1b5  e8e48affff           call 0x8aec53f805e  (jump table)    ;; internal wasm call
0x8aec53ff57a   1ba  e908000000           jmp 0x8aec53ff587  <+0x1c7>
0x8aec53ff57f   1bf  b8ffffffff           movl rax,0xffffffff
0x8aec53ff584   1c4  488bf8               REX.W movq rdi,rax
0x8aec53ff587   1c7  4c8b65a8             REX.W movq r12,[rbp-0x58]
0x8aec53ff58b   1cb  488945b0             REX.W movq [rbp-0x50],rax
0x8aec53ff58f   1cf  4183fc00             cmpl r12,0x0
0x8aec53ff593   1d3  0f850d000000         jnz 0x8aec53ff5a6  <+0x1e6>
0x8aec53ff599   1d9  4c8b45c0             REX.W movq r8,[rbp-0x40]
0x8aec53ff59d   1dd  488b7dd8             REX.W movq rdi,[rbp-0x28]
0x8aec53ff5a1   1e1  e99a000000           jmp 0x8aec53ff640  <+0x280>
0x8aec53ff5a6   1e6  488b7dd8             REX.W movq rdi,[rbp-0x28]
0x8aec53ff5aa   1ea  4c8b45c0             REX.W movq r8,[rbp-0x40]
0x8aec53ff5ae   1ee  458b5c3824           movl r11,[r8+rdi*1+0x24]
0x8aec53ff5b3   1f3  488b75f0             REX.W movq rsi,[rbp-0x10]
0x8aec53ff5b7   1f7  4c8b7e3f             REX.W movq r15,[rsi+0x3f]
0x8aec53ff5bb   1fb  488b5e37             REX.W movq rbx,[rsi+0x37]
0x8aec53ff5bf   1ff  8b560f               movl rdx,[rsi+0xf]
0x8aec53ff5c2   202  4903d6               REX.W addq rdx,r14
0x8aec53ff5c5   205  428d0c9d00000000     leal rcx,[r11*4+0x0]
0x8aec53ff5cd   20d  4183fb04             cmpl r11,0x4
0x8aec53ff5d1   211  0f8311010000         jnc 0x8aec53ff6e8  <+0x328>
0x8aec53ff5d7   217  41833c0f00           cmpl [r15+rcx*1],0x0
0x8aec53ff5dc   21c  0f8501010000         jnz 0x8aec53ff6e3  <+0x323>
0x8aec53ff5e2   222  468b7c9a07           movl r15,[rdx+r11*4+0x7]
0x8aec53ff5e7   227  4d03fe               REX.W addq r15,r14
0x8aec53ff5ea   22a  4e8b1cdb             REX.W movq r11,[rbx+r11*8]
0x8aec53ff5ee   22e  498bf7               REX.W movq rsi,r15
0x8aec53ff5f1   231  488b45d0             REX.W movq rax,[rbp-0x30]
0x8aec53ff5f5   235  33c9                 xorl rcx,rcx
0x8aec53ff5f7   237  488bd1               REX.W movq rdx,rcx
0x8aec53ff5fa   23a  41ffd3               call r11
0x8aec53ff5fd   23d  488b7dd8             REX.W movq rdi,[rbp-0x28]
0x8aec53ff601   241  4c8b45c0             REX.W movq r8,[rbp-0x40]
0x8aec53ff605   245  41c744383000000000   movl [r8+rdi*1+0x30],0x0
0x8aec53ff60e   24e  4c8b65a8             REX.W movq r12,[rbp-0x58]
0x8aec53ff612   252  458964382c           movl [r8+rdi*1+0x2c],r12
0x8aec53ff617   257  41c744381c00000000   movl [r8+rdi*1+0x1c],0x0
0x8aec53ff620   260  458b5c3814           movl r11,[r8+rdi*1+0x14]
0x8aec53ff625   265  41bcffffffff         movl r12,0xffffffff
0x8aec53ff62b   26b  4183fb00             cmpl r11,0x0
0x8aec53ff62f   26f  440f4565b0           cmovnzl r12,[rbp-0x50]
0x8aec53ff634   274  49c744381000000000   REX.W movq [r8+rdi*1+0x10],0x0
0x8aec53ff63d   27d  4c89e0               REX.W movq rax,r12
0x8aec53ff640   280  4c8b5db8             REX.W movq r11,[rbp-0x48]
0x8aec53ff644   284  4183e320             andl r11,0x20
0x8aec53ff648   288  468b2407             movl r12,[rdi+r8*1]
0x8aec53ff64c   28c  4509e3               orl r11,r12
0x8aec53ff64f   28f  46891c07             movl [rdi+r8*1],r11
0x8aec53ff653   293  bfffffffff           movl rdi,0xffffffff
0x8aec53ff658   298  41f6c420             testb r12,0x20
0x8aec53ff65c   29c  0f45c7               cmovnzl rax,rdi
0x8aec53ff65f   29f  488945d8             REX.W movq [rbp-0x28],rax
0x8aec53ff663   2a3  837dc800             cmpl [rbp-0x38],0x0
0x8aec53ff667   2a7  0f8416000000         jz 0x8aec53ff683  <+0x2c3>
0x8aec53ff66d   2ad  488b75f0             REX.W movq rsi,[rbp-0x10]
0x8aec53ff671   2b1  488b45d0             REX.W movq rax,[rbp-0x30]
0x8aec53ff675   2b5  e8b389ffff           call 0x8aec53f802d  (jump table)    ;; internal wasm call
0x8aec53ff67a   2ba  488b7dd8             REX.W movq rdi,[rbp-0x28]
0x8aec53ff67e   2be  e90d000000           jmp 0x8aec53ff690  <+0x2d0>
0x8aec53ff683   2c3  488bf8               REX.W movq rdi,rax
0x8aec53ff686   2c6  e905000000           jmp 0x8aec53ff690  <+0x2d0>
0x8aec53ff68b   2cb  bfffffffff           movl rdi,0xffffffff
0x8aec53ff690   2d0  4c8b45e0             REX.W movq r8,[rbp-0x20]
0x8aec53ff694   2d4  4181c0d0000000       addl r8,0xd0
0x8aec53ff69b   2db  4c8b5de8             REX.W movq r11,[rbp-0x18]
0x8aec53ff69f   2df  458903               movl [r11],r8
0x8aec53ff6a2   2e2  488bc7               REX.W movq rax,rdi
0x8aec53ff6a5   2e5  488be5               REX.W movq rsp,rbp
0x8aec53ff6a8   2e8  5d                   pop rbp
0x8aec53ff6a9   2e9  c3                   retl
0x8aec53ff6aa   2ea  48894dc8             REX.W movq [rbp-0x38],rcx
0x8aec53ff6ae   2ee  e8bd8cffff           call 0x8aec53f8370  (jump table)    ;; wasm stub: WasmStackGuard
0x8aec53ff6b3   2f3  488b75f0             REX.W movq rsi,[rbp-0x10]
0x8aec53ff6b7   2f7  488b4dc8             REX.W movq rcx,[rbp-0x38]
0x8aec53ff6bb   2fb  e928fdffff           jmp 0x8aec53ff3e8  <+0x28>
0x8aec53ff6c0   300  e84b8affff           call 0x8aec53f8110  (jump table)    ;; wasm stub: ThrowWasmTrapMemOutOfBounds
0x8aec53ff6c5   305  e8468affff           call 0x8aec53f8110  (jump table)    ;; wasm stub: ThrowWasmTrapMemOutOfBounds
0x8aec53ff6ca   30a  e8418affff           call 0x8aec53f8110  (jump table)    ;; wasm stub: ThrowWasmTrapMemOutOfBounds
0x8aec53ff6cf   30f  e83c8affff           call 0x8aec53f8110  (jump table)    ;; wasm stub: ThrowWasmTrapMemOutOfBounds
0x8aec53ff6d4   314  e8378affff           call 0x8aec53f8110  (jump table)    ;; wasm stub: ThrowWasmTrapMemOutOfBounds
0x8aec53ff6d9   319  e8328affff           call 0x8aec53f8110  (jump table)    ;; wasm stub: ThrowWasmTrapMemOutOfBounds
0x8aec53ff6de   31e  e82d8affff           call 0x8aec53f8110  (jump table)    ;; wasm stub: ThrowWasmTrapMemOutOfBounds
0x8aec53ff6e3   323  e8888affff           call 0x8aec53f8170  (jump table)    ;; wasm stub: ThrowWasmTrapFuncSigMismatch
0x8aec53ff6e8   328  e8b38affff           call 0x8aec53f81a0  (jump table)    ;; wasm stub: ThrowWasmTrapTableOutOfBounds
0x8aec53ff6ed   32d  e81e8affff           call 0x8aec53f8110  (jump table)    ;; wasm stub: ThrowWasmTrapMemOutOfBounds
0x8aec53ff6f2   332  e8198affff           call 0x8aec53f8110  (jump table)    ;; wasm stub: ThrowWasmTrapMemOutOfBounds
0x8aec53ff6f7   337  e8148affff           call 0x8aec53f8110  (jump table)    ;; wasm stub: ThrowWasmTrapMemOutOfBounds
0x8aec53ff6fc   33c  e80f8affff           call 0x8aec53f8110  (jump table)    ;; wasm stub: ThrowWasmTrapMemOutOfBounds
0x8aec53ff701   341  e80a8affff           call 0x8aec53f8110  (jump table)    ;; wasm stub: ThrowWasmTrapMemOutOfBounds
0x8aec53ff706   346  e8058affff           call 0x8aec53f8110  (jump table)    ;; wasm stub: ThrowWasmTrapMemOutOfBounds
0x8aec53ff70b   34b  e8008affff           call 0x8aec53f8110  (jump table)    ;; wasm stub: ThrowWasmTrapMemOutOfBounds
0x8aec53ff710   350  e8fb89ffff           call 0x8aec53f8110  (jump table)    ;; wasm stub: ThrowWasmTrapMemOutOfBounds
0x8aec53ff715   355  e8f689ffff           call 0x8aec53f8110  (jump table)    ;; wasm stub: ThrowWasmTrapMemOutOfBounds
0x8aec53ff71a   35a  e8f189ffff           call 0x8aec53f8110  (jump table)    ;; wasm stub: ThrowWasmTrapMemOutOfBounds
0x8aec53ff71f   35f  e8ec89ffff           call 0x8aec53f8110  (jump table)    ;; wasm stub: ThrowWasmTrapMemOutOfBounds
0x8aec53ff724   364  e8e789ffff           call 0x8aec53f8110  (jump table)    ;; wasm stub: ThrowWasmTrapMemOutOfBounds
0x8aec53ff729   369  e8e289ffff           call 0x8aec53f8110  (jump table)    ;; wasm stub: ThrowWasmTrapMemOutOfBounds
0x8aec53ff72e   36e  e8dd89ffff           call 0x8aec53f8110  (jump table)    ;; wasm stub: ThrowWasmTrapMemOutOfBounds
0x8aec53ff733   373  e8d889ffff           call 0x8aec53f8110  (jump table)    ;; wasm stub: ThrowWasmTrapMemOutOfBounds
0x8aec53ff738   378  90                   nop
0x8aec53ff739   379  0f1f00               nop

Protected instructions:
 pc offset  land pad
       28f       300
       288       305
       274       30a
       260       30f
       257       314
       252       319
       245       31e
       1ee       32d
       170       332
       167       337
       15e       33c
       155       341
       14c       346
       12d       34b
       11e       350
       11a       355
        fc       35a
        f8       35f
        c0       364
        7e       369
        76       36e
        3d       373

Source positions:
 pc offset  position
        3d        23
        4c        37
        6e        44
        7e        48
        8f        80
        bc        96
        da       106
        ef       113
        fc       120
       11a       135
       11e       147
       12d       194
       14c       158
       155       165
       15e       172
       167       177
       16c       186
       175       206
       193       238
       1e6       262
       22e       265
       23d       273
       24e       280
       257       287
       260       292
       274       301
       288       318
       28f       326
       2ad       348
       2ea         0
       300       326
       305       318
       30a       301
       30f       292
       314       287
       319       280
       31e       273
       323       265
       32d       262
       332       186
       337       177
       33c       172
       341       165
       346       158
       34b       194
       350       147
       355       135
       35a       120
       35f       113
       364        96
       369        48
       36e        44
       373        23

Safepoints (entries = 1, byte size = 12)
0x8aec53ff42e     6e  slots (sp->fp): 000000000000000000000000

RelocInfo (size = 45)
0x8aec53ff42a  internal wasm call
0x8aec53ff46c  internal wasm call
0x8aec53ff4a3  internal wasm call
0x8aec53ff542  internal wasm call
0x8aec53ff576  internal wasm call
0x8aec53ff676  internal wasm call
0x8aec53ff6af  wasm stub call
0x8aec53ff6c1  wasm stub call
0x8aec53ff6c6  wasm stub call
0x8aec53ff6cb  wasm stub call
0x8aec53ff6d0  wasm stub call
0x8aec53ff6d5  wasm stub call
0x8aec53ff6da  wasm stub call
0x8aec53ff6df  wasm stub call
0x8aec53ff6e4  wasm stub call
0x8aec53ff6e9  wasm stub call
0x8aec53ff6ee  wasm stub call
0x8aec53ff6f3  wasm stub call
0x8aec53ff6f8  wasm stub call
0x8aec53ff6fd  wasm stub call
0x8aec53ff702  wasm stub call
0x8aec53ff707  wasm stub call
0x8aec53ff70c  wasm stub call
0x8aec53ff711  wasm stub call
0x8aec53ff716  wasm stub call
0x8aec53ff71b  wasm stub call
0x8aec53ff720  wasm stub call
0x8aec53ff725  wasm stub call
0x8aec53ff72a  wasm stub call
0x8aec53ff72f  wasm stub call
0x8aec53ff734  wasm stub call

--- End code ---
--- WebAssembly code ---
name: printf_core
index: 22
kind: wasm function
compiler: TurboFan
Body (size = 9280 = 9224 + 56 padding)
Instructions (size = 9208)
0x8aec5401380     0  55                   push rbp
0x8aec5401381     1  4889e5               REX.W movq rbp,rsp
0x8aec5401384     4  6a08                 push 0x8
0x8aec5401386     6  56                   push rsi
0x8aec5401387     7  4881ecb0000000       REX.W subq rsp,0xb0
0x8aec540138e     e  488b7e27             REX.W movq rdi,[rsi+0x27]
0x8aec5401392    12  48894598             REX.W movq [rbp-0x68],rax
0x8aec5401396    16  48894db0             REX.W movq [rbp-0x50],rcx
0x8aec540139a    1a  4c894dc0             REX.W movq [rbp-0x40],r9
0x8aec540139e    1e  48895da8             REX.W movq [rbp-0x58],rbx
0x8aec54013a2    22  48897db8             REX.W movq [rbp-0x48],rdi
0x8aec54013a6    26  483b27               REX.W cmpq rsp,[rdi]
0x8aec54013a9    29  0f86d81d0000         jna 0x8aec5403187  <+0x1e07>
0x8aec54013af    2f  4c8b4617             REX.W movq r8,[rsi+0x17]
0x8aec54013b3    33  4c8b5e47             REX.W movq r11,[rsi+0x47]
0x8aec54013b7    37  458b23               movl r12,[r11]
0x8aec54013ba    3a  4183ec50             subl r12,0x50
0x8aec54013be    3e  458923               movl [r11],r12
0x8aec54013c1    41  438954044c           movl [r12+r8*1+0x4c],rdx
0x8aec54013c6    46  4c8945d8             REX.W movq [rbp-0x28],r8
0x8aec54013ca    4a  4c895de8             REX.W movq [rbp-0x18],r11
0x8aec54013ce    4e  4c8965e0             REX.W movq [rbp-0x20],r12
0x8aec54013d2    52  33d2                 xorl rdx,rdx
0x8aec54013d4    54  4c8bda               REX.W movq r11,rdx
0x8aec54013d7    57  4c8bfa               REX.W movq r15,rdx
0x8aec54013da    5a  488955a0             REX.W movq [rbp-0x60],rdx
0x8aec54013de    5e  e927000000           jmp 0x8aec540140a  <+0x8a>
0x8aec54013e3    63  660f1f840000000000   nop
0x8aec54013ec    6c  660f1f840000000000   nop
0x8aec54013f5    75  660f1f840000000000   nop
0x8aec54013fe    7e  6690                 nop
0x8aec5401400    80  4403da               addl r11,rdx
0x8aec5401403    83  488bd7               REX.W movq rdx,rdi
0x8aec5401406    86  488b7db8             REX.W movq rdi,[rbp-0x48]
0x8aec540140a    8a  483b27               REX.W cmpq rsp,[rdi]
0x8aec540140d    8d  0f869e1d0000         jna 0x8aec54031b1  <+0x1e31>
0x8aec5401413    93  41bfffffff7f         movl r15,0x7fffffff
0x8aec5401419    99  452bfb               subl r15,r11
0x8aec540141c    9c  443bfa               cmpl r15,rdx
0x8aec540141f    9f  0f8c201d0000         jl 0x8aec5403145  <+0x1dc5>
0x8aec5401425    a5  478b7c044c           movl r15,[r12+r8*1+0x4c]
0x8aec540142a    aa  430fb61c38           movzxbl rbx,[r8+r15*1]
0x8aec540142f    af  4c89bd58ffffff       REX.W movq [rbp-0xa8],r15
0x8aec5401436    b6  83fb00               cmpl rbx,0x0
0x8aec5401439    b9  0f84471a0000         jz 0x8aec5402e86  <+0x1b06>
0x8aec540143f    bf  48895d90             REX.W movq [rbp-0x70],rbx
0x8aec5401443    c3  498bdf               REX.W movq rbx,r15
0x8aec5401446    c6  e94a000000           jmp 0x8aec5401495  <+0x115>
0x8aec540144b    cb  660f1f840000000000   nop
0x8aec5401454    d4  660f1f840000000000   nop
0x8aec540145d    dd  660f1f840000000000   nop
0x8aec5401466    e6  660f1f840000000000   nop
0x8aec540146f    ef  660f1f840000000000   nop
0x8aec5401478    f8  0f1f840000000000     nop
0x8aec5401480   100  8d4b01               leal rcx,[rbx+0x1]
0x8aec5401483   103  43894c044c           movl [r12+r8*1+0x4c],rcx
0x8aec5401488   108  420fb65c0301         movzxbl rbx,[rbx+r8*1+0x1]
0x8aec540148e   10e  48895d90             REX.W movq [rbp-0x70],rbx
0x8aec5401492   112  488bd9               REX.W movq rbx,rcx
0x8aec5401495   115  483b27               REX.W cmpq rsp,[rdi]
0x8aec5401498   118  0f86411d0000         jna 0x8aec54031df  <+0x1e5f>
0x8aec540149e   11e  488b4d90             REX.W movq rcx,[rbp-0x70]
0x8aec54014a2   122  81e1ff000000         andl rcx,0xff
0x8aec54014a8   128  0f84c3000000         jz 0x8aec5401571  <+0x1f1>
0x8aec54014ae   12e  80f925               cmpb cl,0x25
0x8aec54014b1   131  75cd                 jnz 0x8aec5401480  <+0x100>
0x8aec54014b3   133  488bcb               REX.W movq rcx,rbx
0x8aec54014b6   136  e909000000           jmp 0x8aec54014c4  <+0x144>
0x8aec54014bb   13b  0f1f440000           nop
0x8aec54014c0   140  488b7db8             REX.W movq rdi,[rbp-0x48]
0x8aec54014c4   144  483b27               REX.W cmpq rsp,[rdi]
0x8aec54014c7   147  0f864f1d0000         jna 0x8aec540321c  <+0x1e9c>
0x8aec54014cd   14d  420fb67c0101         movzxbl rdi,[rcx+r8*1+0x1]
0x8aec54014d3   153  83ff25               cmpl rdi,0x25
0x8aec54014d6   156  0f8595000000         jnz 0x8aec5401571  <+0x1f1>
0x8aec54014dc   15c  83c301               addl rbx,0x1
0x8aec54014df   15f  8d7902               leal rdi,[rcx+0x2]
0x8aec54014e2   162  43897c044c           movl [r12+r8*1+0x4c],rdi
0x8aec54014e7   167  420fb64c0102         movzxbl rcx,[rcx+r8*1+0x2]
0x8aec54014ed   16d  83f925               cmpl rcx,0x25
0x8aec54014f0   170  0f857b000000         jnz 0x8aec5401571  <+0x1f1>
0x8aec54014f6   176  420fb64c0701         movzxbl rcx,[rdi+r8*1+0x1]
0x8aec54014fc   17c  83f925               cmpl rcx,0x25
0x8aec54014ff   17f  0f856c000000         jnz 0x8aec5401571  <+0x1f1>
0x8aec5401505   185  83c301               addl rbx,0x1
0x8aec5401508   188  8d4f02               leal rcx,[rdi+0x2]
0x8aec540150b   18b  43894c044c           movl [r12+r8*1+0x4c],rcx
0x8aec5401510   190  420fb67c0702         movzxbl rdi,[rdi+r8*1+0x2]
0x8aec5401516   196  83ff25               cmpl rdi,0x25
0x8aec5401519   199  0f8552000000         jnz 0x8aec5401571  <+0x1f1>
0x8aec540151f   19f  420fb67c0101         movzxbl rdi,[rcx+r8*1+0x1]
0x8aec5401525   1a5  83ff25               cmpl rdi,0x25
0x8aec5401528   1a8  0f8543000000         jnz 0x8aec5401571  <+0x1f1>
0x8aec540152e   1ae  83c301               addl rbx,0x1
0x8aec5401531   1b1  8d7902               leal rdi,[rcx+0x2]
0x8aec5401534   1b4  43897c044c           movl [r12+r8*1+0x4c],rdi
0x8aec5401539   1b9  420fb64c0102         movzxbl rcx,[rcx+r8*1+0x2]
0x8aec540153f   1bf  83f925               cmpl rcx,0x25
0x8aec5401542   1c2  0f8529000000         jnz 0x8aec5401571  <+0x1f1>
0x8aec5401548   1c8  420fb64c0701         movzxbl rcx,[rdi+r8*1+0x1]
0x8aec540154e   1ce  83f925               cmpl rcx,0x25
0x8aec5401551   1d1  0f851a000000         jnz 0x8aec5401571  <+0x1f1>
0x8aec5401557   1d7  83c301               addl rbx,0x1
0x8aec540155a   1da  8d4f02               leal rcx,[rdi+0x2]
0x8aec540155d   1dd  43894c044c           movl [r12+r8*1+0x4c],rcx
0x8aec5401562   1e2  420fb67c0702         movzxbl rdi,[rdi+r8*1+0x2]
0x8aec5401568   1e8  83ff25               cmpl rdi,0x25
0x8aec540156b   1eb  0f844fffffff         jz 0x8aec54014c0  <+0x140>
0x8aec5401571   1f1  428d3c1a             leal rdi,[rdx+r11*1]
0x8aec5401575   1f5  b9ffffff7f           movl rcx,0x7fffffff
0x8aec540157a   1fa  2bcf                 subl rcx,rdi
0x8aec540157c   1fc  488bfb               REX.W movq rdi,rbx
0x8aec540157f   1ff  412bff               subl rdi,r15
0x8aec5401582   202  48895d88             REX.W movq [rbp-0x78],rbx
0x8aec5401586   206  48898d68ffffff       REX.W movq [rbp-0x98],rcx
0x8aec540158d   20d  48897d90             REX.W movq [rbp-0x70],rdi
0x8aec5401591   211  3bcf                 cmpl rcx,rdi
0x8aec5401593   213  0f8ca41b0000         jl 0x8aec540313d  <+0x1dbd>
0x8aec5401599   219  488955d0             REX.W movq [rbp-0x30],rdx
0x8aec540159d   21d  4c895dc8             REX.W movq [rbp-0x38],r11
0x8aec54015a1   221  83f800               cmpl rax,0x0
0x8aec54015a4   224  0f8439000000         jz 0x8aec54015e3  <+0x263>
0x8aec54015aa   22a  488bcf               REX.W movq rcx,rdi
0x8aec54015ad   22d  498bd7               REX.W movq rdx,r15
0x8aec54015b0   230  e8ae6affff           call 0x8aec53f8063  (jump table)    ;; internal wasm call
0x8aec54015b5   235  4c8b65e0             REX.W movq r12,[rbp-0x20]
0x8aec54015b9   239  4c8b45d8             REX.W movq r8,[rbp-0x28]
0x8aec54015bd   23d  488b75f0             REX.W movq rsi,[rbp-0x10]
0x8aec54015c1   241  488b55d0             REX.W movq rdx,[rbp-0x30]
0x8aec54015c5   245  4c8b5dc8             REX.W movq r11,[rbp-0x38]
0x8aec54015c9   249  488b4598             REX.W movq rax,[rbp-0x68]
0x8aec54015cd   24d  488b8d68ffffff       REX.W movq rcx,[rbp-0x98]
0x8aec54015d4   254  4c8bbd58ffffff       REX.W movq r15,[rbp-0xa8]
0x8aec54015db   25b  488b5d88             REX.W movq rbx,[rbp-0x78]
0x8aec54015df   25f  488b7d90             REX.W movq rdi,[rbp-0x70]
0x8aec54015e3   263  413bdf               cmpl rbx,r15
0x8aec54015e6   266  0f8514feffff         jnz 0x8aec5401400  <+0x80>
0x8aec54015ec   26c  4c89e7               REX.W movq rdi,r12
0x8aec54015ef   26f  468b64074c           movl r12,[rdi+r8*1+0x4c]
0x8aec54015f4   274  470fbe640401         movsxbl r12,[r12+r8*1+0x1]
0x8aec54015fa   27a  4c89e0               REX.W movq rax,r12
0x8aec54015fd   27d  e8356affff           call 0x8aec53f8037  (jump table)    ;; internal wasm call
0x8aec5401602   282  488b7de0             REX.W movq rdi,[rbp-0x20]
0x8aec5401606   286  4c8b45d8             REX.W movq r8,[rbp-0x28]
0x8aec540160a   28a  468b5c074c           movl r11,[rdi+r8*1+0x4c]
0x8aec540160f   28f  83f800               cmpl rax,0x0
0x8aec5401612   292  0f8440000000         jz 0x8aec5401658  <+0x2d8>
0x8aec5401618   298  470fb6640302         movzxbl r12,[r11+r8*1+0x2]
0x8aec540161e   29e  4183fc24             cmpl r12,0x24
0x8aec5401622   2a2  0f851f000000         jnz 0x8aec5401647  <+0x2c7>
0x8aec5401628   2a8  470fbe640301         movsxbl r12,[r11+r8*1+0x1]
0x8aec540162e   2ae  4183ec30             subl r12,0x30
0x8aec5401632   2b2  48c745a001000000     REX.W movq [rbp-0x60],0x1
0x8aec540163a   2ba  b803000000           movl rax,0x3
0x8aec540163f   2bf  4c8bf8               REX.W movq r15,rax
0x8aec5401642   2c2  e91d000000           jmp 0x8aec5401664  <+0x2e4>
0x8aec5401647   2c7  41bcffffffff         movl r12,0xffffffff
0x8aec540164d   2cd  41bf01000000         movl r15,0x1
0x8aec5401653   2d3  e90c000000           jmp 0x8aec5401664  <+0x2e4>
0x8aec5401658   2d8  41bcffffffff         movl r12,0xffffffff
0x8aec540165e   2de  41bf01000000         movl r15,0x1
0x8aec5401664   2e4  4503df               addl r11,r15
0x8aec5401667   2e7  46895c074c           movl [rdi+r8*1+0x4c],r11
0x8aec540166c   2ec  470fbe3c18           movsxbl r15,[r8+r11*1]
0x8aec5401671   2f1  418d4fe0             leal rcx,[r15-0x20]
0x8aec5401675   2f5  4c896580             REX.W movq [rbp-0x80],r12
0x8aec5401679   2f9  83f91f               cmpl rcx,0x1f
0x8aec540167c   2fc  0f876b010000         ja 0x8aec54017ed  <+0x46d>
0x8aec5401682   302  bb01000000           movl rbx,0x1
0x8aec5401687   307  d3e3                 shll rbx, cl
0x8aec5401689   309  b801000000           movl rax,0x1
0x8aec540168e   30e  f7c389280100         testl rbx,0x12889
0x8aec5401694   314  0f8445010000         jz 0x8aec54017df  <+0x45f>
0x8aec540169a   31a  4d8bfb               REX.W movq r15,r11
0x8aec540169d   31d  4533db               xorl r11,r11
0x8aec54016a0   320  488b55b8             REX.W movq rdx,[rbp-0x48]
0x8aec54016a4   324  e91d000000           jmp 0x8aec54016c6  <+0x346>
0x8aec54016a9   329  660f1f840000000000   nop
0x8aec54016b2   332  660f1f840000000000   nop
0x8aec54016bb   33b  0f1f440000           nop
0x8aec54016c0   340  4c8bdb               REX.W movq r11,rbx
0x8aec54016c3   343  488bde               REX.W movq rbx,rsi
0x8aec54016c6   346  483b22               REX.W cmpq rsp,[rdx]
0x8aec54016c9   349  0f868e1b0000         jna 0x8aec540325d  <+0x1edd>
0x8aec54016cf   34f  418d7701             leal rsi,[r15+0x1]
0x8aec54016d3   353  428974074c           movl [rdi+r8*1+0x4c],rsi
0x8aec54016d8   358  470fbe7c0701         movsxbl r15,[r15+r8*1+0x1]
0x8aec54016de   35e  418d4fe0             leal rcx,[r15-0x20]
0x8aec54016e2   362  440bdb               orl r11,rbx
0x8aec54016e5   365  83f920               cmpl rcx,0x20
0x8aec54016e8   368  0f83e6000000         jnc 0x8aec54017d4  <+0x454>
0x8aec54016ee   36e  488bd8               REX.W movq rbx,rax
0x8aec54016f1   371  d3e3                 shll rbx, cl
0x8aec54016f3   373  f7c389280100         testl rbx,0x12889
0x8aec54016f9   379  0f84b0000000         jz 0x8aec54017af  <+0x42f>
0x8aec54016ff   37f  448d7e01             leal r15,[rsi+0x1]
0x8aec5401703   383  46897c074c           movl [rdi+r8*1+0x4c],r15
0x8aec5401708   388  420fbe740601         movsxbl rsi,[rsi+r8*1+0x1]
0x8aec540170e   38e  8d4ee0               leal rcx,[rsi-0x20]
0x8aec5401711   391  410bdb               orl rbx,r11
0x8aec5401714   394  83f920               cmpl rcx,0x20
0x8aec5401717   397  0f83ab000000         jnc 0x8aec54017c8  <+0x448>
0x8aec540171d   39d  4c8bd8               REX.W movq r11,rax
0x8aec5401720   3a0  41d3e3               shll r11, cl
0x8aec5401723   3a3  41f7c389280100       testl r11,0x12889
0x8aec540172a   3aa  0f8465000000         jz 0x8aec5401795  <+0x415>
0x8aec5401730   3b0  418d7701             leal rsi,[r15+0x1]
0x8aec5401734   3b4  428974074c           movl [rdi+r8*1+0x4c],rsi
0x8aec5401739   3b9  470fbe7c0701         movsxbl r15,[r15+r8*1+0x1]
0x8aec540173f   3bf  418d4fe0             leal rcx,[r15-0x20]
0x8aec5401743   3c3  440bdb               orl r11,rbx
0x8aec5401746   3c6  83f920               cmpl rcx,0x20
0x8aec5401749   3c9  0f8385000000         jnc 0x8aec54017d4  <+0x454>
0x8aec540174f   3cf  488bd8               REX.W movq rbx,rax
0x8aec5401752   3d2  d3e3                 shll rbx, cl
0x8aec5401754   3d4  f7c389280100         testl rbx,0x12889
0x8aec540175a   3da  0f844f000000         jz 0x8aec54017af  <+0x42f>
0x8aec5401760   3e0  410bdb               orl rbx,r11
0x8aec5401763   3e3  448d7e01             leal r15,[rsi+0x1]
0x8aec5401767   3e7  46897c074c           movl [rdi+r8*1+0x4c],r15
0x8aec540176c   3ec  460fbe5c0601         movsxbl r11,[rsi+r8*1+0x1]
0x8aec5401772   3f2  418d4be0             leal rcx,[r11-0x20]
0x8aec5401776   3f6  83f920               cmpl rcx,0x20
0x8aec5401779   3f9  0f833b000000         jnc 0x8aec54017ba  <+0x43a>
0x8aec540177f   3ff  488bf0               REX.W movq rsi,rax
0x8aec5401782   402  d3e6                 shll rsi, cl
0x8aec5401784   404  f7c689280100         testl rsi,0x12889
0x8aec540178a   40a  0f8530ffffff         jnz 0x8aec54016c0  <+0x340>
0x8aec5401790   410  e911000000           jmp 0x8aec54017a6  <+0x426>
0x8aec5401795   415  4d8bd7               REX.W movq r10,r15
0x8aec5401798   418  4c8bfe               REX.W movq r15,rsi
0x8aec540179b   41b  498bf2               REX.W movq rsi,r10
0x8aec540179e   41e  4c8bdb               REX.W movq r11,rbx
0x8aec54017a1   421  e909000000           jmp 0x8aec54017af  <+0x42f>
0x8aec54017a6   426  498bf7               REX.W movq rsi,r15
0x8aec54017a9   429  4d8bfb               REX.W movq r15,r11
0x8aec54017ac   42c  4c8bdb               REX.W movq r11,rbx
0x8aec54017af   42f  498bc7               REX.W movq rax,r15
0x8aec54017b2   432  4c8bfe               REX.W movq r15,rsi
0x8aec54017b5   435  e93c000000           jmp 0x8aec54017f6  <+0x476>
0x8aec54017ba   43a  498bf7               REX.W movq rsi,r15
0x8aec54017bd   43d  4d8bfb               REX.W movq r15,r11
0x8aec54017c0   440  4c8bdb               REX.W movq r11,rbx
0x8aec54017c3   443  e90c000000           jmp 0x8aec54017d4  <+0x454>
0x8aec54017c8   448  4d8bd7               REX.W movq r10,r15
0x8aec54017cb   44b  4c8bfe               REX.W movq r15,rsi
0x8aec54017ce   44e  498bf2               REX.W movq rsi,r10
0x8aec54017d1   451  4c8bdb               REX.W movq r11,rbx
0x8aec54017d4   454  498bc7               REX.W movq rax,r15
0x8aec54017d7   457  4c8bfe               REX.W movq r15,rsi
0x8aec54017da   45a  e917000000           jmp 0x8aec54017f6  <+0x476>
0x8aec54017df   45f  498bc7               REX.W movq rax,r15
0x8aec54017e2   462  4d8bfb               REX.W movq r15,r11
0x8aec54017e5   465  4533db               xorl r11,r11
0x8aec54017e8   468  e909000000           jmp 0x8aec54017f6  <+0x476>
0x8aec54017ed   46d  498bc7               REX.W movq rax,r15
0x8aec54017f0   470  4d8bfb               REX.W movq r15,r11
0x8aec54017f3   473  4533db               xorl r11,r11
0x8aec54017f6   476  4c899d40ffffff       REX.W movq [rbp-0xc0],r11
0x8aec54017fd   47d  83f82a               cmpl rax,0x2a
0x8aec5401800   480  0f842e000000         jz 0x8aec5401834  <+0x4b4>
0x8aec5401806   486  8d474c               leal rax,[rdi+0x4c]
0x8aec5401809   489  488b75f0             REX.W movq rsi,[rbp-0x10]
0x8aec540180d   48d  e85668ffff           call 0x8aec53f8068  (jump table)    ;; internal wasm call
0x8aec5401812   492  83f800               cmpl rax,0x0
0x8aec5401815   495  0f8ca4180000         jl 0x8aec54030bf  <+0x1d3f>
0x8aec540181b   49b  488b7de0             REX.W movq rdi,[rbp-0x20]
0x8aec540181f   49f  4c8b45d8             REX.W movq r8,[rbp-0x28]
0x8aec5401823   4a3  468b5c074c           movl r11,[rdi+r8*1+0x4c]
0x8aec5401828   4a8  4c8be0               REX.W movq r12,rax
0x8aec540182b   4ab  488b5da0             REX.W movq rbx,[rbp-0x60]
0x8aec540182f   4af  e9e3000000           jmp 0x8aec5401917  <+0x597>
0x8aec5401834   4b4  430fbe440701         movsxbl rax,[r15+r8*1+0x1]
0x8aec540183a   4ba  488b75f0             REX.W movq rsi,[rbp-0x10]
0x8aec540183e   4be  e8f467ffff           call 0x8aec53f8037  (jump table)    ;; internal wasm call
0x8aec5401843   4c3  83f800               cmpl rax,0x0
0x8aec5401846   4c6  0f845b000000         jz 0x8aec54018a7  <+0x527>
0x8aec540184c   4cc  488b7de0             REX.W movq rdi,[rbp-0x20]
0x8aec5401850   4d0  4c8b45d8             REX.W movq r8,[rbp-0x28]
0x8aec5401854   4d4  468b5c074c           movl r11,[rdi+r8*1+0x4c]
0x8aec5401859   4d9  470fb6640302         movzxbl r12,[r11+r8*1+0x2]
0x8aec540185f   4df  4183fc24             cmpl r12,0x24
0x8aec5401863   4e3  0f8546000000         jnz 0x8aec54018af  <+0x52f>
0x8aec5401869   4e9  470fbe640301         movsxbl r12,[r11+r8*1+0x1]
0x8aec540186f   4ef  4c8b7dc0             REX.W movq r15,[rbp-0x40]
0x8aec5401873   4f3  478da4a740ffffff     leal r12,[r15+r12*4-0xc0]
0x8aec540187b   4fb  43c704200a000000     movl [r8+r12*1],0xa
0x8aec5401883   503  470fbe640301         movsxbl r12,[r11+r8*1+0x1]
0x8aec5401889   509  488b45a8             REX.W movq rax,[rbp-0x58]
0x8aec540188d   50d  468da4e080feffff     leal r12,[rax+r12*8-0x180]
0x8aec5401895   515  478b2420             movl r12,[r8+r12*1]
0x8aec5401899   519  4183c303             addl r11,0x3
0x8aec540189d   51d  bb01000000           movl rbx,0x1
0x8aec54018a2   522  e949000000           jmp 0x8aec54018f0  <+0x570>
0x8aec54018a7   527  488b7de0             REX.W movq rdi,[rbp-0x20]
0x8aec54018ab   52b  4c8b45d8             REX.W movq r8,[rbp-0x28]
0x8aec54018af   52f  488b5da0             REX.W movq rbx,[rbp-0x60]
0x8aec54018b3   533  83fb00               cmpl rbx,0x0
0x8aec54018b6   536  0f8576180000         jnz 0x8aec5403132  <+0x1db2>
0x8aec54018bc   53c  837d9800             cmpl [rbp-0x68],0x0
0x8aec54018c0   540  0f8507000000         jnz 0x8aec54018cd  <+0x54d>
0x8aec54018c6   546  33c0                 xorl rax,rax
0x8aec54018c8   548  e915000000           jmp 0x8aec54018e2  <+0x562>
0x8aec54018cd   54d  448b5db0             movl r11,[rbp-0x50]
0x8aec54018d1   551  478b2418             movl r12,[r8+r11*1]
0x8aec54018d5   555  458d7c2404           leal r15,[r12+0x4]
0x8aec54018da   55a  47893c18             movl [r8+r11*1],r15
0x8aec54018de   55e  438b0420             movl rax,[r8+r12*1]
0x8aec54018e2   562  468b5c074c           movl r11,[rdi+r8*1+0x4c]
0x8aec54018e7   567  4183c301             addl r11,0x1
0x8aec54018eb   56b  4c8be0               REX.W movq r12,rax
0x8aec54018ee   56e  33db                 xorl rbx,rbx
0x8aec54018f0   570  46895c074c           movl [rdi+r8*1+0x4c],r11
0x8aec54018f5   575  4183fc00             cmpl r12,0x0
0x8aec54018f9   579  0f8d18000000         jge 0x8aec5401917  <+0x597>
0x8aec54018ff   57f  4c8bbd40ffffff       REX.W movq r15,[rbp-0xc0]
0x8aec5401906   586  4181cf00200000       orl r15,0x2000
0x8aec540190d   58d  41f7dc               negl r12
0x8aec5401910   590  4c89bd40ffffff       REX.W movq [rbp-0xc0],r15
0x8aec5401917   597  470fb63c18           movzxbl r15,[r8+r11*1]
0x8aec540191c   59c  4c89a560ffffff       REX.W movq [rbp-0xa0],r12
0x8aec5401923   5a3  48895da0             REX.W movq [rbp-0x60],rbx
0x8aec5401927   5a7  4183ff2e             cmpl r15,0x2e
0x8aec540192b   5ab  0f850f010000         jnz 0x8aec5401a40  <+0x6c0>
0x8aec5401931   5b1  470fb67c0301         movzxbl r15,[r11+r8*1+0x1]
0x8aec5401937   5b7  4183ff2a             cmpl r15,0x2a
0x8aec540193b   5bb  0f842d000000         jz 0x8aec540196e  <+0x5ee>
0x8aec5401941   5c1  4183c301             addl r11,0x1
0x8aec5401945   5c5  46895c074c           movl [rdi+r8*1+0x4c],r11
0x8aec540194a   5ca  8d474c               leal rax,[rdi+0x4c]
0x8aec540194d   5cd  488b75f0             REX.W movq rsi,[rbp-0x10]
0x8aec5401951   5d1  e81267ffff           call 0x8aec53f8068  (jump table)    ;; internal wasm call
0x8aec5401956   5d6  488b7de0             REX.W movq rdi,[rbp-0x20]
0x8aec540195a   5da  4c8b45d8             REX.W movq r8,[rbp-0x28]
0x8aec540195e   5de  468b5c074c           movl r11,[rdi+r8*1+0x4c]
0x8aec5401963   5e3  41bc01000000         movl r12,0x1
0x8aec5401969   5e9  e9da000000           jmp 0x8aec5401a48  <+0x6c8>
0x8aec540196e   5ee  430fbe440302         movsxbl rax,[r11+r8*1+0x2]
0x8aec5401974   5f4  488b75f0             REX.W movq rsi,[rbp-0x10]
0x8aec5401978   5f8  e8ba66ffff           call 0x8aec53f8037  (jump table)    ;; internal wasm call
0x8aec540197d   5fd  83f800               cmpl rax,0x0
0x8aec5401980   600  0f8456000000         jz 0x8aec54019dc  <+0x65c>
0x8aec5401986   606  488b7de0             REX.W movq rdi,[rbp-0x20]
0x8aec540198a   60a  4c8b45d8             REX.W movq r8,[rbp-0x28]
0x8aec540198e   60e  468b5c074c           movl r11,[rdi+r8*1+0x4c]
0x8aec5401993   613  470fb6640303         movzxbl r12,[r11+r8*1+0x3]
0x8aec5401999   619  4183fc24             cmpl r12,0x24
0x8aec540199d   61d  0f8541000000         jnz 0x8aec54019e4  <+0x664>
0x8aec54019a3   623  458d6304             leal r12,[r11+0x4]
0x8aec54019a7   627  470fbe7c0302         movsxbl r15,[r11+r8*1+0x2]
0x8aec54019ad   62d  488b45c0             REX.W movq rax,[rbp-0x40]
0x8aec54019b1   631  468dbcb840ffffff     leal r15,[rax+r15*4-0xc0]
0x8aec54019b9   639  43c704380a000000     movl [r8+r15*1],0xa
0x8aec54019c1   641  470fbe5c0302         movsxbl r11,[r11+r8*1+0x2]
0x8aec54019c7   647  4c8b7da8             REX.W movq r15,[rbp-0x58]
0x8aec54019cb   64b  478d9cdf80feffff     leal r11,[r15+r11*8-0x180]
0x8aec54019d3   653  478b1c18             movl r11,[r8+r11*1]
0x8aec54019d7   657  e947000000           jmp 0x8aec5401a23  <+0x6a3>
0x8aec54019dc   65c  488b7de0             REX.W movq rdi,[rbp-0x20]
0x8aec54019e0   660  4c8b45d8             REX.W movq r8,[rbp-0x28]
0x8aec54019e4   664  837da000             cmpl [rbp-0x60],0x0
0x8aec54019e8   668  0f8544170000         jnz 0x8aec5403132  <+0x1db2>
0x8aec54019ee   66e  837d9800             cmpl [rbp-0x68],0x0
0x8aec54019f2   672  0f8507000000         jnz 0x8aec54019ff  <+0x67f>
0x8aec54019f8   678  33c0                 xorl rax,rax
0x8aec54019fa   67a  e915000000           jmp 0x8aec5401a14  <+0x694>
0x8aec54019ff   67f  448b5db0             movl r11,[rbp-0x50]
0x8aec5401a03   683  478b2418             movl r12,[r8+r11*1]
0x8aec5401a07   687  458d7c2404           leal r15,[r12+0x4]
0x8aec5401a0c   68c  47893c18             movl [r8+r11*1],r15
0x8aec5401a10   690  438b0420             movl rax,[r8+r12*1]
0x8aec5401a14   694  468b5c074c           movl r11,[rdi+r8*1+0x4c]
0x8aec5401a19   699  4183c302             addl r11,0x2
0x8aec5401a1d   69d  4d8be3               REX.W movq r12,r11
0x8aec5401a20   6a0  4c8bd8               REX.W movq r11,rax
0x8aec5401a23   6a3  468964074c           movl [rdi+r8*1+0x4c],r12
0x8aec5401a28   6a8  4d8bfb               REX.W movq r15,r11
0x8aec5401a2b   6ab  41f7d7               notl r15
0x8aec5401a2e   6ae  41c1ef1f             shrl r15, 31
0x8aec5401a32   6b2  498bc3               REX.W movq rax,r11
0x8aec5401a35   6b5  4d89e3               REX.W movq r11,r12
0x8aec5401a38   6b8  4d8be7               REX.W movq r12,r15
0x8aec5401a3b   6bb  e908000000           jmp 0x8aec5401a48  <+0x6c8>
0x8aec5401a40   6c0  b8ffffffff           movl rax,0xffffffff
0x8aec5401a45   6c5  4531e4               xorl r12,r12
0x8aec5401a48   6c8  48894590             REX.W movq [rbp-0x70],rax
0x8aec5401a4c   6cc  4c896588             REX.W movq [rbp-0x78],r12
0x8aec5401a50   6d0  4d8bfb               REX.W movq r15,r11
0x8aec5401a53   6d3  4533db               xorl r11,r11
0x8aec5401a56   6d6  488b5db8             REX.W movq rbx,[rbp-0x48]
0x8aec5401a5a   6da  e927000000           jmp 0x8aec5401a86  <+0x706>
0x8aec5401a5f   6df  660f1f840000000000   nop
0x8aec5401a68   6e8  660f1f840000000000   nop
0x8aec5401a71   6f1  660f1f840000000000   nop
0x8aec5401a7a   6fa  660f1f440000         nop
0x8aec5401a80   700  4d8bdf               REX.W movq r11,r15
0x8aec5401a83   703  4c8bfa               REX.W movq r15,rdx
0x8aec5401a86   706  483b23               REX.W cmpq rsp,[rbx]
0x8aec5401a89   709  0f860b180000         jna 0x8aec540329a  <+0x1f1a>
0x8aec5401a8f   70f  430fbe1438           movsxbl rdx,[r8+r15*1]
0x8aec5401a94   714  83ea7b               subl rdx,0x7b
0x8aec5401a97   717  83fac6               cmpl rdx,0xc6
0x8aec5401a9a   71a  0f8287160000         jc 0x8aec5403127  <+0x1da7>
0x8aec5401aa0   720  418d5701             leal rdx,[r15+0x1]
0x8aec5401aa4   724  428954074c           movl [rdi+r8*1+0x4c],rdx
0x8aec5401aa9   729  416bcb3a             imull rcx,r11,0x3a
0x8aec5401aad   72d  470fbe3c38           movsxbl r15,[r8+r15*1]
0x8aec5401ab2   732  4403f9               addl r15,rcx
0x8aec5401ab5   735  470fb6bc07df030000   movzxbl r15,[r15+r8*1+0x3df]
0x8aec5401abe   73e  418d4fff             leal rcx,[r15-0x1]
0x8aec5401ac2   742  83f908               cmpl rcx,0x8
0x8aec5401ac5   745  0f83e3000000         jnc 0x8aec5401bae  <+0x82e>
0x8aec5401acb   74b  450fbe1c10           movsxbl r11,[r8+rdx*1]
0x8aec5401ad0   750  4183eb7b             subl r11,0x7b
0x8aec5401ad4   754  4183fbc6             cmpl r11,0xc6
0x8aec5401ad8   758  0f8249160000         jc 0x8aec5403127  <+0x1da7>
0x8aec5401ade   75e  448d5a01             leal r11,[rdx+0x1]
0x8aec5401ae2   762  46895c074c           movl [rdi+r8*1+0x4c],r11
0x8aec5401ae7   767  416bcf3a             imull rcx,r15,0x3a
0x8aec5401aeb   76b  410fbe1410           movsxbl rdx,[r8+rdx*1]
0x8aec5401af0   770  03d1                 addl rdx,rcx
0x8aec5401af2   772  420fb69402df030000   movzxbl rdx,[rdx+r8*1+0x3df]
0x8aec5401afb   77b  8d4aff               leal rcx,[rdx-0x1]
0x8aec5401afe   77e  83f908               cmpl rcx,0x8
0x8aec5401b01   781  0f837e000000         jnc 0x8aec5401b85  <+0x805>
0x8aec5401b07   787  470fbe3c18           movsxbl r15,[r8+r11*1]
0x8aec5401b0c   78c  4183ef7b             subl r15,0x7b
0x8aec5401b10   790  4183ffc6             cmpl r15,0xc6
0x8aec5401b14   794  0f820d160000         jc 0x8aec5403127  <+0x1da7>
0x8aec5401b1a   79a  458d7b01             leal r15,[r11+0x1]
0x8aec5401b1e   79e  46897c074c           movl [rdi+r8*1+0x4c],r15
0x8aec5401b23   7a3  6bca3a               imull rcx,rdx,0x3a
0x8aec5401b26   7a6  470fbe1c18           movsxbl r11,[r8+r11*1]
0x8aec5401b2b   7ab  4403d9               addl r11,rcx
0x8aec5401b2e   7ae  470fb69c03df030000   movzxbl r11,[r11+r8*1+0x3df]
0x8aec5401b37   7b7  418d4bff             leal rcx,[r11-0x1]
0x8aec5401b3b   7bb  83f908               cmpl rcx,0x8
0x8aec5401b3e   7be  0f8358000000         jnc 0x8aec5401b9c  <+0x81c>
0x8aec5401b44   7c4  430fbe1438           movsxbl rdx,[r8+r15*1]
0x8aec5401b49   7c9  83ea7b               subl rdx,0x7b
0x8aec5401b4c   7cc  83fac6               cmpl rdx,0xc6
0x8aec5401b4f   7cf  0f82d2150000         jc 0x8aec5403127  <+0x1da7>
0x8aec5401b55   7d5  418d5701             leal rdx,[r15+0x1]
0x8aec5401b59   7d9  428954074c           movl [rdi+r8*1+0x4c],rdx
0x8aec5401b5e   7de  416bcb3a             imull rcx,r11,0x3a
0x8aec5401b62   7e2  470fbe3c38           movsxbl r15,[r8+r15*1]
0x8aec5401b67   7e7  4403f9               addl r15,rcx
0x8aec5401b6a   7ea  470fb6bc07df030000   movzxbl r15,[r15+r8*1+0x3df]
0x8aec5401b73   7f3  418d4fff             leal rcx,[r15-0x1]
0x8aec5401b77   7f7  83f908               cmpl rcx,0x8
0x8aec5401b7a   7fa  0f8200ffffff         jc 0x8aec5401a80  <+0x700>
0x8aec5401b80   800  e929000000           jmp 0x8aec5401bae  <+0x82e>
0x8aec5401b85   805  4d8bd7               REX.W movq r10,r15
0x8aec5401b88   808  4d8bfb               REX.W movq r15,r11
0x8aec5401b8b   80b  4d8bda               REX.W movq r11,r10
0x8aec5401b8e   80e  4c8bd2               REX.W movq r10,rdx
0x8aec5401b91   811  498bd7               REX.W movq rdx,r15
0x8aec5401b94   814  4d8bfa               REX.W movq r15,r10
0x8aec5401b97   817  e912000000           jmp 0x8aec5401bae  <+0x82e>
0x8aec5401b9c   81c  4d8bd3               REX.W movq r10,r11
0x8aec5401b9f   81f  4d8bdf               REX.W movq r11,r15
0x8aec5401ba2   822  4d8bfa               REX.W movq r15,r10
0x8aec5401ba5   825  4c8bd2               REX.W movq r10,rdx
0x8aec5401ba8   828  498bd3               REX.W movq rdx,r11
0x8aec5401bab   82b  4d8bda               REX.W movq r11,r10
0x8aec5401bae   82e  4c899d70ffffff       REX.W movq [rbp-0x90],r11
0x8aec5401bb5   835  4183ff1b             cmpl r15,0x1b
0x8aec5401bb9   839  0f850f000000         jnz 0x8aec5401bce  <+0x84e>
0x8aec5401bbf   83f  837d8000             cmpl [rbp-0x80],0x0
0x8aec5401bc3   843  0f8d03150000         jge 0x8aec54030cc  <+0x1d4c>
0x8aec5401bc9   849  e982000000           jmp 0x8aec5401c50  <+0x8d0>
0x8aec5401bce   84e  4183ff00             cmpl r15,0x0
0x8aec5401bd2   852  0f8444150000         jz 0x8aec540311c  <+0x1d9c>
0x8aec5401bd8   858  837d8000             cmpl [rbp-0x80],0x0
0x8aec5401bdc   85c  0f8d49000000         jge 0x8aec5401c2b  <+0x8ab>
0x8aec5401be2   862  837d9800             cmpl [rbp-0x68],0x0
0x8aec5401be6   866  0f84eb140000         jz 0x8aec54030d7  <+0x1d57>
0x8aec5401bec   86c  8d5740               leal rdx,[rdi+0x40]
0x8aec5401bef   86f  488b75f0             REX.W movq rsi,[rbp-0x10]
0x8aec5401bf3   873  488bc2               REX.W movq rax,rdx
0x8aec5401bf6   876  498bd7               REX.W movq rdx,r15
0x8aec5401bf9   879  488b4db0             REX.W movq rcx,[rbp-0x50]
0x8aec5401bfd   87d  488b5d18             REX.W movq rbx,[rbp+0x18]
0x8aec5401c01   881  e86764ffff           call 0x8aec53f806d  (jump table)    ;; internal wasm call
0x8aec5401c06   886  488b7de0             REX.W movq rdi,[rbp-0x20]
0x8aec5401c0a   88a  4c8b45d8             REX.W movq r8,[rbp-0x28]
0x8aec5401c0e   88e  428b54074c           movl rdx,[rdi+r8*1+0x4c]
0x8aec5401c13   893  4c8b9d70ffffff       REX.W movq r11,[rbp-0x90]
0x8aec5401c1a   89a  488b5db8             REX.W movq rbx,[rbp-0x48]
0x8aec5401c1e   89e  488b4590             REX.W movq rax,[rbp-0x70]
0x8aec5401c22   8a2  4c8b6588             REX.W movq r12,[rbp-0x78]
0x8aec5401c26   8a6  e92f000000           jmp 0x8aec5401c5a  <+0x8da>
0x8aec5401c2b   8ab  488b4dc0             REX.W movq rcx,[rbp-0x40]
0x8aec5401c2f   8af  488b7580             REX.W movq rsi,[rbp-0x80]
0x8aec5401c33   8b3  448d0cb1             leal r9,[rcx+rsi*4]
0x8aec5401c37   8b7  4c8b65a8             REX.W movq r12,[rbp-0x58]
0x8aec5401c3b   8bb  418d34f4             leal rsi,[r12+rsi*8]
0x8aec5401c3f   8bf  47893c08             movl [r8+r9*1],r15
0x8aec5401c43   8c3  4d8b3c30             REX.W movq r15,[r8+rsi*1]
0x8aec5401c47   8c7  4e897c0740           REX.W movq [rdi+r8*1+0x40],r15
0x8aec5401c4c   8cc  4c8b6588             REX.W movq r12,[rbp-0x78]
0x8aec5401c50   8d0  837d9800             cmpl [rbp-0x68],0x0
0x8aec5401c54   8d4  0f840c120000         jz 0x8aec5402e66  <+0x1ae6>
0x8aec5401c5a   8da  448d7aff             leal r15,[rdx-0x1]
0x8aec5401c5e   8de  470fbe3c38           movsxbl r15,[r8+r15*1]
0x8aec5401c63   8e3  498bd7               REX.W movq rdx,r15
0x8aec5401c66   8e6  83e20f               andl rdx,0xf
0x8aec5401c69   8e9  498bcf               REX.W movq rcx,r15
0x8aec5401c6c   8ec  83e1df               andl rcx,0xdf
0x8aec5401c6f   8ef  498bf7               REX.W movq rsi,r15
0x8aec5401c72   8f2  80fa03               cmpb dl,0x3
0x8aec5401c75   8f5  0f44f1               cmovzl rsi,rcx
0x8aec5401c78   8f8  4183fb00             cmpl r11,0x0
0x8aec5401c7c   8fc  440f45fe             cmovnzl r15,rsi
0x8aec5401c80   900  418d57a8             leal rdx,[r15-0x58]
0x8aec5401c84   904  4c89bd78ffffff       REX.W movq [rbp-0x88],r15
0x8aec5401c8b   90b  83fa21               cmpl rdx,0x21
0x8aec5401c8e   90e  0f830c000000         jnc 0x8aec5401ca0  <+0x920>
0x8aec5401c94   914  4c8d15d5190000       REX.W leaq r10,[rip+0x19d5]
0x8aec5401c9b   91b  41ff24d2             jmp [r10+rdx*8]
0x8aec5401c9f   91f  90                   nop
0x8aec5401ca0   920  458d5fbf             leal r11,[r15-0x41]
0x8aec5401ca4   924  4183fb07             cmpl r11,0x7
0x8aec5401ca8   928  0f8312000000         jnc 0x8aec5401cc0  <+0x940>
0x8aec5401cae   92e  4c8d1583190000       REX.W leaq r10,[rip+0x1983]
0x8aec5401cb5   935  43ff24da             jmp [r10+r11*8]
0x8aec5401cb9   939  0f1f8000000000       nop
0x8aec5401cc0   940  4183ff53             cmpl r15,0x53
0x8aec5401cc4   944  0f843f000000         jz 0x8aec5401d09  <+0x989>
0x8aec5401cca   94a  4c8b9d40ffffff       REX.W movq r11,[rbp-0xc0]
0x8aec5401cd1   951  4181e3fffffeff       andl r11,0xfffeffff
0x8aec5401cd8   958  4c8ba540ffffff       REX.W movq r12,[rbp-0xc0]
0x8aec5401cdf   95f  4d89e7               REX.W movq r15,r12
0x8aec5401ce2   962  6641f7c70020         testw r15,0x2000
0x8aec5401ce8   968  450f45e3             cmovnzl r12,r11
0x8aec5401cec   96c  41bb00040000         movl r11,0x400
0x8aec5401cf2   972  4c8bbd58ffffff       REX.W movq r15,[rbp-0xa8]
0x8aec5401cf9   979  33d2                 xorl rdx,rdx
0x8aec5401cfb   97b  4d8bd0               REX.W movq r10,r8
0x8aec5401cfe   97e  4d89e0               REX.W movq r8,r12
0x8aec5401d01   981  4d8be2               REX.W movq r12,r10
0x8aec5401d04   984  e9e50f0000           jmp 0x8aec5402cee  <+0x196e>
0x8aec5401d09   989  83f800               cmpl rax,0x0
0x8aec5401d0c   98c  0f8547000000         jnz 0x8aec5401d59  <+0x9d9>
0x8aec5401d12   992  4c8bbd40ffffff       REX.W movq r15,[rbp-0xc0]
0x8aec5401d19   999  4181e7fffffeff       andl r15,0xfffeffff
0x8aec5401d20   9a0  4c8b9d40ffffff       REX.W movq r11,[rbp-0xc0]
0x8aec5401d27   9a7  66f78540ffffff0020   testw [rbp-0xc0],0x2000
0x8aec5401d30   9b0  450f45df             cmovnzl r11,r15
0x8aec5401d34   9b4  ba20000000           movl rdx,0x20
0x8aec5401d39   9b9  488b75f0             REX.W movq rsi,[rbp-0x10]
0x8aec5401d3d   9bd  488b4598             REX.W movq rax,[rbp-0x68]
0x8aec5401d41   9c1  488b8d60ffffff       REX.W movq rcx,[rbp-0xa0]
0x8aec5401d48   9c8  33db                 xorl rbx,rbx
0x8aec5401d4a   9ca  4d8bcb               REX.W movq r9,r11
0x8aec5401d4d   9cd  e83363ffff           call 0x8aec53f8085  (jump table)    ;; internal wasm call
0x8aec5401d52   9d2  33db                 xorl rbx,rbx
0x8aec5401d54   9d4  e94b030000           jmp 0x8aec54020a4  <+0xd24>
0x8aec5401d59   9d9  468b5c0740           movl r11,[rdi+r8*1+0x40]
0x8aec5401d5e   9de  e96e000000           jmp 0x8aec5401dd1  <+0xa51>
0x8aec5401d63   9e3  660f1f840000000000   nop
0x8aec5401d6c   9ec  0f1f4000             nop
0x8aec5401d70   9f0  448d5f38             leal r11,[rdi+0x38]
0x8aec5401d74   9f4  4c8ba540ffffff       REX.W movq r12,[rbp-0xc0]
0x8aec5401d7b   9fb  4181e4fffffeff       andl r12,0xfffeffff
0x8aec5401d82   a02  4c8bbd40ffffff       REX.W movq r15,[rbp-0xc0]
0x8aec5401d89   a09  66f78540ffffff0020   testw [rbp-0xc0],0x2000
0x8aec5401d92   a12  450f45fc             cmovnzl r15,r12
0x8aec5401d96   a16  41bc00040000         movl r12,0x400
0x8aec5401d9c   a1c  33c9                 xorl rcx,rcx
0x8aec5401d9e   a1e  488b9558ffffff       REX.W movq rdx,[rbp-0xa8]
0x8aec5401da5   a25  e95d0f0000           jmp 0x8aec5402d07  <+0x1987>
0x8aec5401daa   a2a  660f1f440000         nop
0x8aec5401db0   a30  42c744070c00000000   movl [rdi+r8*1+0xc],0x0
0x8aec5401db9   a39  4e8b5c0740           REX.W movq r11,[rdi+r8*1+0x40]
0x8aec5401dbe   a3e  46895c0708           movl [rdi+r8*1+0x8],r11
0x8aec5401dc3   a43  448d5f08             leal r11,[rdi+0x8]
0x8aec5401dc7   a47  46895c0740           movl [rdi+r8*1+0x40],r11
0x8aec5401dcc   a4c  b8ffffffff           movl rax,0xffffffff
0x8aec5401dd1   a51  448d6704             leal r12,[rdi+0x4]
0x8aec5401dd5   a55  48894590             REX.W movq [rbp-0x70],rax
0x8aec5401dd9   a59  4c896588             REX.W movq [rbp-0x78],r12
0x8aec5401ddd   a5d  4d8bfb               REX.W movq r15,r11
0x8aec5401de0   a60  4533db               xorl r11,r11
0x8aec5401de3   a63  e930000000           jmp 0x8aec5401e18  <+0xa98>
0x8aec5401de8   a68  660f1f840000000000   nop
0x8aec5401df1   a71  660f1f840000000000   nop
0x8aec5401dfa   a7a  660f1f440000         nop
0x8aec5401e00   a80  488b7d80             REX.W movq rdi,[rbp-0x80]
0x8aec5401e04   a84  448d7f04             leal r15,[rdi+0x4]
0x8aec5401e08   a88  4c8b6588             REX.W movq r12,[rbp-0x78]
0x8aec5401e0c   a8c  488b5db8             REX.W movq rbx,[rbp-0x48]
0x8aec5401e10   a90  488b7de0             REX.W movq rdi,[rbp-0x20]
0x8aec5401e14   a94  4c8b45d8             REX.W movq r8,[rbp-0x28]
0x8aec5401e18   a98  483b23               REX.W cmpq rsp,[rbx]
0x8aec5401e1b   a9b  0f86b3140000         jna 0x8aec54032d4  <+0x1f54>
0x8aec5401e21   aa1  438b1438             movl rdx,[r8+r15*1]
0x8aec5401e25   aa5  83fa00               cmpl rdx,0x0
0x8aec5401e28   aa8  0f8440010000         jz 0x8aec5401f6e  <+0xbee>
0x8aec5401e2e   aae  4c899d78ffffff       REX.W movq [rbp-0x88],r11
0x8aec5401e35   ab5  4c897d80             REX.W movq [rbp-0x80],r15
0x8aec5401e39   ab9  488b75f0             REX.W movq rsi,[rbp-0x10]
0x8aec5401e3d   abd  4c89e0               REX.W movq rax,r12
0x8aec5401e40   ac0  e86862ffff           call 0x8aec53f80ad  (jump table)    ;; internal wasm call
0x8aec5401e45   ac5  83f800               cmpl rax,0x0
0x8aec5401e48   ac8  400f9cc7             setll dil
0x8aec5401e4c   acc  400fb6ff             movzxbl rdi,rdi
0x8aec5401e50   ad0  83f800               cmpl rax,0x0
0x8aec5401e53   ad3  0f8c05010000         jl 0x8aec5401f5e  <+0xbde>
0x8aec5401e59   ad9  4c8b4590             REX.W movq r8,[rbp-0x70]
0x8aec5401e5d   add  442b8578ffffff       subl r8,[rbp-0x88]
0x8aec5401e64   ae4  443bc0               cmpl r8,rax
0x8aec5401e67   ae7  0f82f1000000         jc 0x8aec5401f5e  <+0xbde>
0x8aec5401e6d   aed  4c8b9d78ffffff       REX.W movq r11,[rbp-0x88]
0x8aec5401e74   af4  4403d8               addl r11,rax
0x8aec5401e77   af7  4c899d78ffffff       REX.W movq [rbp-0x88],r11
0x8aec5401e7e   afe  443b5d90             cmpl r11,[rbp-0x70]
0x8aec5401e82   b02  0f83e6000000         jnc 0x8aec5401f6e  <+0xbee>
0x8aec5401e88   b08  488b7d80             REX.W movq rdi,[rbp-0x80]
0x8aec5401e8c   b0c  83c704               addl rdi,0x4
0x8aec5401e8f   b0f  4c8b45d8             REX.W movq r8,[rbp-0x28]
0x8aec5401e93   b13  418b1438             movl rdx,[r8+rdi*1]
0x8aec5401e97   b17  48897d80             REX.W movq [rbp-0x80],rdi
0x8aec5401e9b   b1b  83fa00               cmpl rdx,0x0
0x8aec5401e9e   b1e  0f84ca000000         jz 0x8aec5401f6e  <+0xbee>
0x8aec5401ea4   b24  488b75f0             REX.W movq rsi,[rbp-0x10]
0x8aec5401ea8   b28  488b4588             REX.W movq rax,[rbp-0x78]
0x8aec5401eac   b2c  e8fc61ffff           call 0x8aec53f80ad  (jump table)    ;; internal wasm call
0x8aec5401eb1   b31  83f800               cmpl rax,0x0
0x8aec5401eb4   b34  400f9cc7             setll dil
0x8aec5401eb8   b38  400fb6ff             movzxbl rdi,rdi
0x8aec5401ebc   b3c  83f800               cmpl rax,0x0
0x8aec5401ebf   b3f  0f8c99000000         jl 0x8aec5401f5e  <+0xbde>
0x8aec5401ec5   b45  4c8b4590             REX.W movq r8,[rbp-0x70]
0x8aec5401ec9   b49  442b8578ffffff       subl r8,[rbp-0x88]
0x8aec5401ed0   b50  443bc0               cmpl r8,rax
0x8aec5401ed3   b53  0f8285000000         jc 0x8aec5401f5e  <+0xbde>
0x8aec5401ed9   b59  4c8b9d78ffffff       REX.W movq r11,[rbp-0x88]
0x8aec5401ee0   b60  4403d8               addl r11,rax
0x8aec5401ee3   b63  4c899d78ffffff       REX.W movq [rbp-0x88],r11
0x8aec5401eea   b6a  443b5d90             cmpl r11,[rbp-0x70]
0x8aec5401eee   b6e  0f837a000000         jnc 0x8aec5401f6e  <+0xbee>
0x8aec5401ef4   b74  488b7d80             REX.W movq rdi,[rbp-0x80]
0x8aec5401ef8   b78  83c704               addl rdi,0x4
0x8aec5401efb   b7b  4c8b45d8             REX.W movq r8,[rbp-0x28]
0x8aec5401eff   b7f  418b1438             movl rdx,[r8+rdi*1]
0x8aec5401f03   b83  48897d80             REX.W movq [rbp-0x80],rdi
0x8aec5401f07   b87  83fa00               cmpl rdx,0x0
0x8aec5401f0a   b8a  0f845e000000         jz 0x8aec5401f6e  <+0xbee>
0x8aec5401f10   b90  488b75f0             REX.W movq rsi,[rbp-0x10]
0x8aec5401f14   b94  488b4588             REX.W movq rax,[rbp-0x78]
0x8aec5401f18   b98  e89061ffff           call 0x8aec53f80ad  (jump table)    ;; internal wasm call
0x8aec5401f1d   b9d  83f800               cmpl rax,0x0
0x8aec5401f20   ba0  400f9cc7             setll dil
0x8aec5401f24   ba4  400fb6ff             movzxbl rdi,rdi
0x8aec5401f28   ba8  83f800               cmpl rax,0x0
0x8aec5401f2b   bab  0f8c2d000000         jl 0x8aec5401f5e  <+0xbde>
0x8aec5401f31   bb1  4c8b4590             REX.W movq r8,[rbp-0x70]
0x8aec5401f35   bb5  442b8578ffffff       subl r8,[rbp-0x88]
0x8aec5401f3c   bbc  443bc0               cmpl r8,rax
0x8aec5401f3f   bbf  0f8219000000         jc 0x8aec5401f5e  <+0xbde>
0x8aec5401f45   bc5  4c8b9d78ffffff       REX.W movq r11,[rbp-0x88]
0x8aec5401f4c   bcc  4403d8               addl r11,rax
0x8aec5401f4f   bcf  443b5d90             cmpl r11,[rbp-0x70]
0x8aec5401f53   bd3  0f82a7feffff         jc 0x8aec5401e00  <+0xa80>
0x8aec5401f59   bd9  e910000000           jmp 0x8aec5401f6e  <+0xbee>
0x8aec5401f5e   bde  83ff00               cmpl rdi,0x0
0x8aec5401f61   be1  0f8502120000         jnz 0x8aec5403169  <+0x1de9>
0x8aec5401f67   be7  4c8b9d78ffffff       REX.W movq r11,[rbp-0x88]
0x8aec5401f6e   bee  4c899d78ffffff       REX.W movq [rbp-0x88],r11
0x8aec5401f75   bf5  4183fb00             cmpl r11,0x0
0x8aec5401f79   bf9  0f8c63110000         jl 0x8aec54030e2  <+0x1d62>
0x8aec5401f7f   bff  488bbd40ffffff       REX.W movq rdi,[rbp-0xc0]
0x8aec5401f86   c06  81e7fffffeff         andl rdi,0xfffeffff
0x8aec5401f8c   c0c  4c8b8d40ffffff       REX.W movq r9,[rbp-0xc0]
0x8aec5401f93   c13  66f78540ffffff0020   testw [rbp-0xc0],0x2000
0x8aec5401f9c   c1c  440f45cf             cmovnzl r9,rdi
0x8aec5401fa0   c20  ba20000000           movl rdx,0x20
0x8aec5401fa5   c25  488b75f0             REX.W movq rsi,[rbp-0x10]
0x8aec5401fa9   c29  488b4598             REX.W movq rax,[rbp-0x68]
0x8aec5401fad   c2d  488b8d60ffffff       REX.W movq rcx,[rbp-0xa0]
0x8aec5401fb4   c34  498bdb               REX.W movq rbx,r11
0x8aec5401fb7   c37  e8c960ffff           call 0x8aec53f8085  (jump table)    ;; internal wasm call
0x8aec5401fbc   c3c  83bd78ffffff00       cmpl [rbp-0x88],0x0
0x8aec5401fc3   c43  0f84d9000000         jz 0x8aec54020a2  <+0xd22>
0x8aec5401fc9   c49  488b7de0             REX.W movq rdi,[rbp-0x20]
0x8aec5401fcd   c4d  4c8b45d8             REX.W movq r8,[rbp-0x28]
0x8aec5401fd1   c51  468b5c0740           movl r11,[rdi+r8*1+0x40]
0x8aec5401fd6   c56  4531e4               xorl r12,r12
0x8aec5401fd9   c59  e932000000           jmp 0x8aec5402010  <+0xc90>
0x8aec5401fde   c5e  660f1f840000000000   nop
0x8aec5401fe7   c67  660f1f840000000000   nop
0x8aec5401ff0   c70  660f1f840000000000   nop
0x8aec5401ff9   c79  0f1f8000000000       nop
0x8aec5402000   c80  4c8b5d90             REX.W movq r11,[rbp-0x70]
0x8aec5402004   c84  4183c304             addl r11,0x4
0x8aec5402008   c88  4c8b45d8             REX.W movq r8,[rbp-0x28]
0x8aec540200c   c8c  488b7de0             REX.W movq rdi,[rbp-0x20]
0x8aec5402010   c90  4c8b7db8             REX.W movq r15,[rbp-0x48]
0x8aec5402014   c94  488b8578ffffff       REX.W movq rax,[rbp-0x88]
0x8aec540201b   c9b  493b27               REX.W cmpq rsp,[r15]
0x8aec540201e   c9e  0f86e0120000         jna 0x8aec5403304  <+0x1f84>
0x8aec5402024   ca4  438b1418             movl rdx,[r8+r11*1]
0x8aec5402028   ca8  83fa00               cmpl rdx,0x0
0x8aec540202b   cab  0f8469000000         jz 0x8aec540209a  <+0xd1a>
0x8aec5402031   cb1  4c895d90             REX.W movq [rbp-0x70],r11
0x8aec5402035   cb5  4c896580             REX.W movq [rbp-0x80],r12
0x8aec5402039   cb9  488b75f0             REX.W movq rsi,[rbp-0x10]
0x8aec540203d   cbd  488b4588             REX.W movq rax,[rbp-0x78]
0x8aec5402041   cc1  e86760ffff           call 0x8aec53f80ad  (jump table)    ;; internal wasm call
0x8aec5402046   cc6  4c8b6580             REX.W movq r12,[rbp-0x80]
0x8aec540204a   cca  4403e0               addl r12,rax
0x8aec540204d   ccd  4c896580             REX.W movq [rbp-0x80],r12
0x8aec5402051   cd1  4c8b9d78ffffff       REX.W movq r11,[rbp-0x88]
0x8aec5402058   cd8  4539e3               cmpl r11,r12
0x8aec540205b   cdb  0f8231000000         jc 0x8aec5402092  <+0xd12>
0x8aec5402061   ce1  488b75f0             REX.W movq rsi,[rbp-0x10]
0x8aec5402065   ce5  488bc8               REX.W movq rcx,rax
0x8aec5402068   ce8  488b4598             REX.W movq rax,[rbp-0x68]
0x8aec540206c   cec  488b5588             REX.W movq rdx,[rbp-0x78]
0x8aec5402070   cf0  e8ee5fffff           call 0x8aec53f8063  (jump table)    ;; internal wasm call
0x8aec5402075   cf5  4c8b6580             REX.W movq r12,[rbp-0x80]
0x8aec5402079   cf9  443ba578ffffff       cmpl r12,[rbp-0x88]
0x8aec5402080   d00  0f827affffff         jc 0x8aec5402000  <+0xc80>
0x8aec5402086   d06  488b9d78ffffff       REX.W movq rbx,[rbp-0x88]
0x8aec540208d   d0d  e912000000           jmp 0x8aec54020a4  <+0xd24>
0x8aec5402092   d12  498bdb               REX.W movq rbx,r11
0x8aec5402095   d15  e90a000000           jmp 0x8aec54020a4  <+0xd24>
0x8aec540209a   d1a  488bd8               REX.W movq rbx,rax
0x8aec540209d   d1d  e902000000           jmp 0x8aec54020a4  <+0xd24>
0x8aec54020a2   d22  33db                 xorl rbx,rbx
0x8aec54020a4   d24  488bbd40ffffff       REX.W movq rdi,[rbp-0xc0]
0x8aec54020ab   d2b  81e7fffffeff         andl rdi,0xfffeffff
0x8aec54020b1   d31  4c8b8540ffffff       REX.W movq r8,[rbp-0xc0]
0x8aec54020b8   d38  66f78540ffffff0020   testw [rbp-0xc0],0x2000
0x8aec54020c1   d41  440f45c7             cmovnzl r8,rdi
0x8aec54020c5   d45  488b55d0             REX.W movq rdx,[rbp-0x30]
0x8aec54020c9   d49  4c8b5dc8             REX.W movq r11,[rbp-0x38]
0x8aec54020cd   d4d  4403da               addl r11,rdx
0x8aec54020d0   d50  488bfb               REX.W movq rdi,rbx
0x8aec54020d3   d53  3b9d60ffffff         cmpl rbx,[rbp-0xa0]
0x8aec54020d9   d59  0f4cbd60ffffff       cmovll rdi,[rbp-0xa0]
0x8aec54020e0   d60  4181f000200000       xorl r8,0x2000
0x8aec54020e7   d67  4c895dc8             REX.W movq [rbp-0x38],r11
0x8aec54020eb   d6b  48897dd0             REX.W movq [rbp-0x30],rdi
0x8aec54020ef   d6f  ba20000000           movl rdx,0x20
0x8aec54020f4   d74  488b75f0             REX.W movq rsi,[rbp-0x10]
0x8aec54020f8   d78  488b4598             REX.W movq rax,[rbp-0x68]
0x8aec54020fc   d7c  488b8d60ffffff       REX.W movq rcx,[rbp-0xa0]
0x8aec5402103   d83  4d8bc8               REX.W movq r9,r8
0x8aec5402106   d86  e87a5fffff           call 0x8aec53f8085  (jump table)    ;; internal wasm call
0x8aec540210b   d8b  488b4598             REX.W movq rax,[rbp-0x68]
0x8aec540210f   d8f  4c8b5dc8             REX.W movq r11,[rbp-0x38]
0x8aec5402113   d93  488b55d0             REX.W movq rdx,[rbp-0x30]
0x8aec5402117   d97  4c8b65e0             REX.W movq r12,[rbp-0x20]
0x8aec540211b   d9b  4c8b45d8             REX.W movq r8,[rbp-0x28]
0x8aec540211f   d9f  488b75f0             REX.W movq rsi,[rbp-0x10]
0x8aec5402123   da3  488b7db8             REX.W movq rdi,[rbp-0x48]
0x8aec5402127   da7  e9def2ffff           jmp 0x8aec540140a  <+0x8a>
0x8aec540212c   dac  0f1f4000             nop
0x8aec5402130   db0  448d5f38             leal r11,[rdi+0x38]
0x8aec5402134   db4  4c8ba540ffffff       REX.W movq r12,[rbp-0xc0]
0x8aec540213b   dbb  4181e4fffffeff       andl r12,0xfffeffff
0x8aec5402142   dc2  4c8bbd40ffffff       REX.W movq r15,[rbp-0xc0]
0x8aec5402149   dc9  66f78540ffffff0020   testw [rbp-0xc0],0x2000
0x8aec5402152   dd2  450f45fc             cmovnzl r15,r12
0x8aec5402156   dd6  41bc00040000         movl r12,0x400
0x8aec540215c   ddc  33c9                 xorl rcx,rcx
0x8aec540215e   dde  488b9558ffffff       REX.W movq rdx,[rbp-0xa8]
0x8aec5402165   de5  e99d0b0000           jmp 0x8aec5402d07  <+0x1987>
0x8aec540216a   dea  660f1f440000         nop
0x8aec5402170   df0  4c8b9d40ffffff       REX.W movq r11,[rbp-0xc0]
0x8aec5402177   df7  4181e3fffffeff       andl r11,0xfffeffff
0x8aec540217e   dfe  488b9540ffffff       REX.W movq rdx,[rbp-0xc0]
0x8aec5402185   e05  66f78540ffffff0020   testw [rbp-0xc0],0x2000
0x8aec540218e   e0e  410f45d3             cmovnzl rdx,r11
0x8aec5402192   e12  e93b0a0000           jmp 0x8aec5402bd2  <+0x1852>
0x8aec5402197   e17  660f1f840000000000   nop
0x8aec54021a0   e20  448d5f38             leal r11,[rdi+0x38]
0x8aec54021a4   e24  4c8ba540ffffff       REX.W movq r12,[rbp-0xc0]
0x8aec54021ab   e2b  4181e4fffffeff       andl r12,0xfffeffff
0x8aec54021b2   e32  4c8bbd40ffffff       REX.W movq r15,[rbp-0xc0]
0x8aec54021b9   e39  66f78540ffffff0020   testw [rbp-0xc0],0x2000
0x8aec54021c2   e42  450f45fc             cmovnzl r15,r12
0x8aec54021c6   e46  41bc00040000         movl r12,0x400
0x8aec54021cc   e4c  33c9                 xorl rcx,rcx
0x8aec54021ce   e4e  488b9558ffffff       REX.W movq rdx,[rbp-0xa8]
0x8aec54021d5   e55  e92d0b0000           jmp 0x8aec5402d07  <+0x1987>
0x8aec54021da   e5a  660f1f440000         nop
0x8aec54021e0   e60  448d5f38             leal r11,[rdi+0x38]
0x8aec54021e4   e64  4c8ba540ffffff       REX.W movq r12,[rbp-0xc0]
0x8aec54021eb   e6b  4181e4fffffeff       andl r12,0xfffeffff
0x8aec54021f2   e72  4c8bbd40ffffff       REX.W movq r15,[rbp-0xc0]
0x8aec54021f9   e79  66f78540ffffff0020   testw [rbp-0xc0],0x2000
0x8aec5402202   e82  450f45fc             cmovnzl r15,r12
0x8aec5402206   e86  41bc00040000         movl r12,0x400
0x8aec540220c   e8c  33c9                 xorl rcx,rcx
0x8aec540220e   e8e  488b9558ffffff       REX.W movq rdx,[rbp-0xa8]
0x8aec5402215   e95  e9ed0a0000           jmp 0x8aec5402d07  <+0x1987>
0x8aec540221a   e9a  660f1f440000         nop
0x8aec5402220   ea0  448d5f38             leal r11,[rdi+0x38]
0x8aec5402224   ea4  4c8ba540ffffff       REX.W movq r12,[rbp-0xc0]
0x8aec540222b   eab  4181e4fffffeff       andl r12,0xfffeffff
0x8aec5402232   eb2  4c8bbd40ffffff       REX.W movq r15,[rbp-0xc0]
0x8aec5402239   eb9  66f78540ffffff0020   testw [rbp-0xc0],0x2000
0x8aec5402242   ec2  450f45fc             cmovnzl r15,r12
0x8aec5402246   ec6  41bc00040000         movl r12,0x400
0x8aec540224c   ecc  33c9                 xorl rcx,rcx
0x8aec540224e   ece  488b9558ffffff       REX.W movq rdx,[rbp-0xa8]
0x8aec5402255   ed5  e9ad0a0000           jmp 0x8aec5402d07  <+0x1987>
0x8aec540225a   eda  660f1f440000         nop
0x8aec5402260   ee0  448d5f38             leal r11,[rdi+0x38]
0x8aec5402264   ee4  4c8ba540ffffff       REX.W movq r12,[rbp-0xc0]
0x8aec540226b   eeb  4181e4fffffeff       andl r12,0xfffeffff
0x8aec5402272   ef2  4c8bbd40ffffff       REX.W movq r15,[rbp-0xc0]
0x8aec5402279   ef9  66f78540ffffff0020   testw [rbp-0xc0],0x2000
0x8aec5402282   f02  450f45fc             cmovnzl r15,r12
0x8aec5402286   f06  41bc00040000         movl r12,0x400
0x8aec540228c   f0c  33c9                 xorl rcx,rcx
0x8aec540228e   f0e  488b9558ffffff       REX.W movq rdx,[rbp-0xa8]
0x8aec5402295   f15  e96d0a0000           jmp 0x8aec5402d07  <+0x1987>
0x8aec540229a   f1a  660f1f440000         nop
0x8aec54022a0   f20  448d5f38             leal r11,[rdi+0x38]
0x8aec54022a4   f24  4c8ba540ffffff       REX.W movq r12,[rbp-0xc0]
0x8aec54022ab   f2b  4181e4fffffeff       andl r12,0xfffeffff
0x8aec54022b2   f32  4c8bbd40ffffff       REX.W movq r15,[rbp-0xc0]
0x8aec54022b9   f39  66f78540ffffff0020   testw [rbp-0xc0],0x2000
0x8aec54022c2   f42  450f45fc             cmovnzl r15,r12
0x8aec54022c6   f46  41bc00040000         movl r12,0x400
0x8aec54022cc   f4c  33c9                 xorl rcx,rcx
0x8aec54022ce   f4e  488b9558ffffff       REX.W movq rdx,[rbp-0xa8]
0x8aec54022d5   f55  e92d0a0000           jmp 0x8aec5402d07  <+0x1987>
0x8aec54022da   f5a  660f1f440000         nop
0x8aec54022e0   f60  448d5f38             leal r11,[rdi+0x38]
0x8aec54022e4   f64  4c8ba540ffffff       REX.W movq r12,[rbp-0xc0]
0x8aec54022eb   f6b  4181e4fffffeff       andl r12,0xfffeffff
0x8aec54022f2   f72  4c8bbd40ffffff       REX.W movq r15,[rbp-0xc0]
0x8aec54022f9   f79  66f78540ffffff0020   testw [rbp-0xc0],0x2000
0x8aec5402302   f82  450f45fc             cmovnzl r15,r12
0x8aec5402306   f86  41bc00040000         movl r12,0x400
0x8aec540230c   f8c  33c9                 xorl rcx,rcx
0x8aec540230e   f8e  488b9558ffffff       REX.W movq rdx,[rbp-0xa8]
0x8aec5402315   f95  e9ed090000           jmp 0x8aec5402d07  <+0x1987>
0x8aec540231a   f9a  660f1f440000         nop
0x8aec5402320   fa0  448d5f38             leal r11,[rdi+0x38]
0x8aec5402324   fa4  4c8ba540ffffff       REX.W movq r12,[rbp-0xc0]
0x8aec540232b   fab  4181e4fffffeff       andl r12,0xfffeffff
0x8aec5402332   fb2  4c8bbd40ffffff       REX.W movq r15,[rbp-0xc0]
0x8aec5402339   fb9  66f78540ffffff0020   testw [rbp-0xc0],0x2000
0x8aec5402342   fc2  450f45fc             cmovnzl r15,r12
0x8aec5402346   fc6  41bc00040000         movl r12,0x400
0x8aec540234c   fcc  33c9                 xorl rcx,rcx
0x8aec540234e   fce  488b9558ffffff       REX.W movq rdx,[rbp-0xa8]
0x8aec5402355   fd5  e9ad090000           jmp 0x8aec5402d07  <+0x1987>
0x8aec540235a   fda  660f1f440000         nop
0x8aec5402360   fe0  448d5f38             leal r11,[rdi+0x38]
0x8aec5402364   fe4  4c8ba540ffffff       REX.W movq r12,[rbp-0xc0]
0x8aec540236b   feb  4181e4fffffeff       andl r12,0xfffeffff
0x8aec5402372   ff2  4c8bbd40ffffff       REX.W movq r15,[rbp-0xc0]
0x8aec5402379   ff9  66f78540ffffff0020   testw [rbp-0xc0],0x2000
0x8aec5402382  1002  450f45fc             cmovnzl r15,r12
0x8aec5402386  1006  41bc00040000         movl r12,0x400
0x8aec540238c  100c  33c9                 xorl rcx,rcx
0x8aec540238e  100e  488b9558ffffff       REX.W movq rdx,[rbp-0xa8]
0x8aec5402395  1015  e96d090000           jmp 0x8aec5402d07  <+0x1987>
0x8aec540239a  101a  660f1f440000         nop
0x8aec54023a0  1020  448d5f38             leal r11,[rdi+0x38]
0x8aec54023a4  1024  4c8ba540ffffff       REX.W movq r12,[rbp-0xc0]
0x8aec54023ab  102b  4181e4fffffeff       andl r12,0xfffeffff
0x8aec54023b2  1032  4c8bbd40ffffff       REX.W movq r15,[rbp-0xc0]
0x8aec54023b9  1039  66f78540ffffff0020   testw [rbp-0xc0],0x2000
0x8aec54023c2  1042  450f45fc             cmovnzl r15,r12
0x8aec54023c6  1046  41bc00040000         movl r12,0x400
0x8aec54023cc  104c  33c9                 xorl rcx,rcx
0x8aec54023ce  104e  488b9558ffffff       REX.W movq rdx,[rbp-0xa8]
0x8aec54023d5  1055  e92d090000           jmp 0x8aec5402d07  <+0x1987>
0x8aec54023da  105a  660f1f440000         nop
0x8aec54023e0  1060  448d5f38             leal r11,[rdi+0x38]
0x8aec54023e4  1064  4c8ba540ffffff       REX.W movq r12,[rbp-0xc0]
0x8aec54023eb  106b  4181e4fffffeff       andl r12,0xfffeffff
0x8aec54023f2  1072  4e8b7c0740           REX.W movq r15,[rdi+r8*1+0x40]
0x8aec54023f7  1077  46887c0737           movb [rdi+r8*1+0x37],r15l
0x8aec54023fc  107c  448d7f37             leal r15,[rdi+0x37]
0x8aec5402400  1080  b801000000           movl rax,0x1
0x8aec5402405  1085  498bd7               REX.W movq rdx,r15
0x8aec5402408  1088  4d89e7               REX.W movq r15,r12
0x8aec540240b  108b  33c9                 xorl rcx,rcx
0x8aec540240d  108d  41bc00040000         movl r12,0x400
0x8aec5402413  1093  e9ef080000           jmp 0x8aec5402d07  <+0x1987>
0x8aec5402418  1098  0f1f840000000000     nop
0x8aec5402420  10a0  4533db               xorl r11,r11
0x8aec5402423  10a3  83f800               cmpl rax,0x0
0x8aec5402426  10a6  450f4cdc             cmovll r11,r12
0x8aec540242a  10aa  4183fb00             cmpl r11,0x0
0x8aec540242e  10ae  0f85140d0000         jnz 0x8aec5403148  <+0x1dc8>
0x8aec5402434  10b4  4c8b9d40ffffff       REX.W movq r11,[rbp-0xc0]
0x8aec540243b  10bb  4181e3fffffeff       andl r11,0xfffeffff
0x8aec5402442  10c2  4c8ba540ffffff       REX.W movq r12,[rbp-0xc0]
0x8aec5402449  10c9  66f78540ffffff0020   testw [rbp-0xc0],0x2000
0x8aec5402452  10d2  450f45e3             cmovnzl r12,r11
0x8aec5402456  10d6  c4a17b104c0740       vmovsd xmm1,[rdi+r8*1+0x40]
0x8aec540245d  10dd  488b75f0             REX.W movq rsi,[rbp-0x10]
0x8aec5402461  10e1  4c8b5e3f             REX.W movq r11,[rsi+0x3f]
0x8aec5402465  10e5  488b5637             REX.W movq rdx,[rsi+0x37]
0x8aec5402469  10e9  8b4e0f               movl rcx,[rsi+0xf]
0x8aec540246c  10ec  4903ce               REX.W addq rcx,r14
0x8aec540246f  10ef  4c8b4d10             REX.W movq r9,[rbp+0x10]
0x8aec5402473  10f3  468d3c8d00000000     leal r15,[r9*4+0x0]
0x8aec540247b  10fb  4183f904             cmpl r9,0x4
0x8aec540247f  10ff  0f83900f0000         jnc 0x8aec5403415  <+0x2095>
0x8aec5402485  1105  418bc1               movl rax,r9
0x8aec5402488  1108  43833c3b0c           cmpl [r11+r15*1],0xc
0x8aec540248d  110d  0f857d0f0000         jnz 0x8aec5403410  <+0x2090>
0x8aec5402493  1113  448b5c8107           movl r11,[rcx+rax*4+0x7]
0x8aec5402498  1118  4d03de               REX.W addq r11,r14
0x8aec540249b  111b  4c8b3cc2             REX.W movq r15,[rdx+rax*8]
0x8aec540249f  111f  498bf3               REX.W movq rsi,r11
0x8aec54024a2  1122  488b4598             REX.W movq rax,[rbp-0x68]
0x8aec54024a6  1126  4c8b8d78ffffff       REX.W movq r9,[rbp-0x88]
0x8aec54024ad  112d  488b9560ffffff       REX.W movq rdx,[rbp-0xa0]
0x8aec54024b4  1134  488b4d90             REX.W movq rcx,[rbp-0x70]
0x8aec54024b8  1138  4c89e3               REX.W movq rbx,r12
0x8aec54024bb  113b  41ffd7               call r15
0x8aec54024be  113e  83f800               cmpl rax,0x0
0x8aec54024c1  1141  0f8c260c0000         jl 0x8aec54030ed  <+0x1d6d>
0x8aec54024c7  1147  488b55d0             REX.W movq rdx,[rbp-0x30]
0x8aec54024cb  114b  488b7dc8             REX.W movq rdi,[rbp-0x38]
0x8aec54024cf  114f  448d1c3a             leal r11,[rdx+rdi*1]
0x8aec54024d3  1153  488bd0               REX.W movq rdx,rax
0x8aec54024d6  1156  488b4598             REX.W movq rax,[rbp-0x68]
0x8aec54024da  115a  488b7db8             REX.W movq rdi,[rbp-0x48]
0x8aec54024de  115e  4c8b65e0             REX.W movq r12,[rbp-0x20]
0x8aec54024e2  1162  4c8b45d8             REX.W movq r8,[rbp-0x28]
0x8aec54024e6  1166  488b75f0             REX.W movq rsi,[rbp-0x10]
0x8aec54024ea  116a  e91befffff           jmp 0x8aec540140a  <+0x8a>
0x8aec54024ef  116f  90                   nop
0x8aec54024f0  1170  448d5f38             leal r11,[rdi+0x38]
0x8aec54024f4  1174  4c8ba540ffffff       REX.W movq r12,[rbp-0xc0]
0x8aec54024fb  117b  4181e4fffffeff       andl r12,0xfffeffff
0x8aec5402502  1182  4c8bbd40ffffff       REX.W movq r15,[rbp-0xc0]
0x8aec5402509  1189  66f78540ffffff0020   testw [rbp-0xc0],0x2000
0x8aec5402512  1192  450f45fc             cmovnzl r15,r12
0x8aec5402516  1196  41bc00040000         movl r12,0x400
0x8aec540251c  119c  33c9                 xorl rcx,rcx
0x8aec540251e  119e  488b9558ffffff       REX.W movq rdx,[rbp-0xa8]
0x8aec5402525  11a5  e9dd070000           jmp 0x8aec5402d07  <+0x1987>
0x8aec540252a  11aa  660f1f440000         nop
0x8aec5402530  11b0  4e8b5c0740           REX.W movq r11,[rdi+r8*1+0x40]
0x8aec5402535  11b5  4983fb00             REX.W cmpq r11,0x0
0x8aec5402539  11b9  0f8c57000000         jl 0x8aec5402596  <+0x1216>
0x8aec540253f  11bf  4c8bbd40ffffff       REX.W movq r15,[rbp-0xc0]
0x8aec5402546  11c6  4181e7fffffeff       andl r15,0xfffeffff
0x8aec540254d  11cd  488b9540ffffff       REX.W movq rdx,[rbp-0xc0]
0x8aec5402554  11d4  66f78540ffffff0020   testw [rbp-0xc0],0x2000
0x8aec540255d  11dd  410f45d7             cmovnzl rdx,r15
0x8aec5402561  11e1  66f7c20008           testw rdx,0x800
0x8aec5402566  11e6  0f851a000000         jnz 0x8aec5402586  <+0x1206>
0x8aec540256c  11ec  83e201               andl rdx,0x1
0x8aec540256f  11ef  41bf00040000         movl r15,0x400
0x8aec5402575  11f5  b902040000           movl rcx,0x402
0x8aec540257a  11fa  83fa00               cmpl rdx,0x0
0x8aec540257d  11fd  440f45f9             cmovnzl r15,rcx
0x8aec5402581  1201  e947050000           jmp 0x8aec5402acd  <+0x174d>
0x8aec5402586  1206  41bf01040000         movl r15,0x401
0x8aec540258c  120c  ba01000000           movl rdx,0x1
0x8aec5402591  1211  e937050000           jmp 0x8aec5402acd  <+0x174d>
0x8aec5402596  1216  49f7db               REX.W negq r11
0x8aec5402599  1219  4e895c0740           REX.W movq [rdi+r8*1+0x40],r11
0x8aec540259e  121e  41bf00040000         movl r15,0x400
0x8aec54025a4  1224  ba01000000           movl rdx,0x1
0x8aec54025a9  1229  e91f050000           jmp 0x8aec5402acd  <+0x174d>
0x8aec54025ae  122e  6690                 nop
0x8aec54025b0  1230  448d5f38             leal r11,[rdi+0x38]
0x8aec54025b4  1234  4c8ba540ffffff       REX.W movq r12,[rbp-0xc0]
0x8aec54025bb  123b  4181e4fffffeff       andl r12,0xfffeffff
0x8aec54025c2  1242  4c8bbd40ffffff       REX.W movq r15,[rbp-0xc0]
0x8aec54025c9  1249  66f78540ffffff0020   testw [rbp-0xc0],0x2000
0x8aec54025d2  1252  450f45fc             cmovnzl r15,r12
0x8aec54025d6  1256  41bc00040000         movl r12,0x400
0x8aec54025dc  125c  33c9                 xorl rcx,rcx
0x8aec54025de  125e  488b9558ffffff       REX.W movq rdx,[rbp-0xa8]
0x8aec54025e5  1265  e91d070000           jmp 0x8aec5402d07  <+0x1987>
0x8aec54025ea  126a  660f1f440000         nop
0x8aec54025f0  1270  448d5f38             leal r11,[rdi+0x38]
0x8aec54025f4  1274  4c8ba540ffffff       REX.W movq r12,[rbp-0xc0]
0x8aec54025fb  127b  4181e4fffffeff       andl r12,0xfffeffff
0x8aec5402602  1282  4c8bbd40ffffff       REX.W movq r15,[rbp-0xc0]
0x8aec5402609  1289  66f78540ffffff0020   testw [rbp-0xc0],0x2000
0x8aec5402612  1292  450f45fc             cmovnzl r15,r12
0x8aec5402616  1296  41bc00040000         movl r12,0x400
0x8aec540261c  129c  33c9                 xorl rcx,rcx
0x8aec540261e  129e  488b9558ffffff       REX.W movq rdx,[rbp-0xa8]
0x8aec5402625  12a5  e9dd060000           jmp 0x8aec5402d07  <+0x1987>
0x8aec540262a  12aa  660f1f440000         nop
0x8aec5402630  12b0  448d5f38             leal r11,[rdi+0x38]
0x8aec5402634  12b4  4c8ba540ffffff       REX.W movq r12,[rbp-0xc0]
0x8aec540263b  12bb  4181e4fffffeff       andl r12,0xfffeffff
0x8aec5402642  12c2  4c8bbd40ffffff       REX.W movq r15,[rbp-0xc0]
0x8aec5402649  12c9  66f78540ffffff0020   testw [rbp-0xc0],0x2000
0x8aec5402652  12d2  450f45fc             cmovnzl r15,r12
0x8aec5402656  12d6  41bc00040000         movl r12,0x400
0x8aec540265c  12dc  33c9                 xorl rcx,rcx
0x8aec540265e  12de  488b9558ffffff       REX.W movq rdx,[rbp-0xa8]
0x8aec5402665  12e5  e99d060000           jmp 0x8aec5402d07  <+0x1987>
0x8aec540266a  12ea  660f1f440000         nop
0x8aec5402670  12f0  448d5f38             leal r11,[rdi+0x38]
0x8aec5402674  12f4  4c8ba540ffffff       REX.W movq r12,[rbp-0xc0]
0x8aec540267b  12fb  4181e4fffffeff       andl r12,0xfffeffff
0x8aec5402682  1302  4c8bbd40ffffff       REX.W movq r15,[rbp-0xc0]
0x8aec5402689  1309  66f78540ffffff0020   testw [rbp-0xc0],0x2000
0x8aec5402692  1312  450f45fc             cmovnzl r15,r12
0x8aec5402696  1316  41bc00040000         movl r12,0x400
0x8aec540269c  131c  33c9                 xorl rcx,rcx
0x8aec540269e  131e  488b9558ffffff       REX.W movq rdx,[rbp-0xa8]
0x8aec54026a5  1325  e95d060000           jmp 0x8aec5402d07  <+0x1987>
0x8aec54026aa  132a  660f1f440000         nop
0x8aec54026b0  1330  488b55d0             REX.W movq rdx,[rbp-0x30]
0x8aec54026b4  1334  4c8b7dc8             REX.W movq r15,[rbp-0x38]
0x8aec54026b8  1338  468d243a             leal r12,[rdx+r15*1]
0x8aec54026bc  133c  450fb6db             movzxbl r11,r11
0x8aec54026c0  1340  4183fb08             cmpl r11,0x8
0x8aec54026c4  1344  0f8316000000         jnc 0x8aec54026e0  <+0x1360>
0x8aec54026ca  134a  4c8d15270f0000       REX.W leaq r10,[rip+0xf27]
0x8aec54026d1  1351  43ff24da             jmp [r10+r11*8]
0x8aec54026d5  1355  660f1f840000000000   nop
0x8aec54026de  135e  6690                 nop
0x8aec54026e0  1360  488b4598             REX.W movq rax,[rbp-0x68]
0x8aec54026e4  1364  4d89e3               REX.W movq r11,r12
0x8aec54026e7  1367  33d2                 xorl rdx,rdx
0x8aec54026e9  1369  4c8be7               REX.W movq r12,rdi
0x8aec54026ec  136c  488b75f0             REX.W movq rsi,[rbp-0x10]
0x8aec54026f0  1370  488bfb               REX.W movq rdi,rbx
0x8aec54026f3  1373  e912edffff           jmp 0x8aec540140a  <+0x8a>
0x8aec54026f8  1378  0f1f840000000000     nop
0x8aec5402700  1380  468b5c0740           movl r11,[rdi+r8*1+0x40]
0x8aec5402705  1385  47892418             movl [r8+r11*1],r12
0x8aec5402709  1389  488b4598             REX.W movq rax,[rbp-0x68]
0x8aec540270d  138d  4d89e3               REX.W movq r11,r12
0x8aec5402710  1390  33d2                 xorl rdx,rdx
0x8aec5402712  1392  4c8be7               REX.W movq r12,rdi
0x8aec5402715  1395  488b75f0             REX.W movq rsi,[rbp-0x10]
0x8aec5402719  1399  488bfb               REX.W movq rdi,rbx
0x8aec540271c  139c  e9e9ecffff           jmp 0x8aec540140a  <+0x8a>
0x8aec5402721  13a1  660f1f840000000000   nop
0x8aec540272a  13aa  660f1f440000         nop
0x8aec5402730  13b0  468b5c0740           movl r11,[rdi+r8*1+0x40]
0x8aec5402735  13b5  47892418             movl [r8+r11*1],r12
0x8aec5402739  13b9  488b4598             REX.W movq rax,[rbp-0x68]
0x8aec540273d  13bd  4d89e3               REX.W movq r11,r12
0x8aec5402740  13c0  33d2                 xorl rdx,rdx
0x8aec5402742  13c2  4c8be7               REX.W movq r12,rdi
0x8aec5402745  13c5  488b75f0             REX.W movq rsi,[rbp-0x10]
0x8aec5402749  13c9  488bfb               REX.W movq rdi,rbx
0x8aec540274c  13cc  e9b9ecffff           jmp 0x8aec540140a  <+0x8a>
0x8aec5402751  13d1  660f1f840000000000   nop
0x8aec540275a  13da  660f1f440000         nop
0x8aec5402760  13e0  4d63dc               REX.W movsxlq r11,r12
0x8aec5402763  13e3  468b7c0740           movl r15,[rdi+r8*1+0x40]
0x8aec5402768  13e8  4f891c38             REX.W movq [r8+r15*1],r11
0x8aec540276c  13ec  488b4598             REX.W movq rax,[rbp-0x68]
0x8aec5402770  13f0  4d89e3               REX.W movq r11,r12
0x8aec5402773  13f3  33d2                 xorl rdx,rdx
0x8aec5402775  13f5  4c8be7               REX.W movq r12,rdi
0x8aec5402778  13f8  488b75f0             REX.W movq rsi,[rbp-0x10]
0x8aec540277c  13fc  488bfb               REX.W movq rdi,rbx
0x8aec540277f  13ff  e986ecffff           jmp 0x8aec540140a  <+0x8a>
0x8aec5402784  1404  660f1f840000000000   nop
0x8aec540278d  140d  0f1f00               nop
0x8aec5402790  1410  468b5c0740           movl r11,[rdi+r8*1+0x40]
0x8aec5402795  1415  6647892418           movw [r8+r11*1],r12
0x8aec540279a  141a  488b4598             REX.W movq rax,[rbp-0x68]
0x8aec540279e  141e  4d89e3               REX.W movq r11,r12
0x8aec54027a1  1421  33d2                 xorl rdx,rdx
0x8aec54027a3  1423  4c8be7               REX.W movq r12,rdi
0x8aec54027a6  1426  488b75f0             REX.W movq rsi,[rbp-0x10]
0x8aec54027aa  142a  488bfb               REX.W movq rdi,rbx
0x8aec54027ad  142d  e958ecffff           jmp 0x8aec540140a  <+0x8a>
0x8aec54027b2  1432  660f1f840000000000   nop
0x8aec54027bb  143b  0f1f440000           nop
0x8aec54027c0  1440  468b5c0740           movl r11,[rdi+r8*1+0x40]
0x8aec54027c5  1445  47882418             movb [r8+r11*1],r12l
0x8aec54027c9  1449  488b4598             REX.W movq rax,[rbp-0x68]
0x8aec54027cd  144d  4d89e3               REX.W movq r11,r12
0x8aec54027d0  1450  33d2                 xorl rdx,rdx
0x8aec54027d2  1452  4c8be7               REX.W movq r12,rdi
0x8aec54027d5  1455  488b75f0             REX.W movq rsi,[rbp-0x10]
0x8aec54027d9  1459  488bfb               REX.W movq rdi,rbx
0x8aec54027dc  145c  e929ecffff           jmp 0x8aec540140a  <+0x8a>
0x8aec54027e1  1461  660f1f840000000000   nop
0x8aec54027ea  146a  660f1f440000         nop
0x8aec54027f0  1470  488b4598             REX.W movq rax,[rbp-0x68]
0x8aec54027f4  1474  4d89e3               REX.W movq r11,r12
0x8aec54027f7  1477  33d2                 xorl rdx,rdx
0x8aec54027f9  1479  4c8be7               REX.W movq r12,rdi
0x8aec54027fc  147c  488b75f0             REX.W movq rsi,[rbp-0x10]
0x8aec5402800  1480  488bfb               REX.W movq rdi,rbx
0x8aec5402803  1483  e902ecffff           jmp 0x8aec540140a  <+0x8a>
0x8aec5402808  1488  0f1f840000000000     nop
0x8aec5402810  1490  468b5c0740           movl r11,[rdi+r8*1+0x40]
0x8aec5402815  1495  47892418             movl [r8+r11*1],r12
0x8aec5402819  1499  488b4598             REX.W movq rax,[rbp-0x68]
0x8aec540281d  149d  4d89e3               REX.W movq r11,r12
0x8aec5402820  14a0  33d2                 xorl rdx,rdx
0x8aec5402822  14a2  4c8be7               REX.W movq r12,rdi
0x8aec5402825  14a5  488b75f0             REX.W movq rsi,[rbp-0x10]
0x8aec5402829  14a9  488bfb               REX.W movq rdi,rbx
0x8aec540282c  14ac  e9d9ebffff           jmp 0x8aec540140a  <+0x8a>
0x8aec5402831  14b1  660f1f840000000000   nop
0x8aec540283a  14ba  660f1f440000         nop
0x8aec5402840  14c0  468b5c0740           movl r11,[rdi+r8*1+0x40]
0x8aec5402845  14c5  4d63fc               REX.W movsxlq r15,r12
0x8aec5402848  14c8  4f893c18             REX.W movq [r8+r11*1],r15
0x8aec540284c  14cc  488b4598             REX.W movq rax,[rbp-0x68]
0x8aec5402850  14d0  4d89e3               REX.W movq r11,r12
0x8aec5402853  14d3  33d2                 xorl rdx,rdx
0x8aec5402855  14d5  4c8be7               REX.W movq r12,rdi
0x8aec5402858  14d8  488b75f0             REX.W movq rsi,[rbp-0x10]
0x8aec540285c  14dc  488bfb               REX.W movq rdi,rbx
0x8aec540285f  14df  e9a6ebffff           jmp 0x8aec540140a  <+0x8a>
0x8aec5402864  14e4  660f1f840000000000   nop
0x8aec540286d  14ed  0f1f00               nop
0x8aec5402870  14f0  8d5738               leal rdx,[rdi+0x38]
0x8aec5402873  14f3  4c8b9d40ffffff       REX.W movq r11,[rbp-0xc0]
0x8aec540287a  14fa  4181e3fffffeff       andl r11,0xfffeffff
0x8aec5402881  1501  4c8bbd40ffffff       REX.W movq r15,[rbp-0xc0]
0x8aec5402888  1508  66f78540ffffff0020   testw [rbp-0xc0],0x2000
0x8aec5402891  1511  450f45fb             cmovnzl r15,r11
0x8aec5402895  1515  4e8b5c0740           REX.W movq r11,[rdi+r8*1+0x40]
0x8aec540289a  151a  48899578ffffff       REX.W movq [rbp-0x88],rdx
0x8aec54028a1  1521  4c897d80             REX.W movq [rbp-0x80],r15
0x8aec54028a5  1525  488b75f0             REX.W movq rsi,[rbp-0x10]
0x8aec54028a9  1529  498bc3               REX.W movq rax,r11
0x8aec54028ac  152c  e8c657ffff           call 0x8aec53f8077  (jump table)    ;; internal wasm call
0x8aec54028b1  1531  f6458008             testb [rbp-0x80],0x8
0x8aec54028b5  1535  0f8422000000         jz 0x8aec54028dd  <+0x155d>
0x8aec54028bb  153b  488bbd78ffffff       REX.W movq rdi,[rbp-0x88]
0x8aec54028c2  1542  2bf8                 subl rdi,rax
0x8aec54028c4  1544  448d4701             leal r8,[rdi+0x1]
0x8aec54028c8  1548  3b7d90               cmpl rdi,[rbp-0x70]
0x8aec54028cb  154b  440f4c4590           cmovll r8,[rbp-0x70]
0x8aec54028d0  1550  41bb00040000         movl r11,0x400
0x8aec54028d6  1556  33d2                 xorl rdx,rdx
0x8aec54028d8  1558  e983030000           jmp 0x8aec5402c60  <+0x18e0>
0x8aec54028dd  155d  4c8b4590             REX.W movq r8,[rbp-0x70]
0x8aec54028e1  1561  41bb00040000         movl r11,0x400
0x8aec54028e7  1567  33d2                 xorl rdx,rdx
0x8aec54028e9  1569  e972030000           jmp 0x8aec5402c60  <+0x18e0>
0x8aec54028ee  156e  6690                 nop
0x8aec54028f0  1570  41bb08000000         movl r11,0x8
0x8aec54028f6  1576  83f808               cmpl rax,0x8
0x8aec54028f9  1579  440f47d8             cmoval r11,rax
0x8aec54028fd  157d  4c8bbd40ffffff       REX.W movq r15,[rbp-0xc0]
0x8aec5402904  1584  4181e7fffffeff       andl r15,0xfffeffff
0x8aec540290b  158b  488b8540ffffff       REX.W movq rax,[rbp-0xc0]
0x8aec5402912  1592  66f78540ffffff0020   testw [rbp-0xc0],0x2000
0x8aec540291b  159b  410f45c7             cmovnzl rax,r15
0x8aec540291f  159f  83c808               orl rax,0x8
0x8aec5402922  15a2  41bf78000000         movl r15,0x78
0x8aec5402928  15a8  488bd0               REX.W movq rdx,rax
0x8aec540292b  15ab  498bc3               REX.W movq rax,r11
0x8aec540292e  15ae  e99f020000           jmp 0x8aec5402bd2  <+0x1852>
0x8aec5402933  15b3  660f1f840000000000   nop
0x8aec540293c  15bc  0f1f4000             nop
0x8aec5402940  15c0  448d5f38             leal r11,[rdi+0x38]
0x8aec5402944  15c4  4c8ba540ffffff       REX.W movq r12,[rbp-0xc0]
0x8aec540294b  15cb  4181e4fffffeff       andl r12,0xfffeffff
0x8aec5402952  15d2  4c8bbd40ffffff       REX.W movq r15,[rbp-0xc0]
0x8aec5402959  15d9  66f78540ffffff0020   testw [rbp-0xc0],0x2000
0x8aec5402962  15e2  450f45fc             cmovnzl r15,r12
0x8aec5402966  15e6  41bc00040000         movl r12,0x400
0x8aec540296c  15ec  33c9                 xorl rcx,rcx
0x8aec540296e  15ee  488b9558ffffff       REX.W movq rdx,[rbp-0xa8]
0x8aec5402975  15f5  e98d030000           jmp 0x8aec5402d07  <+0x1987>
0x8aec540297a  15fa  660f1f440000         nop
0x8aec5402980  1600  448d5f38             leal r11,[rdi+0x38]
0x8aec5402984  1604  4c8ba540ffffff       REX.W movq r12,[rbp-0xc0]
0x8aec540298b  160b  4181e4fffffeff       andl r12,0xfffeffff
0x8aec5402992  1612  4c8bbd40ffffff       REX.W movq r15,[rbp-0xc0]
0x8aec5402999  1619  66f78540ffffff0020   testw [rbp-0xc0],0x2000
0x8aec54029a2  1622  450f45fc             cmovnzl r15,r12
0x8aec54029a6  1626  41bc00040000         movl r12,0x400
0x8aec54029ac  162c  33c9                 xorl rcx,rcx
0x8aec54029ae  162e  488b9558ffffff       REX.W movq rdx,[rbp-0xa8]
0x8aec54029b5  1635  e94d030000           jmp 0x8aec5402d07  <+0x1987>
0x8aec54029ba  163a  660f1f440000         nop
0x8aec54029c0  1640  468b5c0740           movl r11,[rdi+r8*1+0x40]
0x8aec54029c5  1645  4c8be0               REX.W movq r12,rax
0x8aec54029c8  1648  41bfffffff7f         movl r15,0x7fffffff
0x8aec54029ce  164e  83f800               cmpl rax,0x0
0x8aec54029d1  1651  450f4ce7             cmovll r12,r15
0x8aec54029d5  1655  ba0a040000           movl rdx,0x40a
0x8aec54029da  165a  4183fb00             cmpl r11,0x0
0x8aec54029de  165e  410f45d3             cmovnzl rdx,r11
0x8aec54029e2  1662  48899558ffffff       REX.W movq [rbp-0xa8],rdx
0x8aec54029e9  1669  488b75f0             REX.W movq rsi,[rbp-0x10]
0x8aec54029ed  166d  488bc2               REX.W movq rax,rdx
0x8aec54029f0  1670  4c89e2               REX.W movq rdx,r12
0x8aec54029f3  1673  e84d56ffff           call 0x8aec53f8045  (jump table)    ;; internal wasm call
0x8aec54029f8  1678  4c8bbd58ffffff       REX.W movq r15,[rbp-0xa8]
0x8aec54029ff  167f  468d1c38             leal r11,[rax+r15*1]
0x8aec5402a03  1683  837d9000             cmpl [rbp-0x70],0x0
0x8aec5402a07  1687  0f8d3f000000         jge 0x8aec5402a4c  <+0x16cc>
0x8aec5402a0d  168d  488b7dd8             REX.W movq rdi,[rbp-0x28]
0x8aec5402a11  1691  460fb6041f           movzxbl r8,[rdi+r11*1]
0x8aec5402a16  1696  4183f800             cmpl r8,0x0
0x8aec5402a1a  169a  0f85d8060000         jnz 0x8aec54030f8  <+0x1d78>
0x8aec5402a20  16a0  4c8ba540ffffff       REX.W movq r12,[rbp-0xc0]
0x8aec5402a27  16a7  4181e4fffffeff       andl r12,0xfffeffff
0x8aec5402a2e  16ae  488b5db8             REX.W movq rbx,[rbp-0x48]
0x8aec5402a32  16b2  498bd7               REX.W movq rdx,r15
0x8aec5402a35  16b5  4d89e7               REX.W movq r15,r12
0x8aec5402a38  16b8  33c9                 xorl rcx,rcx
0x8aec5402a3a  16ba  41bc00040000         movl r12,0x400
0x8aec5402a40  16c0  4c8bc7               REX.W movq r8,rdi
0x8aec5402a43  16c3  488b7de0             REX.W movq rdi,[rbp-0x20]
0x8aec5402a47  16c7  e9bb020000           jmp 0x8aec5402d07  <+0x1987>
0x8aec5402a4c  16cc  4c8ba540ffffff       REX.W movq r12,[rbp-0xc0]
0x8aec5402a53  16d3  4181e4fffffeff       andl r12,0xfffeffff
0x8aec5402a5a  16da  488b5db8             REX.W movq rbx,[rbp-0x48]
0x8aec5402a5e  16de  498bd7               REX.W movq rdx,r15
0x8aec5402a61  16e1  4d89e7               REX.W movq r15,r12
0x8aec5402a64  16e4  33c9                 xorl rcx,rcx
0x8aec5402a66  16e6  41bc00040000         movl r12,0x400
0x8aec5402a6c  16ec  488b7de0             REX.W movq rdi,[rbp-0x20]
0x8aec5402a70  16f0  4c8b45d8             REX.W movq r8,[rbp-0x28]
0x8aec5402a74  16f4  e98e020000           jmp 0x8aec5402d07  <+0x1987>
0x8aec5402a79  16f9  0f1f8000000000       nop
0x8aec5402a80  1700  448d5f38             leal r11,[rdi+0x38]
0x8aec5402a84  1704  4c8ba540ffffff       REX.W movq r12,[rbp-0xc0]
0x8aec5402a8b  170b  4181e4fffffeff       andl r12,0xfffeffff
0x8aec5402a92  1712  4c8bbd40ffffff       REX.W movq r15,[rbp-0xc0]
0x8aec5402a99  1719  66f78540ffffff0020   testw [rbp-0xc0],0x2000
0x8aec5402aa2  1722  450f45fc             cmovnzl r15,r12
0x8aec5402aa6  1726  41bc00040000         movl r12,0x400
0x8aec5402aac  172c  33c9                 xorl rcx,rcx
0x8aec5402aae  172e  488b9558ffffff       REX.W movq rdx,[rbp-0xa8]
0x8aec5402ab5  1735  e94d020000           jmp 0x8aec5402d07  <+0x1987>
0x8aec5402aba  173a  660f1f440000         nop
0x8aec5402ac0  1740  4e8b5c0740           REX.W movq r11,[rdi+r8*1+0x40]
0x8aec5402ac5  1745  41bf00040000         movl r15,0x400
0x8aec5402acb  174b  33d2                 xorl rdx,rdx
0x8aec5402acd  174d  8d4f38               leal rcx,[rdi+0x38]
0x8aec5402ad0  1750  488bb540ffffff       REX.W movq rsi,[rbp-0xc0]
0x8aec5402ad7  1757  81e6fffffeff         andl rsi,0xfffeffff
0x8aec5402add  175d  4c8b8d40ffffff       REX.W movq r9,[rbp-0xc0]
0x8aec5402ae4  1764  66f78540ffffff0020   testw [rbp-0xc0],0x2000
0x8aec5402aed  176d  440f45ce             cmovnzl r9,rsi
0x8aec5402af1  1771  4c89bd50ffffff       REX.W movq [rbp-0xb0],r15
0x8aec5402af8  1778  48899548ffffff       REX.W movq [rbp-0xb8],rdx
0x8aec5402aff  177f  4c894d80             REX.W movq [rbp-0x80],r9
0x8aec5402b03  1783  488b75f0             REX.W movq rsi,[rbp-0x10]
0x8aec5402b07  1787  498bc3               REX.W movq rax,r11
0x8aec5402b0a  178a  488bd1               REX.W movq rdx,rcx
0x8aec5402b0d  178d  e86e55ffff           call 0x8aec53f8080  (jump table)    ;; internal wasm call
0x8aec5402b12  1792  4c8b4590             REX.W movq r8,[rbp-0x70]
0x8aec5402b16  1796  4c8b9d50ffffff       REX.W movq r11,[rbp-0xb0]
0x8aec5402b1d  179d  488b9548ffffff       REX.W movq rdx,[rbp-0xb8]
0x8aec5402b24  17a4  e937010000           jmp 0x8aec5402c60  <+0x18e0>
0x8aec5402b29  17a9  0f1f8000000000       nop
0x8aec5402b30  17b0  448d5f38             leal r11,[rdi+0x38]
0x8aec5402b34  17b4  4c8ba540ffffff       REX.W movq r12,[rbp-0xc0]
0x8aec5402b3b  17bb  4181e4fffffeff       andl r12,0xfffeffff
0x8aec5402b42  17c2  4c8bbd40ffffff       REX.W movq r15,[rbp-0xc0]
0x8aec5402b49  17c9  66f78540ffffff0020   testw [rbp-0xc0],0x2000
0x8aec5402b52  17d2  450f45fc             cmovnzl r15,r12
0x8aec5402b56  17d6  41bc00040000         movl r12,0x400
0x8aec5402b5c  17dc  33c9                 xorl rcx,rcx
0x8aec5402b5e  17de  488b9558ffffff       REX.W movq rdx,[rbp-0xa8]
0x8aec5402b65  17e5  e99d010000           jmp 0x8aec5402d07  <+0x1987>
0x8aec5402b6a  17ea  660f1f440000         nop
0x8aec5402b70  17f0  448d5f38             leal r11,[rdi+0x38]
0x8aec5402b74  17f4  4c8ba540ffffff       REX.W movq r12,[rbp-0xc0]
0x8aec5402b7b  17fb  4181e4fffffeff       andl r12,0xfffeffff
0x8aec5402b82  1802  4c8bbd40ffffff       REX.W movq r15,[rbp-0xc0]
0x8aec5402b89  1809  66f78540ffffff0020   testw [rbp-0xc0],0x2000
0x8aec5402b92  1812  450f45fc             cmovnzl r15,r12
0x8aec5402b96  1816  41bc00040000         movl r12,0x400
0x8aec5402b9c  181c  33c9                 xorl rcx,rcx
0x8aec5402b9e  181e  488b9558ffffff       REX.W movq rdx,[rbp-0xa8]
0x8aec5402ba5  1825  e95d010000           jmp 0x8aec5402d07  <+0x1987>
0x8aec5402baa  182a  660f1f440000         nop
0x8aec5402bb0  1830  4c8b9d40ffffff       REX.W movq r11,[rbp-0xc0]
0x8aec5402bb7  1837  4181e3fffffeff       andl r11,0xfffeffff
0x8aec5402bbe  183e  488b9540ffffff       REX.W movq rdx,[rbp-0xc0]
0x8aec5402bc5  1845  66f78540ffffff0020   testw [rbp-0xc0],0x2000
0x8aec5402bce  184e  410f45d3             cmovnzl rdx,r11
0x8aec5402bd2  1852  448d5f38             leal r11,[rdi+0x38]
0x8aec5402bd6  1856  4a8b4c0740           REX.W movq rcx,[rdi+r8*1+0x40]
0x8aec5402bdb  185b  498bf7               REX.W movq rsi,r15
0x8aec5402bde  185e  83e620               andl rsi,0x20
0x8aec5402be1  1861  48895580             REX.W movq [rbp-0x80],rdx
0x8aec5402be5  1865  48894590             REX.W movq [rbp-0x70],rax
0x8aec5402be9  1869  4c89bd78ffffff       REX.W movq [rbp-0x88],r15
0x8aec5402bf0  1870  488bc1               REX.W movq rax,rcx
0x8aec5402bf3  1873  488bce               REX.W movq rcx,rsi
0x8aec5402bf6  1876  488b75f0             REX.W movq rsi,[rbp-0x10]
0x8aec5402bfa  187a  498bd3               REX.W movq rdx,r11
0x8aec5402bfd  187d  e87054ffff           call 0x8aec53f8072  (jump table)    ;; internal wasm call
0x8aec5402c02  1882  488b7de0             REX.W movq rdi,[rbp-0x20]
0x8aec5402c06  1886  4c8b45d8             REX.W movq r8,[rbp-0x28]
0x8aec5402c0a  188a  4e8b5c0740           REX.W movq r11,[rdi+r8*1+0x40]
0x8aec5402c0f  188f  4983fb00             REX.W cmpq r11,0x0
0x8aec5402c13  1893  0f843b000000         jz 0x8aec5402c54  <+0x18d4>
0x8aec5402c19  1899  f6458008             testb [rbp-0x80],0x8
0x8aec5402c1d  189d  0f8420000000         jz 0x8aec5402c43  <+0x18c3>
0x8aec5402c23  18a3  4c8b9d78ffffff       REX.W movq r11,[rbp-0x88]
0x8aec5402c2a  18aa  41c1eb04             shrl r11, 4
0x8aec5402c2e  18ae  4181c300040000       addl r11,0x400
0x8aec5402c35  18b5  ba02000000           movl rdx,0x2
0x8aec5402c3a  18ba  4c8b4590             REX.W movq r8,[rbp-0x70]
0x8aec5402c3e  18be  e91d000000           jmp 0x8aec5402c60  <+0x18e0>
0x8aec5402c43  18c3  41bb00040000         movl r11,0x400
0x8aec5402c49  18c9  33d2                 xorl rdx,rdx
0x8aec5402c4b  18cb  4c8b4590             REX.W movq r8,[rbp-0x70]
0x8aec5402c4f  18cf  e90c000000           jmp 0x8aec5402c60  <+0x18e0>
0x8aec5402c54  18d4  4c8b4590             REX.W movq r8,[rbp-0x70]
0x8aec5402c58  18d8  41bb00040000         movl r11,0x400
0x8aec5402c5e  18de  33d2                 xorl rdx,rdx
0x8aec5402c60  18e0  33ff                 xorl rdi,rdi
0x8aec5402c62  18e2  4183f800             cmpl r8,0x0
0x8aec5402c66  18e6  0f4c7d88             cmovll rdi,[rbp-0x78]
0x8aec5402c6a  18ea  83ff00               cmpl rdi,0x0
0x8aec5402c6d  18ed  0f859c040000         jnz 0x8aec540310f  <+0x1d8f>
0x8aec5402c73  18f3  488b7de0             REX.W movq rdi,[rbp-0x20]
0x8aec5402c77  18f7  448d7f38             leal r15,[rdi+0x38]
0x8aec5402c7b  18fb  4c8b65d8             REX.W movq r12,[rbp-0x28]
0x8aec5402c7f  18ff  4a8b5c2740           REX.W movq rbx,[rdi+r12*1+0x40]
0x8aec5402c84  1904  4883fb00             REX.W cmpq rbx,0x0
0x8aec5402c88  1908  0f94c1               setzl cl
0x8aec5402c8b  190b  0fb6c9               movzxbl rcx,rcx
0x8aec5402c8e  190e  488b7580             REX.W movq rsi,[rbp-0x80]
0x8aec5402c92  1912  81e6fffffeff         andl rsi,0xfffeffff
0x8aec5402c98  1918  4c8b4d80             REX.W movq r9,[rbp-0x80]
0x8aec5402c9c  191c  837d8800             cmpl [rbp-0x78],0x0
0x8aec5402ca0  1920  440f45ce             cmovnzl r9,rsi
0x8aec5402ca4  1924  4883fb00             REX.W cmpq rbx,0x0
0x8aec5402ca8  1928  0f8527000000         jnz 0x8aec5402cd5  <+0x1955>
0x8aec5402cae  192e  4183f800             cmpl r8,0x0
0x8aec5402cb2  1932  0f851d000000         jnz 0x8aec5402cd5  <+0x1955>
0x8aec5402cb8  1938  4d89e0               REX.W movq r8,r12
0x8aec5402cbb  193b  4d8be3               REX.W movq r12,r11
0x8aec5402cbe  193e  4d8bdf               REX.W movq r11,r15
0x8aec5402cc1  1941  33c0                 xorl rax,rax
0x8aec5402cc3  1943  488bca               REX.W movq rcx,rdx
0x8aec5402cc6  1946  498bd7               REX.W movq rdx,r15
0x8aec5402cc9  1949  4d8bf9               REX.W movq r15,r9
0x8aec5402ccc  194c  488b5db8             REX.W movq rbx,[rbp-0x48]
0x8aec5402cd0  1950  e932000000           jmp 0x8aec5402d07  <+0x1987>
0x8aec5402cd5  1955  442bf8               subl r15,rax
0x8aec5402cd8  1958  4403f9               addl r15,rcx
0x8aec5402cdb  195b  498bdf               REX.W movq rbx,r15
0x8aec5402cde  195e  453bf8               cmpl r15,r8
0x8aec5402ce1  1961  410f4cd8             cmovll rbx,r8
0x8aec5402ce5  1965  4c8bf8               REX.W movq r15,rax
0x8aec5402ce8  1968  488bc3               REX.W movq rax,rbx
0x8aec5402ceb  196b  4d8bc1               REX.W movq r8,r9
0x8aec5402cee  196e  8d5f38               leal rbx,[rdi+0x38]
0x8aec5402cf1  1971  488bca               REX.W movq rcx,rdx
0x8aec5402cf4  1974  498bd7               REX.W movq rdx,r15
0x8aec5402cf7  1977  4d8bf8               REX.W movq r15,r8
0x8aec5402cfa  197a  4d89e0               REX.W movq r8,r12
0x8aec5402cfd  197d  4d8be3               REX.W movq r12,r11
0x8aec5402d00  1980  4c8bdb               REX.W movq r11,rbx
0x8aec5402d03  1983  488b5db8             REX.W movq rbx,[rbp-0x48]
0x8aec5402d07  1987  442bda               subl r11,rdx
0x8aec5402d0a  198a  488bf0               REX.W movq rsi,rax
0x8aec5402d0d  198d  413bc3               cmpl rax,r11
0x8aec5402d10  1990  410f4cf3             cmovll rsi,r11
0x8aec5402d14  1994  b8ffffff7f           movl rax,0x7fffffff
0x8aec5402d19  1999  2bc1                 subl rax,rcx
0x8aec5402d1b  199b  4c897d80             REX.W movq [rbp-0x80],r15
0x8aec5402d1f  199f  48899558ffffff       REX.W movq [rbp-0xa8],rdx
0x8aec5402d26  19a6  4c89a550ffffff       REX.W movq [rbp-0xb0],r12
0x8aec5402d2d  19ad  48898d48ffffff       REX.W movq [rbp-0xb8],rcx
0x8aec5402d34  19b4  4c899d78ffffff       REX.W movq [rbp-0x88],r11
0x8aec5402d3b  19bb  4889b570ffffff       REX.W movq [rbp-0x90],rsi
0x8aec5402d42  19c2  3bc6                 cmpl rax,rsi
0x8aec5402d44  19c4  0f8cfe030000         jl 0x8aec5403148  <+0x1dc8>
0x8aec5402d4a  19ca  8d040e               leal rax,[rsi+rcx*1]
0x8aec5402d4d  19cd  488bbd60ffffff       REX.W movq rdi,[rbp-0xa0]
0x8aec5402d54  19d4  4c8bcf               REX.W movq r9,rdi
0x8aec5402d57  19d7  3bf8                 cmpl rdi,rax
0x8aec5402d59  19d9  440f4cc8             cmovll r9,rax
0x8aec5402d5d  19dd  48894588             REX.W movq [rbp-0x78],rax
0x8aec5402d61  19e1  4c894d90             REX.W movq [rbp-0x70],r9
0x8aec5402d65  19e5  488bbd68ffffff       REX.W movq rdi,[rbp-0x98]
0x8aec5402d6c  19ec  413bf9               cmpl rdi,r9
0x8aec5402d6f  19ef  0f8c8f030000         jl 0x8aec5403104  <+0x1d84>
0x8aec5402d75  19f5  488b7dd0             REX.W movq rdi,[rbp-0x30]
0x8aec5402d79  19f9  4c8b5dc8             REX.W movq r11,[rbp-0x38]
0x8aec5402d7d  19fd  4403df               addl r11,rdi
0x8aec5402d80  1a00  498bc9               REX.W movq rcx,r9
0x8aec5402d83  1a03  4d8bcf               REX.W movq r9,r15
0x8aec5402d86  1a06  4c895dc8             REX.W movq [rbp-0x38],r11
0x8aec5402d8a  1a0a  488b75f0             REX.W movq rsi,[rbp-0x10]
0x8aec5402d8e  1a0e  488bd8               REX.W movq rbx,rax
0x8aec5402d91  1a11  488b4598             REX.W movq rax,[rbp-0x68]
0x8aec5402d95  1a15  ba20000000           movl rdx,0x20
0x8aec5402d9a  1a1a  488bfa               REX.W movq rdi,rdx
0x8aec5402d9d  1a1d  e8e352ffff           call 0x8aec53f8085  (jump table)    ;; internal wasm call
0x8aec5402da2  1a22  488b75f0             REX.W movq rsi,[rbp-0x10]
0x8aec5402da6  1a26  488b4598             REX.W movq rax,[rbp-0x68]
0x8aec5402daa  1a2a  488b9550ffffff       REX.W movq rdx,[rbp-0xb0]
0x8aec5402db1  1a31  488b8d48ffffff       REX.W movq rcx,[rbp-0xb8]
0x8aec5402db8  1a38  e8a652ffff           call 0x8aec53f8063  (jump table)    ;; internal wasm call
0x8aec5402dbd  1a3d  4c8b4d80             REX.W movq r9,[rbp-0x80]
0x8aec5402dc1  1a41  4181f100000100       xorl r9,0x10000
0x8aec5402dc8  1a48  ba30000000           movl rdx,0x30
0x8aec5402dcd  1a4d  488b75f0             REX.W movq rsi,[rbp-0x10]
0x8aec5402dd1  1a51  488b4598             REX.W movq rax,[rbp-0x68]
0x8aec5402dd5  1a55  488b4d90             REX.W movq rcx,[rbp-0x70]
0x8aec5402dd9  1a59  488b5d88             REX.W movq rbx,[rbp-0x78]
0x8aec5402ddd  1a5d  e8a352ffff           call 0x8aec53f8085  (jump table)    ;; internal wasm call
0x8aec5402de2  1a62  488b75f0             REX.W movq rsi,[rbp-0x10]
0x8aec5402de6  1a66  488b4598             REX.W movq rax,[rbp-0x68]
0x8aec5402dea  1a6a  ba30000000           movl rdx,0x30
0x8aec5402def  1a6f  488b8d70ffffff       REX.W movq rcx,[rbp-0x90]
0x8aec5402df6  1a76  488b9d78ffffff       REX.W movq rbx,[rbp-0x88]
0x8aec5402dfd  1a7d  4533c9               xorl r9,r9
0x8aec5402e00  1a80  e88052ffff           call 0x8aec53f8085  (jump table)    ;; internal wasm call
0x8aec5402e05  1a85  488b75f0             REX.W movq rsi,[rbp-0x10]
0x8aec5402e09  1a89  488b4598             REX.W movq rax,[rbp-0x68]
0x8aec5402e0d  1a8d  488b9558ffffff       REX.W movq rdx,[rbp-0xa8]
0x8aec5402e14  1a94  488b8d78ffffff       REX.W movq rcx,[rbp-0x88]
0x8aec5402e1b  1a9b  e84352ffff           call 0x8aec53f8063  (jump table)    ;; internal wasm call
0x8aec5402e20  1aa0  4c8b4d80             REX.W movq r9,[rbp-0x80]
0x8aec5402e24  1aa4  4181f100200000       xorl r9,0x2000
0x8aec5402e2b  1aab  488b75f0             REX.W movq rsi,[rbp-0x10]
0x8aec5402e2f  1aaf  488b4598             REX.W movq rax,[rbp-0x68]
0x8aec5402e33  1ab3  ba20000000           movl rdx,0x20
0x8aec5402e38  1ab8  488b4d90             REX.W movq rcx,[rbp-0x70]
0x8aec5402e3c  1abc  488b5d88             REX.W movq rbx,[rbp-0x78]
0x8aec5402e40  1ac0  e84052ffff           call 0x8aec53f8085  (jump table)    ;; internal wasm call
0x8aec5402e45  1ac5  488b4598             REX.W movq rax,[rbp-0x68]
0x8aec5402e49  1ac9  4c8b5dc8             REX.W movq r11,[rbp-0x38]
0x8aec5402e4d  1acd  488b5590             REX.W movq rdx,[rbp-0x70]
0x8aec5402e51  1ad1  4c8b65e0             REX.W movq r12,[rbp-0x20]
0x8aec5402e55  1ad5  4c8b45d8             REX.W movq r8,[rbp-0x28]
0x8aec5402e59  1ad9  488b75f0             REX.W movq rsi,[rbp-0x10]
0x8aec5402e5d  1add  488b7db8             REX.W movq rdi,[rbp-0x48]
0x8aec5402e61  1ae1  e9a4e5ffff           jmp 0x8aec540140a  <+0x8a>
0x8aec5402e66  1ae6  488b55d0             REX.W movq rdx,[rbp-0x30]
0x8aec5402e6a  1aea  4c8b5dc8             REX.W movq r11,[rbp-0x38]
0x8aec5402e6e  1aee  4403da               addl r11,rdx
0x8aec5402e71  1af1  488b4598             REX.W movq rax,[rbp-0x68]
0x8aec5402e75  1af5  4c8be7               REX.W movq r12,rdi
0x8aec5402e78  1af8  488bfb               REX.W movq rdi,rbx
0x8aec5402e7b  1afb  33d2                 xorl rdx,rdx
0x8aec5402e7d  1afd  488b75f0             REX.W movq rsi,[rbp-0x10]
0x8aec5402e81  1b01  e984e5ffff           jmp 0x8aec540140a  <+0x8a>
0x8aec5402e86  1b06  83f800               cmpl rax,0x0
0x8aec5402e89  1b09  0f8527020000         jnz 0x8aec54030b6  <+0x1d36>
0x8aec5402e8f  1b0f  837da000             cmpl [rbp-0x60],0x0
0x8aec5402e93  1b13  0f8441020000         jz 0x8aec54030da  <+0x1d5a>
0x8aec5402e99  1b19  41bb01000000         movl r11,0x1
0x8aec5402e9f  1b1f  4d8bf8               REX.W movq r15,r8
0x8aec5402ea2  1b22  e925000000           jmp 0x8aec5402ecc  <+0x1b4c>
0x8aec5402ea7  1b27  660f1f840000000000   nop
0x8aec5402eb0  1b30  660f1f840000000000   nop
0x8aec5402eb9  1b39  0f1f8000000000       nop
0x8aec5402ec0  1b40  488b7db8             REX.W movq rdi,[rbp-0x48]
0x8aec5402ec4  1b44  4c8b7dd8             REX.W movq r15,[rbp-0x28]
0x8aec5402ec8  1b48  488b75f0             REX.W movq rsi,[rbp-0x10]
0x8aec5402ecc  1b4c  4c8b45c0             REX.W movq r8,[rbp-0x40]
0x8aec5402ed0  1b50  488b45a8             REX.W movq rax,[rbp-0x58]
0x8aec5402ed4  1b54  483b27               REX.W cmpq rsp,[rdi]
0x8aec5402ed7  1b57  0f8654040000         jna 0x8aec5403331  <+0x1fb1>
0x8aec5402edd  1b5d  438d1c98             leal rbx,[r8+r11*4]
0x8aec5402ee1  1b61  418b141f             movl rdx,[r15+rbx*1]
0x8aec5402ee5  1b65  83fa00               cmpl rdx,0x0
0x8aec5402ee8  1b68  0f84bb000000         jz 0x8aec5402fa9  <+0x1c29>
0x8aec5402eee  1b6e  418d5b01             leal rbx,[r11+0x1]
0x8aec5402ef2  1b72  468d1cd8             leal r11,[rax+r11*8]
0x8aec5402ef6  1b76  48895dc8             REX.W movq [rbp-0x38],rbx
0x8aec5402efa  1b7a  498bc3               REX.W movq rax,r11
0x8aec5402efd  1b7d  488b4db0             REX.W movq rcx,[rbp-0x50]
0x8aec5402f01  1b81  488b5d18             REX.W movq rbx,[rbp+0x18]
0x8aec5402f05  1b85  e86351ffff           call 0x8aec53f806d  (jump table)    ;; internal wasm call
0x8aec5402f0a  1b8a  837dc80a             cmpl [rbp-0x38],0xa
0x8aec5402f0e  1b8e  0f8497010000         jz 0x8aec54030ab  <+0x1d2b>
0x8aec5402f14  1b94  488b7dc0             REX.W movq rdi,[rbp-0x40]
0x8aec5402f18  1b98  4c8b45c8             REX.W movq r8,[rbp-0x38]
0x8aec5402f1c  1b9c  468d1c87             leal r11,[rdi+r8*4]
0x8aec5402f20  1ba0  4c8b65d8             REX.W movq r12,[rbp-0x28]
0x8aec5402f24  1ba4  438b141c             movl rdx,[r12+r11*1]
0x8aec5402f28  1ba8  83fa00               cmpl rdx,0x0
0x8aec5402f2b  1bab  0f8483000000         jz 0x8aec5402fb4  <+0x1c34>
0x8aec5402f31  1bb1  458d5801             leal r11,[r8+0x1]
0x8aec5402f35  1bb5  4c8b7da8             REX.W movq r15,[rbp-0x58]
0x8aec5402f39  1bb9  438d04c7             leal rax,[r15+r8*8]
0x8aec5402f3d  1bbd  4c895dd0             REX.W movq [rbp-0x30],r11
0x8aec5402f41  1bc1  488b75f0             REX.W movq rsi,[rbp-0x10]
0x8aec5402f45  1bc5  488b4db0             REX.W movq rcx,[rbp-0x50]
0x8aec5402f49  1bc9  488b5d18             REX.W movq rbx,[rbp+0x18]
0x8aec5402f4d  1bcd  e81b51ffff           call 0x8aec53f806d  (jump table)    ;; internal wasm call
0x8aec5402f52  1bd2  837dd00a             cmpl [rbp-0x30],0xa
0x8aec5402f56  1bd6  0f844f010000         jz 0x8aec54030ab  <+0x1d2b>
0x8aec5402f5c  1bdc  488b7dc0             REX.W movq rdi,[rbp-0x40]
0x8aec5402f60  1be0  4c8b5dd0             REX.W movq r11,[rbp-0x30]
0x8aec5402f64  1be4  468d049f             leal r8,[rdi+r11*4]
0x8aec5402f68  1be8  4c8b65d8             REX.W movq r12,[rbp-0x28]
0x8aec5402f6c  1bec  438b1404             movl rdx,[r12+r8*1]
0x8aec5402f70  1bf0  83fa00               cmpl rdx,0x0
0x8aec5402f73  1bf3  0f843e000000         jz 0x8aec5402fb7  <+0x1c37>
0x8aec5402f79  1bf9  4c8b45a8             REX.W movq r8,[rbp-0x58]
0x8aec5402f7d  1bfd  438d04d8             leal rax,[r8+r11*8]
0x8aec5402f81  1c01  488b75f0             REX.W movq rsi,[rbp-0x10]
0x8aec5402f85  1c05  488b5d18             REX.W movq rbx,[rbp+0x18]
0x8aec5402f89  1c09  488b4db0             REX.W movq rcx,[rbp-0x50]
0x8aec5402f8d  1c0d  e8db50ffff           call 0x8aec53f806d  (jump table)    ;; internal wasm call
0x8aec5402f92  1c12  4c8b5dd0             REX.W movq r11,[rbp-0x30]
0x8aec5402f96  1c16  4183c301             addl r11,0x1
0x8aec5402f9a  1c1a  4183fb0a             cmpl r11,0xa
0x8aec5402f9e  1c1e  0f851cffffff         jnz 0x8aec5402ec0  <+0x1b40>
0x8aec5402fa4  1c24  e902010000           jmp 0x8aec54030ab  <+0x1d2b>
0x8aec5402fa9  1c29  498bf8               REX.W movq rdi,r8
0x8aec5402fac  1c2c  4d8be7               REX.W movq r12,r15
0x8aec5402faf  1c2f  e903000000           jmp 0x8aec5402fb7  <+0x1c37>
0x8aec5402fb4  1c34  4d8bd8               REX.W movq r11,r8
0x8aec5402fb7  1c37  4183fb0a             cmpl r11,0xa
0x8aec5402fbb  1c3b  0f83df000000         jnc 0x8aec54030a0  <+0x1d20>
0x8aec5402fc1  1c41  4c8bc7               REX.W movq r8,rdi
0x8aec5402fc4  1c44  488b7db8             REX.W movq rdi,[rbp-0x48]
0x8aec5402fc8  1c48  660f1f840000000000   nop
0x8aec5402fd1  1c51  660f1f840000000000   nop
0x8aec5402fda  1c5a  660f1f840000000000   nop
0x8aec5402fe3  1c63  660f1f840000000000   nop
0x8aec5402fec  1c6c  660f1f840000000000   nop
0x8aec5402ff5  1c75  660f1f840000000000   nop
0x8aec5402ffe  1c7e  6690                 nop
0x8aec5403000  1c80  483b27               REX.W cmpq rsp,[rdi]
0x8aec5403003  1c83  0f864e030000         jna 0x8aec5403357  <+0x1fd7>
0x8aec5403009  1c89  478d3c98             leal r15,[r8+r11*4]
0x8aec540300d  1c8d  478b3c3c             movl r15,[r12+r15*1]
0x8aec5403011  1c91  4183ff00             cmpl r15,0x0
0x8aec5403015  1c95  0f8579000000         jnz 0x8aec5403094  <+0x1d14>
0x8aec540301b  1c9b  4183c301             addl r11,0x1
0x8aec540301f  1c9f  4183fb0a             cmpl r11,0xa
0x8aec5403023  1ca3  0f8460000000         jz 0x8aec5403089  <+0x1d09>
0x8aec5403029  1ca9  478d3c98             leal r15,[r8+r11*4]
0x8aec540302d  1cad  478b3c3c             movl r15,[r12+r15*1]
0x8aec5403031  1cb1  4183ff00             cmpl r15,0x0
0x8aec5403035  1cb5  0f8559000000         jnz 0x8aec5403094  <+0x1d14>
0x8aec540303b  1cbb  4183c301             addl r11,0x1
0x8aec540303f  1cbf  4183fb0a             cmpl r11,0xa
0x8aec5403043  1cc3  0f8440000000         jz 0x8aec5403089  <+0x1d09>
0x8aec5403049  1cc9  478d3c98             leal r15,[r8+r11*4]
0x8aec540304d  1ccd  478b3c3c             movl r15,[r12+r15*1]
0x8aec5403051  1cd1  4183ff00             cmpl r15,0x0
0x8aec5403055  1cd5  0f8539000000         jnz 0x8aec5403094  <+0x1d14>
0x8aec540305b  1cdb  4183c301             addl r11,0x1
0x8aec540305f  1cdf  4183fb0a             cmpl r11,0xa
0x8aec5403063  1ce3  0f8420000000         jz 0x8aec5403089  <+0x1d09>
0x8aec5403069  1ce9  478d3c98             leal r15,[r8+r11*4]
0x8aec540306d  1ced  478b3c3c             movl r15,[r12+r15*1]
0x8aec5403071  1cf1  4183ff00             cmpl r15,0x0
0x8aec5403075  1cf5  0f8519000000         jnz 0x8aec5403094  <+0x1d14>
0x8aec540307b  1cfb  4183c301             addl r11,0x1
0x8aec540307f  1cff  4183fb0a             cmpl r11,0xa
0x8aec5403083  1d03  0f8577ffffff         jnz 0x8aec5403000  <+0x1c80>
0x8aec5403089  1d09  41bf01000000         movl r15,0x1
0x8aec540308f  1d0f  e9db000000           jmp 0x8aec540316f  <+0x1def>
0x8aec5403094  1d14  488b7de0             REX.W movq rdi,[rbp-0x20]
0x8aec5403098  1d18  4d89e0               REX.W movq r8,r12
0x8aec540309b  1d1b  e992000000           jmp 0x8aec5403132  <+0x1db2>
0x8aec54030a0  1d20  41bf01000000         movl r15,0x1
0x8aec54030a6  1d26  e9c4000000           jmp 0x8aec540316f  <+0x1def>
0x8aec54030ab  1d2b  41bf01000000         movl r15,0x1
0x8aec54030b1  1d31  e9b9000000           jmp 0x8aec540316f  <+0x1def>
0x8aec54030b6  1d36  468d3c1a             leal r15,[rdx+r11*1]
0x8aec54030ba  1d3a  e9b0000000           jmp 0x8aec540316f  <+0x1def>
0x8aec54030bf  1d3f  488b7de0             REX.W movq rdi,[rbp-0x20]
0x8aec54030c3  1d43  4c8b45d8             REX.W movq r8,[rbp-0x28]
0x8aec54030c7  1d47  e97c000000           jmp 0x8aec5403148  <+0x1dc8>
0x8aec54030cc  1d4c  41bb1c000000         movl r11,0x1c
0x8aec54030d2  1d52  e977000000           jmp 0x8aec540314e  <+0x1dce>
0x8aec54030d7  1d57  4c8be7               REX.W movq r12,rdi
0x8aec54030da  1d5a  4533ff               xorl r15,r15
0x8aec54030dd  1d5d  e98d000000           jmp 0x8aec540316f  <+0x1def>
0x8aec54030e2  1d62  41bb3d000000         movl r11,0x3d
0x8aec54030e8  1d68  e961000000           jmp 0x8aec540314e  <+0x1dce>
0x8aec54030ed  1d6d  41bb3d000000         movl r11,0x3d
0x8aec54030f3  1d73  e956000000           jmp 0x8aec540314e  <+0x1dce>
0x8aec54030f8  1d78  4c8bc7               REX.W movq r8,rdi
0x8aec54030fb  1d7b  488b7de0             REX.W movq rdi,[rbp-0x20]
0x8aec54030ff  1d7f  e944000000           jmp 0x8aec5403148  <+0x1dc8>
0x8aec5403104  1d84  41bb3d000000         movl r11,0x3d
0x8aec540310a  1d8a  e93f000000           jmp 0x8aec540314e  <+0x1dce>
0x8aec540310f  1d8f  488b7de0             REX.W movq rdi,[rbp-0x20]
0x8aec5403113  1d93  4c8b45d8             REX.W movq r8,[rbp-0x28]
0x8aec5403117  1d97  e92c000000           jmp 0x8aec5403148  <+0x1dc8>
0x8aec540311c  1d9c  41bb1c000000         movl r11,0x1c
0x8aec5403122  1da2  e927000000           jmp 0x8aec540314e  <+0x1dce>
0x8aec5403127  1da7  41bb1c000000         movl r11,0x1c
0x8aec540312d  1dad  e91c000000           jmp 0x8aec540314e  <+0x1dce>
0x8aec5403132  1db2  41bb1c000000         movl r11,0x1c
0x8aec5403138  1db8  e911000000           jmp 0x8aec540314e  <+0x1dce>
0x8aec540313d  1dbd  4c89e7               REX.W movq rdi,r12
0x8aec5403140  1dc0  e903000000           jmp 0x8aec5403148  <+0x1dc8>
0x8aec5403145  1dc5  4c89e7               REX.W movq rdi,r12
0x8aec5403148  1dc8  41bb3d000000         movl r11,0x3d
0x8aec540314e  1dce  4c895dd0             REX.W movq [rbp-0x30],r11
0x8aec5403152  1dd2  488b75f0             REX.W movq rsi,[rbp-0x10]
0x8aec5403156  1dd6  e8ef4effff           call 0x8aec53f804a  (jump table)    ;; internal wasm call
0x8aec540315b  1ddb  8bf8                 movl rdi,rax
0x8aec540315d  1ddd  4c8b45d8             REX.W movq r8,[rbp-0x28]
0x8aec5403161  1de1  4c8b5dd0             REX.W movq r11,[rbp-0x30]
0x8aec5403165  1de5  45891c38             movl [r8+rdi*1],r11
0x8aec5403169  1de9  41bfffffffff         movl r15,0xffffffff
0x8aec540316f  1def  488b7de0             REX.W movq rdi,[rbp-0x20]
0x8aec5403173  1df3  83c750               addl rdi,0x50
0x8aec5403176  1df6  4c8b45e8             REX.W movq r8,[rbp-0x18]
0x8aec540317a  1dfa  418938               movl [r8],rdi
0x8aec540317d  1dfd  498bc7               REX.W movq rax,r15
0x8aec5403180  1e00  488be5               REX.W movq rsp,rbp
0x8aec5403183  1e03  5d                   pop rbp
0x8aec5403184  1e04  c21000               ret 0x10
0x8aec5403187  1e07  488955d0             REX.W movq [rbp-0x30],rdx
0x8aec540318b  1e0b  e8e051ffff           call 0x8aec53f8370  (jump table)    ;; wasm stub: WasmStackGuard
0x8aec5403190  1e10  488b75f0             REX.W movq rsi,[rbp-0x10]
0x8aec5403194  1e14  4c8b4dc0             REX.W movq r9,[rbp-0x40]
0x8aec5403198  1e18  488b7db8             REX.W movq rdi,[rbp-0x48]
0x8aec540319c  1e1c  488b4db0             REX.W movq rcx,[rbp-0x50]
0x8aec54031a0  1e20  488b5da8             REX.W movq rbx,[rbp-0x58]
0x8aec54031a4  1e24  488b4598             REX.W movq rax,[rbp-0x68]
0x8aec54031a8  1e28  488b55d0             REX.W movq rdx,[rbp-0x30]
0x8aec54031ac  1e2c  e9fee1ffff           jmp 0x8aec54013af  <+0x2f>
0x8aec54031b1  1e31  488955d0             REX.W movq [rbp-0x30],rdx
0x8aec54031b5  1e35  4c895dc8             REX.W movq [rbp-0x38],r11
0x8aec54031b9  1e39  e8b251ffff           call 0x8aec53f8370  (jump table)    ;; wasm stub: WasmStackGuard
0x8aec54031be  1e3e  4c8b65e0             REX.W movq r12,[rbp-0x20]
0x8aec54031c2  1e42  4c8b45d8             REX.W movq r8,[rbp-0x28]
0x8aec54031c6  1e46  488b75f0             REX.W movq rsi,[rbp-0x10]
0x8aec54031ca  1e4a  488b55d0             REX.W movq rdx,[rbp-0x30]
0x8aec54031ce  1e4e  4c8b5dc8             REX.W movq r11,[rbp-0x38]
0x8aec54031d2  1e52  488b7db8             REX.W movq rdi,[rbp-0x48]
0x8aec54031d6  1e56  488b4598             REX.W movq rax,[rbp-0x68]
0x8aec54031da  1e5a  e934e2ffff           jmp 0x8aec5401413  <+0x93>
0x8aec54031df  1e5f  48895d88             REX.W movq [rbp-0x78],rbx
0x8aec54031e3  1e63  488955d0             REX.W movq [rbp-0x30],rdx
0x8aec54031e7  1e67  4c895dc8             REX.W movq [rbp-0x38],r11
0x8aec54031eb  1e6b  e88051ffff           call 0x8aec53f8370  (jump table)    ;; wasm stub: WasmStackGuard
0x8aec54031f0  1e70  4c8b65e0             REX.W movq r12,[rbp-0x20]
0x8aec54031f4  1e74  4c8b45d8             REX.W movq r8,[rbp-0x28]
0x8aec54031f8  1e78  488b75f0             REX.W movq rsi,[rbp-0x10]
0x8aec54031fc  1e7c  488b55d0             REX.W movq rdx,[rbp-0x30]
0x8aec5403200  1e80  4c8b5dc8             REX.W movq r11,[rbp-0x38]
0x8aec5403204  1e84  488b7db8             REX.W movq rdi,[rbp-0x48]
0x8aec5403208  1e88  488b4598             REX.W movq rax,[rbp-0x68]
0x8aec540320c  1e8c  4c8bbd58ffffff       REX.W movq r15,[rbp-0xa8]
0x8aec5403213  1e93  488b5d88             REX.W movq rbx,[rbp-0x78]
0x8aec5403217  1e97  e982e2ffff           jmp 0x8aec540149e  <+0x11e>
0x8aec540321c  1e9c  48895d88             REX.W movq [rbp-0x78],rbx
0x8aec5403220  1ea0  48894d90             REX.W movq [rbp-0x70],rcx
0x8aec5403224  1ea4  488955d0             REX.W movq [rbp-0x30],rdx
0x8aec5403228  1ea8  4c895dc8             REX.W movq [rbp-0x38],r11
0x8aec540322c  1eac  e83f51ffff           call 0x8aec53f8370  (jump table)    ;; wasm stub: WasmStackGuard
0x8aec5403231  1eb1  4c8b65e0             REX.W movq r12,[rbp-0x20]
0x8aec5403235  1eb5  4c8b45d8             REX.W movq r8,[rbp-0x28]
0x8aec5403239  1eb9  488b75f0             REX.W movq rsi,[rbp-0x10]
0x8aec540323d  1ebd  488b55d0             REX.W movq rdx,[rbp-0x30]
0x8aec5403241  1ec1  4c8b5dc8             REX.W movq r11,[rbp-0x38]
0x8aec5403245  1ec5  488b4598             REX.W movq rax,[rbp-0x68]
0x8aec5403249  1ec9  4c8bbd58ffffff       REX.W movq r15,[rbp-0xa8]
0x8aec5403250  1ed0  488b5d88             REX.W movq rbx,[rbp-0x78]
0x8aec5403254  1ed4  488b4d90             REX.W movq rcx,[rbp-0x70]
0x8aec5403258  1ed8  e970e2ffff           jmp 0x8aec54014cd  <+0x14d>
0x8aec540325d  1edd  4c895d90             REX.W movq [rbp-0x70],r11
0x8aec5403261  1ee1  48895d88             REX.W movq [rbp-0x78],rbx
0x8aec5403265  1ee5  4c89bd78ffffff       REX.W movq [rbp-0x88],r15
0x8aec540326c  1eec  e8ff50ffff           call 0x8aec53f8370  (jump table)    ;; wasm stub: WasmStackGuard
0x8aec5403271  1ef1  488b7de0             REX.W movq rdi,[rbp-0x20]
0x8aec5403275  1ef5  4c8b45d8             REX.W movq r8,[rbp-0x28]
0x8aec5403279  1ef9  488b55b8             REX.W movq rdx,[rbp-0x48]
0x8aec540327d  1efd  4c8b6580             REX.W movq r12,[rbp-0x80]
0x8aec5403281  1f01  b801000000           movl rax,0x1
0x8aec5403286  1f06  4c8b5d90             REX.W movq r11,[rbp-0x70]
0x8aec540328a  1f0a  488b5d88             REX.W movq rbx,[rbp-0x78]
0x8aec540328e  1f0e  4c8bbd78ffffff       REX.W movq r15,[rbp-0x88]
0x8aec5403295  1f15  e935e4ffff           jmp 0x8aec54016cf  <+0x34f>
0x8aec540329a  1f1a  4c899d70ffffff       REX.W movq [rbp-0x90],r11
0x8aec54032a1  1f21  4c89bd78ffffff       REX.W movq [rbp-0x88],r15
0x8aec54032a8  1f28  e8c350ffff           call 0x8aec53f8370  (jump table)    ;; wasm stub: WasmStackGuard
0x8aec54032ad  1f2d  488b7de0             REX.W movq rdi,[rbp-0x20]
0x8aec54032b1  1f31  4c8b45d8             REX.W movq r8,[rbp-0x28]
0x8aec54032b5  1f35  488b5db8             REX.W movq rbx,[rbp-0x48]
0x8aec54032b9  1f39  488b4590             REX.W movq rax,[rbp-0x70]
0x8aec54032bd  1f3d  4c8b6588             REX.W movq r12,[rbp-0x78]
0x8aec54032c1  1f41  4c8b9d70ffffff       REX.W movq r11,[rbp-0x90]
0x8aec54032c8  1f48  4c8bbd78ffffff       REX.W movq r15,[rbp-0x88]
0x8aec54032cf  1f4f  e9bbe7ffff           jmp 0x8aec5401a8f  <+0x70f>
0x8aec54032d4  1f54  4c899d78ffffff       REX.W movq [rbp-0x88],r11
0x8aec54032db  1f5b  4c897d80             REX.W movq [rbp-0x80],r15
0x8aec54032df  1f5f  e88c50ffff           call 0x8aec53f8370  (jump table)    ;; wasm stub: WasmStackGuard
0x8aec54032e4  1f64  488b7de0             REX.W movq rdi,[rbp-0x20]
0x8aec54032e8  1f68  4c8b45d8             REX.W movq r8,[rbp-0x28]
0x8aec54032ec  1f6c  488b5db8             REX.W movq rbx,[rbp-0x48]
0x8aec54032f0  1f70  4c8b6588             REX.W movq r12,[rbp-0x78]
0x8aec54032f4  1f74  4c8b9d78ffffff       REX.W movq r11,[rbp-0x88]
0x8aec54032fb  1f7b  4c8b7d80             REX.W movq r15,[rbp-0x80]
0x8aec54032ff  1f7f  e91debffff           jmp 0x8aec5401e21  <+0xaa1>
0x8aec5403304  1f84  4c895d90             REX.W movq [rbp-0x70],r11
0x8aec5403308  1f88  4c896580             REX.W movq [rbp-0x80],r12
0x8aec540330c  1f8c  e85f50ffff           call 0x8aec53f8370  (jump table)    ;; wasm stub: WasmStackGuard
0x8aec5403311  1f91  488b7de0             REX.W movq rdi,[rbp-0x20]
0x8aec5403315  1f95  4c8b45d8             REX.W movq r8,[rbp-0x28]
0x8aec5403319  1f99  4c8b7db8             REX.W movq r15,[rbp-0x48]
0x8aec540331d  1f9d  488b8578ffffff       REX.W movq rax,[rbp-0x88]
0x8aec5403324  1fa4  4c8b5d90             REX.W movq r11,[rbp-0x70]
0x8aec5403328  1fa8  4c8b6580             REX.W movq r12,[rbp-0x80]
0x8aec540332c  1fac  e9f3ecffff           jmp 0x8aec5402024  <+0xca4>
0x8aec5403331  1fb1  4c895dd0             REX.W movq [rbp-0x30],r11
0x8aec5403335  1fb5  e83650ffff           call 0x8aec53f8370  (jump table)    ;; wasm stub: WasmStackGuard
0x8aec540333a  1fba  4c8b7dd8             REX.W movq r15,[rbp-0x28]
0x8aec540333e  1fbe  488b75f0             REX.W movq rsi,[rbp-0x10]
0x8aec5403342  1fc2  4c8b45c0             REX.W movq r8,[rbp-0x40]
0x8aec5403346  1fc6  488b7db8             REX.W movq rdi,[rbp-0x48]
0x8aec540334a  1fca  4c8b5dd0             REX.W movq r11,[rbp-0x30]
0x8aec540334e  1fce  488b45a8             REX.W movq rax,[rbp-0x58]
0x8aec5403352  1fd2  e986fbffff           jmp 0x8aec5402edd  <+0x1b5d>
0x8aec5403357  1fd7  4c895dd0             REX.W movq [rbp-0x30],r11
0x8aec540335b  1fdb  e81050ffff           call 0x8aec53f8370  (jump table)    ;; wasm stub: WasmStackGuard
0x8aec5403360  1fe0  4c8b65d8             REX.W movq r12,[rbp-0x28]
0x8aec5403364  1fe4  4c8b45c0             REX.W movq r8,[rbp-0x40]
0x8aec5403368  1fe8  4c8b5dd0             REX.W movq r11,[rbp-0x30]
0x8aec540336c  1fec  488b7db8             REX.W movq rdi,[rbp-0x48]
0x8aec5403370  1ff0  e994fcffff           jmp 0x8aec5403009  <+0x1c89>
0x8aec5403375  1ff5  e8964dffff           call 0x8aec53f8110  (jump table)    ;; wasm stub: ThrowWasmTrapMemOutOfBounds
0x8aec540337a  1ffa  e8914dffff           call 0x8aec53f8110  (jump table)    ;; wasm stub: ThrowWasmTrapMemOutOfBounds
0x8aec540337f  1fff  e88c4dffff           call 0x8aec53f8110  (jump table)    ;; wasm stub: ThrowWasmTrapMemOutOfBounds
0x8aec5403384  2004  e8874dffff           call 0x8aec53f8110  (jump table)    ;; wasm stub: ThrowWasmTrapMemOutOfBounds
0x8aec5403389  2009  e8824dffff           call 0x8aec53f8110  (jump table)    ;; wasm stub: ThrowWasmTrapMemOutOfBounds
0x8aec540338e  200e  e87d4dffff           call 0x8aec53f8110  (jump table)    ;; wasm stub: ThrowWasmTrapMemOutOfBounds
0x8aec5403393  2013  e8784dffff           call 0x8aec53f8110  (jump table)    ;; wasm stub: ThrowWasmTrapMemOutOfBounds
0x8aec5403398  2018  e8734dffff           call 0x8aec53f8110  (jump table)    ;; wasm stub: ThrowWasmTrapMemOutOfBounds
0x8aec540339d  201d  e86e4dffff           call 0x8aec53f8110  (jump table)    ;; wasm stub: ThrowWasmTrapMemOutOfBounds
0x8aec54033a2  2022  e8694dffff           call 0x8aec53f8110  (jump table)    ;; wasm stub: ThrowWasmTrapMemOutOfBounds
0x8aec54033a7  2027  e8644dffff           call 0x8aec53f8110  (jump table)    ;; wasm stub: ThrowWasmTrapMemOutOfBounds
0x8aec54033ac  202c  e85f4dffff           call 0x8aec53f8110  (jump table)    ;; wasm stub: ThrowWasmTrapMemOutOfBounds
0x8aec54033b1  2031  e85a4dffff           call 0x8aec53f8110  (jump table)    ;; wasm stub: ThrowWasmTrapMemOutOfBounds
0x8aec54033b6  2036  e8554dffff           call 0x8aec53f8110  (jump table)    ;; wasm stub: ThrowWasmTrapMemOutOfBounds
0x8aec54033bb  203b  e8504dffff           call 0x8aec53f8110  (jump table)    ;; wasm stub: ThrowWasmTrapMemOutOfBounds
0x8aec54033c0  2040  e84b4dffff           call 0x8aec53f8110  (jump table)    ;; wasm stub: ThrowWasmTrapMemOutOfBounds
0x8aec54033c5  2045  e8464dffff           call 0x8aec53f8110  (jump table)    ;; wasm stub: ThrowWasmTrapMemOutOfBounds
0x8aec54033ca  204a  e8414dffff           call 0x8aec53f8110  (jump table)    ;; wasm stub: ThrowWasmTrapMemOutOfBounds
0x8aec54033cf  204f  e83c4dffff           call 0x8aec53f8110  (jump table)    ;; wasm stub: ThrowWasmTrapMemOutOfBounds
0x8aec54033d4  2054  e8374dffff           call 0x8aec53f8110  (jump table)    ;; wasm stub: ThrowWasmTrapMemOutOfBounds
0x8aec54033d9  2059  e8324dffff           call 0x8aec53f8110  (jump table)    ;; wasm stub: ThrowWasmTrapMemOutOfBounds
0x8aec54033de  205e  e82d4dffff           call 0x8aec53f8110  (jump table)    ;; wasm stub: ThrowWasmTrapMemOutOfBounds
0x8aec54033e3  2063  e8284dffff           call 0x8aec53f8110  (jump table)    ;; wasm stub: ThrowWasmTrapMemOutOfBounds
0x8aec54033e8  2068  e8234dffff           call 0x8aec53f8110  (jump table)    ;; wasm stub: ThrowWasmTrapMemOutOfBounds
0x8aec54033ed  206d  e81e4dffff           call 0x8aec53f8110  (jump table)    ;; wasm stub: ThrowWasmTrapMemOutOfBounds
0x8aec54033f2  2072  e8194dffff           call 0x8aec53f8110  (jump table)    ;; wasm stub: ThrowWasmTrapMemOutOfBounds
0x8aec54033f7  2077  e8144dffff           call 0x8aec53f8110  (jump table)    ;; wasm stub: ThrowWasmTrapMemOutOfBounds
0x8aec54033fc  207c  e80f4dffff           call 0x8aec53f8110  (jump table)    ;; wasm stub: ThrowWasmTrapMemOutOfBounds
0x8aec5403401  2081  e80a4dffff           call 0x8aec53f8110  (jump table)    ;; wasm stub: ThrowWasmTrapMemOutOfBounds
0x8aec5403406  2086  e8054dffff           call 0x8aec53f8110  (jump table)    ;; wasm stub: ThrowWasmTrapMemOutOfBounds
0x8aec540340b  208b  e8004dffff           call 0x8aec53f8110  (jump table)    ;; wasm stub: ThrowWasmTrapMemOutOfBounds
0x8aec5403410  2090  e85b4dffff           call 0x8aec53f8170  (jump table)    ;; wasm stub: ThrowWasmTrapFuncSigMismatch
0x8aec5403415  2095  e8864dffff           call 0x8aec53f81a0  (jump table)    ;; wasm stub: ThrowWasmTrapTableOutOfBounds
0x8aec540341a  209a  e8f14cffff           call 0x8aec53f8110  (jump table)    ;; wasm stub: ThrowWasmTrapMemOutOfBounds
0x8aec540341f  209f  e8ec4cffff           call 0x8aec53f8110  (jump table)    ;; wasm stub: ThrowWasmTrapMemOutOfBounds
0x8aec5403424  20a4  e8e74cffff           call 0x8aec53f8110  (jump table)    ;; wasm stub: ThrowWasmTrapMemOutOfBounds
0x8aec5403429  20a9  e8e24cffff           call 0x8aec53f8110  (jump table)    ;; wasm stub: ThrowWasmTrapMemOutOfBounds
0x8aec540342e  20ae  e8dd4cffff           call 0x8aec53f8110  (jump table)    ;; wasm stub: ThrowWasmTrapMemOutOfBounds
0x8aec5403433  20b3  e8d84cffff           call 0x8aec53f8110  (jump table)    ;; wasm stub: ThrowWasmTrapMemOutOfBounds
0x8aec5403438  20b8  e8d34cffff           call 0x8aec53f8110  (jump table)    ;; wasm stub: ThrowWasmTrapMemOutOfBounds
0x8aec540343d  20bd  e8ce4cffff           call 0x8aec53f8110  (jump table)    ;; wasm stub: ThrowWasmTrapMemOutOfBounds
0x8aec5403442  20c2  e8c94cffff           call 0x8aec53f8110  (jump table)    ;; wasm stub: ThrowWasmTrapMemOutOfBounds
0x8aec5403447  20c7  e8c44cffff           call 0x8aec53f8110  (jump table)    ;; wasm stub: ThrowWasmTrapMemOutOfBounds
0x8aec540344c  20cc  e8bf4cffff           call 0x8aec53f8110  (jump table)    ;; wasm stub: ThrowWasmTrapMemOutOfBounds
0x8aec5403451  20d1  e8ba4cffff           call 0x8aec53f8110  (jump table)    ;; wasm stub: ThrowWasmTrapMemOutOfBounds
0x8aec5403456  20d6  e8b54cffff           call 0x8aec53f8110  (jump table)    ;; wasm stub: ThrowWasmTrapMemOutOfBounds
0x8aec540345b  20db  e8b04cffff           call 0x8aec53f8110  (jump table)    ;; wasm stub: ThrowWasmTrapMemOutOfBounds
0x8aec5403460  20e0  e8ab4cffff           call 0x8aec53f8110  (jump table)    ;; wasm stub: ThrowWasmTrapMemOutOfBounds
0x8aec5403465  20e5  e8a64cffff           call 0x8aec53f8110  (jump table)    ;; wasm stub: ThrowWasmTrapMemOutOfBounds
0x8aec540346a  20ea  e8a14cffff           call 0x8aec53f8110  (jump table)    ;; wasm stub: ThrowWasmTrapMemOutOfBounds
0x8aec540346f  20ef  e89c4cffff           call 0x8aec53f8110  (jump table)    ;; wasm stub: ThrowWasmTrapMemOutOfBounds
0x8aec5403474  20f4  e8974cffff           call 0x8aec53f8110  (jump table)    ;; wasm stub: ThrowWasmTrapMemOutOfBounds
0x8aec5403479  20f9  e8924cffff           call 0x8aec53f8110  (jump table)    ;; wasm stub: ThrowWasmTrapMemOutOfBounds
0x8aec540347e  20fe  e88d4cffff           call 0x8aec53f8110  (jump table)    ;; wasm stub: ThrowWasmTrapMemOutOfBounds
0x8aec5403483  2103  e8884cffff           call 0x8aec53f8110  (jump table)    ;; wasm stub: ThrowWasmTrapMemOutOfBounds
0x8aec5403488  2108  e8834cffff           call 0x8aec53f8110  (jump table)    ;; wasm stub: ThrowWasmTrapMemOutOfBounds
0x8aec540348d  210d  e87e4cffff           call 0x8aec53f8110  (jump table)    ;; wasm stub: ThrowWasmTrapMemOutOfBounds
0x8aec5403492  2112  e8794cffff           call 0x8aec53f8110  (jump table)    ;; wasm stub: ThrowWasmTrapMemOutOfBounds
0x8aec5403497  2117  e8744cffff           call 0x8aec53f8110  (jump table)    ;; wasm stub: ThrowWasmTrapMemOutOfBounds
0x8aec540349c  211c  e86f4cffff           call 0x8aec53f8110  (jump table)    ;; wasm stub: ThrowWasmTrapMemOutOfBounds
0x8aec54034a1  2121  e86a4cffff           call 0x8aec53f8110  (jump table)    ;; wasm stub: ThrowWasmTrapMemOutOfBounds
0x8aec54034a6  2126  e8654cffff           call 0x8aec53f8110  (jump table)    ;; wasm stub: ThrowWasmTrapMemOutOfBounds
0x8aec54034ab  212b  e8604cffff           call 0x8aec53f8110  (jump table)    ;; wasm stub: ThrowWasmTrapMemOutOfBounds
0x8aec54034b0  2130  e85b4cffff           call 0x8aec53f8110  (jump table)    ;; wasm stub: ThrowWasmTrapMemOutOfBounds
0x8aec54034b5  2135  e8564cffff           call 0x8aec53f8110  (jump table)    ;; wasm stub: ThrowWasmTrapMemOutOfBounds
0x8aec54034ba  213a  e8514cffff           call 0x8aec53f8110  (jump table)    ;; wasm stub: ThrowWasmTrapMemOutOfBounds
0x8aec54034bf  213f  e84c4cffff           call 0x8aec53f8110  (jump table)    ;; wasm stub: ThrowWasmTrapMemOutOfBounds
0x8aec54034c4  2144  e8474cffff           call 0x8aec53f8110  (jump table)    ;; wasm stub: ThrowWasmTrapMemOutOfBounds
0x8aec54034c9  2149  e8424cffff           call 0x8aec53f8110  (jump table)    ;; wasm stub: ThrowWasmTrapMemOutOfBounds
0x8aec54034ce  214e  e83d4cffff           call 0x8aec53f8110  (jump table)    ;; wasm stub: ThrowWasmTrapMemOutOfBounds
0x8aec54034d3  2153  e8384cffff           call 0x8aec53f8110  (jump table)    ;; wasm stub: ThrowWasmTrapMemOutOfBounds
0x8aec54034d8  2158  e8334cffff           call 0x8aec53f8110  (jump table)    ;; wasm stub: ThrowWasmTrapMemOutOfBounds
0x8aec54034dd  215d  e82e4cffff           call 0x8aec53f8110  (jump table)    ;; wasm stub: ThrowWasmTrapMemOutOfBounds
0x8aec54034e2  2162  e8294cffff           call 0x8aec53f8110  (jump table)    ;; wasm stub: ThrowWasmTrapMemOutOfBounds
0x8aec54034e7  2167  e8244cffff           call 0x8aec53f8110  (jump table)    ;; wasm stub: ThrowWasmTrapMemOutOfBounds
0x8aec54034ec  216c  e81f4cffff           call 0x8aec53f8110  (jump table)    ;; wasm stub: ThrowWasmTrapMemOutOfBounds
0x8aec54034f1  2171  e81a4cffff           call 0x8aec53f8110  (jump table)    ;; wasm stub: ThrowWasmTrapMemOutOfBounds
0x8aec54034f6  2176  e8154cffff           call 0x8aec53f8110  (jump table)    ;; wasm stub: ThrowWasmTrapMemOutOfBounds
0x8aec54034fb  217b  e8104cffff           call 0x8aec53f8110  (jump table)    ;; wasm stub: ThrowWasmTrapMemOutOfBounds
0x8aec5403500  2180  e80b4cffff           call 0x8aec53f8110  (jump table)    ;; wasm stub: ThrowWasmTrapMemOutOfBounds
0x8aec5403505  2185  e8064cffff           call 0x8aec53f8110  (jump table)    ;; wasm stub: ThrowWasmTrapMemOutOfBounds
0x8aec540350a  218a  e8014cffff           call 0x8aec53f8110  (jump table)    ;; wasm stub: ThrowWasmTrapMemOutOfBounds
0x8aec540350f  218f  e8fc4bffff           call 0x8aec53f8110  (jump table)    ;; wasm stub: ThrowWasmTrapMemOutOfBounds
0x8aec5403514  2194  e8f74bffff           call 0x8aec53f8110  (jump table)    ;; wasm stub: ThrowWasmTrapMemOutOfBounds
0x8aec5403519  2199  e8f24bffff           call 0x8aec53f8110  (jump table)    ;; wasm stub: ThrowWasmTrapMemOutOfBounds
0x8aec540351e  219e  e8ed4bffff           call 0x8aec53f8110  (jump table)    ;; wasm stub: ThrowWasmTrapMemOutOfBounds
0x8aec5403523  21a3  e8e84bffff           call 0x8aec53f8110  (jump table)    ;; wasm stub: ThrowWasmTrapMemOutOfBounds
0x8aec5403528  21a8  e8e34bffff           call 0x8aec53f8110  (jump table)    ;; wasm stub: ThrowWasmTrapMemOutOfBounds
0x8aec540352d  21ad  e8de4bffff           call 0x8aec53f8110  (jump table)    ;; wasm stub: ThrowWasmTrapMemOutOfBounds
0x8aec5403532  21b2  e8d94bffff           call 0x8aec53f8110  (jump table)    ;; wasm stub: ThrowWasmTrapMemOutOfBounds
0x8aec5403537  21b7  e8d44bffff           call 0x8aec53f8110  (jump table)    ;; wasm stub: ThrowWasmTrapMemOutOfBounds
0x8aec540353c  21bc  e8cf4bffff           call 0x8aec53f8110  (jump table)    ;; wasm stub: ThrowWasmTrapMemOutOfBounds
0x8aec5403541  21c1  e8ca4bffff           call 0x8aec53f8110  (jump table)    ;; wasm stub: ThrowWasmTrapMemOutOfBounds
0x8aec5403546  21c6  e8c54bffff           call 0x8aec53f8110  (jump table)    ;; wasm stub: ThrowWasmTrapMemOutOfBounds
0x8aec540354b  21cb  e8c04bffff           call 0x8aec53f8110  (jump table)    ;; wasm stub: ThrowWasmTrapMemOutOfBounds
0x8aec5403550  21d0  e8bb4bffff           call 0x8aec53f8110  (jump table)    ;; wasm stub: ThrowWasmTrapMemOutOfBounds
0x8aec5403555  21d5  e8b64bffff           call 0x8aec53f8110  (jump table)    ;; wasm stub: ThrowWasmTrapMemOutOfBounds
0x8aec540355a  21da  e8b14bffff           call 0x8aec53f8110  (jump table)    ;; wasm stub: ThrowWasmTrapMemOutOfBounds
0x8aec540355f  21df  e8ac4bffff           call 0x8aec53f8110  (jump table)    ;; wasm stub: ThrowWasmTrapMemOutOfBounds
0x8aec5403564  21e4  e8a74bffff           call 0x8aec53f8110  (jump table)    ;; wasm stub: ThrowWasmTrapMemOutOfBounds
0x8aec5403569  21e9  e8a24bffff           call 0x8aec53f8110  (jump table)    ;; wasm stub: ThrowWasmTrapMemOutOfBounds
0x8aec540356e  21ee  e89d4bffff           call 0x8aec53f8110  (jump table)    ;; wasm stub: ThrowWasmTrapMemOutOfBounds
0x8aec5403573  21f3  e8984bffff           call 0x8aec53f8110  (jump table)    ;; wasm stub: ThrowWasmTrapMemOutOfBounds
0x8aec5403578  21f8  e8934bffff           call 0x8aec53f8110  (jump table)    ;; wasm stub: ThrowWasmTrapMemOutOfBounds
0x8aec540357d  21fd  e88e4bffff           call 0x8aec53f8110  (jump table)    ;; wasm stub: ThrowWasmTrapMemOutOfBounds
0x8aec5403582  2202  e8894bffff           call 0x8aec53f8110  (jump table)    ;; wasm stub: ThrowWasmTrapMemOutOfBounds
0x8aec5403587  2207  e8844bffff           call 0x8aec53f8110  (jump table)    ;; wasm stub: ThrowWasmTrapMemOutOfBounds
0x8aec540358c  220c  e87f4bffff           call 0x8aec53f8110  (jump table)    ;; wasm stub: ThrowWasmTrapMemOutOfBounds
0x8aec5403591  2211  e87a4bffff           call 0x8aec53f8110  (jump table)    ;; wasm stub: ThrowWasmTrapMemOutOfBounds
0x8aec5403596  2216  e8754bffff           call 0x8aec53f8110  (jump table)    ;; wasm stub: ThrowWasmTrapMemOutOfBounds
0x8aec540359b  221b  e8704bffff           call 0x8aec53f8110  (jump table)    ;; wasm stub: ThrowWasmTrapMemOutOfBounds
0x8aec54035a0  2220  e86b4bffff           call 0x8aec53f8110  (jump table)    ;; wasm stub: ThrowWasmTrapMemOutOfBounds
0x8aec54035a5  2225  e8664bffff           call 0x8aec53f8110  (jump table)    ;; wasm stub: ThrowWasmTrapMemOutOfBounds
0x8aec54035aa  222a  e8614bffff           call 0x8aec53f8110  (jump table)    ;; wasm stub: ThrowWasmTrapMemOutOfBounds
0x8aec54035af  222f  e85c4bffff           call 0x8aec53f8110  (jump table)    ;; wasm stub: ThrowWasmTrapMemOutOfBounds
0x8aec54035b4  2234  e8574bffff           call 0x8aec53f8110  (jump table)    ;; wasm stub: ThrowWasmTrapMemOutOfBounds
0x8aec54035b9  2239  e8524bffff           call 0x8aec53f8110  (jump table)    ;; wasm stub: ThrowWasmTrapMemOutOfBounds
0x8aec54035be  223e  e84d4bffff           call 0x8aec53f8110  (jump table)    ;; wasm stub: ThrowWasmTrapMemOutOfBounds
0x8aec54035c3  2243  e8484bffff           call 0x8aec53f8110  (jump table)    ;; wasm stub: ThrowWasmTrapMemOutOfBounds
0x8aec54035c8  2248  e8434bffff           call 0x8aec53f8110  (jump table)    ;; wasm stub: ThrowWasmTrapMemOutOfBounds
0x8aec54035cd  224d  e83e4bffff           call 0x8aec53f8110  (jump table)    ;; wasm stub: ThrowWasmTrapMemOutOfBounds
0x8aec54035d2  2252  e8394bffff           call 0x8aec53f8110  (jump table)    ;; wasm stub: ThrowWasmTrapMemOutOfBounds
0x8aec54035d7  2257  e8344bffff           call 0x8aec53f8110  (jump table)    ;; wasm stub: ThrowWasmTrapMemOutOfBounds
0x8aec54035dc  225c  e82f4bffff           call 0x8aec53f8110  (jump table)    ;; wasm stub: ThrowWasmTrapMemOutOfBounds
0x8aec54035e1  2261  e82a4bffff           call 0x8aec53f8110  (jump table)    ;; wasm stub: ThrowWasmTrapMemOutOfBounds
0x8aec54035e6  2266  e8254bffff           call 0x8aec53f8110  (jump table)    ;; wasm stub: ThrowWasmTrapMemOutOfBounds
0x8aec54035eb  226b  e8204bffff           call 0x8aec53f8110  (jump table)    ;; wasm stub: ThrowWasmTrapMemOutOfBounds
0x8aec54035f0  2270  e81b4bffff           call 0x8aec53f8110  (jump table)    ;; wasm stub: ThrowWasmTrapMemOutOfBounds
0x8aec54035f5  2275  90                   nop
0x8aec54035f6  2276  6690                 nop
0x8aec54035f8  2278  8aec5402700       jump table entry 4992    ;; internal reference
0x8aec5403600  2280  8aec5402730       jump table entry 5040    ;; internal reference
0x8aec5403608  2288  8aec5402760       jump table entry 5088    ;; internal reference
0x8aec5403610  2290  8aec5402790       jump table entry 5136    ;; internal reference
0x8aec5403618  2298  8aec54027c0       jump table entry 5184    ;; internal reference
0x8aec5403620  22a0  8aec54027f0       jump table entry 5232    ;; internal reference
0x8aec5403628  22a8  8aec5402810       jump table entry 5264    ;; internal reference
0x8aec5403630  22b0  8aec5402840       jump table entry 5312    ;; internal reference
0x8aec5403638  22b8  8aec5402420       jump table entry 4256    ;; internal reference
0x8aec5403640  22c0  8aec5401d70       jump table entry 2544    ;; internal reference
0x8aec5403648  22c8  8aec5401db0       jump table entry 2608    ;; internal reference
0x8aec5403650  22d0  8aec5402130       jump table entry 3504    ;; internal reference
0x8aec5403658  22d8  8aec5402420       jump table entry 4256    ;; internal reference
0x8aec5403660  22e0  8aec5402420       jump table entry 4256    ;; internal reference
0x8aec5403668  22e8  8aec5402420       jump table entry 4256    ;; internal reference
0x8aec5403670  22f0  8aec5402170       jump table entry 3568    ;; internal reference
0x8aec5403678  22f8  8aec54021a0       jump table entry 3616    ;; internal reference
0x8aec5403680  2300  8aec54021e0       jump table entry 3680    ;; internal reference
0x8aec5403688  2308  8aec5402220       jump table entry 3744    ;; internal reference
0x8aec5403690  2310  8aec5402260       jump table entry 3808    ;; internal reference
0x8aec5403698  2318  8aec54022a0       jump table entry 3872    ;; internal reference
0x8aec54036a0  2320  8aec54022e0       jump table entry 3936    ;; internal reference
0x8aec54036a8  2328  8aec5402320       jump table entry 4000    ;; internal reference
0x8aec54036b0  2330  8aec5402360       jump table entry 4064    ;; internal reference
0x8aec54036b8  2338  8aec5402420       jump table entry 4256    ;; internal reference
0x8aec54036c0  2340  8aec54023a0       jump table entry 4128    ;; internal reference
0x8aec54036c8  2348  8aec54023e0       jump table entry 4192    ;; internal reference
0x8aec54036d0  2350  8aec5402530       jump table entry 4528    ;; internal reference
0x8aec54036d8  2358  8aec5402420       jump table entry 4256    ;; internal reference
0x8aec54036e0  2360  8aec5402420       jump table entry 4256    ;; internal reference
0x8aec54036e8  2368  8aec5402420       jump table entry 4256    ;; internal reference
0x8aec54036f0  2370  8aec54024f0       jump table entry 4464    ;; internal reference
0x8aec54036f8  2378  8aec5402530       jump table entry 4528    ;; internal reference
0x8aec5403700  2380  8aec54025b0       jump table entry 4656    ;; internal reference
0x8aec5403708  2388  8aec54025f0       jump table entry 4720    ;; internal reference
0x8aec5403710  2390  8aec5402630       jump table entry 4784    ;; internal reference
0x8aec5403718  2398  8aec5402670       jump table entry 4848    ;; internal reference
0x8aec5403720  23a0  8aec54026b0       jump table entry 4912    ;; internal reference
0x8aec5403728  23a8  8aec5402870       jump table entry 5360    ;; internal reference
0x8aec5403730  23b0  8aec54028f0       jump table entry 5488    ;; internal reference
0x8aec5403738  23b8  8aec5402940       jump table entry 5568    ;; internal reference
0x8aec5403740  23c0  8aec5402980       jump table entry 5632    ;; internal reference
0x8aec5403748  23c8  8aec54029c0       jump table entry 5696    ;; internal reference
0x8aec5403750  23d0  8aec5402a80       jump table entry 5888    ;; internal reference
0x8aec5403758  23d8  8aec5402ac0       jump table entry 5952    ;; internal reference
0x8aec5403760  23e0  8aec5402b30       jump table entry 6064    ;; internal reference
0x8aec5403768  23e8  8aec5402b70       jump table entry 6128    ;; internal reference
0x8aec5403770  23f0  8aec5402bb0       jump table entry 6192    ;; internal reference

Protected instructions:
 pc offset  land pad
      1de5      1ff5
      1ced      1ffa
      1ccd      1fff
      1cad      2004
      1c8d      2009
      1bec      200e
      1ba4      2013
      1b61      2018
      18ff      201d
      188a      2022
      1856      2027
      1740      202c
      1691      2031
      1640      2036
      1515      203b
      14c8      2040
      14c0      2045
      1495      204a
      1490      204f
      1445      2054
      1440      2059
      1415      205e
      1410      2063
      13e8      2068
      13e3      206d
      13b5      2072
      13b0      2077
      1385      207c
      1380      2081
      1219      2086
      11b0      208b
      10d6      209a
      1077      209f
      1072      20a4
       ca4      20a9
       c51      20ae
       b7f      20b3
       b13      20b8
       aa1      20bd
       a47      20c2
       a3e      20c7
       a39      20cc
       a30      20d1
       9d9      20d6
       8de      20db
       8c7      20e0
       8c3      20e5
       8bf      20ea
       88e      20ef
       7ea      20f4
       7e2      20f9
       7d9      20fe
       7c4      2103
       7ae      2108
       7a6      210d
       79e      2112
       787      2117
       772      211c
       76b      2121
       762      2126
       74b      212b
       735      2130
       72d      2135
       724      213a
       70f      213f
       6a3      2144
       694      2149
       690      214e
       68c      2153
       683      2158
       653      215d
       641      2162
       639      2167
       627      216c
       613      2171
       60e      2176
       5ee      217b
       5de      2180
       5c5      2185
       5b1      218a
       597      218f
       570      2194
       562      2199
       55e      219e
       55a      21a3
       551      21a8
       515      21ad
       503      21b2
       4fb      21b7
       4e9      21bc
       4d9      21c1
       4d4      21c6
       4b4      21cb
       4a3      21d0
       3ec      21d5
       3e7      21da
       3b9      21df
       3b4      21e4
       388      21e9
       383      21ee
       358      21f3
       353      21f8
       2ec      21fd
       2e7      2202
       2a8      2207
       298      220c
       28a      2211
       274      2216
       26f      221b
       1e2      2220
       1dd      2225
       1c8      222a
       1b9      222f
       1b4      2234
       19f      2239
       190      223e
       18b      2243
       176      2248
       167      224d
       162      2252
       14d      2257
       108      225c
       103      2261
        aa      2266
        a5      226b
        41      2270

Source positions:
 pc offset  position
        41        51
        a5       105
        aa       122
       103      2030
       108      2035
       14d       168
       162       185
       167       197
       176       168
       18b       185
       190       197
       19f       168
       1b4       185
       1b9       197
       1c8       168
       1dd       185
       1e2       197
       22a       246
       26c       266
       274       269
       27a       272
       282       278
       298       292
       2a8       302
       2e7       328
       2ec       339
       353       391
       358       403
       383       391
       388       403
       3b4       391
       3b9       403
       3e7       391
       3ec       403
       489       615
       49b       626
       4b4       455
       4ba       458
       4cc       465
       4d9       470
       4e9       480
       4fb       495
       503       500
       515       513
       551       550
       55a       558
       55e       563
       562       571
       570       580
       597       646
       5b1       657
       5c5       810
       5cd       819
       5d6       825
       5ee       673
       5f4       676
       606       683
       613       688
       627       698
       639       713
       641       718
       653       731
       683       756
       68c       764
       690       769
       694       780
       6a3       789
       70f       847
       724       868
       72d       873
       735       890
       74b       847
       762       868
       76b       873
       772       890
       787       847
       79e       868
       7a6       873
       7ae       890
       7c4       847
       7d9       868
       7e2       873
       7ea       890
       86f       976
       886       980
       8bf       938
       8c3       951
       8c7       954
       8de      1077
       9b4      1692
       9d9      1672
       a30      1701
       a39      1708
       a3e      1711
       a47      1721
       aa1      1746
       aae      1763
       b0f      1746
       b24      1763
       b7b      1746
       b90      1763
       c20      1833
       c49      1853
       ca4      1862
       cb1      1877
       ce1      1900
       d67      1933
      1072      2000
      1077      2003
      10d6      1970
      111f      1983
      11b0      1435
      1219      1454
      1380      1225
      1385      1230
      13b0      1238
      13b5      1243
      13e3      1251
      13e8      1257
      1410      1265
      1415      1270
      1440      1278
      1445      1283
      1490      1291
      1495      1296
      14c0      1304
      14c8      1310
      1515      1393
      151a      1398
      1640      1594
      1662      1621
      168d      1658
      1740      1176
      1771      1506
      1856      1343
      1861      1353
      1882      1359
      18fb      1541
      1a00      2230
      1a22      2238
      1a48      2255
      1a62      2267
      1a85      2275
      1aab      2292
      1b61      2072
      1b76      2093
      1ba0      2072
      1bbd      2093
      1be8      2072
      1c01      2093
      1c8d      2136
      1dce      2310
      1ddd      2314
      1e07         0
      1e31        80
      1e5f       129
      1e9c       164
      1edd       380
      1f1a       835
      1f54      1742
      1f84      1858
      1fb1      2062
      1fd7      2126
      1ff5      2314
      1ffa      2136
      200e      2072
      201d      1541
      2022      1359
      2027      1343
      202c      1176
      2031      1658
      2036      1594
      203b      1393
      2040      1310
      2045      1304
      204a      1296
      204f      1291
      2054      1283
      2059      1278
      205e      1270
      2063      1265
      2068      1257
      206d      1251
      2072      1243
      2077      1238
      207c      1230
      2081      1225
      2086      1454
      208b      1435
      2090      1983
      209a      1970
      209f      2003
      20a4      2000
      20a9      1862
      20ae      1853
      20b3      1746
      20c2      1721
      20c7      1711
      20cc      1708
      20d1      1701
      20d6      1672
      20db      1077
      20e0       954
      20e5       951
      20ea       938
      20ef       980
      20f4       890
      20f9       873
      20fe       868
      2103       847
      2108       890
      210d       873
      2112       868
      2117       847
      211c       890
      2121       873
      2126       868
      212b       847
      2130       890
      2135       873
      213a       868
      213f       847
      2144       789
      2149       780
      214e       769
      2153       764
      2158       756
      215d       731
      2162       718
      2167       713
      216c       698
      2171       688
      2176       683
      217b       673
      2180       825
      2185       810
      218a       657
      218f       646
      2194       580
      2199       571
      219e       563
      21a3       558
      21a8       550
      21ad       513
      21b2       500
      21b7       495
      21bc       480
      21c1       470
      21c6       465
      21cb       455
      21d0       626
      21d5       403
      21da       391
      21df       403
      21e4       391
      21e9       403
      21ee       391
      21f3       403
      21f8       391
      21fd       339
      2202       328
      2207       302
      220c       292
      2211       278
      2216       269
      221b       266
      2220       197
      2225       185
      222a       168
      222f       197
      2234       185
      2239       168
      223e       197
      2243       185
      2248       168
      224d       197
      2252       185
      2257       168
      225c      2035
      2261      2030
      2266       122
      226b       105
      2270        51

Safepoints (entries = 1, byte size = 14)
0x8aec54015b5    235  slots (sp->fp): 00000000000000000000000000000000

RelocInfo (size = 338)
0x8aec54015b1  internal wasm call
0x8aec54015fe  internal wasm call
0x8aec540180e  internal wasm call
0x8aec540183f  internal wasm call
0x8aec5401952  internal wasm call
0x8aec5401979  internal wasm call
0x8aec5401c02  internal wasm call
0x8aec5401d4e  internal wasm call
0x8aec5401e41  internal wasm call
0x8aec5401ead  internal wasm call
0x8aec5401f19  internal wasm call
0x8aec5401fb8  internal wasm call
0x8aec5402042  internal wasm call
0x8aec5402071  internal wasm call
0x8aec5402107  internal wasm call
0x8aec54028ad  internal wasm call
0x8aec54029f4  internal wasm call
0x8aec5402b0e  internal wasm call
0x8aec5402bfe  internal wasm call
0x8aec5402d9e  internal wasm call
0x8aec5402db9  internal wasm call
0x8aec5402dde  internal wasm call
0x8aec5402e01  internal wasm call
0x8aec5402e1c  internal wasm call
0x8aec5402e41  internal wasm call
0x8aec5402f06  internal wasm call
0x8aec5402f4e  internal wasm call
0x8aec5402f8e  internal wasm call
0x8aec5403157  internal wasm call
0x8aec540318c  wasm stub call
0x8aec54031ba  wasm stub call
0x8aec54031ec  wasm stub call
0x8aec540322d  wasm stub call
0x8aec540326d  wasm stub call
0x8aec54032a9  wasm stub call
0x8aec54032e0  wasm stub call
0x8aec540330d  wasm stub call
0x8aec5403336  wasm stub call
0x8aec540335c  wasm stub call
0x8aec5403376  wasm stub call
0x8aec540337b  wasm stub call
0x8aec5403380  wasm stub call
0x8aec5403385  wasm stub call
0x8aec540338a  wasm stub call
0x8aec540338f  wasm stub call
0x8aec5403394  wasm stub call
0x8aec5403399  wasm stub call
0x8aec540339e  wasm stub call
0x8aec54033a3  wasm stub call
0x8aec54033a8  wasm stub call
0x8aec54033ad  wasm stub call
0x8aec54033b2  wasm stub call
0x8aec54033b7  wasm stub call
0x8aec54033bc  wasm stub call
0x8aec54033c1  wasm stub call
0x8aec54033c6  wasm stub call
0x8aec54033cb  wasm stub call
0x8aec54033d0  wasm stub call
0x8aec54033d5  wasm stub call
0x8aec54033da  wasm stub call
0x8aec54033df  wasm stub call
0x8aec54033e4  wasm stub call
0x8aec54033e9  wasm stub call
0x8aec54033ee  wasm stub call
0x8aec54033f3  wasm stub call
0x8aec54033f8  wasm stub call
0x8aec54033fd  wasm stub call
0x8aec5403402  wasm stub call
0x8aec5403407  wasm stub call
0x8aec540340c  wasm stub call
0x8aec5403411  wasm stub call
0x8aec5403416  wasm stub call
0x8aec540341b  wasm stub call
0x8aec5403420  wasm stub call
0x8aec5403425  wasm stub call
0x8aec540342a  wasm stub call
0x8aec540342f  wasm stub call
0x8aec5403434  wasm stub call
0x8aec5403439  wasm stub call
0x8aec540343e  wasm stub call
0x8aec5403443  wasm stub call
0x8aec5403448  wasm stub call
0x8aec540344d  wasm stub call
0x8aec5403452  wasm stub call
0x8aec5403457  wasm stub call
0x8aec540345c  wasm stub call
0x8aec5403461  wasm stub call
0x8aec5403466  wasm stub call
0x8aec540346b  wasm stub call
0x8aec5403470  wasm stub call
0x8aec5403475  wasm stub call
0x8aec540347a  wasm stub call
0x8aec540347f  wasm stub call
0x8aec5403484  wasm stub call
0x8aec5403489  wasm stub call
0x8aec540348e  wasm stub call
0x8aec5403493  wasm stub call
0x8aec5403498  wasm stub call
0x8aec540349d  wasm stub call
0x8aec54034a2  wasm stub call
0x8aec54034a7  wasm stub call
0x8aec54034ac  wasm stub call
0x8aec54034b1  wasm stub call
0x8aec54034b6  wasm stub call
0x8aec54034bb  wasm stub call
0x8aec54034c0  wasm stub call
0x8aec54034c5  wasm stub call
0x8aec54034ca  wasm stub call
0x8aec54034cf  wasm stub call
0x8aec54034d4  wasm stub call
0x8aec54034d9  wasm stub call
0x8aec54034de  wasm stub call
0x8aec54034e3  wasm stub call
0x8aec54034e8  wasm stub call
0x8aec54034ed  wasm stub call
0x8aec54034f2  wasm stub call
0x8aec54034f7  wasm stub call
0x8aec54034fc  wasm stub call
0x8aec5403501  wasm stub call
0x8aec5403506  wasm stub call
0x8aec540350b  wasm stub call
0x8aec5403510  wasm stub call
0x8aec5403515  wasm stub call
0x8aec540351a  wasm stub call
0x8aec540351f  wasm stub call
0x8aec5403524  wasm stub call
0x8aec5403529  wasm stub call
0x8aec540352e  wasm stub call
0x8aec5403533  wasm stub call
0x8aec5403538  wasm stub call
0x8aec540353d  wasm stub call
0x8aec5403542  wasm stub call
0x8aec5403547  wasm stub call
0x8aec540354c  wasm stub call
0x8aec5403551  wasm stub call
0x8aec5403556  wasm stub call
0x8aec540355b  wasm stub call
0x8aec5403560  wasm stub call
0x8aec5403565  wasm stub call
0x8aec540356a  wasm stub call
0x8aec540356f  wasm stub call
0x8aec5403574  wasm stub call
0x8aec5403579  wasm stub call
0x8aec540357e  wasm stub call
0x8aec5403583  wasm stub call
0x8aec5403588  wasm stub call
0x8aec540358d  wasm stub call
0x8aec5403592  wasm stub call
0x8aec5403597  wasm stub call
0x8aec540359c  wasm stub call
0x8aec54035a1  wasm stub call
0x8aec54035a6  wasm stub call
0x8aec54035ab  wasm stub call
0x8aec54035b0  wasm stub call
0x8aec54035b5  wasm stub call
0x8aec54035ba  wasm stub call
0x8aec54035bf  wasm stub call
0x8aec54035c4  wasm stub call
0x8aec54035c9  wasm stub call
0x8aec54035ce  wasm stub call
0x8aec54035d3  wasm stub call
0x8aec54035d8  wasm stub call
0x8aec54035dd  wasm stub call
0x8aec54035e2  wasm stub call
0x8aec54035e7  wasm stub call
0x8aec54035ec  wasm stub call
0x8aec54035f1  wasm stub call
0x8aec54035f8  internal reference
0x8aec5403600  internal reference
0x8aec5403608  internal reference
0x8aec5403610  internal reference
0x8aec5403618  internal reference
0x8aec5403620  internal reference
0x8aec5403628  internal reference
0x8aec5403630  internal reference
0x8aec5403638  internal reference
0x8aec5403640  internal reference
0x8aec5403648  internal reference
0x8aec5403650  internal reference
0x8aec5403658  internal reference
0x8aec5403660  internal reference
0x8aec5403668  internal reference
0x8aec5403670  internal reference
0x8aec5403678  internal reference
0x8aec5403680  internal reference
0x8aec5403688  internal reference
0x8aec5403690  internal reference
0x8aec5403698  internal reference
0x8aec54036a0  internal reference
0x8aec54036a8  internal reference
0x8aec54036b0  internal reference
0x8aec54036b8  internal reference
0x8aec54036c0  internal reference
0x8aec54036c8  internal reference
0x8aec54036d0  internal reference
0x8aec54036d8  internal reference
0x8aec54036e0  internal reference
0x8aec54036e8  internal reference
0x8aec54036f0  internal reference
0x8aec54036f8  internal reference
0x8aec5403700  internal reference
0x8aec5403708  internal reference
0x8aec5403710  internal reference
0x8aec5403718  internal reference
0x8aec5403720  internal reference
0x8aec5403728  internal reference
0x8aec5403730  internal reference
0x8aec5403738  internal reference
0x8aec5403740  internal reference
0x8aec5403748  internal reference
0x8aec5403750  internal reference
0x8aec5403758  internal reference
0x8aec5403760  internal reference
0x8aec5403768  internal reference
0x8aec5403770  internal reference

--- End code ---
--- WebAssembly code ---
name: __wasm_call_ctors
index: 4
kind: wasm function
compiler: TurboFan
Body (size = 64 = 56 + 8 padding)
Instructions (size = 44)
0x8aec5404980     0  55                   push rbp
0x8aec5404981     1  4889e5               REX.W movq rbp,rsp
0x8aec5404984     4  6a08                 push 0x8
0x8aec5404986     6  56                   push rsi
0x8aec5404987     7  488b4627             REX.W movq rax,[rsi+0x27]
0x8aec540498b     b  483b20               REX.W cmpq rsp,[rax]
0x8aec540498e     e  0f860a000000         jna 0x8aec540499e  <+0x1e>
0x8aec5404994    14  e80a37ffff           call 0x8aec53f80a3  (jump table)    ;; internal wasm call
0x8aec5404999    19  488be5               REX.W movq rsp,rbp
0x8aec540499c    1c  5d                   pop rbp
0x8aec540499d    1d  c3                   retl
0x8aec540499e    1e  e8cd39ffff           call 0x8aec53f8370  (jump table)    ;; wasm stub: WasmStackGuard
0x8aec54049a3    23  488b75f0             REX.W movq rsi,[rbp-0x10]
0x8aec54049a7    27  ebeb                 jmp 0x8aec5404994  <+0x14>
0x8aec54049a9    29  90                   nop
0x8aec54049aa    2a  6690                 nop

Source positions:
 pc offset  position
        14         1
        1e         0

Safepoints (entries = 1, byte size = 10)
0x8aec5404999     19  slots (sp->fp): 00000000

RelocInfo (size = 3)
0x8aec5404995  internal wasm call
0x8aec540499f  wasm stub call

--- End code ---
--- WebAssembly code ---
name: __errno_location
index: 18
kind: wasm function
compiler: TurboFan
Body (size = 64 = 28 + 36 padding)
Instructions (size = 20)
0x8aec54049c0     0  55                   push rbp
0x8aec54049c1     1  4889e5               REX.W movq rbp,rsp
0x8aec54049c4     4  6a08                 push 0x8
0x8aec54049c6     6  56                   push rsi
0x8aec54049c7     7  b8980a0000           movl rax,0xa98
0x8aec54049cc     c  488be5               REX.W movq rsp,rbp
0x8aec54049cf     f  5d                   pop rbp
0x8aec54049d0    10  c3                   retl
0x8aec54049d1    11  90                   nop
0x8aec54049d2    12  6690                 nop

Safepoints (entries = 0, byte size = 8)

RelocInfo (size = 0)

--- End code ---
--- WebAssembly code ---
name: wasm-to-js:iiii:i-__wasi_fd_write
index: 1
kind: wasm-to-js
Body (size = 640 = 580 + 60 padding)
Instructions (size = 548)
0x8aec53fe8c0     0  55                   push rbp
0x8aec53fe8c1     1  4889e5               REX.W movq rbp,rsp
0x8aec53fe8c4     4  6a0a                 push 0xa
0x8aec53fe8c6     6  56                   push rsi
0x8aec53fe8c7     7  4883ec50             REX.W subq rsp,0x50
0x8aec53fe8cb     b  448b460b             movl r8,[rsi+0xb]
0x8aec53fe8cf     f  4d03c6               REX.W addq r8,r14
0x8aec53fe8d2    12  8b7e0f               movl rdi,[rsi+0xf]
0x8aec53fe8d5    15  4903fe               REX.W addq rdi,r14
0x8aec53fe8d8    18  4c8b4e03             REX.W movq r9,[rsi+0x3]
0x8aec53fe8dc    1c  4c8b5e03             REX.W movq r11,[rsi+0x3]
0x8aec53fe8e0    20  4d8b9b48450000       REX.W movq r11,[r11+0x4548]
0x8aec53fe8e7    27  41c70300000000       movl [r11],0x0
0x8aec53fe8ee    2e  448b5f0f             movl r11,[rdi+0xf]
0x8aec53fe8f2    32  4d03de               REX.W addq r11,r14
0x8aec53fe8f5    35  448b670b             movl r12,[rdi+0xb]
0x8aec53fe8f9    39  4d03e6               REX.W addq r12,r14
0x8aec53fe8fc    3c  4d8b8970010000       REX.W movq r9,[r9+0x170]
0x8aec53fe903    43  488975e8             REX.W movq [rbp-0x18],rsi
0x8aec53fe907    47  4c8945e0             REX.W movq [rbp-0x20],r8
0x8aec53fe90b    4b  41f644241b60         testb [r12+0x1b],0x60
0x8aec53fe911    51  0f850c000000         jnz 0x8aec53fe923  <+0x63>
0x8aec53fe917    57  458b6013             movl r12,[r8+0x13]
0x8aec53fe91b    5b  4d03e6               REX.W addq r12,r14
0x8aec53fe91e    5e  e903000000           jmp 0x8aec53fe926  <+0x66>
0x8aec53fe923    63  4d8be1               REX.W movq r12,r9
0x8aec53fe926    66  4c8bf8               REX.W movq r15,rax
0x8aec53fe929    69  4403f8               addl r15,rax
0x8aec53fe92c    6c  0f806f000000         jo 0x8aec53fe9a1  <+0xe1>
0x8aec53fe932    72  4d63ff               REX.W movsxlq r15,r15
0x8aec53fe935    75  488bc2               REX.W movq rax,rdx
0x8aec53fe938    78  03c2                 addl rax,rdx
0x8aec53fe93a    7a  0f80ae000000         jo 0x8aec53fe9ee  <+0x12e>
0x8aec53fe940    80  4863c0               REX.W movsxlq rax,rax
0x8aec53fe943    83  488bd1               REX.W movq rdx,rcx
0x8aec53fe946    86  03d1                 addl rdx,rcx
0x8aec53fe948    88  0f80ed000000         jo 0x8aec53fea3b  <+0x17b>
0x8aec53fe94e    8e  4863ca               REX.W movsxlq rcx,rdx
0x8aec53fe951    91  488bd3               REX.W movq rdx,rbx
0x8aec53fe954    94  03d3                 addl rdx,rbx
0x8aec53fe956    96  0f802f010000         jo 0x8aec53fea8b  <+0x1cb>
0x8aec53fe95c    9c  4863da               REX.W movsxlq rbx,rdx
0x8aec53fe95f    9f  53                   push rbx
0x8aec53fe960    a0  51                   push rcx
0x8aec53fe961    a1  50                   push rax
0x8aec53fe962    a2  4157                 push r15
0x8aec53fe964    a4  4154                 push r12
0x8aec53fe966    a6  b805000000           movl rax,0x5
0x8aec53fe96b    ab  498bd1               REX.W movq rdx,r9
0x8aec53fe96e    ae  498bf3               REX.W movq rsi,r11
0x8aec53fe971    b1  8b4f17               movl rcx,[rdi+0x17]
0x8aec53fe974    b4  4903ce               REX.W addq rcx,r14
0x8aec53fe977    b7  488b490f             REX.W movq rcx,[rcx+0xf]
0x8aec53fe97b    bb  ffd1                 call rcx
0x8aec53fe97d    bd  a801                 test al,0x1
0x8aec53fe97f    bf  0f854e010000         jnz 0x8aec53fead3  <+0x213>
0x8aec53fe985    c5  d1f8                 sarl rax, 1
0x8aec53fe987    c7  488b5de8             REX.W movq rbx,[rbp-0x18]
0x8aec53fe98b    cb  488b5b03             REX.W movq rbx,[rbx+0x3]
0x8aec53fe98f    cf  488b9b48450000       REX.W movq rbx,[rbx+0x4548]
0x8aec53fe996    d6  c70301000000         movl [rbx],0x1
0x8aec53fe99c    dc  488be5               REX.W movq rsp,rbp
0x8aec53fe99f    df  5d                   pop rbp
0x8aec53fe9a0    e0  c3                   retl
0x8aec53fe9a1    e1  48897dd8             REX.W movq [rbp-0x28],rdi
0x8aec53fe9a5    e5  4c8965d0             REX.W movq [rbp-0x30],r12
0x8aec53fe9a9    e9  4c894db0             REX.W movq [rbp-0x50],r9
0x8aec53fe9ad    ed  4c895da8             REX.W movq [rbp-0x58],r11
0x8aec53fe9b1    f1  48895da0             REX.W movq [rbp-0x60],rbx
0x8aec53fe9b5    f5  48894db8             REX.W movq [rbp-0x48],rcx
0x8aec53fe9b9    f9  488955c0             REX.W movq [rbp-0x40],rdx
0x8aec53fe9bd    fd  e86e98ffff           call 0x8aec53f8230  (jump table)    ;; wasm stub: WasmInt32ToHeapNumber
0x8aec53fe9c2   102  4c8bf8               REX.W movq r15,rax
0x8aec53fe9c5   105  488b75e8             REX.W movq rsi,[rbp-0x18]
0x8aec53fe9c9   109  4c8b45e0             REX.W movq r8,[rbp-0x20]
0x8aec53fe9cd   10d  488b7dd8             REX.W movq rdi,[rbp-0x28]
0x8aec53fe9d1   111  4c8b65d0             REX.W movq r12,[rbp-0x30]
0x8aec53fe9d5   115  4c8b4db0             REX.W movq r9,[rbp-0x50]
0x8aec53fe9d9   119  4c8b5da8             REX.W movq r11,[rbp-0x58]
0x8aec53fe9dd   11d  488b5da0             REX.W movq rbx,[rbp-0x60]
0x8aec53fe9e1   121  488b4db8             REX.W movq rcx,[rbp-0x48]
0x8aec53fe9e5   125  488b55c0             REX.W movq rdx,[rbp-0x40]
0x8aec53fe9e9   129  e947ffffff           jmp 0x8aec53fe935  <+0x75>
0x8aec53fe9ee   12e  48897dd8             REX.W movq [rbp-0x28],rdi
0x8aec53fe9f2   132  4c8965d0             REX.W movq [rbp-0x30],r12
0x8aec53fe9f6   136  4c897dc8             REX.W movq [rbp-0x38],r15
0x8aec53fe9fa   13a  4c894db0             REX.W movq [rbp-0x50],r9
0x8aec53fe9fe   13e  4c895da8             REX.W movq [rbp-0x58],r11
0x8aec53fea02   142  48895da0             REX.W movq [rbp-0x60],rbx
0x8aec53fea06   146  48894db8             REX.W movq [rbp-0x48],rcx
0x8aec53fea0a   14a  488bc2               REX.W movq rax,rdx
0x8aec53fea0d   14d  e81e98ffff           call 0x8aec53f8230  (jump table)    ;; wasm stub: WasmInt32ToHeapNumber
0x8aec53fea12   152  488b4db8             REX.W movq rcx,[rbp-0x48]
0x8aec53fea16   156  488b75e8             REX.W movq rsi,[rbp-0x18]
0x8aec53fea1a   15a  4c8b45e0             REX.W movq r8,[rbp-0x20]
0x8aec53fea1e   15e  488b7dd8             REX.W movq rdi,[rbp-0x28]
0x8aec53fea22   162  4c8b65d0             REX.W movq r12,[rbp-0x30]
0x8aec53fea26   166  4c8b7dc8             REX.W movq r15,[rbp-0x38]
0x8aec53fea2a   16a  4c8b4db0             REX.W movq r9,[rbp-0x50]
0x8aec53fea2e   16e  4c8b5da8             REX.W movq r11,[rbp-0x58]
0x8aec53fea32   172  488b5da0             REX.W movq rbx,[rbp-0x60]
0x8aec53fea36   176  e908ffffff           jmp 0x8aec53fe943  <+0x83>
0x8aec53fea3b   17b  48897dd8             REX.W movq [rbp-0x28],rdi
0x8aec53fea3f   17f  4c8965d0             REX.W movq [rbp-0x30],r12
0x8aec53fea43   183  4c897dc8             REX.W movq [rbp-0x38],r15
0x8aec53fea47   187  488945c0             REX.W movq [rbp-0x40],rax
0x8aec53fea4b   18b  4c894db0             REX.W movq [rbp-0x50],r9
0x8aec53fea4f   18f  4c895da8             REX.W movq [rbp-0x58],r11
0x8aec53fea53   193  48895da0             REX.W movq [rbp-0x60],rbx
0x8aec53fea57   197  488bc1               REX.W movq rax,rcx
0x8aec53fea5a   19a  e8d197ffff           call 0x8aec53f8230  (jump table)    ;; wasm stub: WasmInt32ToHeapNumber
0x8aec53fea5f   19f  488bc8               REX.W movq rcx,rax
0x8aec53fea62   1a2  488b75e8             REX.W movq rsi,[rbp-0x18]
0x8aec53fea66   1a6  4c8b45e0             REX.W movq r8,[rbp-0x20]
0x8aec53fea6a   1aa  488b7dd8             REX.W movq rdi,[rbp-0x28]
0x8aec53fea6e   1ae  4c8b65d0             REX.W movq r12,[rbp-0x30]
0x8aec53fea72   1b2  4c8b7dc8             REX.W movq r15,[rbp-0x38]
0x8aec53fea76   1b6  488b45c0             REX.W movq rax,[rbp-0x40]
0x8aec53fea7a   1ba  4c8b4db0             REX.W movq r9,[rbp-0x50]
0x8aec53fea7e   1be  4c8b5da8             REX.W movq r11,[rbp-0x58]
0x8aec53fea82   1c2  488b5da0             REX.W movq rbx,[rbp-0x60]
0x8aec53fea86   1c6  e9c6feffff           jmp 0x8aec53fe951  <+0x91>
0x8aec53fea8b   1cb  48897dd8             REX.W movq [rbp-0x28],rdi
0x8aec53fea8f   1cf  4c8965d0             REX.W movq [rbp-0x30],r12
0x8aec53fea93   1d3  4c897dc8             REX.W movq [rbp-0x38],r15
0x8aec53fea97   1d7  488945c0             REX.W movq [rbp-0x40],rax
0x8aec53fea9b   1db  48894db8             REX.W movq [rbp-0x48],rcx
0x8aec53fea9f   1df  4c894db0             REX.W movq [rbp-0x50],r9
0x8aec53feaa3   1e3  4c895da8             REX.W movq [rbp-0x58],r11
0x8aec53feaa7   1e7  488bc3               REX.W movq rax,rbx
0x8aec53feaaa   1ea  e88197ffff           call 0x8aec53f8230  (jump table)    ;; wasm stub: WasmInt32ToHeapNumber
0x8aec53feaaf   1ef  488bd8               REX.W movq rbx,rax
0x8aec53feab2   1f2  488b7dd8             REX.W movq rdi,[rbp-0x28]
0x8aec53feab6   1f6  4c8b65d0             REX.W movq r12,[rbp-0x30]
0x8aec53feaba   1fa  4c8b7dc8             REX.W movq r15,[rbp-0x38]
0x8aec53feabe   1fe  488b45c0             REX.W movq rax,[rbp-0x40]
0x8aec53feac2   202  488b4db8             REX.W movq rcx,[rbp-0x48]
0x8aec53feac6   206  4c8b4db0             REX.W movq r9,[rbp-0x50]
0x8aec53feaca   20a  4c8b5da8             REX.W movq r11,[rbp-0x58]
0x8aec53feace   20e  e98cfeffff           jmp 0x8aec53fe95f  <+0x9f>
0x8aec53fead3   213  488b75e0             REX.W movq rsi,[rbp-0x20]
0x8aec53fead7   217  e86497ffff           call 0x8aec53f8240  (jump table)    ;; wasm stub: WasmTaggedNonSmiToInt32
0x8aec53feadc   21c  e9a6feffff           jmp 0x8aec53fe987  <+0xc7>
0x8aec53feae1   221  90                   nop
0x8aec53feae2   222  6690                 nop

Safepoints (entries = 6, byte size = 32)
0x8aec53fe97d     bd  slots (sp->fp): 0000000011000000
0x8aec53fe9c2    102  slots (sp->fp): 0100001111000000
0x8aec53fea12    152  slots (sp->fp): 0100011111000000
0x8aec53fea5f    19f  slots (sp->fp): 0100111111000000
0x8aec53feaaf    1ef  slots (sp->fp): 0101111111000000
0x8aec53feadc    21c  slots (sp->fp): 0000000001000000

RelocInfo (size = 13)
0x8aec53fe9be  wasm stub call
0x8aec53fea0e  wasm stub call
0x8aec53fea5b  wasm stub call
0x8aec53feaab  wasm stub call
0x8aec53fead8  wasm stub call

--- End code ---
--- WebAssembly code ---
name: printf_core
index: 22
kind: wasm function
compiler: Liftoff
Body (size = 7104 = 7084 + 20 padding)
Instructions (size = 7068)
0x8aec53fc6c0     0  55                   push rbp
0x8aec53fc6c1     1  4889e5               REX.W movq rbp,rsp
0x8aec53fc6c4     4  6a08                 push 0x8
0x8aec53fc6c6     6  56                   push rsi
0x8aec53fc6c7     7  4881eca0000000       REX.W subq rsp,0xa0
0x8aec53fc6ce     e  8b7d10               movl rdi,[rbp+0x10]
0x8aec53fc6d1    11  8b7518               movl rsi,[rbp+0x18]
0x8aec53fc6d4    14  50                   push rax
0x8aec53fc6d5    15  51                   push rcx
0x8aec53fc6d6    16  57                   push rdi
0x8aec53fc6d7    17  488dbd70ffffff       REX.W leaq rdi,[rbp-0x90]
0x8aec53fc6de    1e  33c0                 xorl rax,rax
0x8aec53fc6e0    20  b913000000           movl rcx,0x13
0x8aec53fc6e5    25  f3ab                 rep stosl
0x8aec53fc6e7    27  5f                   pop rdi
0x8aec53fc6e8    28  59                   pop rcx
0x8aec53fc6e9    29  58                   pop rax
0x8aec53fc6ea    2a  8945d4               movl [rbp-0x2c],rax
0x8aec53fc6ed    2d  488b45f0             REX.W movq rax,[rbp-0x10]
0x8aec53fc6f1    31  488b4027             REX.W movq rax,[rax+0x27]
0x8aec53fc6f5    35  483b20               REX.W cmpq rsp,[rax]
0x8aec53fc6f8    38  0f86e5180000         jna 0x8aec53fdfe3  <+0x1923>
0x8aec53fc6fe    3e  488b45f0             REX.W movq rax,[rbp-0x10]
0x8aec53fc702    42  488b4047             REX.W movq rax,[rax+0x47]
0x8aec53fc706    46  894dcc               movl [rbp-0x34],rcx
0x8aec53fc709    49  8b08                 movl rcx,[rax]
0x8aec53fc70b    4b  b850000000           movl rax,0x50
0x8aec53fc710    50  2bc8                 subl rcx,rax
0x8aec53fc712    52  488b45f0             REX.W movq rax,[rbp-0x10]
0x8aec53fc716    56  488b4047             REX.W movq rax,[rax+0x47]
0x8aec53fc71a    5a  8908                 movl [rax],rcx
0x8aec53fc71c    5c  488b45f0             REX.W movq rax,[rbp-0x10]
0x8aec53fc720    60  488b4017             REX.W movq rax,[rax+0x17]
0x8aec53fc724    64  8954084c             movl [rax+rcx*1+0x4c],rdx
0x8aec53fc728    68  8d4137               leal rax,[rcx+0x37]
0x8aec53fc72b    6b  8955d0               movl [rbp-0x30],rdx
0x8aec53fc72e    6e  8d5138               leal rdx,[rcx+0x38]
0x8aec53fc731    71  c745d000000000       movl [rbp-0x30],0x0
0x8aec53fc738    78  895dc8               movl [rbp-0x38],rbx
0x8aec53fc73b    7b  44894dc4             movl [rbp-0x3c],r9
0x8aec53fc73f    7f  897dc0               movl [rbp-0x40],rdi
0x8aec53fc742    82  8975bc               movl [rbp-0x44],rsi
0x8aec53fc745    85  894db8               movl [rbp-0x48],rcx
0x8aec53fc748    88  89558c               movl [rbp-0x74],rdx
0x8aec53fc74b    8b  898570ffffff         movl [rbp-0x90],rax
0x8aec53fc751    91  488b75f0             REX.W movq rsi,[rbp-0x10]
0x8aec53fc755    95  488b4627             REX.W movq rax,[rsi+0x27]
0x8aec53fc759    99  483b20               REX.W cmpq rsp,[rax]
0x8aec53fc75c    9c  0f869e180000         jna 0x8aec53fe000  <+0x1940>
0x8aec53fc762    a2  8b45d0               movl rax,[rbp-0x30]
0x8aec53fc765    a5  8b4da0               movl rcx,[rbp-0x60]
0x8aec53fc768    a8  baffffff7f           movl rdx,0x7fffffff
0x8aec53fc76d    ad  2bd1                 subl rdx,rcx
0x8aec53fc76f    af  3bc2                 cmpl rax,rdx
0x8aec53fc771    b1  0f8e05000000         jle 0x8aec53fc77c  <+0xbc>
0x8aec53fc777    b7  e915180000           jmp 0x8aec53fdf91  <+0x18d1>
0x8aec53fc77c    bc  8b45d0               movl rax,[rbp-0x30]
0x8aec53fc77f    bf  8b4da0               movl rcx,[rbp-0x60]
0x8aec53fc782    c2  03c1                 addl rax,rcx
0x8aec53fc784    c4  8b4db8               movl rcx,[rbp-0x48]
0x8aec53fc787    c7  488b5617             REX.W movq rdx,[rsi+0x17]
0x8aec53fc78b    cb  8b5c0a4c             movl rbx,[rdx+rcx*1+0x4c]
0x8aec53fc78f    cf  0fb60c1a             movzxbl rcx,[rdx+rbx*1]
0x8aec53fc793    d3  85c9                 testl rcx,rcx
0x8aec53fc795    d5  0f8435150000         jz 0x8aec53fdcd0  <+0x1610>
0x8aec53fc79b    db  895dd0               movl [rbp-0x30],rbx
0x8aec53fc79e    de  894db4               movl [rbp-0x4c],rcx
0x8aec53fc7a1    e1  895da8               movl [rbp-0x58],rbx
0x8aec53fc7a4    e4  8945a0               movl [rbp-0x60],rax
0x8aec53fc7a7    e7  488b4627             REX.W movq rax,[rsi+0x27]
0x8aec53fc7ab    eb  483b20               REX.W cmpq rsp,[rax]
0x8aec53fc7ae    ee  0f8664180000         jna 0x8aec53fe018  <+0x1958>
0x8aec53fc7b4    f4  8b45b4               movl rax,[rbp-0x4c]
0x8aec53fc7b7    f7  25ff000000           and rax,0xff
0x8aec53fc7bc    fc  85c0                 testl rax,rax
0x8aec53fc7be    fe  0f8508000000         jnz 0x8aec53fc7cc  <+0x10c>
0x8aec53fc7c4   104  8b4dd0               movl rcx,[rbp-0x30]
0x8aec53fc7c7   107  e977000000           jmp 0x8aec53fc843  <+0x183>
0x8aec53fc7cc   10c  83f825               cmpl rax,0x25
0x8aec53fc7cf   10f  0f8405000000         jz 0x8aec53fc7da  <+0x11a>
0x8aec53fc7d5   115  e9d3140000           jmp 0x8aec53fdcad  <+0x15ed>
0x8aec53fc7da   11a  8b4dd0               movl rcx,[rbp-0x30]
0x8aec53fc7dd   11d  894db4               movl [rbp-0x4c],rcx
0x8aec53fc7e0   120  488b4627             REX.W movq rax,[rsi+0x27]
0x8aec53fc7e4   124  483b20               REX.W cmpq rsp,[rax]
0x8aec53fc7e7   127  0f863b180000         jna 0x8aec53fe028  <+0x1968>
0x8aec53fc7ed   12d  8b45d0               movl rax,[rbp-0x30]
0x8aec53fc7f0   130  0fb64c0201           movzxbl rcx,[rdx+rax*1+0x1]
0x8aec53fc7f5   135  83f925               cmpl rcx,0x25
0x8aec53fc7f8   138  0f8408000000         jz 0x8aec53fc806  <+0x146>
0x8aec53fc7fe   13e  8b4db4               movl rcx,[rbp-0x4c]
0x8aec53fc801   141  e93d000000           jmp 0x8aec53fc843  <+0x183>
0x8aec53fc806   146  8b45b8               movl rax,[rbp-0x48]
0x8aec53fc809   149  8b4dd0               movl rcx,[rbp-0x30]
0x8aec53fc80c   14c  83c102               addl rcx,0x2
0x8aec53fc80f   14f  894c024c             movl [rdx+rax*1+0x4c],rcx
0x8aec53fc813   153  8b45b4               movl rax,[rbp-0x4c]
0x8aec53fc816   156  83c001               addl rax,0x1
0x8aec53fc819   159  8b5dd0               movl rbx,[rbp-0x30]
0x8aec53fc81c   15c  0fb67c1a02           movzxbl rdi,[rdx+rbx*1+0x2]
0x8aec53fc821   161  83ff25               cmpl rdi,0x25
0x8aec53fc824   164  0f850e000000         jnz 0x8aec53fc838  <+0x178>
0x8aec53fc82a   16a  894dd0               movl [rbp-0x30],rcx
0x8aec53fc82d   16d  8945b4               movl [rbp-0x4c],rax
0x8aec53fc830   170  897dac               movl [rbp-0x54],rdi
0x8aec53fc833   173  894d94               movl [rbp-0x6c],rcx
0x8aec53fc836   176  eba8                 jmp 0x8aec53fc7e0  <+0x120>
0x8aec53fc838   178  894dd0               movl [rbp-0x30],rcx
0x8aec53fc83b   17b  897dac               movl [rbp-0x54],rdi
0x8aec53fc83e   17e  894d94               movl [rbp-0x6c],rcx
0x8aec53fc841   181  8bc8                 movl rcx,rax
0x8aec53fc843   183  8b45a8               movl rax,[rbp-0x58]
0x8aec53fc846   186  f7d8                 negl rax
0x8aec53fc848   188  03c1                 addl rax,rcx
0x8aec53fc84a   18a  8b5da0               movl rbx,[rbp-0x60]
0x8aec53fc84d   18d  bfffffff7f           movl rdi,0x7fffffff
0x8aec53fc852   192  2bfb                 subl rdi,rbx
0x8aec53fc854   194  3bc7                 cmpl rax,rdi
0x8aec53fc856   196  0f8e0e000000         jle 0x8aec53fc86a  <+0x1aa>
0x8aec53fc85c   19c  8945d0               movl [rbp-0x30],rax
0x8aec53fc85f   19f  894db4               movl [rbp-0x4c],rcx
0x8aec53fc862   1a2  897d94               movl [rbp-0x6c],rdi
0x8aec53fc865   1a5  e927170000           jmp 0x8aec53fdf91  <+0x18d1>
0x8aec53fc86a   1aa  8b5dd4               movl rbx,[rbp-0x2c]
0x8aec53fc86d   1ad  85db                 testl rbx,rbx
0x8aec53fc86f   1af  0f842e000000         jz 0x8aec53fc8a3  <+0x1e3>
0x8aec53fc875   1b5  8b5dd4               movl rbx,[rbp-0x2c]
0x8aec53fc878   1b8  448b4da8             movl r9,[rbp-0x58]
0x8aec53fc87c   1bc  897d94               movl [rbp-0x6c],rdi
0x8aec53fc87f   1bf  894db4               movl [rbp-0x4c],rcx
0x8aec53fc882   1c2  8945d0               movl [rbp-0x30],rax
0x8aec53fc885   1c5  8bc8                 movl rcx,rax
0x8aec53fc887   1c7  8bc3                 movl rax,rbx
0x8aec53fc889   1c9  418bd1               movl rdx,r9
0x8aec53fc88c   1cc  488b75f0             REX.W movq rsi,[rbp-0x10]
0x8aec53fc890   1d0  e8ceb7ffff           call 0x8aec53f8063  (jump table)
0x8aec53fc895   1d5  8b45d0               movl rax,[rbp-0x30]
0x8aec53fc898   1d8  8b4db4               movl rcx,[rbp-0x4c]
0x8aec53fc89b   1db  8b7d94               movl rdi,[rbp-0x6c]
0x8aec53fc89e   1de  e900000000           jmp 0x8aec53fc8a3  <+0x1e3>
0x8aec53fc8a3   1e3  8b55a8               movl rdx,[rbp-0x58]
0x8aec53fc8a6   1e6  3bca                 cmpl rcx,rdx
0x8aec53fc8a8   1e8  0f840e000000         jz 0x8aec53fc8bc  <+0x1fc>
0x8aec53fc8ae   1ee  8945d0               movl [rbp-0x30],rax
0x8aec53fc8b1   1f1  894db4               movl [rbp-0x4c],rcx
0x8aec53fc8b4   1f4  897d94               movl [rbp-0x6c],rdi
0x8aec53fc8b7   1f7  e995feffff           jmp 0x8aec53fc751  <+0x91>
0x8aec53fc8bc   1fc  8b4db8               movl rcx,[rbp-0x48]
0x8aec53fc8bf   1ff  488b75f0             REX.W movq rsi,[rbp-0x10]
0x8aec53fc8c3   203  488b5617             REX.W movq rdx,[rsi+0x17]
0x8aec53fc8c7   207  8b5c0a4c             movl rbx,[rdx+rcx*1+0x4c]
0x8aec53fc8cb   20b  0fbe4c1a01           movsxbl rcx,[rdx+rbx*1+0x1]
0x8aec53fc8d0   210  897d94               movl [rbp-0x6c],rdi
0x8aec53fc8d3   213  8945d0               movl [rbp-0x30],rax
0x8aec53fc8d6   216  8bc1                 movl rax,rcx
0x8aec53fc8d8   218  488b75f0             REX.W movq rsi,[rbp-0x10]
0x8aec53fc8dc   21c  e856b7ffff           call 0x8aec53f8037  (jump table)
0x8aec53fc8e1   221  8b4db8               movl rcx,[rbp-0x48]
0x8aec53fc8e4   224  488b75f0             REX.W movq rsi,[rbp-0x10]
0x8aec53fc8e8   228  488b5617             REX.W movq rdx,[rsi+0x17]
0x8aec53fc8ec   22c  8b5c0a4c             movl rbx,[rdx+rcx*1+0x4c]
0x8aec53fc8f0   230  b901000000           movl rcx,0x1
0x8aec53fc8f5   235  bfffffffff           movl rdi,0xffffffff
0x8aec53fc8fa   23a  85c0                 testl rax,rax
0x8aec53fc8fc   23c  0f8505000000         jnz 0x8aec53fc907  <+0x247>
0x8aec53fc902   242  e932000000           jmp 0x8aec53fc939  <+0x279>
0x8aec53fc907   247  440fb64c1a02         movzxbl r9,[rdx+rbx*1+0x2]
0x8aec53fc90d   24d  4183f924             cmpl r9,0x24
0x8aec53fc911   251  0f8405000000         jz 0x8aec53fc91c  <+0x25c>
0x8aec53fc917   257  e91d000000           jmp 0x8aec53fc939  <+0x279>
0x8aec53fc91c   25c  440fbe4c1a01         movsxbl r9,[rdx+rbx*1+0x1]
0x8aec53fc922   262  be30000000           movl rsi,0x30
0x8aec53fc927   267  442bce               subl r9,rsi
0x8aec53fc92a   26a  c7458401000000       movl [rbp-0x7c],0x1
0x8aec53fc931   271  418bf9               movl rdi,r9
0x8aec53fc934   274  b903000000           movl rcx,0x3
0x8aec53fc939   279  8b75b8               movl rsi,[rbp-0x48]
0x8aec53fc93c   27c  448d0c0b             leal r9,[rbx+rcx*1]
0x8aec53fc940   280  44894c324c           movl [rdx+rsi*1+0x4c],r9
0x8aec53fc945   285  420fbe1c0a           movsxbl rbx,[rdx+r9*1]
0x8aec53fc94a   28a  be20000000           movl rsi,0x20
0x8aec53fc94f   28f  f7de                 negl rsi
0x8aec53fc951   291  03f3                 addl rsi,rbx
0x8aec53fc953   293  83fe1f               cmpl rsi,0x1f
0x8aec53fc956   296  0f860a000000         jna 0x8aec53fc966  <+0x2a6>
0x8aec53fc95c   29c  418bc1               movl rax,r9
0x8aec53fc95f   29f  33c9                 xorl rcx,rcx
0x8aec53fc961   2a1  e9e9000000           jmp 0x8aec53fca4f  <+0x38f>
0x8aec53fc966   2a6  b801000000           movl rax,0x1
0x8aec53fc96b   2ab  8bce                 movl rcx,rsi
0x8aec53fc96d   2ad  d3e0                 shll rax, cl
0x8aec53fc96f   2af  8bc8                 movl rcx,rax
0x8aec53fc971   2b1  81e189280100         andl rcx,0x12889
0x8aec53fc977   2b7  33f6                 xorl rsi,rsi
0x8aec53fc979   2b9  85c9                 testl rcx,rcx
0x8aec53fc97b   2bb  0f850c000000         jnz 0x8aec53fc98d  <+0x2cd>
0x8aec53fc981   2c1  8bce                 movl rcx,rsi
0x8aec53fc983   2c3  8bf0                 movl rsi,rax
0x8aec53fc985   2c5  418bc1               movl rax,r9
0x8aec53fc988   2c8  e9c2000000           jmp 0x8aec53fca4f  <+0x38f>
0x8aec53fc98d   2cd  44894dd0             movl [rbp-0x30],r9
0x8aec53fc991   2d1  44894db4             movl [rbp-0x4c],r9
0x8aec53fc995   2d5  8945ac               movl [rbp-0x54],rax
0x8aec53fc998   2d8  8975a4               movl [rbp-0x5c],rsi
0x8aec53fc99b   2db  897d90               movl [rbp-0x70],rdi
0x8aec53fc99e   2de  895d88               movl [rbp-0x78],rbx
0x8aec53fc9a1   2e1  488b75f0             REX.W movq rsi,[rbp-0x10]
0x8aec53fc9a5   2e5  488b4627             REX.W movq rax,[rsi+0x27]
0x8aec53fc9a9   2e9  483b20               REX.W cmpq rsp,[rax]
0x8aec53fc9ac   2ec  0f86b8160000         jna 0x8aec53fe06a  <+0x19aa>
0x8aec53fc9b2   2f2  8b45b8               movl rax,[rbp-0x48]
0x8aec53fc9b5   2f5  8b4dd0               movl rcx,[rbp-0x30]
0x8aec53fc9b8   2f8  83c101               addl rcx,0x1
0x8aec53fc9bb   2fb  894c024c             movl [rdx+rax*1+0x4c],rcx
0x8aec53fc9bf   2ff  8b45ac               movl rax,[rbp-0x54]
0x8aec53fc9c2   302  8b5da4               movl rbx,[rbp-0x5c]
0x8aec53fc9c5   305  0bc3                 orl rax,rbx
0x8aec53fc9c7   307  8b5dd0               movl rbx,[rbp-0x30]
0x8aec53fc9ca   30a  0fbe7c1a01           movsxbl rdi,[rdx+rbx*1+0x1]
0x8aec53fc9cf   30f  bb20000000           movl rbx,0x20
0x8aec53fc9d4   314  f7db                 negl rbx
0x8aec53fc9d6   316  03df                 addl rbx,rdi
0x8aec53fc9d8   318  83fb20               cmpl rbx,0x20
0x8aec53fc9db   31b  0f821e000000         jc 0x8aec53fc9ff  <+0x33f>
0x8aec53fc9e1   321  8bf3                 movl rsi,rbx
0x8aec53fc9e3   323  8bdf                 movl rbx,rdi
0x8aec53fc9e5   325  898d6cffffff         movl [rbp-0x94],rcx
0x8aec53fc9eb   32b  8bc8                 movl rcx,rax
0x8aec53fc9ed   32d  8b856cffffff         movl rax,[rbp-0x94]
0x8aec53fc9f3   333  8b7d90               movl rdi,[rbp-0x70]
0x8aec53fc9f6   336  448b4dd0             movl r9,[rbp-0x30]
0x8aec53fc9fa   33a  e950000000           jmp 0x8aec53fca4f  <+0x38f>
0x8aec53fc9ff   33f  41b901000000         movl r9,0x1
0x8aec53fca05   345  4c8bd1               REX.W movq r10,rcx
0x8aec53fca08   348  8bcb                 movl rcx,rbx
0x8aec53fca0a   34a  41d3e1               shll r9, cl
0x8aec53fca0d   34d  498bca               REX.W movq rcx,r10
0x8aec53fca10   350  418bd9               movl rbx,r9
0x8aec53fca13   353  81e389280100         andl rbx,0x12889
0x8aec53fca19   359  85db                 testl rbx,rbx
0x8aec53fca1b   35b  0f8415000000         jz 0x8aec53fca36  <+0x376>
0x8aec53fca21   361  894dd0               movl [rbp-0x30],rcx
0x8aec53fca24   364  894db4               movl [rbp-0x4c],rcx
0x8aec53fca27   367  44894dac             movl [rbp-0x54],r9
0x8aec53fca2b   36b  8945a4               movl [rbp-0x5c],rax
0x8aec53fca2e   36e  897d88               movl [rbp-0x78],rdi
0x8aec53fca31   371  e96bffffff           jmp 0x8aec53fc9a1  <+0x2e1>
0x8aec53fca36   376  8bdf                 movl rbx,rdi
0x8aec53fca38   378  418bf1               movl rsi,r9
0x8aec53fca3b   37b  448bc9               movl r9,rcx
0x8aec53fca3e   37e  898d6cffffff         movl [rbp-0x94],rcx
0x8aec53fca44   384  8bc8                 movl rcx,rax
0x8aec53fca46   386  8b856cffffff         movl rax,[rbp-0x94]
0x8aec53fca4c   38c  8b7d90               movl rdi,[rbp-0x70]
0x8aec53fca4f   38f  83fb2a               cmpl rbx,0x2a
0x8aec53fca52   392  0f8538010000         jnz 0x8aec53fcb90  <+0x4d0>
0x8aec53fca58   398  8b55b8               movl rdx,[rbp-0x48]
0x8aec53fca5b   39b  894da4               movl [rbp-0x5c],rcx
0x8aec53fca5e   39e  488b4df0             REX.W movq rcx,[rbp-0x10]
0x8aec53fca62   3a2  488b4917             REX.W movq rcx,[rcx+0x17]
0x8aec53fca66   3a6  89956cffffff         movl [rbp-0x94],rdx
0x8aec53fca6c   3ac  0fbe540101           movsxbl rdx,[rcx+rax*1+0x1]
0x8aec53fca71   3b1  895d88               movl [rbp-0x78],rbx
0x8aec53fca74   3b4  897d90               movl [rbp-0x70],rdi
0x8aec53fca77   3b7  8975ac               movl [rbp-0x54],rsi
0x8aec53fca7a   3ba  8945b4               movl [rbp-0x4c],rax
0x8aec53fca7d   3bd  44894dd0             movl [rbp-0x30],r9
0x8aec53fca81   3c1  8bc2                 movl rax,rdx
0x8aec53fca83   3c3  488b75f0             REX.W movq rsi,[rbp-0x10]
0x8aec53fca87   3c7  e8abb5ffff           call 0x8aec53f8037  (jump table)
0x8aec53fca8c   3cc  85c0                 testl rax,rax
0x8aec53fca8e   3ce  0f8505000000         jnz 0x8aec53fca99  <+0x3d9>
0x8aec53fca94   3d4  e965000000           jmp 0x8aec53fcafe  <+0x43e>
0x8aec53fca99   3d9  8b45b8               movl rax,[rbp-0x48]
0x8aec53fca9c   3dc  488b75f0             REX.W movq rsi,[rbp-0x10]
0x8aec53fcaa0   3e0  488b4e17             REX.W movq rcx,[rsi+0x17]
0x8aec53fcaa4   3e4  8b54014c             movl rdx,[rcx+rax*1+0x4c]
0x8aec53fcaa8   3e8  0fb6441102           movzxbl rax,[rcx+rdx*1+0x2]
0x8aec53fcaad   3ed  83f824               cmpl rax,0x24
0x8aec53fcab0   3f0  0f8408000000         jz 0x8aec53fcabe  <+0x3fe>
0x8aec53fcab6   3f6  8955b4               movl [rbp-0x4c],rdx
0x8aec53fcab9   3f9  e940000000           jmp 0x8aec53fcafe  <+0x43e>
0x8aec53fcabe   3fe  0fbe441101           movsxbl rax,[rcx+rdx*1+0x1]
0x8aec53fcac3   403  c1e002               shll rax, 2
0x8aec53fcac6   406  8b5dc4               movl rbx,[rbp-0x3c]
0x8aec53fcac9   409  03c3                 addl rax,rbx
0x8aec53fcacb   40b  bbc0000000           movl rbx,0xc0
0x8aec53fcad0   410  2bc3                 subl rax,rbx
0x8aec53fcad2   412  bb0a000000           movl rbx,0xa
0x8aec53fcad7   417  891c01               movl [rcx+rax*1],rbx
0x8aec53fcada   41a  0fbe441101           movsxbl rax,[rcx+rdx*1+0x1]
0x8aec53fcadf   41f  c1e003               shll rax, 3
0x8aec53fcae2   422  8b5dc8               movl rbx,[rbp-0x38]
0x8aec53fcae5   425  03c3                 addl rax,rbx
0x8aec53fcae7   427  bb80010000           movl rbx,0x180
0x8aec53fcaec   42c  2bc3                 subl rax,rbx
0x8aec53fcaee   42e  8b1c01               movl rbx,[rcx+rax*1]
0x8aec53fcaf1   431  8d4203               leal rax,[rdx+0x3]
0x8aec53fcaf4   434  bf01000000           movl rdi,0x1
0x8aec53fcaf9   439  e95e000000           jmp 0x8aec53fcb5c  <+0x49c>
0x8aec53fcafe   43e  8b4584               movl rax,[rbp-0x7c]
0x8aec53fcb01   441  85c0                 testl rax,rax
0x8aec53fcb03   443  0f8405000000         jz 0x8aec53fcb0e  <+0x44e>
0x8aec53fcb09   449  e9f0120000           jmp 0x8aec53fddfe  <+0x173e>
0x8aec53fcb0e   44e  8b45d4               movl rax,[rbp-0x2c]
0x8aec53fcb11   451  85c0                 testl rax,rax
0x8aec53fcb13   453  0f8424000000         jz 0x8aec53fcb3d  <+0x47d>
0x8aec53fcb19   459  8b45cc               movl rax,[rbp-0x34]
0x8aec53fcb1c   45c  8b4dcc               movl rcx,[rbp-0x34]
0x8aec53fcb1f   45f  488b75f0             REX.W movq rsi,[rbp-0x10]
0x8aec53fcb23   463  488b5617             REX.W movq rdx,[rsi+0x17]
0x8aec53fcb27   467  8b1c0a               movl rbx,[rdx+rcx*1]
0x8aec53fcb2a   46a  8d4b04               leal rcx,[rbx+0x4]
0x8aec53fcb2d   46d  890c02               movl [rdx+rax*1],rcx
0x8aec53fcb30   470  8b041a               movl rax,[rdx+rbx*1]
0x8aec53fcb33   473  895dd0               movl [rbp-0x30],rbx
0x8aec53fcb36   476  33c9                 xorl rcx,rcx
0x8aec53fcb38   478  e904000000           jmp 0x8aec53fcb41  <+0x481>
0x8aec53fcb3d   47d  33c0                 xorl rax,rax
0x8aec53fcb3f   47f  33c9                 xorl rcx,rcx
0x8aec53fcb41   481  8b55b8               movl rdx,[rbp-0x48]
0x8aec53fcb44   484  488b75f0             REX.W movq rsi,[rbp-0x10]
0x8aec53fcb48   488  488b5e17             REX.W movq rbx,[rsi+0x17]
0x8aec53fcb4c   48c  8b7c134c             movl rdi,[rbx+rdx*1+0x4c]
0x8aec53fcb50   490  83c701               addl rdi,0x1
0x8aec53fcb53   493  8bd8                 movl rbx,rax
0x8aec53fcb55   495  8bc7                 movl rax,rdi
0x8aec53fcb57   497  8bf9                 movl rdi,rcx
0x8aec53fcb59   499  8b55b4               movl rdx,[rbp-0x4c]
0x8aec53fcb5c   49c  8b8d6cffffff         movl rcx,[rbp-0x94]
0x8aec53fcb62   4a2  4c8b4e17             REX.W movq r9,[rsi+0x17]
0x8aec53fcb66   4a6  418944094c           movl [r9+rcx*1+0x4c],rax
0x8aec53fcb6b   4ab  83fb00               cmpl rbx,0x0
0x8aec53fcb6e   4ae  0f8c05000000         jl 0x8aec53fcb79  <+0x4b9>
0x8aec53fcb74   4b4  e96f000000           jmp 0x8aec53fcbe8  <+0x528>
0x8aec53fcb79   4b9  33c9                 xorl rcx,rcx
0x8aec53fcb7b   4bb  2bcb                 subl rcx,rbx
0x8aec53fcb7d   4bd  8b5da4               movl rbx,[rbp-0x5c]
0x8aec53fcb80   4c0  81cb00200000         orl rbx,0x2000
0x8aec53fcb86   4c6  895da4               movl [rbp-0x5c],rbx
0x8aec53fcb89   4c9  8bd9                 movl rbx,rcx
0x8aec53fcb8b   4cb  e958000000           jmp 0x8aec53fcbe8  <+0x528>
0x8aec53fcb90   4d0  8b55b8               movl rdx,[rbp-0x48]
0x8aec53fcb93   4d3  83c24c               addl rdx,0x4c
0x8aec53fcb96   4d6  895d88               movl [rbp-0x78],rbx
0x8aec53fcb99   4d9  897d90               movl [rbp-0x70],rdi
0x8aec53fcb9c   4dc  894da4               movl [rbp-0x5c],rcx
0x8aec53fcb9f   4df  8975ac               movl [rbp-0x54],rsi
0x8aec53fcba2   4e2  8945b4               movl [rbp-0x4c],rax
0x8aec53fcba5   4e5  44894dd0             movl [rbp-0x30],r9
0x8aec53fcba9   4e9  8bc2                 movl rax,rdx
0x8aec53fcbab   4eb  488b75f0             REX.W movq rsi,[rbp-0x10]
0x8aec53fcbaf   4ef  e8b4b4ffff           call 0x8aec53f8068  (jump table)
0x8aec53fcbb4   4f4  83f800               cmpl rax,0x0
0x8aec53fcbb7   4f7  0f8d08000000         jge 0x8aec53fcbc5  <+0x505>
0x8aec53fcbbd   4fd  89459c               movl [rbp-0x64],rax
0x8aec53fcbc0   500  e9cc130000           jmp 0x8aec53fdf91  <+0x18d1>
0x8aec53fcbc5   505  8b4db8               movl rcx,[rbp-0x48]
0x8aec53fcbc8   508  488b75f0             REX.W movq rsi,[rbp-0x10]
0x8aec53fcbcc   50c  488b5617             REX.W movq rdx,[rsi+0x17]
0x8aec53fcbd0   510  8b5c0a4c             movl rbx,[rdx+rcx*1+0x4c]
0x8aec53fcbd4   514  899d6cffffff         movl [rbp-0x94],rbx
0x8aec53fcbda   51a  8bd8                 movl rbx,rax
0x8aec53fcbdc   51c  8b856cffffff         movl rax,[rbp-0x94]
0x8aec53fcbe2   522  8b55b4               movl rdx,[rbp-0x4c]
0x8aec53fcbe5   525  8b7d84               movl rdi,[rbp-0x7c]
0x8aec53fcbe8   528  488b4e17             REX.W movq rcx,[rsi+0x17]
0x8aec53fcbec   52c  0fb61401             movzxbl rdx,[rcx+rax*1]
0x8aec53fcbf0   530  41b92e000000         movl r9,0x2e
0x8aec53fcbf6   536  c745b400000000       movl [rbp-0x4c],0x0
0x8aec53fcbfd   53d  c745b0ffffffff       movl [rbp-0x50],0xffffffff
0x8aec53fcc04   544  413bd1               cmpl rdx,r9
0x8aec53fcc07   547  0f8407000000         jz 0x8aec53fcc14  <+0x554>
0x8aec53fcc0d   54d  33d2                 xorl rdx,rdx
0x8aec53fcc0f   54f  e968010000           jmp 0x8aec53fcd7c  <+0x6bc>
0x8aec53fcc14   554  0fb6540101           movzxbl rdx,[rcx+rax*1+0x1]
0x8aec53fcc19   559  83fa2a               cmpl rdx,0x2a
0x8aec53fcc1c   55c  0f8515010000         jnz 0x8aec53fcd37  <+0x677>
0x8aec53fcc22   562  8b55b8               movl rdx,[rbp-0x48]
0x8aec53fcc25   565  440fbe4c0102         movsxbl r9,[rcx+rax*1+0x2]
0x8aec53fcc2b   56b  89956cffffff         movl [rbp-0x94],rdx
0x8aec53fcc31   571  897d84               movl [rbp-0x7c],rdi
0x8aec53fcc34   574  895d9c               movl [rbp-0x64],rbx
0x8aec53fcc37   577  8945d0               movl [rbp-0x30],rax
0x8aec53fcc3a   57a  418bc1               movl rax,r9
0x8aec53fcc3d   57d  488b75f0             REX.W movq rsi,[rbp-0x10]
0x8aec53fcc41   581  e8f1b3ffff           call 0x8aec53f8037  (jump table)
0x8aec53fcc46   586  85c0                 testl rax,rax
0x8aec53fcc48   588  0f8505000000         jnz 0x8aec53fcc53  <+0x593>
0x8aec53fcc4e   58e  e960000000           jmp 0x8aec53fccb3  <+0x5f3>
0x8aec53fcc53   593  8b45b8               movl rax,[rbp-0x48]
0x8aec53fcc56   596  488b75f0             REX.W movq rsi,[rbp-0x10]
0x8aec53fcc5a   59a  488b4e17             REX.W movq rcx,[rsi+0x17]
0x8aec53fcc5e   59e  8b54014c             movl rdx,[rcx+rax*1+0x4c]
0x8aec53fcc62   5a2  0fb6441103           movzxbl rax,[rcx+rdx*1+0x3]
0x8aec53fcc67   5a7  83f824               cmpl rax,0x24
0x8aec53fcc6a   5aa  0f8408000000         jz 0x8aec53fcc78  <+0x5b8>
0x8aec53fcc70   5b0  8955ac               movl [rbp-0x54],rdx
0x8aec53fcc73   5b3  e93b000000           jmp 0x8aec53fccb3  <+0x5f3>
0x8aec53fcc78   5b8  0fbe441102           movsxbl rax,[rcx+rdx*1+0x2]
0x8aec53fcc7d   5bd  c1e002               shll rax, 2
0x8aec53fcc80   5c0  8b5dc4               movl rbx,[rbp-0x3c]
0x8aec53fcc83   5c3  03c3                 addl rax,rbx
0x8aec53fcc85   5c5  bbc0000000           movl rbx,0xc0
0x8aec53fcc8a   5ca  2bc3                 subl rax,rbx
0x8aec53fcc8c   5cc  bb0a000000           movl rbx,0xa
0x8aec53fcc91   5d1  891c01               movl [rcx+rax*1],rbx
0x8aec53fcc94   5d4  0fbe441102           movsxbl rax,[rcx+rdx*1+0x2]
0x8aec53fcc99   5d9  c1e003               shll rax, 3
0x8aec53fcc9c   5dc  8b5dc8               movl rbx,[rbp-0x38]
0x8aec53fcc9f   5df  03c3                 addl rax,rbx
0x8aec53fcca1   5e1  bb80010000           movl rbx,0x180
0x8aec53fcca6   5e6  2bc3                 subl rax,rbx
0x8aec53fcca8   5e8  8b1c01               movl rbx,[rcx+rax*1]
0x8aec53fccab   5eb  8d4204               leal rax,[rdx+0x4]
0x8aec53fccae   5ee  e95b000000           jmp 0x8aec53fcd0e  <+0x64e>
0x8aec53fccb3   5f3  8b4584               movl rax,[rbp-0x7c]
0x8aec53fccb6   5f6  85c0                 testl rax,rax
0x8aec53fccb8   5f8  0f8405000000         jz 0x8aec53fccc3  <+0x603>
0x8aec53fccbe   5fe  e93b110000           jmp 0x8aec53fddfe  <+0x173e>
0x8aec53fccc3   603  8b45d4               movl rax,[rbp-0x2c]
0x8aec53fccc6   606  85c0                 testl rax,rax
0x8aec53fccc8   608  0f841f000000         jz 0x8aec53fcced  <+0x62d>
0x8aec53fccce   60e  8b45cc               movl rax,[rbp-0x34]
0x8aec53fccd1   611  8b4dcc               movl rcx,[rbp-0x34]
0x8aec53fccd4   614  488b75f0             REX.W movq rsi,[rbp-0x10]
0x8aec53fccd8   618  488b5617             REX.W movq rdx,[rsi+0x17]
0x8aec53fccdc   61c  8b1c0a               movl rbx,[rdx+rcx*1]
0x8aec53fccdf   61f  8d4b04               leal rcx,[rbx+0x4]
0x8aec53fcce2   622  890c02               movl [rdx+rax*1],rcx
0x8aec53fcce5   625  8b041a               movl rax,[rdx+rbx*1]
0x8aec53fcce8   628  e905000000           jmp 0x8aec53fccf2  <+0x632>
0x8aec53fcced   62d  33c0                 xorl rax,rax
0x8aec53fccef   62f  8b5dd0               movl rbx,[rbp-0x30]
0x8aec53fccf2   632  8b4db8               movl rcx,[rbp-0x48]
0x8aec53fccf5   635  488b75f0             REX.W movq rsi,[rbp-0x10]
0x8aec53fccf9   639  488b5617             REX.W movq rdx,[rsi+0x17]
0x8aec53fccfd   63d  8b7c0a4c             movl rdi,[rdx+rcx*1+0x4c]
0x8aec53fcd01   641  83c702               addl rdi,0x2
0x8aec53fcd04   644  895dd0               movl [rbp-0x30],rbx
0x8aec53fcd07   647  8bd8                 movl rbx,rax
0x8aec53fcd09   649  8bc7                 movl rax,rdi
0x8aec53fcd0b   64b  8b55ac               movl rdx,[rbp-0x54]
0x8aec53fcd0e   64e  8b8d6cffffff         movl rcx,[rbp-0x94]
0x8aec53fcd14   654  488b7e17             REX.W movq rdi,[rsi+0x17]
0x8aec53fcd18   658  89440f4c             movl [rdi+rcx*1+0x4c],rax
0x8aec53fcd1c   65c  8bcb                 movl rcx,rbx
0x8aec53fcd1e   65e  83f1ff               xorl rcx,0xff
0x8aec53fcd21   661  c1e91f               shrl rcx, 31
0x8aec53fcd24   664  895db0               movl [rbp-0x50],rbx
0x8aec53fcd27   667  8955ac               movl [rbp-0x54],rdx
0x8aec53fcd2a   66a  8bd1                 movl rdx,rcx
0x8aec53fcd2c   66c  8b5d9c               movl rbx,[rbp-0x64]
0x8aec53fcd2f   66f  8b7d84               movl rdi,[rbp-0x7c]
0x8aec53fcd32   672  e945000000           jmp 0x8aec53fcd7c  <+0x6bc>
0x8aec53fcd37   677  8b55b8               movl rdx,[rbp-0x48]
0x8aec53fcd3a   67a  448d4801             leal r9,[rax+0x1]
0x8aec53fcd3e   67e  44894c114c           movl [rcx+rdx*1+0x4c],r9
0x8aec53fcd43   683  8b55b8               movl rdx,[rbp-0x48]
0x8aec53fcd46   686  83c24c               addl rdx,0x4c
0x8aec53fcd49   689  897d84               movl [rbp-0x7c],rdi
0x8aec53fcd4c   68c  895d9c               movl [rbp-0x64],rbx
0x8aec53fcd4f   68f  8945d0               movl [rbp-0x30],rax
0x8aec53fcd52   692  8bc2                 movl rax,rdx
0x8aec53fcd54   694  488b75f0             REX.W movq rsi,[rbp-0x10]
0x8aec53fcd58   698  e80bb3ffff           call 0x8aec53f8068  (jump table)
0x8aec53fcd5d   69d  8b4db8               movl rcx,[rbp-0x48]
0x8aec53fcd60   6a0  488b75f0             REX.W movq rsi,[rbp-0x10]
0x8aec53fcd64   6a4  488b5617             REX.W movq rdx,[rsi+0x17]
0x8aec53fcd68   6a8  8b5c0a4c             movl rbx,[rdx+rcx*1+0x4c]
0x8aec53fcd6c   6ac  8945b0               movl [rbp-0x50],rax
0x8aec53fcd6f   6af  8bc3                 movl rax,rbx
0x8aec53fcd71   6b1  ba01000000           movl rdx,0x1
0x8aec53fcd76   6b6  8b5d9c               movl rbx,[rbp-0x64]
0x8aec53fcd79   6b9  8b7d84               movl rdi,[rbp-0x7c]
0x8aec53fcd7c   6bc  8945d0               movl [rbp-0x30],rax
0x8aec53fcd7f   6bf  895d9c               movl [rbp-0x64],rbx
0x8aec53fcd82   6c2  897d84               movl [rbp-0x7c],rdi
0x8aec53fcd85   6c5  899578ffffff         movl [rbp-0x88],rdx
0x8aec53fcd8b   6cb  488b4627             REX.W movq rax,[rsi+0x27]
0x8aec53fcd8f   6cf  483b20               REX.W cmpq rsp,[rax]
0x8aec53fcd92   6d2  0f867d130000         jna 0x8aec53fe115  <+0x1a55>
0x8aec53fcd98   6d8  8b45b4               movl rax,[rbp-0x4c]
0x8aec53fcd9b   6db  8b4dd0               movl rcx,[rbp-0x30]
0x8aec53fcd9e   6de  488b5617             REX.W movq rdx,[rsi+0x17]
0x8aec53fcda2   6e2  0fbe1c0a             movsxbl rbx,[rdx+rcx*1]
0x8aec53fcda6   6e6  b97b000000           movl rcx,0x7b
0x8aec53fcdab   6eb  2bd9                 subl rbx,rcx
0x8aec53fcdad   6ed  b91c000000           movl rcx,0x1c
0x8aec53fcdb2   6f2  83fbc6               cmpl rbx,0xc6
0x8aec53fcdb5   6f5  0f8305000000         jnc 0x8aec53fcdc0  <+0x700>
0x8aec53fcdbb   6fb  e9d9110000           jmp 0x8aec53fdf99  <+0x18d9>
0x8aec53fcdc0   700  8b5db8               movl rbx,[rbp-0x48]
0x8aec53fcdc3   703  8b7dd0               movl rdi,[rbp-0x30]
0x8aec53fcdc6   706  83c701               addl rdi,0x1
0x8aec53fcdc9   709  897c1a4c             movl [rdx+rbx*1+0x4c],rdi
0x8aec53fcdcd   70d  8b5dd0               movl rbx,[rbp-0x30]
0x8aec53fcdd0   710  440fbe0c1a           movsxbl r9,[rdx+rbx*1]
0x8aec53fcdd5   715  bb3a000000           movl rbx,0x3a
0x8aec53fcdda   71a  0fafd8               imull rbx,rax
0x8aec53fcddd   71d  418d1c19             leal rbx,[r9+rbx*1]
0x8aec53fcde1   721  0fb6b41adf030000     movzxbl rsi,[rdx+rbx*1+0x3df]
0x8aec53fcde9   729  bb01000000           movl rbx,0x1
0x8aec53fcdee   72e  f7db                 negl rbx
0x8aec53fcdf0   730  03de                 addl rbx,rsi
0x8aec53fcdf2   732  83fb08               cmpl rbx,0x8
0x8aec53fcdf5   735  0f8318000000         jnc 0x8aec53fce13  <+0x753>
0x8aec53fcdfb   73b  897dd0               movl [rbp-0x30],rdi
0x8aec53fcdfe   73e  8975b4               movl [rbp-0x4c],rsi
0x8aec53fce01   741  8945ac               movl [rbp-0x54],rax
0x8aec53fce04   744  894d98               movl [rbp-0x68],rcx
0x8aec53fce07   747  897d88               movl [rbp-0x78],rdi
0x8aec53fce0a   74a  488b75f0             REX.W movq rsi,[rbp-0x10]
0x8aec53fce0e   74e  e978ffffff           jmp 0x8aec53fcd8b  <+0x6cb>
0x8aec53fce13   753  83fe1b               cmpl rsi,0x1b
0x8aec53fce16   756  0f84b8000000         jz 0x8aec53fced4  <+0x814>
0x8aec53fce1c   75c  85f6                 testl rsi,rsi
0x8aec53fce1e   75e  0f850e000000         jnz 0x8aec53fce32  <+0x772>
0x8aec53fce24   764  897dd0               movl [rbp-0x30],rdi
0x8aec53fce27   767  8975b4               movl [rbp-0x4c],rsi
0x8aec53fce2a   76a  897d88               movl [rbp-0x78],rdi
0x8aec53fce2d   76d  e967110000           jmp 0x8aec53fdf99  <+0x18d9>
0x8aec53fce32   772  8b5d90               movl rbx,[rbp-0x70]
0x8aec53fce35   775  83fb00               cmpl rbx,0x0
0x8aec53fce38   778  0f8c3c000000         jl 0x8aec53fce7a  <+0x7ba>
0x8aec53fce3e   77e  8b5dc4               movl rbx,[rbp-0x3c]
0x8aec53fce41   781  448b4d90             movl r9,[rbp-0x70]
0x8aec53fce45   785  41c1e102             shll r9, 2
0x8aec53fce49   789  4103d9               addl rbx,r9
0x8aec53fce4c   78c  89341a               movl [rdx+rbx*1],rsi
0x8aec53fce4f   78f  8b5db8               movl rbx,[rbp-0x48]
0x8aec53fce52   792  448b4dc8             movl r9,[rbp-0x38]
0x8aec53fce56   796  8b5590               movl rdx,[rbp-0x70]
0x8aec53fce59   799  c1e203               shll rdx, 3
0x8aec53fce5c   79c  4403ca               addl r9,rdx
0x8aec53fce5f   79f  488b55f0             REX.W movq rdx,[rbp-0x10]
0x8aec53fce63   7a3  488b5217             REX.W movq rdx,[rdx+0x17]
0x8aec53fce67   7a7  8945ac               movl [rbp-0x54],rax
0x8aec53fce6a   7aa  4a8b040a             REX.W movq rax,[rdx+r9*1]
0x8aec53fce6e   7ae  4889441a40           REX.W movq [rdx+rbx*1+0x40],rax
0x8aec53fce73   7b3  8bc7                 movl rax,rdi
0x8aec53fce75   7b5  e979000000           jmp 0x8aec53fcef3  <+0x833>
0x8aec53fce7a   7ba  8b5dd4               movl rbx,[rbp-0x2c]
0x8aec53fce7d   7bd  85db                 testl rbx,rbx
0x8aec53fce7f   7bf  0f8507000000         jnz 0x8aec53fce8c  <+0x7cc>
0x8aec53fce85   7c5  8bdf                 movl rbx,rdi
0x8aec53fce87   7c7  e9ee100000           jmp 0x8aec53fdf7a  <+0x18ba>
0x8aec53fce8c   7cc  8b5db8               movl rbx,[rbp-0x48]
0x8aec53fce8f   7cf  41b9c0ffffff         movl r9,0xffffffc0
0x8aec53fce95   7d5  412bd9               subl rbx,r9
0x8aec53fce98   7d8  448b4dcc             movl r9,[rbp-0x34]
0x8aec53fce9c   7dc  8b55bc               movl rdx,[rbp-0x44]
0x8aec53fce9f   7df  897d88               movl [rbp-0x78],rdi
0x8aec53fcea2   7e2  894d98               movl [rbp-0x68],rcx
0x8aec53fcea5   7e5  8945ac               movl [rbp-0x54],rax
0x8aec53fcea8   7e8  8975b4               movl [rbp-0x4c],rsi
0x8aec53fceab   7eb  897dd0               movl [rbp-0x30],rdi
0x8aec53fceae   7ee  8bc3                 movl rax,rbx
0x8aec53fceb0   7f0  8bda                 movl rbx,rdx
0x8aec53fceb2   7f2  8bd6                 movl rdx,rsi
0x8aec53fceb4   7f4  418bc9               movl rcx,r9
0x8aec53fceb7   7f7  488b75f0             REX.W movq rsi,[rbp-0x10]
0x8aec53fcebb   7fb  e8adb1ffff           call 0x8aec53f806d  (jump table)
0x8aec53fcec0   800  8b45b8               movl rax,[rbp-0x48]
0x8aec53fcec3   803  488b75f0             REX.W movq rsi,[rbp-0x10]
0x8aec53fcec7   807  488b4e17             REX.W movq rcx,[rsi+0x17]
0x8aec53fcecb   80b  8b54014c             movl rdx,[rcx+rax*1+0x4c]
0x8aec53fcecf   80f  e948000000           jmp 0x8aec53fcf1c  <+0x85c>
0x8aec53fced4   814  8b5d90               movl rbx,[rbp-0x70]
0x8aec53fced7   817  83fb00               cmpl rbx,0x0
0x8aec53fceda   81a  0f8c0e000000         jl 0x8aec53fceee  <+0x82e>
0x8aec53fcee0   820  897dd0               movl [rbp-0x30],rdi
0x8aec53fcee3   823  8975b4               movl [rbp-0x4c],rsi
0x8aec53fcee6   826  897d88               movl [rbp-0x78],rdi
0x8aec53fcee9   829  e9ab100000           jmp 0x8aec53fdf99  <+0x18d9>
0x8aec53fceee   82e  8945ac               movl [rbp-0x54],rax
0x8aec53fcef1   831  8bc7                 movl rax,rdi
0x8aec53fcef3   833  8b5dd4               movl rbx,[rbp-0x2c]
0x8aec53fcef6   836  33ff                 xorl rdi,rdi
0x8aec53fcef8   838  85db                 testl rbx,rbx
0x8aec53fcefa   83a  0f8511000000         jnz 0x8aec53fcf11  <+0x851>
0x8aec53fcf00   840  897dd0               movl [rbp-0x30],rdi
0x8aec53fcf03   843  8975b4               movl [rbp-0x4c],rsi
0x8aec53fcf06   846  894d98               movl [rbp-0x68],rcx
0x8aec53fcf09   849  894588               movl [rbp-0x78],rax
0x8aec53fcf0c   84c  e940f8ffff           jmp 0x8aec53fc751  <+0x91>
0x8aec53fcf11   851  897dd0               movl [rbp-0x30],rdi
0x8aec53fcf14   854  8975b4               movl [rbp-0x4c],rsi
0x8aec53fcf17   857  894d98               movl [rbp-0x68],rcx
0x8aec53fcf1a   85a  8bd0                 movl rdx,rax
0x8aec53fcf1c   85c  8b45a4               movl rax,[rbp-0x5c]
0x8aec53fcf1f   85f  25fffffeff           and rax,0xfffeffff
0x8aec53fcf24   864  8b4da4               movl rcx,[rbp-0x5c]
0x8aec53fcf27   867  8b5da4               movl rbx,[rbp-0x5c]
0x8aec53fcf2a   86a  81e300200000         andl rbx,0x2000
0x8aec53fcf30   870  85db                 testl rbx,rbx
0x8aec53fcf32   872  0f45c8               cmovnzl rcx,rax
0x8aec53fcf35   875  8b5d8c               movl rbx,[rbp-0x74]
0x8aec53fcf38   878  be01000000           movl rsi,0x1
0x8aec53fcf3d   87d  f7de                 negl rsi
0x8aec53fcf3f   87f  03f2                 addl rsi,rdx
0x8aec53fcf41   881  4c8b4df0             REX.W movq r9,[rbp-0x10]
0x8aec53fcf45   885  498b7917             REX.W movq rdi,[r9+0x17]
0x8aec53fcf49   889  440fbe0c37           movsxbl r9,[rdi+rsi*1]
0x8aec53fcf4e   88e  418bf1               movl rsi,r9
0x8aec53fcf51   891  83e6df               andl rsi,0xdf
0x8aec53fcf54   894  418bf9               movl rdi,r9
0x8aec53fcf57   897  83e70f               andl rdi,0xf
0x8aec53fcf5a   89a  898574ffffff         movl [rbp-0x8c],rax
0x8aec53fcf60   8a0  b803000000           movl rax,0x3
0x8aec53fcf65   8a5  3bf8                 cmpl rdi,rax
0x8aec53fcf67   8a7  400f94c7             setzl dil
0x8aec53fcf6b   8ab  400fb6ff             movzxbl rdi,rdi
0x8aec53fcf6f   8af  85ff                 testl rdi,rdi
0x8aec53fcf71   8b1  410f44f1             cmovzl rsi,r9
0x8aec53fcf75   8b5  8b45ac               movl rax,[rbp-0x54]
0x8aec53fcf78   8b8  85c0                 testl rax,rax
0x8aec53fcf7a   8ba  410f44f1             cmovzl rsi,r9
0x8aec53fcf7e   8be  b858000000           movl rax,0x58
0x8aec53fcf83   8c3  f7d8                 negl rax
0x8aec53fcf85   8c5  03c6                 addl rax,rsi
0x8aec53fcf87   8c7  bf21000000           movl rdi,0x21
0x8aec53fcf8c   8cc  3bc7                 cmpl rax,rdi
0x8aec53fcf8e   8ce  0f836a020000         jnc 0x8aec53fd1fe  <+0xb3e>
0x8aec53fcf94   8d4  bf10000000           movl rdi,0x10
0x8aec53fcf99   8d9  3bc7                 cmpl rax,rdi
0x8aec53fcf9b   8db  0f8318010000         jnc 0x8aec53fd0b9  <+0x9f9>
0x8aec53fcfa1   8e1  bf08000000           movl rdi,0x8
0x8aec53fcfa6   8e6  3bc7                 cmpl rax,rdi
0x8aec53fcfa8   8e8  0f837f000000         jnc 0x8aec53fd02d  <+0x96d>
0x8aec53fcfae   8ee  bf04000000           movl rdi,0x4
0x8aec53fcfb3   8f3  3bc7                 cmpl rax,rdi
0x8aec53fcfb5   8f5  0f8343000000         jnc 0x8aec53fcffe  <+0x93e>
0x8aec53fcfbb   8fb  bf02000000           movl rdi,0x2
0x8aec53fcfc0   900  3bc7                 cmpl rax,rdi
0x8aec53fcfc2   902  0f8325000000         jnc 0x8aec53fcfed  <+0x92d>
0x8aec53fcfc8   908  bf01000000           movl rdi,0x1
0x8aec53fcfcd   90d  3bc7                 cmpl rax,rdi
0x8aec53fcfcf   90f  0f830c000000         jnc 0x8aec53fcfe1  <+0x921>
0x8aec53fcfd5   915  33c0                 xorl rax,rax
0x8aec53fcfd7   917  bf00040000           movl rdi,0x400
0x8aec53fcfdc   91c  e950050000           jmp 0x8aec53fd531  <+0xe71>
0x8aec53fcfe1   921  33c0                 xorl rax,rax
0x8aec53fcfe3   923  bf00040000           movl rdi,0x400
0x8aec53fcfe8   928  e9210e0000           jmp 0x8aec53fde0e  <+0x174e>
0x8aec53fcfed   92d  bf03000000           movl rdi,0x3
0x8aec53fcff2   932  3bc7                 cmpl rax,rdi
0x8aec53fcff4   934  0f8302000000         jnc 0x8aec53fcffc  <+0x93c>
0x8aec53fcffa   93a  ebe5                 jmp 0x8aec53fcfe1  <+0x921>
0x8aec53fcffc   93c  ebe3                 jmp 0x8aec53fcfe1  <+0x921>
0x8aec53fcffe   93e  bf06000000           movl rdi,0x6
0x8aec53fd003   943  3bc7                 cmpl rax,rdi
0x8aec53fd005   945  0f8311000000         jnc 0x8aec53fd01c  <+0x95c>
0x8aec53fd00b   94b  bf05000000           movl rdi,0x5
0x8aec53fd010   950  3bc7                 cmpl rax,rdi
0x8aec53fd012   952  0f8302000000         jnc 0x8aec53fd01a  <+0x95a>
0x8aec53fd018   958  ebc7                 jmp 0x8aec53fcfe1  <+0x921>
0x8aec53fd01a   95a  ebc5                 jmp 0x8aec53fcfe1  <+0x921>
0x8aec53fd01c   95c  bf07000000           movl rdi,0x7
0x8aec53fd021   961  3bc7                 cmpl rax,rdi
0x8aec53fd023   963  0f8302000000         jnc 0x8aec53fd02b  <+0x96b>
0x8aec53fd029   969  ebb6                 jmp 0x8aec53fcfe1  <+0x921>
0x8aec53fd02b   96b  ebb4                 jmp 0x8aec53fcfe1  <+0x921>
0x8aec53fd02d   96d  bf0c000000           movl rdi,0xc
0x8aec53fd032   972  3bc7                 cmpl rax,rdi
0x8aec53fd034   974  0f8346000000         jnc 0x8aec53fd080  <+0x9c0>
0x8aec53fd03a   97a  bf0a000000           movl rdi,0xa
0x8aec53fd03f   97f  3bc7                 cmpl rax,rdi
0x8aec53fd041   981  0f831b000000         jnc 0x8aec53fd062  <+0x9a2>
0x8aec53fd047   987  bf09000000           movl rdi,0x9
0x8aec53fd04c   98c  3bc7                 cmpl rax,rdi
0x8aec53fd04e   98e  0f8302000000         jnc 0x8aec53fd056  <+0x996>
0x8aec53fd054   994  eb8b                 jmp 0x8aec53fcfe1  <+0x921>
0x8aec53fd056   996  33c0                 xorl rax,rax
0x8aec53fd058   998  bf00040000           movl rdi,0x400
0x8aec53fd05d   99d  e90e0b0000           jmp 0x8aec53fdb70  <+0x14b0>
0x8aec53fd062   9a2  bf0b000000           movl rdi,0xb
0x8aec53fd067   9a7  3bc7                 cmpl rax,rdi
0x8aec53fd069   9a9  0f8305000000         jnc 0x8aec53fd074  <+0x9b4>
0x8aec53fd06f   9af  e96dffffff           jmp 0x8aec53fcfe1  <+0x921>
0x8aec53fd074   9b4  33c0                 xorl rax,rax
0x8aec53fd076   9b6  bf00040000           movl rdi,0x400
0x8aec53fd07b   9bb  e9e80b0000           jmp 0x8aec53fdc68  <+0x15a8>
0x8aec53fd080   9c0  bf0e000000           movl rdi,0xe
0x8aec53fd085   9c5  3bc7                 cmpl rax,rdi
0x8aec53fd087   9c7  0f831b000000         jnc 0x8aec53fd0a8  <+0x9e8>
0x8aec53fd08d   9cd  bf0d000000           movl rdi,0xd
0x8aec53fd092   9d2  3bc7                 cmpl rax,rdi
0x8aec53fd094   9d4  0f830c000000         jnc 0x8aec53fd0a6  <+0x9e6>
0x8aec53fd09a   9da  33c0                 xorl rax,rax
0x8aec53fd09c   9dc  bf00040000           movl rdi,0x400
0x8aec53fd0a1   9e1  e998050000           jmp 0x8aec53fd63e  <+0xf7e>
0x8aec53fd0a6   9e6  ebae                 jmp 0x8aec53fd056  <+0x996>
0x8aec53fd0a8   9e8  bf0f000000           movl rdi,0xf
0x8aec53fd0ad   9ed  3bc7                 cmpl rax,rdi
0x8aec53fd0af   9ef  0f8302000000         jnc 0x8aec53fd0b7  <+0x9f7>
0x8aec53fd0b5   9f5  eb9f                 jmp 0x8aec53fd056  <+0x996>
0x8aec53fd0b7   9f7  eb9d                 jmp 0x8aec53fd056  <+0x996>
0x8aec53fd0b9   9f9  bf18000000           movl rdi,0x18
0x8aec53fd0be   9fe  3bc7                 cmpl rax,rdi
0x8aec53fd0c0   a00  0f838e000000         jnc 0x8aec53fd154  <+0xa94>
0x8aec53fd0c6   a06  bf14000000           movl rdi,0x14
0x8aec53fd0cb   a0b  3bc7                 cmpl rax,rdi
0x8aec53fd0cd   a0d  0f8338000000         jnc 0x8aec53fd10b  <+0xa4b>
0x8aec53fd0d3   a13  bf12000000           movl rdi,0x12
0x8aec53fd0d8   a18  3bc7                 cmpl rax,rdi
0x8aec53fd0da   a1a  0f8314000000         jnc 0x8aec53fd0f4  <+0xa34>
0x8aec53fd0e0   a20  bf11000000           movl rdi,0x11
0x8aec53fd0e5   a25  3bc7                 cmpl rax,rdi
0x8aec53fd0e7   a27  0f8305000000         jnc 0x8aec53fd0f2  <+0xa32>
0x8aec53fd0ed   a2d  e9effeffff           jmp 0x8aec53fcfe1  <+0x921>
0x8aec53fd0f2   a32  eba6                 jmp 0x8aec53fd09a  <+0x9da>
0x8aec53fd0f4   a34  bf13000000           movl rdi,0x13
0x8aec53fd0f9   a39  3bc7                 cmpl rax,rdi
0x8aec53fd0fb   a3b  0f8305000000         jnc 0x8aec53fd106  <+0xa46>
0x8aec53fd101   a41  e9dbfeffff           jmp 0x8aec53fcfe1  <+0x921>
0x8aec53fd106   a46  e9d6feffff           jmp 0x8aec53fcfe1  <+0x921>
0x8aec53fd10b   a4b  bf16000000           movl rdi,0x16
0x8aec53fd110   a50  3bc7                 cmpl rax,rdi
0x8aec53fd112   a52  0f8317000000         jnc 0x8aec53fd12f  <+0xa6f>
0x8aec53fd118   a58  bf15000000           movl rdi,0x15
0x8aec53fd11d   a5d  3bc7                 cmpl rax,rdi
0x8aec53fd11f   a5f  0f8305000000         jnc 0x8aec53fd12a  <+0xa6a>
0x8aec53fd125   a65  e9b7feffff           jmp 0x8aec53fcfe1  <+0x921>
0x8aec53fd12a   a6a  e9b2feffff           jmp 0x8aec53fcfe1  <+0x921>
0x8aec53fd12f   a6f  bf17000000           movl rdi,0x17
0x8aec53fd134   a74  3bc7                 cmpl rax,rdi
0x8aec53fd136   a76  0f830c000000         jnc 0x8aec53fd148  <+0xa88>
0x8aec53fd13c   a7c  33c0                 xorl rax,rax
0x8aec53fd13e   a7e  bf00040000           movl rdi,0x400
0x8aec53fd143   a83  e98a010000           jmp 0x8aec53fd2d2  <+0xc12>
0x8aec53fd148   a88  33c0                 xorl rax,rax
0x8aec53fd14a   a8a  bf00040000           movl rdi,0x400
0x8aec53fd14f   a8f  e979040000           jmp 0x8aec53fd5cd  <+0xf0d>
0x8aec53fd154   a94  bf1c000000           movl rdi,0x1c
0x8aec53fd159   a99  3bc7                 cmpl rax,rdi
0x8aec53fd15b   a9b  0f8349000000         jnc 0x8aec53fd1aa  <+0xaea>
0x8aec53fd161   aa1  bf1a000000           movl rdi,0x1a
0x8aec53fd166   aa6  3bc7                 cmpl rax,rdi
0x8aec53fd168   aa8  0f831e000000         jnc 0x8aec53fd18c  <+0xacc>
0x8aec53fd16e   aae  bf19000000           movl rdi,0x19
0x8aec53fd173   ab3  3bc7                 cmpl rax,rdi
0x8aec53fd175   ab5  0f830c000000         jnc 0x8aec53fd187  <+0xac7>
0x8aec53fd17b   abb  33c0                 xorl rax,rax
0x8aec53fd17d   abd  bf00040000           movl rdi,0x400
0x8aec53fd182   ac2  e971030000           jmp 0x8aec53fd4f8  <+0xe38>
0x8aec53fd187   ac7  e955feffff           jmp 0x8aec53fcfe1  <+0x921>
0x8aec53fd18c   acc  bf1b000000           movl rdi,0x1b
0x8aec53fd191   ad1  3bc7                 cmpl rax,rdi
0x8aec53fd193   ad3  0f8305000000         jnc 0x8aec53fd19e  <+0xade>
0x8aec53fd199   ad9  e943feffff           jmp 0x8aec53fcfe1  <+0x921>
0x8aec53fd19e   ade  33c0                 xorl rax,rax
0x8aec53fd1a0   ae0  bf00040000           movl rdi,0x400
0x8aec53fd1a5   ae5  e945060000           jmp 0x8aec53fd7ef  <+0x112f>
0x8aec53fd1aa   aea  bf1e000000           movl rdi,0x1e
0x8aec53fd1af   aef  3bc7                 cmpl rax,rdi
0x8aec53fd1b1   af1  0f831e000000         jnc 0x8aec53fd1d5  <+0xb15>
0x8aec53fd1b7   af7  bf1d000000           movl rdi,0x1d
0x8aec53fd1bc   afc  3bc7                 cmpl rax,rdi
0x8aec53fd1be   afe  0f8305000000         jnc 0x8aec53fd1c9  <+0xb09>
0x8aec53fd1c4   b04  e918feffff           jmp 0x8aec53fcfe1  <+0x921>
0x8aec53fd1c9   b09  33c0                 xorl rax,rax
0x8aec53fd1cb   b0b  bf00040000           movl rdi,0x400
0x8aec53fd1d0   b10  e9db000000           jmp 0x8aec53fd2b0  <+0xbf0>
0x8aec53fd1d5   b15  bf1f000000           movl rdi,0x1f
0x8aec53fd1da   b1a  3bc7                 cmpl rax,rdi
0x8aec53fd1dc   b1c  0f8305000000         jnc 0x8aec53fd1e7  <+0xb27>
0x8aec53fd1e2   b22  e9fafdffff           jmp 0x8aec53fcfe1  <+0x921>
0x8aec53fd1e7   b27  bf20000000           movl rdi,0x20
0x8aec53fd1ec   b2c  3bc7                 cmpl rax,rdi
0x8aec53fd1ee   b2e  0f8305000000         jnc 0x8aec53fd1f9  <+0xb39>
0x8aec53fd1f4   b34  e9e8fdffff           jmp 0x8aec53fcfe1  <+0x921>
0x8aec53fd1f9   b39  e9d7fdffff           jmp 0x8aec53fcfd5  <+0x915>
0x8aec53fd1fe   b3e  33c0                 xorl rax,rax
0x8aec53fd200   b40  bf00040000           movl rdi,0x400
0x8aec53fd205   b45  e900000000           jmp 0x8aec53fd20a  <+0xb4a>
0x8aec53fd20a   b4a  41b941000000         movl r9,0x41
0x8aec53fd210   b50  41f7d9               negl r9
0x8aec53fd213   b53  4403ce               addl r9,rsi
0x8aec53fd216   b56  8945a4               movl [rbp-0x5c],rax
0x8aec53fd219   b59  b807000000           movl rax,0x7
0x8aec53fd21e   b5e  443bc8               cmpl r9,rax
0x8aec53fd221   b61  0f8371000000         jnc 0x8aec53fd298  <+0xbd8>
0x8aec53fd227   b67  b803000000           movl rax,0x3
0x8aec53fd22c   b6c  443bc8               cmpl r9,rax
0x8aec53fd22f   b6f  0f8331000000         jnc 0x8aec53fd266  <+0xba6>
0x8aec53fd235   b75  b801000000           movl rax,0x1
0x8aec53fd23a   b7a  443bc8               cmpl r9,rax
0x8aec53fd23d   b7d  0f8308000000         jnc 0x8aec53fd24b  <+0xb8b>
0x8aec53fd243   b83  8b45a4               movl rax,[rbp-0x5c]
0x8aec53fd246   b86  e925090000           jmp 0x8aec53fdb70  <+0x14b0>
0x8aec53fd24b   b8b  b802000000           movl rax,0x2
0x8aec53fd250   b90  443bc8               cmpl r9,rax
0x8aec53fd253   b93  0f8308000000         jnc 0x8aec53fd261  <+0xba1>
0x8aec53fd259   b99  8b45a4               movl rax,[rbp-0x5c]
0x8aec53fd25c   b9c  e9ad0b0000           jmp 0x8aec53fde0e  <+0x174e>
0x8aec53fd261   ba1  e9a2060000           jmp 0x8aec53fd908  <+0x1248>
0x8aec53fd266   ba6  b805000000           movl rax,0x5
0x8aec53fd26b   bab  443bc8               cmpl r9,rax
0x8aec53fd26e   bae  0f8312000000         jnc 0x8aec53fd286  <+0xbc6>
0x8aec53fd274   bb4  b804000000           movl rax,0x4
0x8aec53fd279   bb9  443bc8               cmpl r9,rax
0x8aec53fd27c   bbc  0f8302000000         jnc 0x8aec53fd284  <+0xbc4>
0x8aec53fd282   bc2  ebd5                 jmp 0x8aec53fd259  <+0xb99>
0x8aec53fd284   bc4  ebbd                 jmp 0x8aec53fd243  <+0xb83>
0x8aec53fd286   bc6  b806000000           movl rax,0x6
0x8aec53fd28b   bcb  443bc8               cmpl r9,rax
0x8aec53fd28e   bce  0f8302000000         jnc 0x8aec53fd296  <+0xbd6>
0x8aec53fd294   bd4  ebad                 jmp 0x8aec53fd243  <+0xb83>
0x8aec53fd296   bd6  ebab                 jmp 0x8aec53fd243  <+0xb83>
0x8aec53fd298   bd8  e900000000           jmp 0x8aec53fd29d  <+0xbdd>
0x8aec53fd29d   bdd  83fe53               cmpl rsi,0x53
0x8aec53fd2a0   be0  0f8505000000         jnz 0x8aec53fd2ab  <+0xbeb>
0x8aec53fd2a6   be6  e90c060000           jmp 0x8aec53fd8b7  <+0x11f7>
0x8aec53fd2ab   beb  e95b0b0000           jmp 0x8aec53fde0b  <+0x174b>
0x8aec53fd2b0   bf0  448b4db8             movl r9,[rbp-0x48]
0x8aec53fd2b4   bf4  8945a4               movl [rbp-0x5c],rax
0x8aec53fd2b7   bf7  488b45f0             REX.W movq rax,[rbp-0x10]
0x8aec53fd2bb   bfb  488b4017             REX.W movq rax,[rax+0x17]
0x8aec53fd2bf   bff  894db4               movl [rbp-0x4c],rcx
0x8aec53fd2c2   c02  4a8b4c0840           REX.W movq rcx,[rax+r9*1+0x40]
0x8aec53fd2c7   c07  41b900040000         movl r9,0x400
0x8aec53fd2cd   c0d  e910040000           jmp 0x8aec53fd6e2  <+0x1022>
0x8aec53fd2d2   c12  8b75ac               movl rsi,[rbp-0x54]
0x8aec53fd2d5   c15  81e6ff000000         andl rsi,0xff
0x8aec53fd2db   c1b  41b908000000         movl r9,0x8
0x8aec53fd2e1   c21  413bf1               cmpl rsi,r9
0x8aec53fd2e4   c24  0f83b5000000         jnc 0x8aec53fd39f  <+0xcdf>
0x8aec53fd2ea   c2a  41b904000000         movl r9,0x4
0x8aec53fd2f0   c30  413bf1               cmpl rsi,r9
0x8aec53fd2f3   c33  0f8349000000         jnc 0x8aec53fd342  <+0xc82>
0x8aec53fd2f9   c39  41b902000000         movl r9,0x2
0x8aec53fd2ff   c3f  413bf1               cmpl rsi,r9
0x8aec53fd302   c42  0f831d000000         jnc 0x8aec53fd325  <+0xc65>
0x8aec53fd308   c48  41b901000000         movl r9,0x1
0x8aec53fd30e   c4e  413bf1               cmpl rsi,r9
0x8aec53fd311   c51  0f8307000000         jnc 0x8aec53fd31e  <+0xc5e>
0x8aec53fd317   c57  33f6                 xorl rsi,rsi
0x8aec53fd319   c59  e983000000           jmp 0x8aec53fd3a1  <+0xce1>
0x8aec53fd31e   c5e  33f6                 xorl rsi,rsi
0x8aec53fd320   c60  e9ac000000           jmp 0x8aec53fd3d1  <+0xd11>
0x8aec53fd325   c65  41b903000000         movl r9,0x3
0x8aec53fd32b   c6b  413bf1               cmpl rsi,r9
0x8aec53fd32e   c6e  0f8307000000         jnc 0x8aec53fd33b  <+0xc7b>
0x8aec53fd334   c74  33f6                 xorl rsi,rsi
0x8aec53fd336   c76  e9c6000000           jmp 0x8aec53fd401  <+0xd41>
0x8aec53fd33b   c7b  33f6                 xorl rsi,rsi
0x8aec53fd33d   c7d  e9f2000000           jmp 0x8aec53fd434  <+0xd74>
0x8aec53fd342   c82  41b906000000         movl r9,0x6
0x8aec53fd348   c88  413bf1               cmpl rsi,r9
0x8aec53fd34b   c8b  0f8331000000         jnc 0x8aec53fd382  <+0xcc2>
0x8aec53fd351   c91  41b905000000         movl r9,0x5
0x8aec53fd357   c97  413bf1               cmpl rsi,r9
0x8aec53fd35a   c9a  0f8307000000         jnc 0x8aec53fd367  <+0xca7>
0x8aec53fd360   ca0  33f6                 xorl rsi,rsi
0x8aec53fd362   ca2  e9fe000000           jmp 0x8aec53fd465  <+0xda5>
0x8aec53fd367   ca7  c745d000000000       movl [rbp-0x30],0x0
0x8aec53fd36e   cae  894db4               movl [rbp-0x4c],rcx
0x8aec53fd371   cb1  8945a4               movl [rbp-0x5c],rax
0x8aec53fd374   cb4  895d98               movl [rbp-0x68],rbx
0x8aec53fd377   cb7  897d90               movl [rbp-0x70],rdi
0x8aec53fd37a   cba  895588               movl [rbp-0x78],rdx
0x8aec53fd37d   cbd  e9cff3ffff           jmp 0x8aec53fc751  <+0x91>
0x8aec53fd382   cc2  41b907000000         movl r9,0x7
0x8aec53fd388   cc8  413bf1               cmpl rsi,r9
0x8aec53fd38b   ccb  0f8307000000         jnc 0x8aec53fd398  <+0xcd8>
0x8aec53fd391   cd1  33f6                 xorl rsi,rsi
0x8aec53fd393   cd3  e9fd000000           jmp 0x8aec53fd495  <+0xdd5>
0x8aec53fd398   cd8  33f6                 xorl rsi,rsi
0x8aec53fd39a   cda  e926010000           jmp 0x8aec53fd4c5  <+0xe05>
0x8aec53fd39f   cdf  ebc6                 jmp 0x8aec53fd367  <+0xca7>
0x8aec53fd3a1   ce1  448b4db8             movl r9,[rbp-0x48]
0x8aec53fd3a5   ce5  8945a4               movl [rbp-0x5c],rax
0x8aec53fd3a8   ce8  488b45f0             REX.W movq rax,[rbp-0x10]
0x8aec53fd3ac   cec  488b4017             REX.W movq rax,[rax+0x17]
0x8aec53fd3b0   cf0  894db4               movl [rbp-0x4c],rcx
0x8aec53fd3b3   cf3  428b4c0840           movl rcx,[rax+r9*1+0x40]
0x8aec53fd3b8   cf8  448b4da0             movl r9,[rbp-0x60]
0x8aec53fd3bc   cfc  44890c08             movl [rax+rcx*1],r9
0x8aec53fd3c0   d00  8975d0               movl [rbp-0x30],rsi
0x8aec53fd3c3   d03  895d98               movl [rbp-0x68],rbx
0x8aec53fd3c6   d06  897d90               movl [rbp-0x70],rdi
0x8aec53fd3c9   d09  895588               movl [rbp-0x78],rdx
0x8aec53fd3cc   d0c  e980f3ffff           jmp 0x8aec53fc751  <+0x91>
0x8aec53fd3d1   d11  448b4db8             movl r9,[rbp-0x48]
0x8aec53fd3d5   d15  8945a4               movl [rbp-0x5c],rax
0x8aec53fd3d8   d18  488b45f0             REX.W movq rax,[rbp-0x10]
0x8aec53fd3dc   d1c  488b4017             REX.W movq rax,[rax+0x17]
0x8aec53fd3e0   d20  894db4               movl [rbp-0x4c],rcx
0x8aec53fd3e3   d23  428b4c0840           movl rcx,[rax+r9*1+0x40]
0x8aec53fd3e8   d28  448b4da0             movl r9,[rbp-0x60]
0x8aec53fd3ec   d2c  44890c08             movl [rax+rcx*1],r9
0x8aec53fd3f0   d30  8975d0               movl [rbp-0x30],rsi
0x8aec53fd3f3   d33  895d98               movl [rbp-0x68],rbx
0x8aec53fd3f6   d36  897d90               movl [rbp-0x70],rdi
0x8aec53fd3f9   d39  895588               movl [rbp-0x78],rdx
0x8aec53fd3fc   d3c  e950f3ffff           jmp 0x8aec53fc751  <+0x91>
0x8aec53fd401   d41  448b4db8             movl r9,[rbp-0x48]
0x8aec53fd405   d45  8945a4               movl [rbp-0x5c],rax
0x8aec53fd408   d48  488b45f0             REX.W movq rax,[rbp-0x10]
0x8aec53fd40c   d4c  488b4017             REX.W movq rax,[rax+0x17]
0x8aec53fd410   d50  894db4               movl [rbp-0x4c],rcx
0x8aec53fd413   d53  428b4c0840           movl rcx,[rax+r9*1+0x40]
0x8aec53fd418   d58  448b4da0             movl r9,[rbp-0x60]
0x8aec53fd41c   d5c  4d63c9               REX.W movsxlq r9,r9
0x8aec53fd41f   d5f  4c890c08             REX.W movq [rax+rcx*1],r9
0x8aec53fd423   d63  8975d0               movl [rbp-0x30],rsi
0x8aec53fd426   d66  895d98               movl [rbp-0x68],rbx
0x8aec53fd429   d69  897d90               movl [rbp-0x70],rdi
0x8aec53fd42c   d6c  895588               movl [rbp-0x78],rdx
0x8aec53fd42f   d6f  e91df3ffff           jmp 0x8aec53fc751  <+0x91>
0x8aec53fd434   d74  448b4db8             movl r9,[rbp-0x48]
0x8aec53fd438   d78  8945a4               movl [rbp-0x5c],rax
0x8aec53fd43b   d7b  488b45f0             REX.W movq rax,[rbp-0x10]
0x8aec53fd43f   d7f  488b4017             REX.W movq rax,[rax+0x17]
0x8aec53fd443   d83  894db4               movl [rbp-0x4c],rcx
0x8aec53fd446   d86  428b4c0840           movl rcx,[rax+r9*1+0x40]
0x8aec53fd44b   d8b  448b4da0             movl r9,[rbp-0x60]
0x8aec53fd44f   d8f  6644890c08           movw [rax+rcx*1],r9
0x8aec53fd454   d94  8975d0               movl [rbp-0x30],rsi
0x8aec53fd457   d97  895d98               movl [rbp-0x68],rbx
0x8aec53fd45a   d9a  897d90               movl [rbp-0x70],rdi
0x8aec53fd45d   d9d  895588               movl [rbp-0x78],rdx
0x8aec53fd460   da0  e9ecf2ffff           jmp 0x8aec53fc751  <+0x91>
0x8aec53fd465   da5  448b4db8             movl r9,[rbp-0x48]
0x8aec53fd469   da9  8945a4               movl [rbp-0x5c],rax
0x8aec53fd46c   dac  488b45f0             REX.W movq rax,[rbp-0x10]
0x8aec53fd470   db0  488b4017             REX.W movq rax,[rax+0x17]
0x8aec53fd474   db4  894db4               movl [rbp-0x4c],rcx
0x8aec53fd477   db7  428b4c0840           movl rcx,[rax+r9*1+0x40]
0x8aec53fd47c   dbc  448b4da0             movl r9,[rbp-0x60]
0x8aec53fd480   dc0  44880c08             movb [rax+rcx*1],r9l
0x8aec53fd484   dc4  8975d0               movl [rbp-0x30],rsi
0x8aec53fd487   dc7  895d98               movl [rbp-0x68],rbx
0x8aec53fd48a   dca  897d90               movl [rbp-0x70],rdi
0x8aec53fd48d   dcd  895588               movl [rbp-0x78],rdx
0x8aec53fd490   dd0  e9bcf2ffff           jmp 0x8aec53fc751  <+0x91>
0x8aec53fd495   dd5  448b4db8             movl r9,[rbp-0x48]
0x8aec53fd499   dd9  8945a4               movl [rbp-0x5c],rax
0x8aec53fd49c   ddc  488b45f0             REX.W movq rax,[rbp-0x10]
0x8aec53fd4a0   de0  488b4017             REX.W movq rax,[rax+0x17]
0x8aec53fd4a4   de4  894db4               movl [rbp-0x4c],rcx
0x8aec53fd4a7   de7  428b4c0840           movl rcx,[rax+r9*1+0x40]
0x8aec53fd4ac   dec  448b4da0             movl r9,[rbp-0x60]
0x8aec53fd4b0   df0  44890c08             movl [rax+rcx*1],r9
0x8aec53fd4b4   df4  8975d0               movl [rbp-0x30],rsi
0x8aec53fd4b7   df7  895d98               movl [rbp-0x68],rbx
0x8aec53fd4ba   dfa  897d90               movl [rbp-0x70],rdi
0x8aec53fd4bd   dfd  895588               movl [rbp-0x78],rdx
0x8aec53fd4c0   e00  e98cf2ffff           jmp 0x8aec53fc751  <+0x91>
0x8aec53fd4c5   e05  448b4db8             movl r9,[rbp-0x48]
0x8aec53fd4c9   e09  8945a4               movl [rbp-0x5c],rax
0x8aec53fd4cc   e0c  488b45f0             REX.W movq rax,[rbp-0x10]
0x8aec53fd4d0   e10  488b4017             REX.W movq rax,[rax+0x17]
0x8aec53fd4d4   e14  894db4               movl [rbp-0x4c],rcx
0x8aec53fd4d7   e17  428b4c0840           movl rcx,[rax+r9*1+0x40]
0x8aec53fd4dc   e1c  448b4da0             movl r9,[rbp-0x60]
0x8aec53fd4e0   e20  4d63c9               REX.W movsxlq r9,r9
0x8aec53fd4e3   e23  4c890c08             REX.W movq [rax+rcx*1],r9
0x8aec53fd4e7   e27  8975d0               movl [rbp-0x30],rsi
0x8aec53fd4ea   e2a  895d98               movl [rbp-0x68],rbx
0x8aec53fd4ed   e2d  897d90               movl [rbp-0x70],rdi
0x8aec53fd4f0   e30  895588               movl [rbp-0x78],rdx
0x8aec53fd4f3   e33  e959f2ffff           jmp 0x8aec53fc751  <+0x91>
0x8aec53fd4f8   e38  448b4db0             movl r9,[rbp-0x50]
0x8aec53fd4fc   e3c  8945a4               movl [rbp-0x5c],rax
0x8aec53fd4ff   e3f  8b45b0               movl rax,[rbp-0x50]
0x8aec53fd502   e42  894db4               movl [rbp-0x4c],rcx
0x8aec53fd505   e45  b908000000           movl rcx,0x8
0x8aec53fd50a   e4a  3bc1                 cmpl rax,rcx
0x8aec53fd50c   e4c  0f97c0               setal al
0x8aec53fd50f   e4f  0fb6c0               movzxbl rax,rax
0x8aec53fd512   e52  b908000000           movl rcx,0x8
0x8aec53fd517   e57  85c0                 testl rax,rax
0x8aec53fd519   e59  440f44c9             cmovzl r9,rcx
0x8aec53fd51d   e5d  8b45b4               movl rax,[rbp-0x4c]
0x8aec53fd520   e60  83c808               orl rax,0x8
0x8aec53fd523   e63  44894db0             movl [rbp-0x50],r9
0x8aec53fd527   e67  8bc8                 movl rcx,rax
0x8aec53fd529   e69  8b45a4               movl rax,[rbp-0x5c]
0x8aec53fd52c   e6c  be78000000           movl rsi,0x78
0x8aec53fd531   e71  448b4db8             movl r9,[rbp-0x48]
0x8aec53fd535   e75  8945a4               movl [rbp-0x5c],rax
0x8aec53fd538   e78  488b45f0             REX.W movq rax,[rbp-0x10]
0x8aec53fd53c   e7c  488b4017             REX.W movq rax,[rax+0x17]
0x8aec53fd540   e80  894db4               movl [rbp-0x4c],rcx
0x8aec53fd543   e83  4a8b4c0840           REX.W movq rcx,[rax+r9*1+0x40]
0x8aec53fd548   e88  448b4d8c             movl r9,[rbp-0x74]
0x8aec53fd54c   e8c  8bc6                 movl rax,rsi
0x8aec53fd54e   e8e  83e020               andl rax,0x20
0x8aec53fd551   e91  895588               movl [rbp-0x78],rdx
0x8aec53fd554   e94  897d90               movl [rbp-0x70],rdi
0x8aec53fd557   e97  895d98               movl [rbp-0x68],rbx
0x8aec53fd55a   e9a  8975d0               movl [rbp-0x30],rsi
0x8aec53fd55d   e9d  418bd1               movl rdx,r9
0x8aec53fd560   ea0  48898d58ffffff       REX.W movq [rbp-0xa8],rcx
0x8aec53fd567   ea7  8bc8                 movl rcx,rax
0x8aec53fd569   ea9  488b8558ffffff       REX.W movq rax,[rbp-0xa8]
0x8aec53fd570   eb0  488b75f0             REX.W movq rsi,[rbp-0x10]
0x8aec53fd574   eb4  e8f9aaffff           call 0x8aec53f8072  (jump table)
0x8aec53fd579   eb9  8b4db8               movl rcx,[rbp-0x48]
0x8aec53fd57c   ebc  488b75f0             REX.W movq rsi,[rbp-0x10]
0x8aec53fd580   ec0  488b5617             REX.W movq rdx,[rsi+0x17]
0x8aec53fd584   ec4  488b5c0a40           REX.W movq rbx,[rdx+rcx*1+0x40]
0x8aec53fd589   ec9  4885db               REX.W testq rbx,rbx
0x8aec53fd58c   ecc  0f94c3               setzl bl
0x8aec53fd58f   ecf  0fb6db               movzxbl rbx,rbx
0x8aec53fd592   ed2  85db                 testl rbx,rbx
0x8aec53fd594   ed4  0f8405000000         jz 0x8aec53fd59f  <+0xedf>
0x8aec53fd59a   eda  e968010000           jmp 0x8aec53fd707  <+0x1047>
0x8aec53fd59f   edf  8b4db4               movl rcx,[rbp-0x4c]
0x8aec53fd5a2   ee2  83e108               andl rcx,0x8
0x8aec53fd5a5   ee5  85c9                 testl rcx,rcx
0x8aec53fd5a7   ee7  0f8505000000         jnz 0x8aec53fd5b2  <+0xef2>
0x8aec53fd5ad   eed  e955010000           jmp 0x8aec53fd707  <+0x1047>
0x8aec53fd5b2   ef2  8b4dd0               movl rcx,[rbp-0x30]
0x8aec53fd5b5   ef5  c1e904               shrl rcx, 4
0x8aec53fd5b8   ef8  81c100040000         addl rcx,0x400
0x8aec53fd5be   efe  c745a402000000       movl [rbp-0x5c],0x2
0x8aec53fd5c5   f05  894d90               movl [rbp-0x70],rcx
0x8aec53fd5c8   f08  e93a010000           jmp 0x8aec53fd707  <+0x1047>
0x8aec53fd5cd   f0d  448b4db8             movl r9,[rbp-0x48]
0x8aec53fd5d1   f11  8945a4               movl [rbp-0x5c],rax
0x8aec53fd5d4   f14  488b45f0             REX.W movq rax,[rbp-0x10]
0x8aec53fd5d8   f18  488b4017             REX.W movq rax,[rax+0x17]
0x8aec53fd5dc   f1c  894db4               movl [rbp-0x4c],rcx
0x8aec53fd5df   f1f  4a8b4c0840           REX.W movq rcx,[rax+r9*1+0x40]
0x8aec53fd5e4   f24  448b4d8c             movl r9,[rbp-0x74]
0x8aec53fd5e8   f28  895588               movl [rbp-0x78],rdx
0x8aec53fd5eb   f2b  897d90               movl [rbp-0x70],rdi
0x8aec53fd5ee   f2e  895d98               movl [rbp-0x68],rbx
0x8aec53fd5f1   f31  8975d0               movl [rbp-0x30],rsi
0x8aec53fd5f4   f34  488bc1               REX.W movq rax,rcx
0x8aec53fd5f7   f37  418bd1               movl rdx,r9
0x8aec53fd5fa   f3a  488b75f0             REX.W movq rsi,[rbp-0x10]
0x8aec53fd5fe   f3e  e874aaffff           call 0x8aec53f8077  (jump table)
0x8aec53fd603   f43  8b4db4               movl rcx,[rbp-0x4c]
0x8aec53fd606   f46  83e108               andl rcx,0x8
0x8aec53fd609   f49  85c9                 testl rcx,rcx
0x8aec53fd60b   f4b  0f8505000000         jnz 0x8aec53fd616  <+0xf56>
0x8aec53fd611   f51  e9f1000000           jmp 0x8aec53fd707  <+0x1047>
0x8aec53fd616   f56  8b4db0               movl rcx,[rbp-0x50]
0x8aec53fd619   f59  8b558c               movl rdx,[rbp-0x74]
0x8aec53fd61c   f5c  2bd0                 subl rdx,rax
0x8aec53fd61e   f5e  8d5a01               leal rbx,[rdx+0x1]
0x8aec53fd621   f61  8b75b0               movl rsi,[rbp-0x50]
0x8aec53fd624   f64  3bd6                 cmpl rdx,rsi
0x8aec53fd626   f66  400f9cc6             setll sil
0x8aec53fd62a   f6a  400fb6f6             movzxbl rsi,rsi
0x8aec53fd62e   f6e  85f6                 testl rsi,rsi
0x8aec53fd630   f70  0f44cb               cmovzl rcx,rbx
0x8aec53fd633   f73  8955d0               movl [rbp-0x30],rdx
0x8aec53fd636   f76  894db0               movl [rbp-0x50],rcx
0x8aec53fd639   f79  e9c9000000           jmp 0x8aec53fd707  <+0x1047>
0x8aec53fd63e   f7e  448b4db8             movl r9,[rbp-0x48]
0x8aec53fd642   f82  8945a4               movl [rbp-0x5c],rax
0x8aec53fd645   f85  488b45f0             REX.W movq rax,[rbp-0x10]
0x8aec53fd649   f89  488b4017             REX.W movq rax,[rax+0x17]
0x8aec53fd64d   f8d  894db4               movl [rbp-0x4c],rcx
0x8aec53fd650   f90  4a8b4c0840           REX.W movq rcx,[rax+r9*1+0x40]
0x8aec53fd655   f95  4533c9               xorl r9,r9
0x8aec53fd658   f98  493bc9               REX.W cmpq rcx,r9
0x8aec53fd65b   f9b  410f9cc1             setll r9l
0x8aec53fd65f   f9f  450fb6c9             movzxbl r9,r9
0x8aec53fd663   fa3  4585c9               testl r9,r9
0x8aec53fd666   fa6  0f842b000000         jz 0x8aec53fd697  <+0xfd7>
0x8aec53fd66c   fac  448b4db8             movl r9,[rbp-0x48]
0x8aec53fd670   fb0  33c0                 xorl rax,rax
0x8aec53fd672   fb2  482bc1               REX.W subq rax,rcx
0x8aec53fd675   fb5  488b4df0             REX.W movq rcx,[rbp-0x10]
0x8aec53fd679   fb9  488b4917             REX.W movq rcx,[rcx+0x17]
0x8aec53fd67d   fbd  4a89440940           REX.W movq [rcx+r9*1+0x40],rax
0x8aec53fd682   fc2  c745a401000000       movl [rbp-0x5c],0x1
0x8aec53fd689   fc9  488bc8               REX.W movq rcx,rax
0x8aec53fd68c   fcc  41b900040000         movl r9,0x400
0x8aec53fd692   fd2  e94b000000           jmp 0x8aec53fd6e2  <+0x1022>
0x8aec53fd697   fd7  448b4db4             movl r9,[rbp-0x4c]
0x8aec53fd69b   fdb  4181e100080000       andl r9,0x800
0x8aec53fd6a2   fe2  4585c9               testl r9,r9
0x8aec53fd6a5   fe5  0f8412000000         jz 0x8aec53fd6bd  <+0xffd>
0x8aec53fd6ab   feb  c745a401000000       movl [rbp-0x5c],0x1
0x8aec53fd6b2   ff2  41b901040000         movl r9,0x401
0x8aec53fd6b8   ff8  e925000000           jmp 0x8aec53fd6e2  <+0x1022>
0x8aec53fd6bd   ffd  448b4db4             movl r9,[rbp-0x4c]
0x8aec53fd6c1  1001  4183e101             andl r9,0x1
0x8aec53fd6c5  1005  b800040000           movl rax,0x400
0x8aec53fd6ca  100a  895588               movl [rbp-0x78],rdx
0x8aec53fd6cd  100d  ba02040000           movl rdx,0x402
0x8aec53fd6d2  1012  4585c9               testl r9,r9
0x8aec53fd6d5  1015  0f44d0               cmovzl rdx,rax
0x8aec53fd6d8  1018  44894da4             movl [rbp-0x5c],r9
0x8aec53fd6dc  101c  448bca               movl r9,rdx
0x8aec53fd6df  101f  8b5588               movl rdx,[rbp-0x78]
0x8aec53fd6e2  1022  8b458c               movl rax,[rbp-0x74]
0x8aec53fd6e5  1025  48898d7cffffff       REX.W movq [rbp-0x84],rcx
0x8aec53fd6ec  102c  895588               movl [rbp-0x78],rdx
0x8aec53fd6ef  102f  44894d90             movl [rbp-0x70],r9
0x8aec53fd6f3  1033  895d98               movl [rbp-0x68],rbx
0x8aec53fd6f6  1036  8975d0               movl [rbp-0x30],rsi
0x8aec53fd6f9  1039  8bd0                 movl rdx,rax
0x8aec53fd6fb  103b  488bc1               REX.W movq rax,rcx
0x8aec53fd6fe  103e  488b75f0             REX.W movq rsi,[rbp-0x10]
0x8aec53fd702  1042  e879a9ffff           call 0x8aec53f8080  (jump table)
0x8aec53fd707  1047  8b8d78ffffff         movl rcx,[rbp-0x88]
0x8aec53fd70d  104d  8b55b0               movl rdx,[rbp-0x50]
0x8aec53fd710  1050  33db                 xorl rbx,rbx
0x8aec53fd712  1052  3bd3                 cmpl rdx,rbx
0x8aec53fd714  1054  0f9cc2               setll dl
0x8aec53fd717  1057  0fb6d2               movzxbl rdx,rdx
0x8aec53fd71a  105a  33db                 xorl rbx,rbx
0x8aec53fd71c  105c  85d2                 testl rdx,rdx
0x8aec53fd71e  105e  0f44cb               cmovzl rcx,rbx
0x8aec53fd721  1061  85c9                 testl rcx,rcx
0x8aec53fd723  1063  0f8408000000         jz 0x8aec53fd731  <+0x1071>
0x8aec53fd729  1069  8945a8               movl [rbp-0x58],rax
0x8aec53fd72c  106c  e960080000           jmp 0x8aec53fdf91  <+0x18d1>
0x8aec53fd731  1071  8b4db4               movl rcx,[rbp-0x4c]
0x8aec53fd734  1074  81e1fffffeff         andl rcx,0xfffeffff
0x8aec53fd73a  107a  8b55b4               movl rdx,[rbp-0x4c]
0x8aec53fd73d  107d  8b9d78ffffff         movl rbx,[rbp-0x88]
0x8aec53fd743  1083  85db                 testl rbx,rbx
0x8aec53fd745  1085  0f44ca               cmovzl rcx,rdx
0x8aec53fd748  1088  8b55b8               movl rdx,[rbp-0x48]
0x8aec53fd74b  108b  488b75f0             REX.W movq rsi,[rbp-0x10]
0x8aec53fd74f  108f  488b5e17             REX.W movq rbx,[rsi+0x17]
0x8aec53fd753  1093  488b7c1340           REX.W movq rdi,[rbx+rdx*1+0x40]
0x8aec53fd758  1098  33d2                 xorl rdx,rdx
0x8aec53fd75a  109a  483bfa               REX.W cmpq rdi,rdx
0x8aec53fd75d  109d  0f95c2               setnzl dl
0x8aec53fd760  10a0  0fb6d2               movzxbl rdx,rdx
0x8aec53fd763  10a3  85d2                 testl rdx,rdx
0x8aec53fd765  10a5  0f8405000000         jz 0x8aec53fd770  <+0x10b0>
0x8aec53fd76b  10ab  e937000000           jmp 0x8aec53fd7a7  <+0x10e7>
0x8aec53fd770  10b0  8b55b0               movl rdx,[rbp-0x50]
0x8aec53fd773  10b3  85d2                 testl rdx,rdx
0x8aec53fd775  10b5  0f8405000000         jz 0x8aec53fd780  <+0x10c0>
0x8aec53fd77b  10bb  e927000000           jmp 0x8aec53fd7a7  <+0x10e7>
0x8aec53fd780  10c0  8b558c               movl rdx,[rbp-0x74]
0x8aec53fd783  10c3  c745b000000000       movl [rbp-0x50],0x0
0x8aec53fd78a  10ca  8955a8               movl [rbp-0x58],rdx
0x8aec53fd78d  10cd  4889bd7cffffff       REX.W movq [rbp-0x84],rdi
0x8aec53fd794  10d4  8bda                 movl rbx,rdx
0x8aec53fd796  10d6  8b45a4               movl rax,[rbp-0x5c]
0x8aec53fd799  10d9  8b5588               movl rdx,[rbp-0x78]
0x8aec53fd79c  10dc  8b75d0               movl rsi,[rbp-0x30]
0x8aec53fd79f  10df  8b7d90               movl rdi,[rbp-0x70]
0x8aec53fd7a2  10e2  e967060000           jmp 0x8aec53fde0e  <+0x174e>
0x8aec53fd7a7  10e7  8b55b0               movl rdx,[rbp-0x50]
0x8aec53fd7aa  10ea  4885ff               REX.W testq rdi,rdi
0x8aec53fd7ad  10ed  410f94c1             setzl r9l
0x8aec53fd7b1  10f1  450fb6c9             movzxbl r9,r9
0x8aec53fd7b5  10f5  8b758c               movl rsi,[rbp-0x74]
0x8aec53fd7b8  10f8  2bf0                 subl rsi,rax
0x8aec53fd7ba  10fa  4403ce               addl r9,rsi
0x8aec53fd7bd  10fd  8b75b0               movl rsi,[rbp-0x50]
0x8aec53fd7c0  1100  443bce               cmpl r9,rsi
0x8aec53fd7c3  1103  400f9cc6             setll sil
0x8aec53fd7c7  1107  400fb6f6             movzxbl rsi,rsi
0x8aec53fd7cb  110b  85f6                 testl rsi,rsi
0x8aec53fd7cd  110d  410f44d1             cmovzl rdx,r9
0x8aec53fd7d1  1111  8955b0               movl [rbp-0x50],rdx
0x8aec53fd7d4  1114  8945a8               movl [rbp-0x58],rax
0x8aec53fd7d7  1117  4889bd7cffffff       REX.W movq [rbp-0x84],rdi
0x8aec53fd7de  111e  418bf1               movl rsi,r9
0x8aec53fd7e1  1121  8b5588               movl rdx,[rbp-0x78]
0x8aec53fd7e4  1124  8b5d98               movl rbx,[rbp-0x68]
0x8aec53fd7e7  1127  8b7d90               movl rdi,[rbp-0x70]
0x8aec53fd7ea  112a  e91c060000           jmp 0x8aec53fde0b  <+0x174b>
0x8aec53fd7ef  112f  448b4db8             movl r9,[rbp-0x48]
0x8aec53fd7f3  1133  8945a4               movl [rbp-0x5c],rax
0x8aec53fd7f6  1136  488b45f0             REX.W movq rax,[rbp-0x10]
0x8aec53fd7fa  113a  488b4017             REX.W movq rax,[rax+0x17]
0x8aec53fd7fe  113e  894db4               movl [rbp-0x4c],rcx
0x8aec53fd801  1141  428b4c0840           movl rcx,[rax+r9*1+0x40]
0x8aec53fd806  1146  be0a040000           movl rsi,0x40a
0x8aec53fd80b  114b  85c9                 testl rcx,rcx
0x8aec53fd80d  114d  0f45f1               cmovnzl rsi,rcx
0x8aec53fd810  1150  448b4db0             movl r9,[rbp-0x50]
0x8aec53fd814  1154  8b45b0               movl rax,[rbp-0x50]
0x8aec53fd817  1157  895588               movl [rbp-0x78],rdx
0x8aec53fd81a  115a  33d2                 xorl rdx,rdx
0x8aec53fd81c  115c  3bc2                 cmpl rax,rdx
0x8aec53fd81e  115e  0f9cc0               setll al
0x8aec53fd821  1161  0fb6c0               movzxbl rax,rax
0x8aec53fd824  1164  baffffff7f           movl rdx,0x7fffffff
0x8aec53fd829  1169  85c0                 testl rax,rax
0x8aec53fd82b  116b  410f44d1             cmovzl rdx,r9
0x8aec53fd82f  116f  897d90               movl [rbp-0x70],rdi
0x8aec53fd832  1172  895d98               movl [rbp-0x68],rbx
0x8aec53fd835  1175  8975a8               movl [rbp-0x58],rsi
0x8aec53fd838  1178  894dd0               movl [rbp-0x30],rcx
0x8aec53fd83b  117b  8bc6                 movl rax,rsi
0x8aec53fd83d  117d  488b75f0             REX.W movq rsi,[rbp-0x10]
0x8aec53fd841  1181  e8ffa7ffff           call 0x8aec53f8045  (jump table)
0x8aec53fd846  1186  8b4da8               movl rcx,[rbp-0x58]
0x8aec53fd849  1189  8d0c08               leal rcx,[rax+rcx*1]
0x8aec53fd84c  118c  8b55b0               movl rdx,[rbp-0x50]
0x8aec53fd84f  118f  83fa00               cmpl rdx,0x0
0x8aec53fd852  1192  0f8c1d000000         jl 0x8aec53fd875  <+0x11b5>
0x8aec53fd858  1198  8b9574ffffff         movl rdx,[rbp-0x8c]
0x8aec53fd85e  119e  8945b0               movl [rbp-0x50],rax
0x8aec53fd861  11a1  8bd9                 movl rbx,rcx
0x8aec53fd863  11a3  8bca                 movl rcx,rdx
0x8aec53fd865  11a5  8bf0                 movl rsi,rax
0x8aec53fd867  11a7  8b45a4               movl rax,[rbp-0x5c]
0x8aec53fd86a  11aa  8b5588               movl rdx,[rbp-0x78]
0x8aec53fd86d  11ad  8b7d90               movl rdi,[rbp-0x70]
0x8aec53fd870  11b0  e999050000           jmp 0x8aec53fde0e  <+0x174e>
0x8aec53fd875  11b5  8b9574ffffff         movl rdx,[rbp-0x8c]
0x8aec53fd87b  11bb  488b75f0             REX.W movq rsi,[rbp-0x10]
0x8aec53fd87f  11bf  488b5e17             REX.W movq rbx,[rsi+0x17]
0x8aec53fd883  11c3  0fb63c0b             movzxbl rdi,[rbx+rcx*1]
0x8aec53fd887  11c7  85ff                 testl rdi,rdi
0x8aec53fd889  11c9  0f8411000000         jz 0x8aec53fd8a0  <+0x11e0>
0x8aec53fd88f  11cf  8945d0               movl [rbp-0x30],rax
0x8aec53fd892  11d2  8955b4               movl [rbp-0x4c],rdx
0x8aec53fd895  11d5  8945b0               movl [rbp-0x50],rax
0x8aec53fd898  11d8  894d98               movl [rbp-0x68],rcx
0x8aec53fd89b  11db  e9f1060000           jmp 0x8aec53fdf91  <+0x18d1>
0x8aec53fd8a0  11e0  8945b0               movl [rbp-0x50],rax
0x8aec53fd8a3  11e3  8bd9                 movl rbx,rcx
0x8aec53fd8a5  11e5  8bca                 movl rcx,rdx
0x8aec53fd8a7  11e7  8bf0                 movl rsi,rax
0x8aec53fd8a9  11e9  8b45a4               movl rax,[rbp-0x5c]
0x8aec53fd8ac  11ec  8b5588               movl rdx,[rbp-0x78]
0x8aec53fd8af  11ef  8b7d90               movl rdi,[rbp-0x70]
0x8aec53fd8b2  11f2  e957050000           jmp 0x8aec53fde0e  <+0x174e>
0x8aec53fd8b7  11f7  8b45b0               movl rax,[rbp-0x50]
0x8aec53fd8ba  11fa  85c0                 testl rax,rax
0x8aec53fd8bc  11fc  0f8418000000         jz 0x8aec53fd8da  <+0x121a>
0x8aec53fd8c2  1202  8b45b8               movl rax,[rbp-0x48]
0x8aec53fd8c5  1205  4c8b4df0             REX.W movq r9,[rbp-0x10]
0x8aec53fd8c9  1209  4d8b4917             REX.W movq r9,[r9+0x17]
0x8aec53fd8cd  120d  894db4               movl [rbp-0x4c],rcx
0x8aec53fd8d0  1210  418b4c0140           movl rcx,[r9+rax*1+0x40]
0x8aec53fd8d5  1215  e981000000           jmp 0x8aec53fd95b  <+0x129b>
0x8aec53fd8da  121a  8b45d4               movl rax,[rbp-0x2c]
0x8aec53fd8dd  121d  8b759c               movl rsi,[rbp-0x64]
0x8aec53fd8e0  1220  895588               movl [rbp-0x78],rdx
0x8aec53fd8e3  1223  897d90               movl [rbp-0x70],rdi
0x8aec53fd8e6  1226  895d98               movl [rbp-0x68],rbx
0x8aec53fd8e9  1229  894db4               movl [rbp-0x4c],rcx
0x8aec53fd8ec  122c  448bc9               movl r9,rcx
0x8aec53fd8ef  122f  8bce                 movl rcx,rsi
0x8aec53fd8f1  1231  ba20000000           movl rdx,0x20
0x8aec53fd8f6  1236  33db                 xorl rbx,rbx
0x8aec53fd8f8  1238  488b75f0             REX.W movq rsi,[rbp-0x10]
0x8aec53fd8fc  123c  e884a7ffff           call 0x8aec53f8085  (jump table)
0x8aec53fd901  1241  33c0                 xorl rax,rax
0x8aec53fd903  1243  e91e020000           jmp 0x8aec53fdb26  <+0x1466>
0x8aec53fd908  1248  8b45b8               movl rax,[rbp-0x48]
0x8aec53fd90b  124b  4533c9               xorl r9,r9
0x8aec53fd90e  124e  894db4               movl [rbp-0x4c],rcx
0x8aec53fd911  1251  488b4df0             REX.W movq rcx,[rbp-0x10]
0x8aec53fd915  1255  488b4917             REX.W movq rcx,[rcx+0x17]
0x8aec53fd919  1259  44894c010c           movl [rcx+rax*1+0xc],r9
0x8aec53fd91e  125e  8b45b8               movl rax,[rbp-0x48]
0x8aec53fd921  1261  448b4db8             movl r9,[rbp-0x48]
0x8aec53fd925  1265  89856cffffff         movl [rbp-0x94],rax
0x8aec53fd92b  126b  4a8b440940           REX.W movq rax,[rcx+r9*1+0x40]
0x8aec53fd930  1270  448b8d6cffffff       movl r9,[rbp-0x94]
0x8aec53fd937  1277  4289440908           movl [rcx+r9*1+0x8],rax
0x8aec53fd93c  127c  8b45b8               movl rax,[rbp-0x48]
0x8aec53fd93f  127f  448b4db8             movl r9,[rbp-0x48]
0x8aec53fd943  1283  4183c108             addl r9,0x8
0x8aec53fd947  1287  44894c0140           movl [rcx+rax*1+0x40],r9
0x8aec53fd94c  128c  8b45b8               movl rax,[rbp-0x48]
0x8aec53fd94f  128f  83c008               addl rax,0x8
0x8aec53fd952  1292  c745b0ffffffff       movl [rbp-0x50],0xffffffff
0x8aec53fd959  1299  8bc8                 movl rcx,rax
0x8aec53fd95b  129b  c745d000000000       movl [rbp-0x30],0x0
0x8aec53fd962  12a2  895d98               movl [rbp-0x68],rbx
0x8aec53fd965  12a5  894d94               movl [rbp-0x6c],rcx
0x8aec53fd968  12a8  897d90               movl [rbp-0x70],rdi
0x8aec53fd96b  12ab  895588               movl [rbp-0x78],rdx
0x8aec53fd96e  12ae  488b75f0             REX.W movq rsi,[rbp-0x10]
0x8aec53fd972  12b2  488b4627             REX.W movq rax,[rsi+0x27]
0x8aec53fd976  12b6  483b20               REX.W cmpq rsp,[rax]
0x8aec53fd979  12b9  0f865d080000         jna 0x8aec53fe1dc  <+0x1b1c>
0x8aec53fd97f  12bf  8b4594               movl rax,[rbp-0x6c]
0x8aec53fd982  12c2  488b4e17             REX.W movq rcx,[rsi+0x17]
0x8aec53fd986  12c6  8b1401               movl rdx,[rcx+rax*1]
0x8aec53fd989  12c9  85d2                 testl rdx,rdx
0x8aec53fd98b  12cb  0f8505000000         jnz 0x8aec53fd996  <+0x12d6>
0x8aec53fd991  12d1  e987000000           jmp 0x8aec53fda1d  <+0x135d>
0x8aec53fd996  12d6  8b45b8               movl rax,[rbp-0x48]
0x8aec53fd999  12d9  83c004               addl rax,0x4
0x8aec53fd99c  12dc  8955ac               movl [rbp-0x54],rdx
0x8aec53fd99f  12df  488b75f0             REX.W movq rsi,[rbp-0x10]
0x8aec53fd9a3  12e3  e805a7ffff           call 0x8aec53f80ad  (jump table)
0x8aec53fd9a8  12e8  33c9                 xorl rcx,rcx
0x8aec53fd9aa  12ea  3bc1                 cmpl rax,rcx
0x8aec53fd9ac  12ec  0f9cc1               setll cl
0x8aec53fd9af  12ef  0fb6c9               movzxbl rcx,rcx
0x8aec53fd9b2  12f2  85c9                 testl rcx,rcx
0x8aec53fd9b4  12f4  0f8405000000         jz 0x8aec53fd9bf  <+0x12ff>
0x8aec53fd9ba  12fa  e94c000000           jmp 0x8aec53fda0b  <+0x134b>
0x8aec53fd9bf  12ff  8b55b0               movl rdx,[rbp-0x50]
0x8aec53fd9c2  1302  8b5dd0               movl rbx,[rbp-0x30]
0x8aec53fd9c5  1305  2bd3                 subl rdx,rbx
0x8aec53fd9c7  1307  3bc2                 cmpl rax,rdx
0x8aec53fd9c9  1309  0f8605000000         jna 0x8aec53fd9d4  <+0x1314>
0x8aec53fd9cf  130f  e937000000           jmp 0x8aec53fda0b  <+0x134b>
0x8aec53fd9d4  1314  8b5594               movl rdx,[rbp-0x6c]
0x8aec53fd9d7  1317  83c204               addl rdx,0x4
0x8aec53fd9da  131a  8b5db0               movl rbx,[rbp-0x50]
0x8aec53fd9dd  131d  8b75d0               movl rsi,[rbp-0x30]
0x8aec53fd9e0  1320  03f0                 addl rsi,rax
0x8aec53fd9e2  1322  3bde                 cmpl rbx,rsi
0x8aec53fd9e4  1324  0f8611000000         jna 0x8aec53fd9fb  <+0x133b>
0x8aec53fd9ea  132a  8975d0               movl [rbp-0x30],rsi
0x8aec53fd9ed  132d  8945ac               movl [rbp-0x54],rax
0x8aec53fd9f0  1330  894da8               movl [rbp-0x58],rcx
0x8aec53fd9f3  1333  895594               movl [rbp-0x6c],rdx
0x8aec53fd9f6  1336  e973ffffff           jmp 0x8aec53fd96e  <+0x12ae>
0x8aec53fd9fb  133b  8975d0               movl [rbp-0x30],rsi
0x8aec53fd9fe  133e  894da8               movl [rbp-0x58],rcx
0x8aec53fda01  1341  895594               movl [rbp-0x6c],rdx
0x8aec53fda04  1344  8bd0                 movl rdx,rax
0x8aec53fda06  1346  e912000000           jmp 0x8aec53fda1d  <+0x135d>
0x8aec53fda0b  134b  85c9                 testl rcx,rcx
0x8aec53fda0d  134d  0f8405000000         jz 0x8aec53fda18  <+0x1358>
0x8aec53fda13  1353  e9a4050000           jmp 0x8aec53fdfbc  <+0x18fc>
0x8aec53fda18  1358  894da8               movl [rbp-0x58],rcx
0x8aec53fda1b  135b  8bd0                 movl rdx,rax
0x8aec53fda1d  135d  8b45d0               movl rax,[rbp-0x30]
0x8aec53fda20  1360  b93d000000           movl rcx,0x3d
0x8aec53fda25  1365  83f800               cmpl rax,0x0
0x8aec53fda28  1368  0f8d07000000         jge 0x8aec53fda35  <+0x1375>
0x8aec53fda2e  136e  8bc2                 movl rax,rdx
0x8aec53fda30  1370  e964050000           jmp 0x8aec53fdf99  <+0x18d9>
0x8aec53fda35  1375  8b45d4               movl rax,[rbp-0x2c]
0x8aec53fda38  1378  8b5d9c               movl rbx,[rbp-0x64]
0x8aec53fda3b  137b  8b75d0               movl rsi,[rbp-0x30]
0x8aec53fda3e  137e  8b7db4               movl rdi,[rbp-0x4c]
0x8aec53fda41  1381  894d98               movl [rbp-0x68],rcx
0x8aec53fda44  1384  8955ac               movl [rbp-0x54],rdx
0x8aec53fda47  1387  8bcb                 movl rcx,rbx
0x8aec53fda49  1389  8bde                 movl rbx,rsi
0x8aec53fda4b  138b  448bcf               movl r9,rdi
0x8aec53fda4e  138e  ba20000000           movl rdx,0x20
0x8aec53fda53  1393  488b75f0             REX.W movq rsi,[rbp-0x10]
0x8aec53fda57  1397  e829a6ffff           call 0x8aec53f8085  (jump table)
0x8aec53fda5c  139c  8b45d0               movl rax,[rbp-0x30]
0x8aec53fda5f  139f  85c0                 testl rax,rax
0x8aec53fda61  13a1  0f8507000000         jnz 0x8aec53fda6e  <+0x13ae>
0x8aec53fda67  13a7  33c0                 xorl rax,rax
0x8aec53fda69  13a9  e9b8000000           jmp 0x8aec53fdb26  <+0x1466>
0x8aec53fda6e  13ae  8b45b8               movl rax,[rbp-0x48]
0x8aec53fda71  13b1  488b75f0             REX.W movq rsi,[rbp-0x10]
0x8aec53fda75  13b5  488b4e17             REX.W movq rcx,[rsi+0x17]
0x8aec53fda79  13b9  8b540140             movl rdx,[rcx+rax*1+0x40]
0x8aec53fda7d  13bd  c745ac00000000       movl [rbp-0x54],0x0
0x8aec53fda84  13c4  895594               movl [rbp-0x6c],rdx
0x8aec53fda87  13c7  488b4627             REX.W movq rax,[rsi+0x27]
0x8aec53fda8b  13cb  483b20               REX.W cmpq rsp,[rax]
0x8aec53fda8e  13ce  0f8660070000         jna 0x8aec53fe1f4  <+0x1b34>
0x8aec53fda94  13d4  8b4594               movl rax,[rbp-0x6c]
0x8aec53fda97  13d7  8b1401               movl rdx,[rcx+rax*1]
0x8aec53fda9a  13da  85d2                 testl rdx,rdx
0x8aec53fda9c  13dc  0f850b000000         jnz 0x8aec53fdaad  <+0x13ed>
0x8aec53fdaa2  13e2  8955a8               movl [rbp-0x58],rdx
0x8aec53fdaa5  13e5  8b45d0               movl rax,[rbp-0x30]
0x8aec53fdaa8  13e8  e979000000           jmp 0x8aec53fdb26  <+0x1466>
0x8aec53fdaad  13ed  8b45b8               movl rax,[rbp-0x48]
0x8aec53fdab0  13f0  83c004               addl rax,0x4
0x8aec53fdab3  13f3  8955a8               movl [rbp-0x58],rdx
0x8aec53fdab6  13f6  488b75f0             REX.W movq rsi,[rbp-0x10]
0x8aec53fdaba  13fa  e8eea5ffff           call 0x8aec53f80ad  (jump table)
0x8aec53fdabf  13ff  8b4dac               movl rcx,[rbp-0x54]
0x8aec53fdac2  1402  8d0c08               leal rcx,[rax+rcx*1]
0x8aec53fdac5  1405  8b55d0               movl rdx,[rbp-0x30]
0x8aec53fdac8  1408  3bca                 cmpl rcx,rdx
0x8aec53fdaca  140a  0f860e000000         jna 0x8aec53fdade  <+0x141e>
0x8aec53fdad0  1410  894dac               movl [rbp-0x54],rcx
0x8aec53fdad3  1413  8945a8               movl [rbp-0x58],rax
0x8aec53fdad6  1416  8b45d0               movl rax,[rbp-0x30]
0x8aec53fdad9  1419  e948000000           jmp 0x8aec53fdb26  <+0x1466>
0x8aec53fdade  141e  8b55d4               movl rdx,[rbp-0x2c]
0x8aec53fdae1  1421  8b5db8               movl rbx,[rbp-0x48]
0x8aec53fdae4  1424  83c304               addl rbx,0x4
0x8aec53fdae7  1427  8945a8               movl [rbp-0x58],rax
0x8aec53fdaea  142a  894dac               movl [rbp-0x54],rcx
0x8aec53fdaed  142d  8bc8                 movl rcx,rax
0x8aec53fdaef  142f  8bc2                 movl rax,rdx
0x8aec53fdaf1  1431  8bd3                 movl rdx,rbx
0x8aec53fdaf3  1433  488b75f0             REX.W movq rsi,[rbp-0x10]
0x8aec53fdaf7  1437  e867a5ffff           call 0x8aec53f8063  (jump table)
0x8aec53fdafc  143c  8b4594               movl rax,[rbp-0x6c]
0x8aec53fdaff  143f  83c004               addl rax,0x4
0x8aec53fdb02  1442  8b4dd0               movl rcx,[rbp-0x30]
0x8aec53fdb05  1445  8b55ac               movl rdx,[rbp-0x54]
0x8aec53fdb08  1448  3bca                 cmpl rcx,rdx
0x8aec53fdb0a  144a  0f8610000000         jna 0x8aec53fdb20  <+0x1460>
0x8aec53fdb10  1450  894594               movl [rbp-0x6c],rax
0x8aec53fdb13  1453  488b75f0             REX.W movq rsi,[rbp-0x10]
0x8aec53fdb17  1457  488b4e17             REX.W movq rcx,[rsi+0x17]
0x8aec53fdb1b  145b  e967ffffff           jmp 0x8aec53fda87  <+0x13c7>
0x8aec53fdb20  1460  894594               movl [rbp-0x6c],rax
0x8aec53fdb23  1463  8b45d0               movl rax,[rbp-0x30]
0x8aec53fdb26  1466  8b4dd4               movl rcx,[rbp-0x2c]
0x8aec53fdb29  1469  8b559c               movl rdx,[rbp-0x64]
0x8aec53fdb2c  146c  8b5db4               movl rbx,[rbp-0x4c]
0x8aec53fdb2f  146f  81f300200000         xorl rbx,0x2000
0x8aec53fdb35  1475  8945d0               movl [rbp-0x30],rax
0x8aec53fdb38  1478  448bcb               movl r9,rbx
0x8aec53fdb3b  147b  8bd8                 movl rbx,rax
0x8aec53fdb3d  147d  8bc1                 movl rax,rcx
0x8aec53fdb3f  147f  8bca                 movl rcx,rdx
0x8aec53fdb41  1481  ba20000000           movl rdx,0x20
0x8aec53fdb46  1486  488b75f0             REX.W movq rsi,[rbp-0x10]
0x8aec53fdb4a  148a  e836a5ffff           call 0x8aec53f8085  (jump table)
0x8aec53fdb4f  148f  8b459c               movl rax,[rbp-0x64]
0x8aec53fdb52  1492  8b4dd0               movl rcx,[rbp-0x30]
0x8aec53fdb55  1495  8b55d0               movl rdx,[rbp-0x30]
0x8aec53fdb58  1498  8b5d9c               movl rbx,[rbp-0x64]
0x8aec53fdb5b  149b  3bd3                 cmpl rdx,rbx
0x8aec53fdb5d  149d  0f9cc2               setll dl
0x8aec53fdb60  14a0  0fb6d2               movzxbl rdx,rdx
0x8aec53fdb63  14a3  85d2                 testl rdx,rdx
0x8aec53fdb65  14a5  0f44c1               cmovzl rax,rcx
0x8aec53fdb68  14a8  8945d0               movl [rbp-0x30],rax
0x8aec53fdb6b  14ab  e9e1ebffff           jmp 0x8aec53fc751  <+0x91>
0x8aec53fdb70  14b0  448b8d78ffffff       movl r9,[rbp-0x88]
0x8aec53fdb77  14b7  8945a4               movl [rbp-0x5c],rax
0x8aec53fdb7a  14ba  8b45b0               movl rax,[rbp-0x50]
0x8aec53fdb7d  14bd  894db4               movl [rbp-0x4c],rcx
0x8aec53fdb80  14c0  33c9                 xorl rcx,rcx
0x8aec53fdb82  14c2  3bc1                 cmpl rax,rcx
0x8aec53fdb84  14c4  0f9cc0               setll al
0x8aec53fdb87  14c7  0fb6c0               movzxbl rax,rax
0x8aec53fdb8a  14ca  33c9                 xorl rcx,rcx
0x8aec53fdb8c  14cc  85c0                 testl rax,rax
0x8aec53fdb8e  14ce  440f44c9             cmovzl r9,rcx
0x8aec53fdb92  14d2  4585c9               testl r9,r9
0x8aec53fdb95  14d5  0f8411000000         jz 0x8aec53fdbac  <+0x14ec>
0x8aec53fdb9b  14db  8975d0               movl [rbp-0x30],rsi
0x8aec53fdb9e  14de  895d98               movl [rbp-0x68],rbx
0x8aec53fdba1  14e1  897d90               movl [rbp-0x70],rdi
0x8aec53fdba4  14e4  895588               movl [rbp-0x78],rdx
0x8aec53fdba7  14e7  e9e5030000           jmp 0x8aec53fdf91  <+0x18d1>
0x8aec53fdbac  14ec  8b45d4               movl rax,[rbp-0x2c]
0x8aec53fdbaf  14ef  8b4db8               movl rcx,[rbp-0x48]
0x8aec53fdbb2  14f2  4c8b4df0             REX.W movq r9,[rbp-0x10]
0x8aec53fdbb6  14f6  498b5917             REX.W movq rbx,[r9+0x17]
0x8aec53fdbba  14fa  c5fb10440b40         vmovsd xmm0,[rbx+rcx*1+0x40]
0x8aec53fdbc0  1500  8b4d9c               movl rcx,[rbp-0x64]
0x8aec53fdbc3  1503  448b4db0             movl r9,[rbp-0x50]
0x8aec53fdbc7  1507  8b5db4               movl rbx,[rbp-0x4c]
0x8aec53fdbca  150a  895588               movl [rbp-0x78],rdx
0x8aec53fdbcd  150d  8b55c0               movl rdx,[rbp-0x40]
0x8aec53fdbd0  1510  899d58ffffff         movl [rbp-0xa8],rbx
0x8aec53fdbd6  1516  89b554ffffff         movl [rbp-0xac],rsi
0x8aec53fdbdc  151c  8975d0               movl [rbp-0x30],rsi
0x8aec53fdbdf  151f  897d90               movl [rbp-0x70],rdi
0x8aec53fdbe2  1522  488b75f0             REX.W movq rsi,[rbp-0x10]
0x8aec53fdbe6  1526  8b7613               movl rsi,[rsi+0x13]
0x8aec53fdbe9  1529  3bd6                 cmpl rdx,rsi
0x8aec53fdbeb  152b  0f831d060000         jnc 0x8aec53fe20e  <+0x1b4e>
0x8aec53fdbf1  1531  488b5df0             REX.W movq rbx,[rbp-0x10]
0x8aec53fdbf5  1535  488b5b3f             REX.W movq rbx,[rbx+0x3f]
0x8aec53fdbf9  1539  c1e202               shll rdx, 2
0x8aec53fdbfc  153c  8b3c13               movl rdi,[rbx+rdx*1]
0x8aec53fdbff  153f  be0c000000           movl rsi,0xc
0x8aec53fdc04  1544  483bfe               REX.W cmpq rdi,rsi
0x8aec53fdc07  1547  0f8506060000         jnz 0x8aec53fe213  <+0x1b53>
0x8aec53fdc0d  154d  488b5df0             REX.W movq rbx,[rbp-0x10]
0x8aec53fdc11  1551  8b5b0f               movl rbx,[rbx+0xf]
0x8aec53fdc14  1554  4903de               REX.W addq rbx,r14
0x8aec53fdc17  1557  8b741307             movl rsi,[rbx+rdx*1+0x7]
0x8aec53fdc1b  155b  4903f6               REX.W addq rsi,r14
0x8aec53fdc1e  155e  03d2                 addl rdx,rdx
0x8aec53fdc20  1560  488b5df0             REX.W movq rbx,[rbp-0x10]
0x8aec53fdc24  1564  488b5b37             REX.W movq rbx,[rbx+0x37]
0x8aec53fdc28  1568  488b3c13             REX.W movq rdi,[rbx+rdx*1]
0x8aec53fdc2c  156c  8bd1                 movl rdx,rcx
0x8aec53fdc2e  156e  418bc9               movl rcx,r9
0x8aec53fdc31  1571  c5f310c8             vmovsd xmm1,xmm1,xmm0
0x8aec53fdc35  1575  8b9d58ffffff         movl rbx,[rbp-0xa8]
0x8aec53fdc3b  157b  448b8d54ffffff       movl r9,[rbp-0xac]
0x8aec53fdc42  1582  ffd7                 call rdi
0x8aec53fdc44  1584  b93d000000           movl rcx,0x3d
0x8aec53fdc49  1589  83f800               cmpl rax,0x0
0x8aec53fdc4c  158c  0f8c0b000000         jl 0x8aec53fdc5d  <+0x159d>
0x8aec53fdc52  1592  8945d0               movl [rbp-0x30],rax
0x8aec53fdc55  1595  894d98               movl [rbp-0x68],rcx
0x8aec53fdc58  1598  e9f4eaffff           jmp 0x8aec53fc751  <+0x91>
0x8aec53fdc5d  159d  8945d0               movl [rbp-0x30],rax
0x8aec53fdc60  15a0  8b45ac               movl rax,[rbp-0x54]
0x8aec53fdc63  15a3  e931030000           jmp 0x8aec53fdf99  <+0x18d9>
0x8aec53fdc68  15a8  448b4db8             movl r9,[rbp-0x48]
0x8aec53fdc6c  15ac  8945a4               movl [rbp-0x5c],rax
0x8aec53fdc6f  15af  8b45b8               movl rax,[rbp-0x48]
0x8aec53fdc72  15b2  894db4               movl [rbp-0x4c],rcx
0x8aec53fdc75  15b5  488b4df0             REX.W movq rcx,[rbp-0x10]
0x8aec53fdc79  15b9  488b4917             REX.W movq rcx,[rcx+0x17]
0x8aec53fdc7d  15bd  895588               movl [rbp-0x78],rdx
0x8aec53fdc80  15c0  488b540140           REX.W movq rdx,[rcx+rax*1+0x40]
0x8aec53fdc85  15c5  4288540937           movb [rcx+r9*1+0x37],dl
0x8aec53fdc8a  15ca  8b8570ffffff         movl rax,[rbp-0x90]
0x8aec53fdc90  15d0  8b9574ffffff         movl rdx,[rbp-0x8c]
0x8aec53fdc96  15d6  c745b001000000       movl [rbp-0x50],0x1
0x8aec53fdc9d  15dd  8945a8               movl [rbp-0x58],rax
0x8aec53fdca0  15e0  8bca                 movl rcx,rdx
0x8aec53fdca2  15e2  8b45a4               movl rax,[rbp-0x5c]
0x8aec53fdca5  15e5  8b5588               movl rdx,[rbp-0x78]
0x8aec53fdca8  15e8  e961010000           jmp 0x8aec53fde0e  <+0x174e>
0x8aec53fdcad  15ed  8b4db8               movl rcx,[rbp-0x48]
0x8aec53fdcb0  15f0  8b5dd0               movl rbx,[rbp-0x30]
0x8aec53fdcb3  15f3  83c301               addl rbx,0x1
0x8aec53fdcb6  15f6  895c0a4c             movl [rdx+rcx*1+0x4c],rbx
0x8aec53fdcba  15fa  8b4dd0               movl rcx,[rbp-0x30]
0x8aec53fdcbd  15fd  0fb67c0a01           movzxbl rdi,[rdx+rcx*1+0x1]
0x8aec53fdcc2  1602  895dd0               movl [rbp-0x30],rbx
0x8aec53fdcc5  1605  897db4               movl [rbp-0x4c],rdi
0x8aec53fdcc8  1608  895d94               movl [rbp-0x6c],rbx
0x8aec53fdccb  160b  e9d7eaffff           jmp 0x8aec53fc7a7  <+0xe7>
0x8aec53fdcd0  1610  8b7dd4               movl rdi,[rbp-0x2c]
0x8aec53fdcd3  1613  85ff                 testl rdi,rdi
0x8aec53fdcd5  1615  0f8407000000         jz 0x8aec53fdce2  <+0x1622>
0x8aec53fdcdb  161b  8bfb                 movl rdi,rbx
0x8aec53fdcdd  161d  e9ea020000           jmp 0x8aec53fdfcc  <+0x190c>
0x8aec53fdce2  1622  8b7d84               movl rdi,[rbp-0x7c]
0x8aec53fdce5  1625  85ff                 testl rdi,rdi
0x8aec53fdce7  1627  0f8518000000         jnz 0x8aec53fdd05  <+0x1645>
0x8aec53fdced  162d  895da8               movl [rbp-0x58],rbx
0x8aec53fdcf0  1630  8945a0               movl [rbp-0x60],rax
0x8aec53fdcf3  1633  8bf1                 movl rsi,rcx
0x8aec53fdcf5  1635  8bfb                 movl rdi,rbx
0x8aec53fdcf7  1637  8b45ac               movl rax,[rbp-0x54]
0x8aec53fdcfa  163a  8b4d98               movl rcx,[rbp-0x68]
0x8aec53fdcfd  163d  8b5d88               movl rbx,[rbp-0x78]
0x8aec53fdd00  1640  e975020000           jmp 0x8aec53fdf7a  <+0x18ba>
0x8aec53fdd05  1645  c745d001000000       movl [rbp-0x30],0x1
0x8aec53fdd0c  164c  894db4               movl [rbp-0x4c],rcx
0x8aec53fdd0f  164f  895da8               movl [rbp-0x58],rbx
0x8aec53fdd12  1652  8945a0               movl [rbp-0x60],rax
0x8aec53fdd15  1655  488b4627             REX.W movq rax,[rsi+0x27]
0x8aec53fdd19  1659  483b20               REX.W cmpq rsp,[rax]
0x8aec53fdd1c  165c  0f860a050000         jna 0x8aec53fe22c  <+0x1b6c>
0x8aec53fdd22  1662  8b45c4               movl rax,[rbp-0x3c]
0x8aec53fdd25  1665  8b4dd0               movl rcx,[rbp-0x30]
0x8aec53fdd28  1668  c1e102               shll rcx, 2
0x8aec53fdd2b  166b  03c1                 addl rax,rcx
0x8aec53fdd2d  166d  8b0c02               movl rcx,[rdx+rax*1]
0x8aec53fdd30  1670  85c9                 testl rcx,rcx
0x8aec53fdd32  1672  0f8456000000         jz 0x8aec53fdd8e  <+0x16ce>
0x8aec53fdd38  1678  8b45c8               movl rax,[rbp-0x38]
0x8aec53fdd3b  167b  8b5dd0               movl rbx,[rbp-0x30]
0x8aec53fdd3e  167e  c1e303               shll rbx, 3
0x8aec53fdd41  1681  03c3                 addl rax,rbx
0x8aec53fdd43  1683  8b5dcc               movl rbx,[rbp-0x34]
0x8aec53fdd46  1686  8b7dbc               movl rdi,[rbp-0x44]
0x8aec53fdd49  1689  894db4               movl [rbp-0x4c],rcx
0x8aec53fdd4c  168c  8bd1                 movl rdx,rcx
0x8aec53fdd4e  168e  8bcb                 movl rcx,rbx
0x8aec53fdd50  1690  8bdf                 movl rbx,rdi
0x8aec53fdd52  1692  488b75f0             REX.W movq rsi,[rbp-0x10]
0x8aec53fdd56  1696  e812a3ffff           call 0x8aec53f806d  (jump table)
0x8aec53fdd5b  169b  8b45d0               movl rax,[rbp-0x30]
0x8aec53fdd5e  169e  83c001               addl rax,0x1
0x8aec53fdd61  16a1  b901000000           movl rcx,0x1
0x8aec53fdd66  16a6  83f80a               cmpl rax,0xa
0x8aec53fdd69  16a9  0f8410000000         jz 0x8aec53fdd7f  <+0x16bf>
0x8aec53fdd6f  16af  8945d0               movl [rbp-0x30],rax
0x8aec53fdd72  16b2  894da0               movl [rbp-0x60],rcx
0x8aec53fdd75  16b5  488b75f0             REX.W movq rsi,[rbp-0x10]
0x8aec53fdd79  16b9  488b5617             REX.W movq rdx,[rsi+0x17]
0x8aec53fdd7d  16bd  eb96                 jmp 0x8aec53fdd15  <+0x1655>
0x8aec53fdd7f  16bf  8bd8                 movl rbx,rax
0x8aec53fdd81  16c1  8bc1                 movl rax,rcx
0x8aec53fdd83  16c3  8b4db4               movl rcx,[rbp-0x4c]
0x8aec53fdd86  16c6  8b7da8               movl rdi,[rbp-0x58]
0x8aec53fdd89  16c9  e93e020000           jmp 0x8aec53fdfcc  <+0x190c>
0x8aec53fdd8e  16ce  8b45d0               movl rax,[rbp-0x30]
0x8aec53fdd91  16d1  bb01000000           movl rbx,0x1
0x8aec53fdd96  16d6  83f80a               cmpl rax,0xa
0x8aec53fdd99  16d9  0f820d000000         jc 0x8aec53fddac  <+0x16ec>
0x8aec53fdd9f  16df  8bc3                 movl rax,rbx
0x8aec53fdda1  16e1  8b5dd0               movl rbx,[rbp-0x30]
0x8aec53fdda4  16e4  8b7da8               movl rdi,[rbp-0x58]
0x8aec53fdda7  16e7  e920020000           jmp 0x8aec53fdfcc  <+0x190c>
0x8aec53fddac  16ec  894db4               movl [rbp-0x4c],rcx
0x8aec53fddaf  16ef  895da0               movl [rbp-0x60],rbx
0x8aec53fddb2  16f2  488b4627             REX.W movq rax,[rsi+0x27]
0x8aec53fddb6  16f6  483b20               REX.W cmpq rsp,[rax]
0x8aec53fddb9  16f9  0f8682040000         jna 0x8aec53fe241  <+0x1b81>
0x8aec53fddbf  16ff  8b45c4               movl rax,[rbp-0x3c]
0x8aec53fddc2  1702  8b4dd0               movl rcx,[rbp-0x30]
0x8aec53fddc5  1705  c1e102               shll rcx, 2
0x8aec53fddc8  1708  03c1                 addl rax,rcx
0x8aec53fddca  170a  8b0c02               movl rcx,[rdx+rax*1]
0x8aec53fddcd  170d  85c9                 testl rcx,rcx
0x8aec53fddcf  170f  0f8405000000         jz 0x8aec53fddda  <+0x171a>
0x8aec53fddd5  1715  e924000000           jmp 0x8aec53fddfe  <+0x173e>
0x8aec53fddda  171a  8b45d0               movl rax,[rbp-0x30]
0x8aec53fdddd  171d  83c001               addl rax,0x1
0x8aec53fdde0  1720  83f80a               cmpl rax,0xa
0x8aec53fdde3  1723  0f8405000000         jz 0x8aec53fddee  <+0x172e>
0x8aec53fdde9  1729  8945d0               movl [rbp-0x30],rax
0x8aec53fddec  172c  ebc4                 jmp 0x8aec53fddb2  <+0x16f2>
0x8aec53fddee  172e  8bd8                 movl rbx,rax
0x8aec53fddf0  1730  8b45a0               movl rax,[rbp-0x60]
0x8aec53fddf3  1733  8b4db4               movl rcx,[rbp-0x4c]
0x8aec53fddf6  1736  8b7da8               movl rdi,[rbp-0x58]
0x8aec53fddf9  1739  e9ce010000           jmp 0x8aec53fdfcc  <+0x190c>
0x8aec53fddfe  173e  8b45ac               movl rax,[rbp-0x54]
0x8aec53fde01  1741  b91c000000           movl rcx,0x1c
0x8aec53fde06  1746  e98e010000           jmp 0x8aec53fdf99  <+0x18d9>
0x8aec53fde0b  174b  8b45a4               movl rax,[rbp-0x5c]
0x8aec53fde0e  174e  448b4da8             movl r9,[rbp-0x58]
0x8aec53fde12  1752  41f7d9               negl r9
0x8aec53fde15  1755  4403cb               addl r9,rbx
0x8aec53fde18  1758  8b55b0               movl rdx,[rbp-0x50]
0x8aec53fde1b  175b  8945a4               movl [rbp-0x5c],rax
0x8aec53fde1e  175e  8b45b0               movl rax,[rbp-0x50]
0x8aec53fde21  1761  413bc1               cmpl rax,r9
0x8aec53fde24  1764  0f9cc0               setll al
0x8aec53fde27  1767  0fb6c0               movzxbl rax,rax
0x8aec53fde2a  176a  85c0                 testl rax,rax
0x8aec53fde2c  176c  410f45d1             cmovnzl rdx,r9
0x8aec53fde30  1770  8b45a4               movl rax,[rbp-0x5c]
0x8aec53fde33  1773  894db4               movl [rbp-0x4c],rcx
0x8aec53fde36  1776  b9ffffff7f           movl rcx,0x7fffffff
0x8aec53fde3b  177b  2bc8                 subl rcx,rax
0x8aec53fde3d  177d  3bd1                 cmpl rdx,rcx
0x8aec53fde3f  177f  0f8e15000000         jle 0x8aec53fde5a  <+0x179a>
0x8aec53fde45  1785  8975d0               movl [rbp-0x30],rsi
0x8aec53fde48  1788  8955b0               movl [rbp-0x50],rdx
0x8aec53fde4b  178b  895d98               movl [rbp-0x68],rbx
0x8aec53fde4e  178e  897d90               movl [rbp-0x70],rdi
0x8aec53fde51  1791  44894d88             movl [rbp-0x78],r9
0x8aec53fde55  1795  e937010000           jmp 0x8aec53fdf91  <+0x18d1>
0x8aec53fde5a  179a  8b45a4               movl rax,[rbp-0x5c]
0x8aec53fde5d  179d  8d0402               leal rax,[rdx+rax*1]
0x8aec53fde60  17a0  8b4d9c               movl rcx,[rbp-0x64]
0x8aec53fde63  17a3  8b5d9c               movl rbx,[rbp-0x64]
0x8aec53fde66  17a6  3bc3                 cmpl rax,rbx
0x8aec53fde68  17a8  0f9fc3               setgl bl
0x8aec53fde6b  17ab  0fb6db               movzxbl rbx,rbx
0x8aec53fde6e  17ae  85db                 testl rbx,rbx
0x8aec53fde70  17b0  0f45c8               cmovnzl rcx,rax
0x8aec53fde73  17b3  8b5d94               movl rbx,[rbp-0x6c]
0x8aec53fde76  17b6  be3d000000           movl rsi,0x3d
0x8aec53fde7b  17bb  3bcb                 cmpl rcx,rbx
0x8aec53fde7d  17bd  0f8e14000000         jle 0x8aec53fde97  <+0x17d7>
0x8aec53fde83  17c3  894dd0               movl [rbp-0x30],rcx
0x8aec53fde86  17c6  8955b0               movl [rbp-0x50],rdx
0x8aec53fde89  17c9  897d90               movl [rbp-0x70],rdi
0x8aec53fde8c  17cc  44894d88             movl [rbp-0x78],r9
0x8aec53fde90  17d0  8bce                 movl rcx,rsi
0x8aec53fde92  17d2  e902010000           jmp 0x8aec53fdf99  <+0x18d9>
0x8aec53fde97  17d7  8b5dd4               movl rbx,[rbp-0x2c]
0x8aec53fde9a  17da  8955b0               movl [rbp-0x50],rdx
0x8aec53fde9d  17dd  8b55b4               movl rdx,[rbp-0x4c]
0x8aec53fdea0  17e0  44894d88             movl [rbp-0x78],r9
0x8aec53fdea4  17e4  897d90               movl [rbp-0x70],rdi
0x8aec53fdea7  17e7  897598               movl [rbp-0x68],rsi
0x8aec53fdeaa  17ea  8945ac               movl [rbp-0x54],rax
0x8aec53fdead  17ed  894dd0               movl [rbp-0x30],rcx
0x8aec53fdeb0  17f0  448bca               movl r9,rdx
0x8aec53fdeb3  17f3  899d58ffffff         movl [rbp-0xa8],rbx
0x8aec53fdeb9  17f9  8bd8                 movl rbx,rax
0x8aec53fdebb  17fb  8b8558ffffff         movl rax,[rbp-0xa8]
0x8aec53fdec1  1801  ba20000000           movl rdx,0x20
0x8aec53fdec6  1806  488b75f0             REX.W movq rsi,[rbp-0x10]
0x8aec53fdeca  180a  e8b6a1ffff           call 0x8aec53f8085  (jump table)
0x8aec53fdecf  180f  8b45d4               movl rax,[rbp-0x2c]
0x8aec53fded2  1812  8b4d90               movl rcx,[rbp-0x70]
0x8aec53fded5  1815  8b55a4               movl rdx,[rbp-0x5c]
0x8aec53fded8  1818  899560ffffff         movl [rbp-0xa0],rdx
0x8aec53fdede  181e  8bd1                 movl rdx,rcx
0x8aec53fdee0  1820  8b8d60ffffff         movl rcx,[rbp-0xa0]
0x8aec53fdee6  1826  488b75f0             REX.W movq rsi,[rbp-0x10]
0x8aec53fdeea  182a  e874a1ffff           call 0x8aec53f8063  (jump table)
0x8aec53fdeef  182f  8b45d4               movl rax,[rbp-0x2c]
0x8aec53fdef2  1832  8b4dd0               movl rcx,[rbp-0x30]
0x8aec53fdef5  1835  8b55ac               movl rdx,[rbp-0x54]
0x8aec53fdef8  1838  8b5db4               movl rbx,[rbp-0x4c]
0x8aec53fdefb  183b  81f300000100         xorl rbx,0x10000
0x8aec53fdf01  1841  448bcb               movl r9,rbx
0x8aec53fdf04  1844  8bda                 movl rbx,rdx
0x8aec53fdf06  1846  ba30000000           movl rdx,0x30
0x8aec53fdf0b  184b  488b75f0             REX.W movq rsi,[rbp-0x10]
0x8aec53fdf0f  184f  e871a1ffff           call 0x8aec53f8085  (jump table)
0x8aec53fdf14  1854  8b45d4               movl rax,[rbp-0x2c]
0x8aec53fdf17  1857  8b4db0               movl rcx,[rbp-0x50]
0x8aec53fdf1a  185a  8b5588               movl rdx,[rbp-0x78]
0x8aec53fdf1d  185d  8bda                 movl rbx,rdx
0x8aec53fdf1f  185f  ba30000000           movl rdx,0x30
0x8aec53fdf24  1864  4533c9               xorl r9,r9
0x8aec53fdf27  1867  488b75f0             REX.W movq rsi,[rbp-0x10]
0x8aec53fdf2b  186b  e855a1ffff           call 0x8aec53f8085  (jump table)
0x8aec53fdf30  1870  8b45d4               movl rax,[rbp-0x2c]
0x8aec53fdf33  1873  8b4da8               movl rcx,[rbp-0x58]
0x8aec53fdf36  1876  8b5588               movl rdx,[rbp-0x78]
0x8aec53fdf39  1879  899560ffffff         movl [rbp-0xa0],rdx
0x8aec53fdf3f  187f  8bd1                 movl rdx,rcx
0x8aec53fdf41  1881  8b8d60ffffff         movl rcx,[rbp-0xa0]
0x8aec53fdf47  1887  488b75f0             REX.W movq rsi,[rbp-0x10]
0x8aec53fdf4b  188b  e813a1ffff           call 0x8aec53f8063  (jump table)
0x8aec53fdf50  1890  8b45d4               movl rax,[rbp-0x2c]
0x8aec53fdf53  1893  8b4dd0               movl rcx,[rbp-0x30]
0x8aec53fdf56  1896  8b55ac               movl rdx,[rbp-0x54]
0x8aec53fdf59  1899  8b5db4               movl rbx,[rbp-0x4c]
0x8aec53fdf5c  189c  81f300200000         xorl rbx,0x2000
0x8aec53fdf62  18a2  448bcb               movl r9,rbx
0x8aec53fdf65  18a5  8bda                 movl rbx,rdx
0x8aec53fdf67  18a7  ba20000000           movl rdx,0x20
0x8aec53fdf6c  18ac  488b75f0             REX.W movq rsi,[rbp-0x10]
0x8aec53fdf70  18b0  e810a1ffff           call 0x8aec53f8085  (jump table)
0x8aec53fdf75  18b5  e9d7e7ffff           jmp 0x8aec53fc751  <+0x91>
0x8aec53fdf7a  18ba  8945ac               movl [rbp-0x54],rax
0x8aec53fdf7d  18bd  894d98               movl [rbp-0x68],rcx
0x8aec53fdf80  18c0  895d88               movl [rbp-0x78],rbx
0x8aec53fdf83  18c3  8bce                 movl rcx,rsi
0x8aec53fdf85  18c5  8bdf                 movl rbx,rdi
0x8aec53fdf87  18c7  33c0                 xorl rax,rax
0x8aec53fdf89  18c9  8b7da8               movl rdi,[rbp-0x58]
0x8aec53fdf8c  18cc  e93b000000           jmp 0x8aec53fdfcc  <+0x190c>
0x8aec53fdf91  18d1  8b45ac               movl rax,[rbp-0x54]
0x8aec53fdf94  18d4  b93d000000           movl rcx,0x3d
0x8aec53fdf99  18d9  894d98               movl [rbp-0x68],rcx
0x8aec53fdf9c  18dc  8945ac               movl [rbp-0x54],rax
0x8aec53fdf9f  18df  488b75f0             REX.W movq rsi,[rbp-0x10]
0x8aec53fdfa3  18e3  e8a2a0ffff           call 0x8aec53f804a  (jump table)
0x8aec53fdfa8  18e8  8b4d98               movl rcx,[rbp-0x68]
0x8aec53fdfab  18eb  488b75f0             REX.W movq rsi,[rbp-0x10]
0x8aec53fdfaf  18ef  488b5617             REX.W movq rdx,[rsi+0x17]
0x8aec53fdfb3  18f3  890c02               movl [rdx+rax*1],rcx
0x8aec53fdfb6  18f6  8b45ac               movl rax,[rbp-0x54]
0x8aec53fdfb9  18f9  8b4da8               movl rcx,[rbp-0x58]
0x8aec53fdfbc  18fc  8945ac               movl [rbp-0x54],rax
0x8aec53fdfbf  18ff  8bf9                 movl rdi,rcx
0x8aec53fdfc1  1901  b8ffffffff           movl rax,0xffffffff
0x8aec53fdfc6  1906  8b4db4               movl rcx,[rbp-0x4c]
0x8aec53fdfc9  1909  8b5dd0               movl rbx,[rbp-0x30]
0x8aec53fdfcc  190c  8b55b8               movl rdx,[rbp-0x48]
0x8aec53fdfcf  190f  83c250               addl rdx,0x50
0x8aec53fdfd2  1912  4c8b4df0             REX.W movq r9,[rbp-0x10]
0x8aec53fdfd6  1916  498b7147             REX.W movq rsi,[r9+0x47]
0x8aec53fdfda  191a  8916                 movl [rsi],rdx
0x8aec53fdfdc  191c  488be5               REX.W movq rsp,rbp
0x8aec53fdfdf  191f  5d                   pop rbp
0x8aec53fdfe0  1920  c21000               ret 0x10
0x8aec53fdfe3  1923  51                   push rcx
0x8aec53fdfe4  1924  52                   push rdx
0x8aec53fdfe5  1925  53                   push rbx
0x8aec53fdfe6  1926  56                   push rsi
0x8aec53fdfe7  1927  57                   push rdi
0x8aec53fdfe8  1928  4151                 push r9
0x8aec53fdfea  192a  e881a3ffff           call 0x8aec53f8370  (jump table)
0x8aec53fdfef  192f  4159                 pop r9
0x8aec53fdff1  1931  5f                   pop rdi
0x8aec53fdff2  1932  5e                   pop rsi
0x8aec53fdff3  1933  5b                   pop rbx
0x8aec53fdff4  1934  5a                   pop rdx
0x8aec53fdff5  1935  59                   pop rcx
0x8aec53fdff6  1936  e903e7ffff           jmp 0x8aec53fc6fe  <+0x3e>
0x8aec53fdffb  193b  e810a1ffff           call 0x8aec53f8110  (jump table)
0x8aec53fe000  1940  e86ba3ffff           call 0x8aec53f8370  (jump table)
0x8aec53fe005  1945  488b75f0             REX.W movq rsi,[rbp-0x10]
0x8aec53fe009  1949  e954e7ffff           jmp 0x8aec53fc762  <+0xa2>
0x8aec53fe00e  194e  e8fda0ffff           call 0x8aec53f8110  (jump table)
0x8aec53fe013  1953  e8f8a0ffff           call 0x8aec53f8110  (jump table)
0x8aec53fe018  1958  52                   push rdx
0x8aec53fe019  1959  e852a3ffff           call 0x8aec53f8370  (jump table)
0x8aec53fe01e  195e  5a                   pop rdx
0x8aec53fe01f  195f  488b75f0             REX.W movq rsi,[rbp-0x10]
0x8aec53fe023  1963  e98ce7ffff           jmp 0x8aec53fc7b4  <+0xf4>
0x8aec53fe028  1968  52                   push rdx
0x8aec53fe029  1969  e842a3ffff           call 0x8aec53f8370  (jump table)
0x8aec53fe02e  196e  5a                   pop rdx
0x8aec53fe02f  196f  488b75f0             REX.W movq rsi,[rbp-0x10]
0x8aec53fe033  1973  e9b5e7ffff           jmp 0x8aec53fc7ed  <+0x12d>
0x8aec53fe038  1978  e8d3a0ffff           call 0x8aec53f8110  (jump table)
0x8aec53fe03d  197d  e8cea0ffff           call 0x8aec53f8110  (jump table)
0x8aec53fe042  1982  e8c9a0ffff           call 0x8aec53f8110  (jump table)
0x8aec53fe047  1987  e8c4a0ffff           call 0x8aec53f8110  (jump table)
0x8aec53fe04c  198c  e8bfa0ffff           call 0x8aec53f8110  (jump table)
0x8aec53fe051  1991  e8baa0ffff           call 0x8aec53f8110  (jump table)
0x8aec53fe056  1996  e8b5a0ffff           call 0x8aec53f8110  (jump table)
0x8aec53fe05b  199b  e8b0a0ffff           call 0x8aec53f8110  (jump table)
0x8aec53fe060  19a0  e8aba0ffff           call 0x8aec53f8110  (jump table)
0x8aec53fe065  19a5  e8a6a0ffff           call 0x8aec53f8110  (jump table)
0x8aec53fe06a  19aa  52                   push rdx
0x8aec53fe06b  19ab  e800a3ffff           call 0x8aec53f8370  (jump table)
0x8aec53fe070  19b0  5a                   pop rdx
0x8aec53fe071  19b1  488b75f0             REX.W movq rsi,[rbp-0x10]
0x8aec53fe075  19b5  e938e9ffff           jmp 0x8aec53fc9b2  <+0x2f2>
0x8aec53fe07a  19ba  e891a0ffff           call 0x8aec53f8110  (jump table)
0x8aec53fe07f  19bf  e88ca0ffff           call 0x8aec53f8110  (jump table)
0x8aec53fe084  19c4  e887a0ffff           call 0x8aec53f8110  (jump table)
0x8aec53fe089  19c9  e882a0ffff           call 0x8aec53f8110  (jump table)
0x8aec53fe08e  19ce  e87da0ffff           call 0x8aec53f8110  (jump table)
0x8aec53fe093  19d3  e878a0ffff           call 0x8aec53f8110  (jump table)
0x8aec53fe098  19d8  e873a0ffff           call 0x8aec53f8110  (jump table)
0x8aec53fe09d  19dd  e86ea0ffff           call 0x8aec53f8110  (jump table)
0x8aec53fe0a2  19e2  e869a0ffff           call 0x8aec53f8110  (jump table)
0x8aec53fe0a7  19e7  e864a0ffff           call 0x8aec53f8110  (jump table)
0x8aec53fe0ac  19ec  e85fa0ffff           call 0x8aec53f8110  (jump table)
0x8aec53fe0b1  19f1  e85aa0ffff           call 0x8aec53f8110  (jump table)
0x8aec53fe0b6  19f6  e855a0ffff           call 0x8aec53f8110  (jump table)
0x8aec53fe0bb  19fb  e850a0ffff           call 0x8aec53f8110  (jump table)
0x8aec53fe0c0  1a00  e84ba0ffff           call 0x8aec53f8110  (jump table)
0x8aec53fe0c5  1a05  e846a0ffff           call 0x8aec53f8110  (jump table)
0x8aec53fe0ca  1a0a  e841a0ffff           call 0x8aec53f8110  (jump table)
0x8aec53fe0cf  1a0f  e83ca0ffff           call 0x8aec53f8110  (jump table)
0x8aec53fe0d4  1a14  e837a0ffff           call 0x8aec53f8110  (jump table)
0x8aec53fe0d9  1a19  e832a0ffff           call 0x8aec53f8110  (jump table)
0x8aec53fe0de  1a1e  e82da0ffff           call 0x8aec53f8110  (jump table)
0x8aec53fe0e3  1a23  e828a0ffff           call 0x8aec53f8110  (jump table)
0x8aec53fe0e8  1a28  e823a0ffff           call 0x8aec53f8110  (jump table)
0x8aec53fe0ed  1a2d  e81ea0ffff           call 0x8aec53f8110  (jump table)
0x8aec53fe0f2  1a32  e819a0ffff           call 0x8aec53f8110  (jump table)
0x8aec53fe0f7  1a37  e814a0ffff           call 0x8aec53f8110  (jump table)
0x8aec53fe0fc  1a3c  e80fa0ffff           call 0x8aec53f8110  (jump table)
0x8aec53fe101  1a41  e80aa0ffff           call 0x8aec53f8110  (jump table)
0x8aec53fe106  1a46  e805a0ffff           call 0x8aec53f8110  (jump table)
0x8aec53fe10b  1a4b  e800a0ffff           call 0x8aec53f8110  (jump table)
0x8aec53fe110  1a50  e8fb9fffff           call 0x8aec53f8110  (jump table)
0x8aec53fe115  1a55  e856a2ffff           call 0x8aec53f8370  (jump table)
0x8aec53fe11a  1a5a  488b75f0             REX.W movq rsi,[rbp-0x10]
0x8aec53fe11e  1a5e  e975ecffff           jmp 0x8aec53fcd98  <+0x6d8>
0x8aec53fe123  1a63  e8e89fffff           call 0x8aec53f8110  (jump table)
0x8aec53fe128  1a68  e8e39fffff           call 0x8aec53f8110  (jump table)
0x8aec53fe12d  1a6d  e8de9fffff           call 0x8aec53f8110  (jump table)
0x8aec53fe132  1a72  e8d99fffff           call 0x8aec53f8110  (jump table)
0x8aec53fe137  1a77  e8d49fffff           call 0x8aec53f8110  (jump table)
0x8aec53fe13c  1a7c  e8cf9fffff           call 0x8aec53f8110  (jump table)
0x8aec53fe141  1a81  e8ca9fffff           call 0x8aec53f8110  (jump table)
0x8aec53fe146  1a86  e8c59fffff           call 0x8aec53f8110  (jump table)
0x8aec53fe14b  1a8b  e8c09fffff           call 0x8aec53f8110  (jump table)
0x8aec53fe150  1a90  e8bb9fffff           call 0x8aec53f8110  (jump table)
0x8aec53fe155  1a95  e8b69fffff           call 0x8aec53f8110  (jump table)
0x8aec53fe15a  1a9a  e8b19fffff           call 0x8aec53f8110  (jump table)
0x8aec53fe15f  1a9f  e8ac9fffff           call 0x8aec53f8110  (jump table)
0x8aec53fe164  1aa4  e8a79fffff           call 0x8aec53f8110  (jump table)
0x8aec53fe169  1aa9  e8a29fffff           call 0x8aec53f8110  (jump table)
0x8aec53fe16e  1aae  e89d9fffff           call 0x8aec53f8110  (jump table)
0x8aec53fe173  1ab3  e8989fffff           call 0x8aec53f8110  (jump table)
0x8aec53fe178  1ab8  e8939fffff           call 0x8aec53f8110  (jump table)
0x8aec53fe17d  1abd  e88e9fffff           call 0x8aec53f8110  (jump table)
0x8aec53fe182  1ac2  e8899fffff           call 0x8aec53f8110  (jump table)
0x8aec53fe187  1ac7  e8849fffff           call 0x8aec53f8110  (jump table)
0x8aec53fe18c  1acc  e87f9fffff           call 0x8aec53f8110  (jump table)
0x8aec53fe191  1ad1  e87a9fffff           call 0x8aec53f8110  (jump table)
0x8aec53fe196  1ad6  e8759fffff           call 0x8aec53f8110  (jump table)
0x8aec53fe19b  1adb  e8709fffff           call 0x8aec53f8110  (jump table)
0x8aec53fe1a0  1ae0  e86b9fffff           call 0x8aec53f8110  (jump table)
0x8aec53fe1a5  1ae5  e8669fffff           call 0x8aec53f8110  (jump table)
0x8aec53fe1aa  1aea  e8619fffff           call 0x8aec53f8110  (jump table)
0x8aec53fe1af  1aef  e85c9fffff           call 0x8aec53f8110  (jump table)
0x8aec53fe1b4  1af4  e8579fffff           call 0x8aec53f8110  (jump table)
0x8aec53fe1b9  1af9  e8529fffff           call 0x8aec53f8110  (jump table)
0x8aec53fe1be  1afe  e84d9fffff           call 0x8aec53f8110  (jump table)
0x8aec53fe1c3  1b03  e8489fffff           call 0x8aec53f8110  (jump table)
0x8aec53fe1c8  1b08  e8439fffff           call 0x8aec53f8110  (jump table)
0x8aec53fe1cd  1b0d  e83e9fffff           call 0x8aec53f8110  (jump table)
0x8aec53fe1d2  1b12  e8399fffff           call 0x8aec53f8110  (jump table)
0x8aec53fe1d7  1b17  e8349fffff           call 0x8aec53f8110  (jump table)
0x8aec53fe1dc  1b1c  e88fa1ffff           call 0x8aec53f8370  (jump table)
0x8aec53fe1e1  1b21  488b75f0             REX.W movq rsi,[rbp-0x10]
0x8aec53fe1e5  1b25  e995f7ffff           jmp 0x8aec53fd97f  <+0x12bf>
0x8aec53fe1ea  1b2a  e8219fffff           call 0x8aec53f8110  (jump table)
0x8aec53fe1ef  1b2f  e81c9fffff           call 0x8aec53f8110  (jump table)
0x8aec53fe1f4  1b34  51                   push rcx
0x8aec53fe1f5  1b35  e876a1ffff           call 0x8aec53f8370  (jump table)
0x8aec53fe1fa  1b3a  59                   pop rcx
0x8aec53fe1fb  1b3b  488b75f0             REX.W movq rsi,[rbp-0x10]
0x8aec53fe1ff  1b3f  e990f8ffff           jmp 0x8aec53fda94  <+0x13d4>
0x8aec53fe204  1b44  e8079fffff           call 0x8aec53f8110  (jump table)
0x8aec53fe209  1b49  e8029fffff           call 0x8aec53f8110  (jump table)
0x8aec53fe20e  1b4e  e88d9fffff           call 0x8aec53f81a0  (jump table)
0x8aec53fe213  1b53  e8589fffff           call 0x8aec53f8170  (jump table)
0x8aec53fe218  1b58  e8f39effff           call 0x8aec53f8110  (jump table)
0x8aec53fe21d  1b5d  e8ee9effff           call 0x8aec53f8110  (jump table)
0x8aec53fe222  1b62  e8e99effff           call 0x8aec53f8110  (jump table)
0x8aec53fe227  1b67  e8e49effff           call 0x8aec53f8110  (jump table)
0x8aec53fe22c  1b6c  52                   push rdx
0x8aec53fe22d  1b6d  e83ea1ffff           call 0x8aec53f8370  (jump table)
0x8aec53fe232  1b72  5a                   pop rdx
0x8aec53fe233  1b73  488b75f0             REX.W movq rsi,[rbp-0x10]
0x8aec53fe237  1b77  e9e6faffff           jmp 0x8aec53fdd22  <+0x1662>
0x8aec53fe23c  1b7c  e8cf9effff           call 0x8aec53f8110  (jump table)
0x8aec53fe241  1b81  52                   push rdx
0x8aec53fe242  1b82  e829a1ffff           call 0x8aec53f8370  (jump table)
0x8aec53fe247  1b87  5a                   pop rdx
0x8aec53fe248  1b88  488b75f0             REX.W movq rsi,[rbp-0x10]
0x8aec53fe24c  1b8c  e96efbffff           jmp 0x8aec53fddbf  <+0x16ff>
0x8aec53fe251  1b91  e8ba9effff           call 0x8aec53f8110  (jump table)
0x8aec53fe256  1b96  e8b59effff           call 0x8aec53f8110  (jump table)
0x8aec53fe25b  1b9b  90                   nop

Protected instructions:
 pc offset  land pad
        64      193b
        cb      194e
        cf      1953
       130      1978
       14f      197d
       15c      1982
       207      1987
       20b      198c
       22c      1991
       247      1996
       25c      199b
       280      19a0
       285      19a5
       2fb      19ba
       30a      19bf
       3ac      19c4
       3e4      19c9
       3e8      19ce
       3fe      19d3
       417      19d8
       41a      19dd
       42e      19e2
       467      19e7
       46d      19ec
       470      19f1
       48c      19f6
       4a6      19fb
       510      1a00
       52c      1a05
       554      1a0a
       565      1a0f
       59e      1a14
       5a2      1a19
       5b8      1a1e
       5d1      1a23
       5d4      1a28
       5e8      1a2d
       61c      1a32
       622      1a37
       625      1a3c
       63d      1a41
       658      1a46
       67e      1a4b
       6a8      1a50
       6e2      1a63
       709      1a68
       710      1a6d
       721      1a72
       78c      1a77
       7aa      1a7c
       7ae      1a81
       80b      1a86
       889      1a8b
       c02      1a90
       cf3      1a95
       cfc      1a9a
       d23      1a9f
       d2c      1aa4
       d53      1aa9
       d5f      1aae
       d86      1ab3
       d8f      1ab8
       db7      1abd
       dc0      1ac2
       de7      1ac7
       df0      1acc
       e17      1ad1
       e23      1ad6
       e83      1adb
       ec4      1ae0
       f1f      1ae5
       f90      1aea
       fbd      1aef
      1093      1af4
      1141      1af9
      11c3      1afe
      1210      1b03
      1259      1b08
      126b      1b0d
      1277      1b12
      1287      1b17
      12c6      1b2a
      13b9      1b2f
      13d7      1b44
      14fa      1b49
      15c0      1b58
      15c5      1b5d
      15f6      1b62
      15fd      1b67
      166d      1b7c
      170a      1b91
      18f3      1b96

Source positions:
 pc offset  position
       1d0       246  statement
       21c       272  statement
       3c7       458  statement
       4ef       615  statement
       581       676  statement
       698       819  statement
       7fb       976  statement
       eb4      1353  statement
       f3e      1398  statement
      1042      1506  statement
      1181      1621  statement
      123c      1692  statement
      12e3      1763  statement
      1397      1833  statement
      13fa      1877  statement
      1437      1900  statement
      148a      1933  statement
      1582      1983  statement
      1696      2093  statement
      180a      2230  statement
      182a      2238  statement
      184f      2255  statement
      186b      2267  statement
      188b      2275  statement
      18b0      2292  statement
      18e3      2310  statement
      192a         0  statement
      193b        51  statement
      1940        80  statement
      194e       105  statement
      1953       122  statement
      1959       129  statement
      1969       164  statement
      1978       168  statement
      197d       185  statement
      1982       197  statement
      1987       266  statement
      198c       269  statement
      1991       278  statement
      1996       292  statement
      199b       302  statement
      19a0       328  statement
      19a5       339  statement
      19ab       380  statement
      19ba       391  statement
      19bf       403  statement
      19c4       455  statement
      19c9       465  statement
      19ce       470  statement
      19d3       480  statement
      19d8       495  statement
      19dd       500  statement
      19e2       513  statement
      19e7       550  statement
      19ec       558  statement
      19f1       563  statement
      19f6       571  statement
      19fb       580  statement
      1a00       626  statement
      1a05       646  statement
      1a0a       657  statement
      1a0f       673  statement
      1a14       683  statement
      1a19       688  statement
      1a1e       698  statement
      1a23       713  statement
      1a28       718  statement
      1a2d       731  statement
      1a32       756  statement
      1a37       764  statement
      1a3c       769  statement
      1a41       780  statement
      1a46       789  statement
      1a4b       810  statement
      1a50       825  statement
      1a55       835  statement
      1a63       847  statement
      1a68       868  statement
      1a6d       873  statement
      1a72       890  statement
      1a77       938  statement
      1a7c       951  statement
      1a81       954  statement
      1a86       980  statement
      1a8b      1077  statement
      1a90      1176  statement
      1a95      1225  statement
      1a9a      1230  statement
      1a9f      1238  statement
      1aa4      1243  statement
      1aa9      1251  statement
      1aae      1257  statement
      1ab3      1265  statement
      1ab8      1270  statement
      1abd      1278  statement
      1ac2      1283  statement
      1ac7      1291  statement
      1acc      1296  statement
      1ad1      1304  statement
      1ad6      1310  statement
      1adb      1343  statement
      1ae0      1359  statement
      1ae5      1393  statement
      1aea      1435  statement
      1aef      1454  statement
      1af4      1541  statement
      1af9      1594  statement
      1afe      1658  statement
      1b03      1672  statement
      1b08      1701  statement
      1b0d      1708  statement
      1b12      1711  statement
      1b17      1721  statement
      1b1c      1742  statement
      1b2a      1746  statement
      1b2f      1853  statement
      1b35      1858  statement
      1b44      1862  statement
      1b49      1970  statement
      1b4e      1983  statement
      1b53      1983  statement
      1b58      2000  statement
      1b5d      2003  statement
      1b62      2030  statement
      1b67      2035  statement
      1b6d      2062  statement
      1b7c      2072  statement
      1b82      2126  statement
      1b91      2136  statement
      1b96      2314  statement

Safepoints (entries = 1, byte size = 14)
0x8aec53fc895    1d5  slots (sp->fp): 00000000000000000000000000000000

RelocInfo (size = 0)

--- End code ---
--- WebAssembly code ---
name: __emscripten_stdout_close
index: 9
kind: wasm function
compiler: TurboFan
Body (size = 64 = 24 + 40 padding)
Instructions (size = 16)
0x8aec54012c0     0  55                   push rbp
0x8aec54012c1     1  4889e5               REX.W movq rbp,rsp
0x8aec54012c4     4  6a08                 push 0x8
0x8aec54012c6     6  56                   push rsi
0x8aec54012c7     7  33c0                 xorl rax,rax
0x8aec54012c9     9  488be5               REX.W movq rsp,rbp
0x8aec54012cc     c  5d                   pop rbp
0x8aec54012cd     d  c3                   retl
0x8aec54012ce     e  90                   nop
0x8aec54012cf     f  90                   nop

Safepoints (entries = 0, byte size = 8)

RelocInfo (size = 0)

--- End code ---
--- WebAssembly code ---
name: __lockfile
index: 12
kind: wasm function
compiler: TurboFan
Body (size = 64 = 28 + 36 padding)
Instructions (size = 20)
0x8aec5404d80     0  55                   push rbp
0x8aec5404d81     1  4889e5               REX.W movq rbp,rsp
0x8aec5404d84     4  6a08                 push 0x8
0x8aec5404d86     6  56                   push rsi
0x8aec5404d87     7  b801000000           movl rax,0x1
0x8aec5404d8c     c  488be5               REX.W movq rsp,rbp
0x8aec5404d8f     f  5d                   pop rbp
0x8aec5404d90    10  c3                   retl
0x8aec5404d91    11  90                   nop
0x8aec5404d92    12  6690                 nop

Safepoints (entries = 0, byte size = 8)

RelocInfo (size = 0)

--- End code ---
--- WebAssembly code ---
name: __towrite
index: 14
kind: wasm function
compiler: TurboFan
Body (size = 192 = 152 + 40 padding)
Instructions (size = 140)
0x8aec53ff780     0  55                   push rbp
0x8aec53ff781     1  4889e5               REX.W movq rbp,rsp
0x8aec53ff784     4  6a08                 push 0x8
0x8aec53ff786     6  56                   push rsi
0x8aec53ff787     7  488b5e17             REX.W movq rbx,[rsi+0x17]
0x8aec53ff78b     b  8bd0                 movl rdx,rax
0x8aec53ff78d     d  8b4c1a48             movl rcx,[rdx+rbx*1+0x48]
0x8aec53ff791    11  8d71ff               leal rsi,[rcx-0x1]
0x8aec53ff794    14  0bf1                 orl rsi,rcx
0x8aec53ff796    16  89741a48             movl [rdx+rbx*1+0x48],rsi
0x8aec53ff79a    1a  8b0c13               movl rcx,[rbx+rdx*1]
0x8aec53ff79d    1d  f6c108               testb rcx,0x8
0x8aec53ff7a0    20  0f8526000000         jnz 0x8aec53ff7cc  <+0x4c>
0x8aec53ff7a6    26  48c7441a0400000000   REX.W movq [rdx+rbx*1+0x4],0x0
0x8aec53ff7af    2f  8b4c1a2c             movl rcx,[rdx+rbx*1+0x2c]
0x8aec53ff7b3    33  894c1a1c             movl [rdx+rbx*1+0x1c],rcx
0x8aec53ff7b7    37  894c1a14             movl [rdx+rbx*1+0x14],rcx
0x8aec53ff7bb    3b  8b741a30             movl rsi,[rdx+rbx*1+0x30]
0x8aec53ff7bf    3f  03ce                 addl rcx,rsi
0x8aec53ff7c1    41  894c1a10             movl [rdx+rbx*1+0x10],rcx
0x8aec53ff7c5    45  33c0                 xorl rax,rax
0x8aec53ff7c7    47  488be5               REX.W movq rsp,rbp
0x8aec53ff7ca    4a  5d                   pop rbp
0x8aec53ff7cb    4b  c3                   retl
0x8aec53ff7cc    4c  83c920               orl rcx,0x20
0x8aec53ff7cf    4f  890c13               movl [rbx+rdx*1],rcx
0x8aec53ff7d2    52  b8ffffffff           movl rax,0xffffffff
0x8aec53ff7d7    57  ebee                 jmp 0x8aec53ff7c7  <+0x47>
0x8aec53ff7d9    59  e83289ffff           call 0x8aec53f8110  (jump table)    ;; wasm stub: ThrowWasmTrapMemOutOfBounds
0x8aec53ff7de    5e  e82d89ffff           call 0x8aec53f8110  (jump table)    ;; wasm stub: ThrowWasmTrapMemOutOfBounds
0x8aec53ff7e3    63  e82889ffff           call 0x8aec53f8110  (jump table)    ;; wasm stub: ThrowWasmTrapMemOutOfBounds
0x8aec53ff7e8    68  e82389ffff           call 0x8aec53f8110  (jump table)    ;; wasm stub: ThrowWasmTrapMemOutOfBounds
0x8aec53ff7ed    6d  e81e89ffff           call 0x8aec53f8110  (jump table)    ;; wasm stub: ThrowWasmTrapMemOutOfBounds
0x8aec53ff7f2    72  e81989ffff           call 0x8aec53f8110  (jump table)    ;; wasm stub: ThrowWasmTrapMemOutOfBounds
0x8aec53ff7f7    77  e81489ffff           call 0x8aec53f8110  (jump table)    ;; wasm stub: ThrowWasmTrapMemOutOfBounds
0x8aec53ff7fc    7c  e80f89ffff           call 0x8aec53f8110  (jump table)    ;; wasm stub: ThrowWasmTrapMemOutOfBounds
0x8aec53ff801    81  e80a89ffff           call 0x8aec53f8110  (jump table)    ;; wasm stub: ThrowWasmTrapMemOutOfBounds
0x8aec53ff806    86  e80589ffff           call 0x8aec53f8110  (jump table)    ;; wasm stub: ThrowWasmTrapMemOutOfBounds
0x8aec53ff80b    8b  90                   nop

Protected instructions:
 pc offset  land pad
        4f        59
        41        5e
        3b        63
        37        68
        33        6d
        2f        72
        26        77
        1a        7c
        16        81
         d        86

Source positions:
 pc offset  position
         d         7
        16        18
        1a        23
        26        51
        2f        58
        33        63
        37        70
        3b        79
        41        83
        4f        40
        5e        83
        63        79
        68        70
        6d        63
        72        58
        77        51
        7c        23
        81        18
        86         7

Safepoints (entries = 1, byte size = 10)
0x8aec53ff7de     5e  slots (sp->fp): 00000000

RelocInfo (size = 12)
0x8aec53ff7da  wasm stub call
0x8aec53ff7df  wasm stub call
0x8aec53ff7e4  wasm stub call
0x8aec53ff7e9  wasm stub call
0x8aec53ff7ee  wasm stub call
0x8aec53ff7f3  wasm stub call
0x8aec53ff7f8  wasm stub call
0x8aec53ff7fd  wasm stub call
0x8aec53ff802  wasm stub call
0x8aec53ff807  wasm stub call

--- End code ---
--- WebAssembly code ---
name: strnlen
index: 17
kind: wasm function
compiler: TurboFan
Body (size = 128 = 104 + 24 padding)
Instructions (size = 92)
0x8aec5404d00     0  55                   push rbp
0x8aec5404d01     1  4889e5               REX.W movq rbp,rsp
0x8aec5404d04     4  6a08                 push 0x8
0x8aec5404d06     6  56                   push rsi
0x8aec5404d07     7  4883ec10             REX.W subq rsp,0x10
0x8aec5404d0b     b  488b5e27             REX.W movq rbx,[rsi+0x27]
0x8aec5404d0f     f  488945e0             REX.W movq [rbp-0x20],rax
0x8aec5404d13    13  488955e8             REX.W movq [rbp-0x18],rdx
0x8aec5404d17    17  483b23               REX.W cmpq rsp,[rbx]
0x8aec5404d1a    1a  0f8625000000         jna 0x8aec5404d45  <+0x45>
0x8aec5404d20    20  488bca               REX.W movq rcx,rdx
0x8aec5404d23    23  33d2                 xorl rdx,rdx
0x8aec5404d25    25  488bda               REX.W movq rbx,rdx
0x8aec5404d28    28  e81333ffff           call 0x8aec53f8040  (jump table)    ;; internal wasm call
0x8aec5404d2d    2d  488bd8               REX.W movq rbx,rax
0x8aec5404d30    30  2b5de0               subl rbx,[rbp-0x20]
0x8aec5404d33    33  488b7de8             REX.W movq rdi,[rbp-0x18]
0x8aec5404d37    37  83f800               cmpl rax,0x0
0x8aec5404d3a    3a  0f45fb               cmovnzl rdi,rbx
0x8aec5404d3d    3d  488bc7               REX.W movq rax,rdi
0x8aec5404d40    40  488be5               REX.W movq rsp,rbp
0x8aec5404d43    43  5d                   pop rbp
0x8aec5404d44    44  c3                   retl
0x8aec5404d45    45  e82636ffff           call 0x8aec53f8370  (jump table)    ;; wasm stub: WasmStackGuard
0x8aec5404d4a    4a  488b55e8             REX.W movq rdx,[rbp-0x18]
0x8aec5404d4e    4e  488b45e0             REX.W movq rax,[rbp-0x20]
0x8aec5404d52    52  488b75f0             REX.W movq rsi,[rbp-0x10]
0x8aec5404d56    56  ebc8                 jmp 0x8aec5404d20  <+0x20>
0x8aec5404d58    58  90                   nop
0x8aec5404d59    59  0f1f00               nop

Source positions:
 pc offset  position
        20         9
        45         0

Safepoints (entries = 1, byte size = 10)
0x8aec5404d2d     2d  slots (sp->fp): 00000000

RelocInfo (size = 3)
0x8aec5404d29  internal wasm call
0x8aec5404d46  wasm stub call

--- End code ---
--- WebAssembly code ---
name: memchr
index: 16
kind: wasm function
compiler: TurboFan
Body (size = 768 = 756 + 12 padding)
Instructions (size = 744)
0x8aec5404a00     0  55                   push rbp
0x8aec5404a01     1  4889e5               REX.W movq rbp,rsp
0x8aec5404a04     4  6a08                 push 0x8
0x8aec5404a06     6  56                   push rsi
0x8aec5404a07     7  4883ec30             REX.W subq rsp,0x30
0x8aec5404a0b     b  488b5e17             REX.W movq rbx,[rsi+0x17]
0x8aec5404a0f     f  a803                 test al,0x3
0x8aec5404a11    11  0f84d4000000         jz 0x8aec5404aeb  <+0xeb>
0x8aec5404a17    17  83f900               cmpl rcx,0x0
0x8aec5404a1a    1a  0f84bb000000         jz 0x8aec5404adb  <+0xdb>
0x8aec5404a20    20  488b7e27             REX.W movq rdi,[rsi+0x27]
0x8aec5404a24    24  440fb6c2             movzxbl r8,rdx
0x8aec5404a28    28  660f1f840000000000   nop
0x8aec5404a31    31  660f1f840000000000   nop
0x8aec5404a3a    3a  660f1f440000         nop
0x8aec5404a40    40  483b27               REX.W cmpq rsp,[rdi]
0x8aec5404a43    43  0f86c5010000         jna 0x8aec5404c0e  <+0x20e>
0x8aec5404a49    49  448bc8               movl r9,rax
0x8aec5404a4c    4c  460fb60c0b           movzxbl r9,[rbx+r9*1]
0x8aec5404a51    51  453bc1               cmpl r8,r9
0x8aec5404a54    54  0f84a5000000         jz 0x8aec5404aff  <+0xff>
0x8aec5404a5a    5a  83e901               subl rcx,0x1
0x8aec5404a5d    5d  83c001               addl rax,0x1
0x8aec5404a60    60  a803                 test al,0x3
0x8aec5404a62    62  0f8463000000         jz 0x8aec5404acb  <+0xcb>
0x8aec5404a68    68  83f900               cmpl rcx,0x0
0x8aec5404a6b    6b  0f842a000000         jz 0x8aec5404a9b  <+0x9b>
0x8aec5404a71    71  440fb6ca             movzxbl r9,rdx
0x8aec5404a75    75  440fb61c03           movzxbl r11,[rbx+rax*1]
0x8aec5404a7a    7a  453bcb               cmpl r9,r11
0x8aec5404a7d    7d  0f847c000000         jz 0x8aec5404aff  <+0xff>
0x8aec5404a83    83  83e901               subl rcx,0x1
0x8aec5404a86    86  83c001               addl rax,0x1
0x8aec5404a89    89  a803                 test al,0x3
0x8aec5404a8b    8b  0f842a000000         jz 0x8aec5404abb  <+0xbb>
0x8aec5404a91    91  83f900               cmpl rcx,0x0
0x8aec5404a94    94  75aa                 jnz 0x8aec5404a40  <+0x40>
0x8aec5404a96    96  e910000000           jmp 0x8aec5404aab  <+0xab>
0x8aec5404a9b    9b  83f900               cmpl rcx,0x0
0x8aec5404a9e    9e  400f95c7             setnzl dil
0x8aec5404aa2    a2  400fb6ff             movzxbl rdi,rdi
0x8aec5404aa6    a6  e94b000000           jmp 0x8aec5404af6  <+0xf6>
0x8aec5404aab    ab  83f900               cmpl rcx,0x0
0x8aec5404aae    ae  400f95c7             setnzl dil
0x8aec5404ab2    b2  400fb6ff             movzxbl rdi,rdi
0x8aec5404ab6    b6  e93b000000           jmp 0x8aec5404af6  <+0xf6>
0x8aec5404abb    bb  83f900               cmpl rcx,0x0
0x8aec5404abe    be  400f95c7             setnzl dil
0x8aec5404ac2    c2  400fb6ff             movzxbl rdi,rdi
0x8aec5404ac6    c6  e92b000000           jmp 0x8aec5404af6  <+0xf6>
0x8aec5404acb    cb  83f900               cmpl rcx,0x0
0x8aec5404ace    ce  400f95c7             setnzl dil
0x8aec5404ad2    d2  400fb6ff             movzxbl rdi,rdi
0x8aec5404ad6    d6  e91b000000           jmp 0x8aec5404af6  <+0xf6>
0x8aec5404adb    db  83f900               cmpl rcx,0x0
0x8aec5404ade    de  400f95c7             setnzl dil
0x8aec5404ae2    e2  400fb6ff             movzxbl rdi,rdi
0x8aec5404ae6    e6  e90b000000           jmp 0x8aec5404af6  <+0xf6>
0x8aec5404aeb    eb  83f900               cmpl rcx,0x0
0x8aec5404aee    ee  400f95c7             setnzl dil
0x8aec5404af2    f2  400fb6ff             movzxbl rdi,rdi
0x8aec5404af6    f6  83ff00               cmpl rdi,0x0
0x8aec5404af9    f9  0f840b010000         jz 0x8aec5404c0a  <+0x20a>
0x8aec5404aff    ff  0fb6fa               movzxbl rdi,rdx
0x8aec5404b02   102  448bc0               movl r8,rax
0x8aec5404b05   105  460fb60403           movzxbl r8,[rbx+r8*1]
0x8aec5404b0a   10a  413bf8               cmpl rdi,r8
0x8aec5404b0d   10d  0f8498000000         jz 0x8aec5404bab  <+0x1ab>
0x8aec5404b13   113  83f904               cmpl rcx,0x4
0x8aec5404b16   116  0f828f000000         jc 0x8aec5404bab  <+0x1ab>
0x8aec5404b1c   11c  488b7e27             REX.W movq rdi,[rsi+0x27]
0x8aec5404b20   120  440fb6c2             movzxbl r8,rdx
0x8aec5404b24   124  4569c001010101       imull r8,r8,0x1010101
0x8aec5404b2b   12b  660f1f840000000000   nop
0x8aec5404b34   134  660f1f840000000000   nop
0x8aec5404b3d   13d  0f1f00               nop
0x8aec5404b40   140  483b27               REX.W cmpq rsp,[rdi]
0x8aec5404b43   143  0f8603010000         jna 0x8aec5404c4c  <+0x24c>
0x8aec5404b49   149  448bc8               movl r9,rax
0x8aec5404b4c   14c  468b0c0b             movl r9,[rbx+r9*1]
0x8aec5404b50   150  4533c8               xorl r9,r8
0x8aec5404b53   153  458d99fffefefe       leal r11,[r9-0x1010101]
0x8aec5404b5a   15a  41f7d1               notl r9
0x8aec5404b5d   15d  4523d9               andl r11,r9
0x8aec5404b60   160  41f7c380808080       testl r11,0x80808080
0x8aec5404b67   167  0f853e000000         jnz 0x8aec5404bab  <+0x1ab>
0x8aec5404b6d   16d  83c004               addl rax,0x4
0x8aec5404b70   170  83e904               subl rcx,0x4
0x8aec5404b73   173  83f903               cmpl rcx,0x3
0x8aec5404b76   176  0f862f000000         jna 0x8aec5404bab  <+0x1ab>
0x8aec5404b7c   17c  448b0c03             movl r9,[rbx+rax*1]
0x8aec5404b80   180  4d8bd8               REX.W movq r11,r8
0x8aec5404b83   183  4533d9               xorl r11,r9
0x8aec5404b86   186  458d8bfffefefe       leal r9,[r11-0x1010101]
0x8aec5404b8d   18d  41f7d3               notl r11
0x8aec5404b90   190  4523cb               andl r9,r11
0x8aec5404b93   193  41f7c180808080       testl r9,0x80808080
0x8aec5404b9a   19a  0f850b000000         jnz 0x8aec5404bab  <+0x1ab>
0x8aec5404ba0   1a0  83c004               addl rax,0x4
0x8aec5404ba3   1a3  83e904               subl rcx,0x4
0x8aec5404ba6   1a6  83f903               cmpl rcx,0x3
0x8aec5404ba9   1a9  7795                 ja 0x8aec5404b40  <+0x140>
0x8aec5404bab   1ab  83f900               cmpl rcx,0x0
0x8aec5404bae   1ae  0f8456000000         jz 0x8aec5404c0a  <+0x20a>
0x8aec5404bb4   1b4  488b7627             REX.W movq rsi,[rsi+0x27]
0x8aec5404bb8   1b8  0fb6fa               movzxbl rdi,rdx
0x8aec5404bbb   1bb  e903000000           jmp 0x8aec5404bc3  <+0x1c3>
0x8aec5404bc0   1c0  83c001               addl rax,0x1
0x8aec5404bc3   1c3  483b26               REX.W cmpq rsp,[rsi]
0x8aec5404bc6   1c6  0f86be000000         jna 0x8aec5404c8a  <+0x28a>
0x8aec5404bcc   1cc  448bc0               movl r8,rax
0x8aec5404bcf   1cf  460fb60403           movzxbl r8,[rbx+r8*1]
0x8aec5404bd4   1d4  413bf8               cmpl rdi,r8
0x8aec5404bd7   1d7  0f8428000000         jz 0x8aec5404c05  <+0x205>
0x8aec5404bdd   1dd  83c1ff               addl rcx,0xff
0x8aec5404be0   1e0  0f8424000000         jz 0x8aec5404c0a  <+0x20a>
0x8aec5404be6   1e6  83c001               addl rax,0x1
0x8aec5404be9   1e9  440fb6c2             movzxbl r8,rdx
0x8aec5404bed   1ed  440fb60c03           movzxbl r9,[rbx+rax*1]
0x8aec5404bf2   1f2  453bc1               cmpl r8,r9
0x8aec5404bf5   1f5  0f840a000000         jz 0x8aec5404c05  <+0x205>
0x8aec5404bfb   1fb  83c1ff               addl rcx,0xff
0x8aec5404bfe   1fe  75c0                 jnz 0x8aec5404bc0  <+0x1c0>
0x8aec5404c00   200  e905000000           jmp 0x8aec5404c0a  <+0x20a>
0x8aec5404c05   205  488be5               REX.W movq rsp,rbp
0x8aec5404c08   208  5d                   pop rbp
0x8aec5404c09   209  c3                   retl
0x8aec5404c0a   20a  33c0                 xorl rax,rax
0x8aec5404c0c   20c  ebf7                 jmp 0x8aec5404c05  <+0x205>
0x8aec5404c0e   20e  48895de8             REX.W movq [rbp-0x18],rbx
0x8aec5404c12   212  488955e0             REX.W movq [rbp-0x20],rdx
0x8aec5404c16   216  48894dc8             REX.W movq [rbp-0x38],rcx
0x8aec5404c1a   21a  488945c0             REX.W movq [rbp-0x40],rax
0x8aec5404c1e   21e  4c8945d8             REX.W movq [rbp-0x28],r8
0x8aec5404c22   222  48897dd0             REX.W movq [rbp-0x30],rdi
0x8aec5404c26   226  e84537ffff           call 0x8aec53f8370  (jump table)    ;; wasm stub: WasmStackGuard
0x8aec5404c2b   22b  488b5de8             REX.W movq rbx,[rbp-0x18]
0x8aec5404c2f   22f  488b55e0             REX.W movq rdx,[rbp-0x20]
0x8aec5404c33   233  488b75f0             REX.W movq rsi,[rbp-0x10]
0x8aec5404c37   237  488b4dc8             REX.W movq rcx,[rbp-0x38]
0x8aec5404c3b   23b  488b45c0             REX.W movq rax,[rbp-0x40]
0x8aec5404c3f   23f  4c8b45d8             REX.W movq r8,[rbp-0x28]
0x8aec5404c43   243  488b7dd0             REX.W movq rdi,[rbp-0x30]
0x8aec5404c47   247  e9fdfdffff           jmp 0x8aec5404a49  <+0x49>
0x8aec5404c4c   24c  48895de8             REX.W movq [rbp-0x18],rbx
0x8aec5404c50   250  488955e0             REX.W movq [rbp-0x20],rdx
0x8aec5404c54   254  488945c0             REX.W movq [rbp-0x40],rax
0x8aec5404c58   258  48894dc8             REX.W movq [rbp-0x38],rcx
0x8aec5404c5c   25c  4c8945d8             REX.W movq [rbp-0x28],r8
0x8aec5404c60   260  48897dd0             REX.W movq [rbp-0x30],rdi
0x8aec5404c64   264  e80737ffff           call 0x8aec53f8370  (jump table)    ;; wasm stub: WasmStackGuard
0x8aec5404c69   269  488b5de8             REX.W movq rbx,[rbp-0x18]
0x8aec5404c6d   26d  488b55e0             REX.W movq rdx,[rbp-0x20]
0x8aec5404c71   271  488b75f0             REX.W movq rsi,[rbp-0x10]
0x8aec5404c75   275  488b45c0             REX.W movq rax,[rbp-0x40]
0x8aec5404c79   279  488b4dc8             REX.W movq rcx,[rbp-0x38]
0x8aec5404c7d   27d  4c8b45d8             REX.W movq r8,[rbp-0x28]
0x8aec5404c81   281  488b7dd0             REX.W movq rdi,[rbp-0x30]
0x8aec5404c85   285  e9bffeffff           jmp 0x8aec5404b49  <+0x149>
0x8aec5404c8a   28a  488945c0             REX.W movq [rbp-0x40],rax
0x8aec5404c8e   28e  48895de8             REX.W movq [rbp-0x18],rbx
0x8aec5404c92   292  488955e0             REX.W movq [rbp-0x20],rdx
0x8aec5404c96   296  48894dc8             REX.W movq [rbp-0x38],rcx
0x8aec5404c9a   29a  48897dd8             REX.W movq [rbp-0x28],rdi
0x8aec5404c9e   29e  488975d0             REX.W movq [rbp-0x30],rsi
0x8aec5404ca2   2a2  e8c936ffff           call 0x8aec53f8370  (jump table)    ;; wasm stub: WasmStackGuard
0x8aec5404ca7   2a7  488b45c0             REX.W movq rax,[rbp-0x40]
0x8aec5404cab   2ab  488b5de8             REX.W movq rbx,[rbp-0x18]
0x8aec5404caf   2af  488b55e0             REX.W movq rdx,[rbp-0x20]
0x8aec5404cb3   2b3  488b4dc8             REX.W movq rcx,[rbp-0x38]
0x8aec5404cb7   2b7  488b7dd8             REX.W movq rdi,[rbp-0x28]
0x8aec5404cbb   2bb  488b75d0             REX.W movq rsi,[rbp-0x30]
0x8aec5404cbf   2bf  e908ffffff           jmp 0x8aec5404bcc  <+0x1cc>
0x8aec5404cc4   2c4  e84734ffff           call 0x8aec53f8110  (jump table)    ;; wasm stub: ThrowWasmTrapMemOutOfBounds
0x8aec5404cc9   2c9  e84234ffff           call 0x8aec53f8110  (jump table)    ;; wasm stub: ThrowWasmTrapMemOutOfBounds
0x8aec5404cce   2ce  e83d34ffff           call 0x8aec53f8110  (jump table)    ;; wasm stub: ThrowWasmTrapMemOutOfBounds
0x8aec5404cd3   2d3  e83834ffff           call 0x8aec53f8110  (jump table)    ;; wasm stub: ThrowWasmTrapMemOutOfBounds
0x8aec5404cd8   2d8  e83334ffff           call 0x8aec53f8110  (jump table)    ;; wasm stub: ThrowWasmTrapMemOutOfBounds
0x8aec5404cdd   2dd  e82e34ffff           call 0x8aec53f8110  (jump table)    ;; wasm stub: ThrowWasmTrapMemOutOfBounds
0x8aec5404ce2   2e2  e82934ffff           call 0x8aec53f8110  (jump table)    ;; wasm stub: ThrowWasmTrapMemOutOfBounds
0x8aec5404ce7   2e7  90                   nop

Protected instructions:
 pc offset  land pad
       1ed       2c4
       1cf       2c9
       17c       2ce
       14c       2d3
       105       2d8
        75       2dd
        4c       2e2

Source positions:
 pc offset  position
        4c        43
       105        92
       14c       129
       1cf       198
       20e        39
       24c       125
       28a       192
       2c4       198
       2ce       129
       2d8        92
       2dd        43

Safepoints (entries = 1, byte size = 12)
0x8aec5404c2b    22b  slots (sp->fp): 0000000000000000

RelocInfo (size = 12)
0x8aec5404c27  wasm stub call
0x8aec5404c65  wasm stub call
0x8aec5404ca3  wasm stub call
0x8aec5404cc5  wasm stub call
0x8aec5404cca  wasm stub call
0x8aec5404ccf  wasm stub call
0x8aec5404cd4  wasm stub call
0x8aec5404cd9  wasm stub call
0x8aec5404cde  wasm stub call
0x8aec5404ce3  wasm stub call

--- End code ---
--- WebAssembly code ---
name: pop_arg
index: 25
kind: wasm function
compiler: TurboFan
Body (size = 1216 = 1212 + 4 padding)
Instructions (size = 1200)
0x8aec53ff840     0  55                   push rbp
0x8aec53ff841     1  4889e5               REX.W movq rbp,rsp
0x8aec53ff844     4  6a08                 push 0x8
0x8aec53ff846     6  56                   push rsi
0x8aec53ff847     7  4883ec20             REX.W subq rsp,0x20
0x8aec53ff84b     b  488b7e27             REX.W movq rdi,[rsi+0x27]
0x8aec53ff84f     f  483b27               REX.W cmpq rsp,[rdi]
0x8aec53ff852    12  0f8678020000         jna 0x8aec53ffad0  <+0x290>
0x8aec53ff858    18  8d7af7               leal rdi,[rdx-0x9]
0x8aec53ff85b    1b  4c8b4617             REX.W movq r8,[rsi+0x17]
0x8aec53ff85f    1f  83ff12               cmpl rdi,0x12
0x8aec53ff862    22  0f8363020000         jnc 0x8aec53ffacb  <+0x28b>
0x8aec53ff868    28  4c8d15f1030000       REX.W leaq r10,[rip+0x3f1]
0x8aec53ff86f    2f  41ff24fa             jmp [r10+rdi*8]
0x8aec53ff873    33  e953020000           jmp 0x8aec53ffacb  <+0x28b>
0x8aec53ff878    38  8bd9                 movl rbx,rcx
0x8aec53ff87a    3a  8bc8                 movl rcx,rax
0x8aec53ff87c    3c  418b3c18             movl rdi,[r8+rbx*1]
0x8aec53ff880    40  448d4f04             leal r9,[rdi+0x4]
0x8aec53ff884    44  45890c18             movl [r8+rbx*1],r9
0x8aec53ff888    48  418b1c38             movl rbx,[r8+rdi*1]
0x8aec53ff88c    4c  41891c08             movl [r8+rcx*1],rbx
0x8aec53ff890    50  488be5               REX.W movq rsp,rbp
0x8aec53ff893    53  5d                   pop rbp
0x8aec53ff894    54  c3                   retl
0x8aec53ff895    55  8bd9                 movl rbx,rcx
0x8aec53ff897    57  8bc8                 movl rcx,rax
0x8aec53ff899    59  418b3c18             movl rdi,[r8+rbx*1]
0x8aec53ff89d    5d  448d4f04             leal r9,[rdi+0x4]
0x8aec53ff8a1    61  45890c18             movl [r8+rbx*1],r9
0x8aec53ff8a5    65  418b1c38             movl rbx,[r8+rdi*1]
0x8aec53ff8a9    69  4863db               REX.W movsxlq rbx,rbx
0x8aec53ff8ac    6c  49891c08             REX.W movq [r8+rcx*1],rbx
0x8aec53ff8b0    70  ebde                 jmp 0x8aec53ff890  <+0x50>
0x8aec53ff8b2    72  8bd9                 movl rbx,rcx
0x8aec53ff8b4    74  8bc8                 movl rcx,rax
0x8aec53ff8b6    76  418b3c18             movl rdi,[r8+rbx*1]
0x8aec53ff8ba    7a  448d4f04             leal r9,[rdi+0x4]
0x8aec53ff8be    7e  45890c18             movl [r8+rbx*1],r9
0x8aec53ff8c2    82  418b1c38             movl rbx,[r8+rdi*1]
0x8aec53ff8c6    86  49891c08             REX.W movq [r8+rcx*1],rbx
0x8aec53ff8ca    8a  ebc4                 jmp 0x8aec53ff890  <+0x50>
0x8aec53ff8cc    8c  8bd9                 movl rbx,rcx
0x8aec53ff8ce    8e  8bc8                 movl rcx,rax
0x8aec53ff8d0    90  418b3c18             movl rdi,[r8+rbx*1]
0x8aec53ff8d4    94  83c707               addl rdi,0x7
0x8aec53ff8d7    97  83e7f8               andl rdi,0xf8
0x8aec53ff8da    9a  448d4f08             leal r9,[rdi+0x8]
0x8aec53ff8de    9e  45890c18             movl [r8+rbx*1],r9
0x8aec53ff8e2    a2  498b1c38             REX.W movq rbx,[r8+rdi*1]
0x8aec53ff8e6    a6  49891c08             REX.W movq [r8+rcx*1],rbx
0x8aec53ff8ea    aa  eba4                 jmp 0x8aec53ff890  <+0x50>
0x8aec53ff8ec    ac  8bd9                 movl rbx,rcx
0x8aec53ff8ee    ae  8bc8                 movl rcx,rax
0x8aec53ff8f0    b0  418b3c18             movl rdi,[r8+rbx*1]
0x8aec53ff8f4    b4  448d4f04             leal r9,[rdi+0x4]
0x8aec53ff8f8    b8  45890c18             movl [r8+rbx*1],r9
0x8aec53ff8fc    bc  418b1c38             movl rbx,[r8+rdi*1]
0x8aec53ff900    c0  4863db               REX.W movsxlq rbx,rbx
0x8aec53ff903    c3  49891c08             REX.W movq [r8+rcx*1],rbx
0x8aec53ff907    c7  eb87                 jmp 0x8aec53ff890  <+0x50>
0x8aec53ff909    c9  8bd9                 movl rbx,rcx
0x8aec53ff90b    cb  8bc8                 movl rcx,rax
0x8aec53ff90d    cd  418b3c18             movl rdi,[r8+rbx*1]
0x8aec53ff911    d1  448d4f04             leal r9,[rdi+0x4]
0x8aec53ff915    d5  45890c18             movl [r8+rbx*1],r9
0x8aec53ff919    d9  418b1c38             movl rbx,[r8+rdi*1]
0x8aec53ff91d    dd  49891c08             REX.W movq [r8+rcx*1],rbx
0x8aec53ff921    e1  e96affffff           jmp 0x8aec53ff890  <+0x50>
0x8aec53ff926    e6  8bd9                 movl rbx,rcx
0x8aec53ff928    e8  8bc8                 movl rcx,rax
0x8aec53ff92a    ea  418b3c18             movl rdi,[r8+rbx*1]
0x8aec53ff92e    ee  448d4f04             leal r9,[rdi+0x4]
0x8aec53ff932    f2  45890c18             movl [r8+rbx*1],r9
0x8aec53ff936    f6  410fbf1c38           movsxwl rbx,[r8+rdi*1]
0x8aec53ff93b    fb  4863db               REX.W movsxlq rbx,rbx
0x8aec53ff93e    fe  49891c08             REX.W movq [r8+rcx*1],rbx
0x8aec53ff942   102  e949ffffff           jmp 0x8aec53ff890  <+0x50>
0x8aec53ff947   107  8bd9                 movl rbx,rcx
0x8aec53ff949   109  8bc8                 movl rcx,rax
0x8aec53ff94b   10b  418b3c18             movl rdi,[r8+rbx*1]
0x8aec53ff94f   10f  448d4f04             leal r9,[rdi+0x4]
0x8aec53ff953   113  45890c18             movl [r8+rbx*1],r9
0x8aec53ff957   117  410fb71c38           movzxwl rbx,[r8+rdi*1]
0x8aec53ff95c   11c  49891c08             REX.W movq [r8+rcx*1],rbx
0x8aec53ff960   120  e92bffffff           jmp 0x8aec53ff890  <+0x50>
0x8aec53ff965   125  8bd9                 movl rbx,rcx
0x8aec53ff967   127  8bc8                 movl rcx,rax
0x8aec53ff969   129  418b3c18             movl rdi,[r8+rbx*1]
0x8aec53ff96d   12d  448d4f04             leal r9,[rdi+0x4]
0x8aec53ff971   131  45890c18             movl [r8+rbx*1],r9
0x8aec53ff975   135  410fbe1c38           movsxbl rbx,[r8+rdi*1]
0x8aec53ff97a   13a  4863db               REX.W movsxlq rbx,rbx
0x8aec53ff97d   13d  49891c08             REX.W movq [r8+rcx*1],rbx
0x8aec53ff981   141  e90affffff           jmp 0x8aec53ff890  <+0x50>
0x8aec53ff986   146  8bd9                 movl rbx,rcx
0x8aec53ff988   148  8bc8                 movl rcx,rax
0x8aec53ff98a   14a  418b3c18             movl rdi,[r8+rbx*1]
0x8aec53ff98e   14e  448d4f04             leal r9,[rdi+0x4]
0x8aec53ff992   152  45890c18             movl [r8+rbx*1],r9
0x8aec53ff996   156  410fb61c38           movzxbl rbx,[r8+rdi*1]
0x8aec53ff99b   15b  49891c08             REX.W movq [r8+rcx*1],rbx
0x8aec53ff99f   15f  e9ecfeffff           jmp 0x8aec53ff890  <+0x50>
0x8aec53ff9a4   164  8bd9                 movl rbx,rcx
0x8aec53ff9a6   166  8bc8                 movl rcx,rax
0x8aec53ff9a8   168  418b3c18             movl rdi,[r8+rbx*1]
0x8aec53ff9ac   16c  83c707               addl rdi,0x7
0x8aec53ff9af   16f  83e7f8               andl rdi,0xf8
0x8aec53ff9b2   172  448d4f08             leal r9,[rdi+0x8]
0x8aec53ff9b6   176  45890c18             movl [r8+rbx*1],r9
0x8aec53ff9ba   17a  498b1c38             REX.W movq rbx,[r8+rdi*1]
0x8aec53ff9be   17e  49891c08             REX.W movq [r8+rcx*1],rbx
0x8aec53ff9c2   182  e9c9feffff           jmp 0x8aec53ff890  <+0x50>
0x8aec53ff9c7   187  8bd9                 movl rbx,rcx
0x8aec53ff9c9   189  8bc8                 movl rcx,rax
0x8aec53ff9cb   18b  418b3c18             movl rdi,[r8+rbx*1]
0x8aec53ff9cf   18f  448d4f04             leal r9,[rdi+0x4]
0x8aec53ff9d3   193  45890c18             movl [r8+rbx*1],r9
0x8aec53ff9d7   197  418b1c38             movl rbx,[r8+rdi*1]
0x8aec53ff9db   19b  49891c08             REX.W movq [r8+rcx*1],rbx
0x8aec53ff9df   19f  e9acfeffff           jmp 0x8aec53ff890  <+0x50>
0x8aec53ff9e4   1a4  8bd9                 movl rbx,rcx
0x8aec53ff9e6   1a6  8bc8                 movl rcx,rax
0x8aec53ff9e8   1a8  418b3c18             movl rdi,[r8+rbx*1]
0x8aec53ff9ec   1ac  83c707               addl rdi,0x7
0x8aec53ff9ef   1af  83e7f8               andl rdi,0xf8
0x8aec53ff9f2   1b2  448d4f08             leal r9,[rdi+0x8]
0x8aec53ff9f6   1b6  45890c18             movl [r8+rbx*1],r9
0x8aec53ff9fa   1ba  498b1c38             REX.W movq rbx,[r8+rdi*1]
0x8aec53ff9fe   1be  49891c08             REX.W movq [r8+rcx*1],rbx
0x8aec53ffa02   1c2  e989feffff           jmp 0x8aec53ff890  <+0x50>
0x8aec53ffa07   1c7  8bd9                 movl rbx,rcx
0x8aec53ffa09   1c9  8bc8                 movl rcx,rax
0x8aec53ffa0b   1cb  418b3c18             movl rdi,[r8+rbx*1]
0x8aec53ffa0f   1cf  83c707               addl rdi,0x7
0x8aec53ffa12   1d2  83e7f8               andl rdi,0xf8
0x8aec53ffa15   1d5  448d4f08             leal r9,[rdi+0x8]
0x8aec53ffa19   1d9  45890c18             movl [r8+rbx*1],r9
0x8aec53ffa1d   1dd  498b1c38             REX.W movq rbx,[r8+rdi*1]
0x8aec53ffa21   1e1  49891c08             REX.W movq [r8+rcx*1],rbx
0x8aec53ffa25   1e5  e966feffff           jmp 0x8aec53ff890  <+0x50>
0x8aec53ffa2a   1ea  8bd9                 movl rbx,rcx
0x8aec53ffa2c   1ec  8bc8                 movl rcx,rax
0x8aec53ffa2e   1ee  418b3c18             movl rdi,[r8+rbx*1]
0x8aec53ffa32   1f2  448d4f04             leal r9,[rdi+0x4]
0x8aec53ffa36   1f6  45890c18             movl [r8+rbx*1],r9
0x8aec53ffa3a   1fa  418b1c38             movl rbx,[r8+rdi*1]
0x8aec53ffa3e   1fe  4863db               REX.W movsxlq rbx,rbx
0x8aec53ffa41   201  49891c08             REX.W movq [r8+rcx*1],rbx
0x8aec53ffa45   205  e946feffff           jmp 0x8aec53ff890  <+0x50>
0x8aec53ffa4a   20a  8bd9                 movl rbx,rcx
0x8aec53ffa4c   20c  8bc8                 movl rcx,rax
0x8aec53ffa4e   20e  418b3c18             movl rdi,[r8+rbx*1]
0x8aec53ffa52   212  448d4f04             leal r9,[rdi+0x4]
0x8aec53ffa56   216  45890c18             movl [r8+rbx*1],r9
0x8aec53ffa5a   21a  418b1c38             movl rbx,[r8+rdi*1]
0x8aec53ffa5e   21e  49891c08             REX.W movq [r8+rcx*1],rbx
0x8aec53ffa62   222  e929feffff           jmp 0x8aec53ff890  <+0x50>
0x8aec53ffa67   227  8bd9                 movl rbx,rcx
0x8aec53ffa69   229  418b0c18             movl rcx,[r8+rbx*1]
0x8aec53ffa6d   22d  83c107               addl rcx,0x7
0x8aec53ffa70   230  83e1f8               andl rcx,0xf8
0x8aec53ffa73   233  8d7908               leal rdi,[rcx+0x8]
0x8aec53ffa76   236  41893c18             movl [r8+rbx*1],rdi
0x8aec53ffa7a   23a  c4c17b100408         vmovsd xmm0,[r8+rcx*1]
0x8aec53ffa80   240  8bd8                 movl rbx,rax
0x8aec53ffa82   242  c4c17b110418         vmovsd [r8+rbx*1],xmm0
0x8aec53ffa88   248  e903feffff           jmp 0x8aec53ff890  <+0x50>
0x8aec53ffa8d   24d  488b7e3f             REX.W movq rdi,[rsi+0x3f]
0x8aec53ffa91   251  4c8b4637             REX.W movq r8,[rsi+0x37]
0x8aec53ffa95   255  448b4e0f             movl r9,[rsi+0xf]
0x8aec53ffa99   259  4d03ce               REX.W addq r9,r14
0x8aec53ffa9c   25c  448d1c9d00000000     leal r11,[rbx*4+0x0]
0x8aec53ffaa4   264  83fb04               cmpl rbx,0x4
0x8aec53ffaa7   267  0f8356000000         jnc 0x8aec53ffb03  <+0x2c3>
0x8aec53ffaad   26d  8bdb                 movl rbx,rbx
0x8aec53ffaaf   26f  42833c1f0e           cmpl [rdi+r11*1],0xe
0x8aec53ffab4   274  0f8544000000         jnz 0x8aec53ffafe  <+0x2be>
0x8aec53ffaba   27a  418b749907           movl rsi,[r9+rbx*4+0x7]
0x8aec53ffabf   27f  4903f6               REX.W addq rsi,r14
0x8aec53ffac2   282  498b1cd8             REX.W movq rbx,[r8+rbx*8]
0x8aec53ffac6   286  488bd1               REX.W movq rdx,rcx
0x8aec53ffac9   289  ffd3                 call rbx
0x8aec53ffacb   28b  e9c0fdffff           jmp 0x8aec53ff890  <+0x50>
0x8aec53ffad0   290  488945e8             REX.W movq [rbp-0x18],rax
0x8aec53ffad4   294  48894de0             REX.W movq [rbp-0x20],rcx
0x8aec53ffad8   298  48895dd8             REX.W movq [rbp-0x28],rbx
0x8aec53ffadc   29c  488955d0             REX.W movq [rbp-0x30],rdx
0x8aec53ffae0   2a0  e88b88ffff           call 0x8aec53f8370  (jump table)    ;; wasm stub: WasmStackGuard
0x8aec53ffae5   2a5  488b45e8             REX.W movq rax,[rbp-0x18]
0x8aec53ffae9   2a9  488b4de0             REX.W movq rcx,[rbp-0x20]
0x8aec53ffaed   2ad  488b5dd8             REX.W movq rbx,[rbp-0x28]
0x8aec53ffaf1   2b1  488b75f0             REX.W movq rsi,[rbp-0x10]
0x8aec53ffaf5   2b5  488b55d0             REX.W movq rdx,[rbp-0x30]
0x8aec53ffaf9   2b9  e95afdffff           jmp 0x8aec53ff858  <+0x18>
0x8aec53ffafe   2be  e86d86ffff           call 0x8aec53f8170  (jump table)    ;; wasm stub: ThrowWasmTrapFuncSigMismatch
0x8aec53ffb03   2c3  e89886ffff           call 0x8aec53f81a0  (jump table)    ;; wasm stub: ThrowWasmTrapTableOutOfBounds
0x8aec53ffb08   2c8  e80386ffff           call 0x8aec53f8110  (jump table)    ;; wasm stub: ThrowWasmTrapMemOutOfBounds
0x8aec53ffb0d   2cd  e8fe85ffff           call 0x8aec53f8110  (jump table)    ;; wasm stub: ThrowWasmTrapMemOutOfBounds
0x8aec53ffb12   2d2  e8f985ffff           call 0x8aec53f8110  (jump table)    ;; wasm stub: ThrowWasmTrapMemOutOfBounds
0x8aec53ffb17   2d7  e8f485ffff           call 0x8aec53f8110  (jump table)    ;; wasm stub: ThrowWasmTrapMemOutOfBounds
0x8aec53ffb1c   2dc  e8ef85ffff           call 0x8aec53f8110  (jump table)    ;; wasm stub: ThrowWasmTrapMemOutOfBounds
0x8aec53ffb21   2e1  e8ea85ffff           call 0x8aec53f8110  (jump table)    ;; wasm stub: ThrowWasmTrapMemOutOfBounds
0x8aec53ffb26   2e6  e8e585ffff           call 0x8aec53f8110  (jump table)    ;; wasm stub: ThrowWasmTrapMemOutOfBounds
0x8aec53ffb2b   2eb  e8e085ffff           call 0x8aec53f8110  (jump table)    ;; wasm stub: ThrowWasmTrapMemOutOfBounds
0x8aec53ffb30   2f0  e8db85ffff           call 0x8aec53f8110  (jump table)    ;; wasm stub: ThrowWasmTrapMemOutOfBounds
0x8aec53ffb35   2f5  e8d685ffff           call 0x8aec53f8110  (jump table)    ;; wasm stub: ThrowWasmTrapMemOutOfBounds
0x8aec53ffb3a   2fa  e8d185ffff           call 0x8aec53f8110  (jump table)    ;; wasm stub: ThrowWasmTrapMemOutOfBounds
0x8aec53ffb3f   2ff  e8cc85ffff           call 0x8aec53f8110  (jump table)    ;; wasm stub: ThrowWasmTrapMemOutOfBounds
0x8aec53ffb44   304  e8c785ffff           call 0x8aec53f8110  (jump table)    ;; wasm stub: ThrowWasmTrapMemOutOfBounds
0x8aec53ffb49   309  e8c285ffff           call 0x8aec53f8110  (jump table)    ;; wasm stub: ThrowWasmTrapMemOutOfBounds
0x8aec53ffb4e   30e  e8bd85ffff           call 0x8aec53f8110  (jump table)    ;; wasm stub: ThrowWasmTrapMemOutOfBounds
0x8aec53ffb53   313  e8b885ffff           call 0x8aec53f8110  (jump table)    ;; wasm stub: ThrowWasmTrapMemOutOfBounds
0x8aec53ffb58   318  e8b385ffff           call 0x8aec53f8110  (jump table)    ;; wasm stub: ThrowWasmTrapMemOutOfBounds
0x8aec53ffb5d   31d  e8ae85ffff           call 0x8aec53f8110  (jump table)    ;; wasm stub: ThrowWasmTrapMemOutOfBounds
0x8aec53ffb62   322  e8a985ffff           call 0x8aec53f8110  (jump table)    ;; wasm stub: ThrowWasmTrapMemOutOfBounds
0x8aec53ffb67   327  e8a485ffff           call 0x8aec53f8110  (jump table)    ;; wasm stub: ThrowWasmTrapMemOutOfBounds
0x8aec53ffb6c   32c  e89f85ffff           call 0x8aec53f8110  (jump table)    ;; wasm stub: ThrowWasmTrapMemOutOfBounds
0x8aec53ffb71   331  e89a85ffff           call 0x8aec53f8110  (jump table)    ;; wasm stub: ThrowWasmTrapMemOutOfBounds
0x8aec53ffb76   336  e89585ffff           call 0x8aec53f8110  (jump table)    ;; wasm stub: ThrowWasmTrapMemOutOfBounds
0x8aec53ffb7b   33b  e89085ffff           call 0x8aec53f8110  (jump table)    ;; wasm stub: ThrowWasmTrapMemOutOfBounds
0x8aec53ffb80   340  e88b85ffff           call 0x8aec53f8110  (jump table)    ;; wasm stub: ThrowWasmTrapMemOutOfBounds
0x8aec53ffb85   345  e88685ffff           call 0x8aec53f8110  (jump table)    ;; wasm stub: ThrowWasmTrapMemOutOfBounds
0x8aec53ffb8a   34a  e88185ffff           call 0x8aec53f8110  (jump table)    ;; wasm stub: ThrowWasmTrapMemOutOfBounds
0x8aec53ffb8f   34f  e87c85ffff           call 0x8aec53f8110  (jump table)    ;; wasm stub: ThrowWasmTrapMemOutOfBounds
0x8aec53ffb94   354  e87785ffff           call 0x8aec53f8110  (jump table)    ;; wasm stub: ThrowWasmTrapMemOutOfBounds
0x8aec53ffb99   359  e87285ffff           call 0x8aec53f8110  (jump table)    ;; wasm stub: ThrowWasmTrapMemOutOfBounds
0x8aec53ffb9e   35e  e86d85ffff           call 0x8aec53f8110  (jump table)    ;; wasm stub: ThrowWasmTrapMemOutOfBounds
0x8aec53ffba3   363  e86885ffff           call 0x8aec53f8110  (jump table)    ;; wasm stub: ThrowWasmTrapMemOutOfBounds
0x8aec53ffba8   368  e86385ffff           call 0x8aec53f8110  (jump table)    ;; wasm stub: ThrowWasmTrapMemOutOfBounds
0x8aec53ffbad   36d  e85e85ffff           call 0x8aec53f8110  (jump table)    ;; wasm stub: ThrowWasmTrapMemOutOfBounds
0x8aec53ffbb2   372  e85985ffff           call 0x8aec53f8110  (jump table)    ;; wasm stub: ThrowWasmTrapMemOutOfBounds
0x8aec53ffbb7   377  e85485ffff           call 0x8aec53f8110  (jump table)    ;; wasm stub: ThrowWasmTrapMemOutOfBounds
0x8aec53ffbbc   37c  e84f85ffff           call 0x8aec53f8110  (jump table)    ;; wasm stub: ThrowWasmTrapMemOutOfBounds
0x8aec53ffbc1   381  e84a85ffff           call 0x8aec53f8110  (jump table)    ;; wasm stub: ThrowWasmTrapMemOutOfBounds
0x8aec53ffbc6   386  e84585ffff           call 0x8aec53f8110  (jump table)    ;; wasm stub: ThrowWasmTrapMemOutOfBounds
0x8aec53ffbcb   38b  e84085ffff           call 0x8aec53f8110  (jump table)    ;; wasm stub: ThrowWasmTrapMemOutOfBounds
0x8aec53ffbd0   390  e83b85ffff           call 0x8aec53f8110  (jump table)    ;; wasm stub: ThrowWasmTrapMemOutOfBounds
0x8aec53ffbd5   395  e83685ffff           call 0x8aec53f8110  (jump table)    ;; wasm stub: ThrowWasmTrapMemOutOfBounds
0x8aec53ffbda   39a  e83185ffff           call 0x8aec53f8110  (jump table)    ;; wasm stub: ThrowWasmTrapMemOutOfBounds
0x8aec53ffbdf   39f  e82c85ffff           call 0x8aec53f8110  (jump table)    ;; wasm stub: ThrowWasmTrapMemOutOfBounds
0x8aec53ffbe4   3a4  e82785ffff           call 0x8aec53f8110  (jump table)    ;; wasm stub: ThrowWasmTrapMemOutOfBounds
0x8aec53ffbe9   3a9  e82285ffff           call 0x8aec53f8110  (jump table)    ;; wasm stub: ThrowWasmTrapMemOutOfBounds
0x8aec53ffbee   3ae  e81d85ffff           call 0x8aec53f8110  (jump table)    ;; wasm stub: ThrowWasmTrapMemOutOfBounds
0x8aec53ffbf3   3b3  e81885ffff           call 0x8aec53f8110  (jump table)    ;; wasm stub: ThrowWasmTrapMemOutOfBounds
0x8aec53ffbf8   3b8  e81385ffff           call 0x8aec53f8110  (jump table)    ;; wasm stub: ThrowWasmTrapMemOutOfBounds
0x8aec53ffbfd   3bd  e80e85ffff           call 0x8aec53f8110  (jump table)    ;; wasm stub: ThrowWasmTrapMemOutOfBounds
0x8aec53ffc02   3c2  e80985ffff           call 0x8aec53f8110  (jump table)    ;; wasm stub: ThrowWasmTrapMemOutOfBounds
0x8aec53ffc07   3c7  e80485ffff           call 0x8aec53f8110  (jump table)    ;; wasm stub: ThrowWasmTrapMemOutOfBounds
0x8aec53ffc0c   3cc  e8ff84ffff           call 0x8aec53f8110  (jump table)    ;; wasm stub: ThrowWasmTrapMemOutOfBounds
0x8aec53ffc11   3d1  e8fa84ffff           call 0x8aec53f8110  (jump table)    ;; wasm stub: ThrowWasmTrapMemOutOfBounds
0x8aec53ffc16   3d6  e8f584ffff           call 0x8aec53f8110  (jump table)    ;; wasm stub: ThrowWasmTrapMemOutOfBounds
0x8aec53ffc1b   3db  e8f084ffff           call 0x8aec53f8110  (jump table)    ;; wasm stub: ThrowWasmTrapMemOutOfBounds
0x8aec53ffc20   3e0  e8eb84ffff           call 0x8aec53f8110  (jump table)    ;; wasm stub: ThrowWasmTrapMemOutOfBounds
0x8aec53ffc25   3e5  e8e684ffff           call 0x8aec53f8110  (jump table)    ;; wasm stub: ThrowWasmTrapMemOutOfBounds
0x8aec53ffc2a   3ea  e8e184ffff           call 0x8aec53f8110  (jump table)    ;; wasm stub: ThrowWasmTrapMemOutOfBounds
0x8aec53ffc2f   3ef  e8dc84ffff           call 0x8aec53f8110  (jump table)    ;; wasm stub: ThrowWasmTrapMemOutOfBounds
0x8aec53ffc34   3f4  e8d784ffff           call 0x8aec53f8110  (jump table)    ;; wasm stub: ThrowWasmTrapMemOutOfBounds
0x8aec53ffc39   3f9  e8d284ffff           call 0x8aec53f8110  (jump table)    ;; wasm stub: ThrowWasmTrapMemOutOfBounds
0x8aec53ffc3e   3fe  e8cd84ffff           call 0x8aec53f8110  (jump table)    ;; wasm stub: ThrowWasmTrapMemOutOfBounds
0x8aec53ffc43   403  e8c884ffff           call 0x8aec53f8110  (jump table)    ;; wasm stub: ThrowWasmTrapMemOutOfBounds
0x8aec53ffc48   408  e8c384ffff           call 0x8aec53f8110  (jump table)    ;; wasm stub: ThrowWasmTrapMemOutOfBounds
0x8aec53ffc4d   40d  e8be84ffff           call 0x8aec53f8110  (jump table)    ;; wasm stub: ThrowWasmTrapMemOutOfBounds
0x8aec53ffc52   412  e8b984ffff           call 0x8aec53f8110  (jump table)    ;; wasm stub: ThrowWasmTrapMemOutOfBounds
0x8aec53ffc57   417  e8b484ffff           call 0x8aec53f8110  (jump table)    ;; wasm stub: ThrowWasmTrapMemOutOfBounds
0x8aec53ffc5c   41c  90                   nop
0x8aec53ffc5d   41d  0f1f00               nop
0x8aec53ffc60   420  8aec53ff878       jump table entry   56    ;; internal reference
0x8aec53ffc68   428  8aec53ff895       jump table entry   85    ;; internal reference
0x8aec53ffc70   430  8aec53ff8b2       jump table entry  114    ;; internal reference
0x8aec53ffc78   438  8aec53ff8cc       jump table entry  140    ;; internal reference
0x8aec53ffc80   440  8aec53ff8ec       jump table entry  172    ;; internal reference
0x8aec53ffc88   448  8aec53ff909       jump table entry  201    ;; internal reference
0x8aec53ffc90   450  8aec53ff926       jump table entry  230    ;; internal reference
0x8aec53ffc98   458  8aec53ff947       jump table entry  263    ;; internal reference
0x8aec53ffca0   460  8aec53ff965       jump table entry  293    ;; internal reference
0x8aec53ffca8   468  8aec53ff986       jump table entry  326    ;; internal reference
0x8aec53ffcb0   470  8aec53ff9a4       jump table entry  356    ;; internal reference
0x8aec53ffcb8   478  8aec53ff9c7       jump table entry  391    ;; internal reference
0x8aec53ffcc0   480  8aec53ff9e4       jump table entry  420    ;; internal reference
0x8aec53ffcc8   488  8aec53ffa07       jump table entry  455    ;; internal reference
0x8aec53ffcd0   490  8aec53ffa2a       jump table entry  490    ;; internal reference
0x8aec53ffcd8   498  8aec53ffa4a       jump table entry  522    ;; internal reference
0x8aec53ffce0   4a0  8aec53ffa67       jump table entry  551    ;; internal reference
0x8aec53ffce8   4a8  8aec53ffa8d       jump table entry  589    ;; internal reference

Protected instructions:
 pc offset  land pad
       242       2c8
       23a       2cd
       236       2d2
       229       2d7
       21e       2dc
       21a       2e1
       216       2e6
       20e       2eb
       201       2f0
       1fa       2f5
       1f6       2fa
       1ee       2ff
       1e1       304
       1dd       309
       1d9       30e
       1cb       313
       1be       318
       1ba       31d
       1b6       322
       1a8       327
       19b       32c
       197       331
       193       336
       18b       33b
       17e       340
       17a       345
       176       34a
       168       34f
       15b       354
       156       359
       152       35e
       14a       363
       13d       368
       135       36d
       131       372
       129       377
       11c       37c
       117       381
       113       386
       10b       38b
        fe       390
        f6       395
        f2       39a
        ea       39f
        dd       3a4
        d9       3a9
        d5       3ae
        cd       3b3
        c3       3b8
        bc       3bd
        b8       3c2
        b0       3c7
        a6       3cc
        a2       3d1
        9e       3d6
        90       3db
        86       3e0
        82       3e5
        7e       3ea
        76       3ef
        6c       3f4
        65       3f9
        61       3fe
        59       403
        4c       408
        48       40d
        44       412
        3c       417

Source positions:
 pc offset  position
        3c        70
        44        78
        48        85
        4c        88
        59        97
        61       105
        65       112
        6c       115
        76       124
        7e       132
        82       139
        86       142
        90       205
        9e       219
        a2       226
        a6       229
        b0       151
        b8       159
        bc       166
        c3       169
        cd       178
        d5       186
        d9       193
        dd       196
        ea       238
        f2       246
        f6       253
        fe       256
       10b       265
       113       273
       117       280
       11c       283
       129       292
       131       300
       135       307
       13d       310
       14a       319
       152       327
       156       334
       15b       337
       168       346
       176       360
       17a       367
       17e       370
       18b       379
       193       387
       197       394
       19b       397
       1a8       406
       1b6       420
       1ba       427
       1be       430
       1cb       439
       1d9       453
       1dd       460
       1e1       463
       1ee       472
       1f6       480
       1fa       487
       201       490
       20e       499
       216       507
       21a       514
       21e       517
       229       526
       236       540
       23a       547
       242       550
       286       561
       290         0
       2be       561
       2c8       550
       2cd       547
       2d2       540
       2d7       526
       2dc       517
       2e1       514
       2e6       507
       2eb       499
       2f0       490
       2f5       487
       2fa       480
       2ff       472
       304       463
       309       460
       30e       453
       313       439
       318       430
       31d       427
       322       420
       327       406
       32c       397
       331       394
       336       387
       33b       379
       340       370
       345       367
       34a       360
       34f       346
       354       337
       359       334
       35e       327
       363       319
       368       310
       36d       307
       372       300
       377       292
       37c       283
       381       280
       386       273
       38b       265
       390       256
       395       253
       39a       246
       39f       238
       3a4       196
       3a9       193
       3ae       186
       3b3       178
       3b8       169
       3bd       166
       3c2       159
       3c7       151
       3cc       229
       3d1       226
       3d6       219
       3db       205
       3e0       142
       3e5       139
       3ea       132
       3ef       124
       3f4       115
       3f9       112
       3fe       105
       403        97
       408        88
       40d        85
       412        78
       417        70

Safepoints (entries = 1, byte size = 11)
0x8aec53ffacb    28b  slots (sp->fp): 00000000

RelocInfo (size = 109)
0x8aec53ffae1  wasm stub call
0x8aec53ffaff  wasm stub call
0x8aec53ffb04  wasm stub call
0x8aec53ffb09  wasm stub call
0x8aec53ffb0e  wasm stub call
0x8aec53ffb13  wasm stub call
0x8aec53ffb18  wasm stub call
0x8aec53ffb1d  wasm stub call
0x8aec53ffb22  wasm stub call
0x8aec53ffb27  wasm stub call
0x8aec53ffb2c  wasm stub call
0x8aec53ffb31  wasm stub call
0x8aec53ffb36  wasm stub call
0x8aec53ffb3b  wasm stub call
0x8aec53ffb40  wasm stub call
0x8aec53ffb45  wasm stub call
0x8aec53ffb4a  wasm stub call
0x8aec53ffb4f  wasm stub call
0x8aec53ffb54  wasm stub call
0x8aec53ffb59  wasm stub call
0x8aec53ffb5e  wasm stub call
0x8aec53ffb63  wasm stub call
0x8aec53ffb68  wasm stub call
0x8aec53ffb6d  wasm stub call
0x8aec53ffb72  wasm stub call
0x8aec53ffb77  wasm stub call
0x8aec53ffb7c  wasm stub call
0x8aec53ffb81  wasm stub call
0x8aec53ffb86  wasm stub call
0x8aec53ffb8b  wasm stub call
0x8aec53ffb90  wasm stub call
0x8aec53ffb95  wasm stub call
0x8aec53ffb9a  wasm stub call
0x8aec53ffb9f  wasm stub call
0x8aec53ffba4  wasm stub call
0x8aec53ffba9  wasm stub call
0x8aec53ffbae  wasm stub call
0x8aec53ffbb3  wasm stub call
0x8aec53ffbb8  wasm stub call
0x8aec53ffbbd  wasm stub call
0x8aec53ffbc2  wasm stub call
0x8aec53ffbc7  wasm stub call
0x8aec53ffbcc  wasm stub call
0x8aec53ffbd1  wasm stub call
0x8aec53ffbd6  wasm stub call
0x8aec53ffbdb  wasm stub call
0x8aec53ffbe0  wasm stub call
0x8aec53ffbe5  wasm stub call
0x8aec53ffbea  wasm stub call
0x8aec53ffbef  wasm stub call
0x8aec53ffbf4  wasm stub call
0x8aec53ffbf9  wasm stub call
0x8aec53ffbfe  wasm stub call
0x8aec53ffc03  wasm stub call
0x8aec53ffc08  wasm stub call
0x8aec53ffc0d  wasm stub call
0x8aec53ffc12  wasm stub call
0x8aec53ffc17  wasm stub call
0x8aec53ffc1c  wasm stub call
0x8aec53ffc21  wasm stub call
0x8aec53ffc26  wasm stub call
0x8aec53ffc2b  wasm stub call
0x8aec53ffc30  wasm stub call
0x8aec53ffc35  wasm stub call
0x8aec53ffc3a  wasm stub call
0x8aec53ffc3f  wasm stub call
0x8aec53ffc44  wasm stub call
0x8aec53ffc49  wasm stub call
0x8aec53ffc4e  wasm stub call
0x8aec53ffc53  wasm stub call
0x8aec53ffc58  wasm stub call
0x8aec53ffc60  internal reference
0x8aec53ffc68  internal reference
0x8aec53ffc70  internal reference
0x8aec53ffc78  internal reference
0x8aec53ffc80  internal reference
0x8aec53ffc88  internal reference
0x8aec53ffc90  internal reference
0x8aec53ffc98  internal reference
0x8aec53ffca0  internal reference
0x8aec53ffca8  internal reference
0x8aec53ffcb0  internal reference
0x8aec53ffcb8  internal reference
0x8aec53ffcc0  internal reference
0x8aec53ffcc8  internal reference
0x8aec53ffcd0  internal reference
0x8aec53ffcd8  internal reference
0x8aec53ffce0  internal reference
0x8aec53ffce8  internal reference

--- End code ---
--- WebAssembly code ---
name: anonymous function
kind: wasm-to-js
Body (size = 384 = 332 + 52 padding)
Instructions (size = 312)
0x8aec5404dc0     0  55                   push rbp
0x8aec5404dc1     1  4889e5               REX.W movq rbp,rsp
0x8aec5404dc4     4  6a0a                 push 0xa
0x8aec5404dc6     6  56                   push rsi
0x8aec5404dc7     7  4883ec38             REX.W subq rsp,0x38
0x8aec5404dcb     b  8b5e0b               movl rbx,[rsi+0xb]
0x8aec5404dce     e  4903de               REX.W addq rbx,r14
0x8aec5404dd1    11  8b7e0f               movl rdi,[rsi+0xf]
0x8aec5404dd4    14  4903fe               REX.W addq rdi,r14
0x8aec5404dd7    17  488b4e03             REX.W movq rcx,[rsi+0x3]
0x8aec5404ddb    1b  4c8b4603             REX.W movq r8,[rsi+0x3]
0x8aec5404ddf    1f  4d8b8048450000       REX.W movq r8,[r8+0x4548]
0x8aec5404de6    26  41c70000000000       movl [r8],0x0
0x8aec5404ded    2d  448b470b             movl r8,[rdi+0xb]
0x8aec5404df1    31  4d03c6               REX.W addq r8,r14
0x8aec5404df4    34  488b8970010000       REX.W movq rcx,[rcx+0x170]
0x8aec5404dfb    3b  488975e8             REX.W movq [rbp-0x18],rsi
0x8aec5404dff    3f  48895de0             REX.W movq [rbp-0x20],rbx
0x8aec5404e03    43  41f6401b60           testb [r8+0x1b],0x60
0x8aec5404e08    48  0f850c000000         jnz 0x8aec5404e1a  <+0x5a>
0x8aec5404e0e    4e  448b4313             movl r8,[rbx+0x13]
0x8aec5404e12    52  4d03c6               REX.W addq r8,r14
0x8aec5404e15    55  e903000000           jmp 0x8aec5404e1d  <+0x5d>
0x8aec5404e1a    5a  4c8bc1               REX.W movq r8,rcx
0x8aec5404e1d    5d  4c8bc8               REX.W movq r9,rax
0x8aec5404e20    60  4403c8               addl r9,rax
0x8aec5404e23    63  0f805a000000         jo 0x8aec5404e83  <+0xc3>
0x8aec5404e29    69  4d63c9               REX.W movsxlq r9,r9
0x8aec5404e2c    6c  4c8bda               REX.W movq r11,rdx
0x8aec5404e2f    6f  4403da               addl r11,rdx
0x8aec5404e32    72  0f8080000000         jo 0x8aec5404eb8  <+0xf8>
0x8aec5404e38    78  4d63db               REX.W movsxlq r11,r11
0x8aec5404e3b    7b  448b670f             movl r12,[rdi+0xf]
0x8aec5404e3f    7f  4d03e6               REX.W addq r12,r14
0x8aec5404e42    82  4153                 push r11
0x8aec5404e44    84  4151                 push r9
0x8aec5404e46    86  4150                 push r8
0x8aec5404e48    88  b803000000           movl rax,0x3
0x8aec5404e4d    8d  488bd1               REX.W movq rdx,rcx
0x8aec5404e50    90  4c89e6               REX.W movq rsi,r12
0x8aec5404e53    93  8b4f17               movl rcx,[rdi+0x17]
0x8aec5404e56    96  4903ce               REX.W addq rcx,r14
0x8aec5404e59    99  488b490f             REX.W movq rcx,[rcx+0xf]
0x8aec5404e5d    9d  ffd1                 call rcx
0x8aec5404e5f    9f  a801                 test al,0x1
0x8aec5404e61    a1  0f8581000000         jnz 0x8aec5404ee8  <+0x128>
0x8aec5404e67    a7  d1f8                 sarl rax, 1
0x8aec5404e69    a9  488b5de8             REX.W movq rbx,[rbp-0x18]
0x8aec5404e6d    ad  488b5b03             REX.W movq rbx,[rbx+0x3]
0x8aec5404e71    b1  488b9b48450000       REX.W movq rbx,[rbx+0x4548]
0x8aec5404e78    b8  c70301000000         movl [rbx],0x1
0x8aec5404e7e    be  488be5               REX.W movq rsp,rbp
0x8aec5404e81    c1  5d                   pop rbp
0x8aec5404e82    c2  c3                   retl
0x8aec5404e83    c3  48897dd8             REX.W movq [rbp-0x28],rdi
0x8aec5404e87    c7  4c8945d0             REX.W movq [rbp-0x30],r8
0x8aec5404e8b    cb  48894dc0             REX.W movq [rbp-0x40],rcx
0x8aec5404e8f    cf  488955b8             REX.W movq [rbp-0x48],rdx
0x8aec5404e93    d3  e89833ffff           call 0x8aec53f8230  (jump table)    ;; wasm stub: WasmInt32ToHeapNumber
0x8aec5404e98    d8  4c8bc8               REX.W movq r9,rax
0x8aec5404e9b    db  488b75e8             REX.W movq rsi,[rbp-0x18]
0x8aec5404e9f    df  488b5de0             REX.W movq rbx,[rbp-0x20]
0x8aec5404ea3    e3  488b7dd8             REX.W movq rdi,[rbp-0x28]
0x8aec5404ea7    e7  4c8b45d0             REX.W movq r8,[rbp-0x30]
0x8aec5404eab    eb  488b4dc0             REX.W movq rcx,[rbp-0x40]
0x8aec5404eaf    ef  488b55b8             REX.W movq rdx,[rbp-0x48]
0x8aec5404eb3    f3  e974ffffff           jmp 0x8aec5404e2c  <+0x6c>
0x8aec5404eb8    f8  48897dd8             REX.W movq [rbp-0x28],rdi
0x8aec5404ebc    fc  4c8945d0             REX.W movq [rbp-0x30],r8
0x8aec5404ec0   100  4c894dc8             REX.W movq [rbp-0x38],r9
0x8aec5404ec4   104  48894dc0             REX.W movq [rbp-0x40],rcx
0x8aec5404ec8   108  488bc2               REX.W movq rax,rdx
0x8aec5404ecb   10b  e86033ffff           call 0x8aec53f8230  (jump table)    ;; wasm stub: WasmInt32ToHeapNumber
0x8aec5404ed0   110  4c8bd8               REX.W movq r11,rax
0x8aec5404ed3   113  488b7dd8             REX.W movq rdi,[rbp-0x28]
0x8aec5404ed7   117  4c8b45d0             REX.W movq r8,[rbp-0x30]
0x8aec5404edb   11b  4c8b4dc8             REX.W movq r9,[rbp-0x38]
0x8aec5404edf   11f  488b4dc0             REX.W movq rcx,[rbp-0x40]
0x8aec5404ee3   123  e953ffffff           jmp 0x8aec5404e3b  <+0x7b>
0x8aec5404ee8   128  488b75e0             REX.W movq rsi,[rbp-0x20]
0x8aec5404eec   12c  e84f33ffff           call 0x8aec53f8240  (jump table)    ;; wasm stub: WasmTaggedNonSmiToInt32
0x8aec5404ef1   131  e973ffffff           jmp 0x8aec5404e69  <+0xa9>
0x8aec5404ef6   136  90                   nop
0x8aec5404ef7   137  90                   nop

Safepoints (entries = 4, byte size = 20)
0x8aec5404e5f     9f  slots (sp->fp): 00000110
0x8aec5404e98     d8  slots (sp->fp): 00011110
0x8aec5404ed0    110  slots (sp->fp): 00111110
0x8aec5404ef1    131  slots (sp->fp): 00000010

RelocInfo (size = 5)
0x8aec5404e94  wasm stub call
0x8aec5404ecc  wasm stub call
0x8aec5404eed  wasm stub call

--- End code ---
time = 	46000
